(dp0
I1542451200
(dp1
S'skyracing_url'
p2
Vhttp://www.skyracing.com.au/index.php?component=racing&task=race&id=107886496&meetingid=105028314&Itemid=89
p3
sS'betfair_raceid'
p4
V29012092.1040
p5
sS'dat2'
p6
(dp7
S'ratings_auto'
p8
(lp9
(lp10
I1
aI4
aI3
aI2
aa(lp11
I3
aI7
aI1
aI5
aa(lp12
I3
aI1
aI5
aI2
aa(lp13
I3
aI2
aI1
aI4
aa(lp14
I1
aI5
aI3
aI4
aa(lp15
I1
aI4
aI3
aI5
aa(lp16
I1
aI4
aI3
aI2
aa(lp17
I1
aI3
aI4
aI5
aasS'horse_details'
p18
(lp19
(dp20
S'horse_name'
p21
VSO YOU DREAM
p22
sS'horse_form'
p23
Vx3215
p24
sS'rating_2'
p25
I100
sS'horse_number'
p26
I1
sS'rating_1'
p27
I100
sa(dp28
g21
VGRAND CHALLENGE
p29
sg23
V21x50
p30
sg25
I93
sg26
I2
sg27
I91
sa(dp31
g21
VDRY BISCUIT
p32
sg23
V24238
p33
sg25
I90
sg26
I3
sg27
I95
sa(dp34
g21
VNARELLE
p35
sg23
V217x1
p36
sg25
I99
sg26
I4
sg27
I98
sa(dp37
g21
VTYCOON KATE
p38
sg23
V27317
p39
sg25
I89
sg26
I5
sg27
I88
sa(dp40
g21
VATOMIC CHARGE
p41
sg23
V96906
p42
sg25
I82
sg26
I6
sg27
I79
sa(dp43
g21
VTHUMBTACKS
p44
sg23
V60675
p45
sg25
I86
sg26
I7
sg27
I84
sa(dp46
g21
VDALLAS STORM
p47
sg23
V084x5
p48
sg25
I79
sg26
I8
sg27
I76
sa(dp49
g21
VTUPELO BOY
p50
sg23
V08995
p51
sg25
I77
sg26
I9
sg27
I83
sa(dp52
g21
VMELOMANE
p53
sg23
Vx90x4
p54
sg25
I74
sg26
I10
sg27
I74
sa(dp55
g21
VTYNONG ROCKET
p56
sg23
V907x7
p57
sg25
I70
sg26
I11
sg27
I70
sasS'ratings_manual'
p58
(lp59
sssI1542435840
(dp60
g2
Vhttp://www.skyracing.com.au/index.php?component=racing&task=race&id=107886302&meetingid=105028234&Itemid=89
p61
sg4
V29012087.0624
p62
sg6
(dp63
g8
(lp64
(lp65
I5
aI3
aI11
aI2
aa(lp66
I2
aI5
aI11
aI4
aa(lp67
I2
aI11
aI5
aI16
aa(lp68
I2
aI5
aI4
aI11
aa(lp69
I2
aI11
aI5
aI4
aa(lp70
I5
aI3
aI4
aI11
aa(lp71
I3
aI5
aI11
aI2
aa(lp72
I5
aI2
aI11
aI3
aasg18
(lp73
(dp74
g21
VPOINT OF HONOUR
p75
sg23
V
p76
sg25
I86
sg26
I1
sg27
I0
sa(dp77
g21
VEVERLASTING LOVE
p78
sg23
V23x23
p79
sg25
I93
sg26
I2
sg27
I90
sa(dp80
g21
VBORAZON
p81
sg23
V3x34x
p82
sg25
I100
sg26
I3
sg27
I99
sa(dp83
g21
VI ARIZE
p84
sg23
V523x6
p85
sg25
I90
sg26
I4
sg27
I87
sa(dp86
g21
VMISS JENNY
p87
sg23
V622x5
p88
sg25
I99
sg26
I5
sg27
I100
sa(dp89
g21
VTHE SINNERMAN
p90
sg23
V6x69
p91
sg25
I72
sg26
I6
sg27
I69
sa(dp92
g21
VWALKINSHAW
p93
sg23
V6
p94
sg25
I80
sg26
I7
sg27
I78
sa(dp95
g21
VCONCAVE
p96
sg23
V0
p97
sg25
I88
sg26
I8
sg27
I84
sa(dp98
g21
VOCEAN DASH
p99
sg23
V66
p100
sg25
I74
sg26
I9
sg27
I72
sa(dp101
g21
VPRINCE OF MARS
p102
sg23
V86x
p103
sg25
I69
sg26
I10
sg27
I62
sa(dp104
g21
VSOUTHERN ROMANCE
p105
sg23
V82
p106
sg25
I96
sg26
I11
sg27
I93
sa(dp107
g21
VNOT A ZIN ZAN
p108
sg23
V0x756
p109
sg25
I77
sg26
I12
sg27
I74
sa(dp110
g21
VSALON MISS
p111
sg23
V32477
p112
sg25
I79
sg26
I13
sg27
I75
sa(dp113
g21
VSONIC POWER
p114
sg23
V76686
p115
sg25
I67
sg26
I14
sg27
I66
sa(dp116
g21
VLADY MOSSMAN
p117
sg23
V00575
p118
sg25
I65
sg26
I15
sg27
I60
sa(dp119
g21
VCHOICE CHANCE
p120
sg23
V00x82
p121
sg25
I84
sg26
I16
sg27
I80
sasg58
(lp122
sssI1542442500
(dp123
g2
Vhttp://www.skyracing.com.au/index.php?component=racing&task=race&id=107886477&meetingid=105028378&Itemid=89
p124
sg4
V29012367.0815
p125
sg6
(dp126
g8
(lp127
(lp128
I1
aI5
aI2
aI4
aa(lp129
I5
aI1
aI7
aI2
aa(lp130
I1
aI4
aI2
aI5
aa(lp131
I5
aI1
aI2
aI3
aa(lp132
I1
aI7
aI8
aI4
aa(lp133
I1
aI5
aI2
aI4
aa(lp134
I2
aI1
aI5
aI4
aa(lp135
I1
aI5
aI2
aI4
aasg18
(lp136
(dp137
g21
VNOW YOU SEE
p138
sg23
V543x1
p139
sg25
I100
sg26
I1
sg27
I100
sa(dp140
g21
VDREAM OF ASCOT
p141
sg23
Vx35x0
p142
sg25
I97
sg26
I2
sg27
I92
sa(dp143
g21
VSTRIVE TO SUCCEED
p144
sg23
V6617x
p145
sg25
I86
sg26
I3
sg27
I82
sa(dp146
g21
VMAGINOT LINE
p147
sg23
V35131
p148
sg25
I82
sg26
I4
sg27
I87
sa(dp149
g21
VTHE LAUNCHER
p150
sg23
V26443
p151
sg25
I94
sg26
I5
sg27
I99
sa(dp152
g21
VTURBO TEDDY
p153
sg23
V0x973
p154
sg25
I70
sg26
I6
sg27
I79
sa(dp155
g21
VNOOR DROPPER
p156
sg23
V28454
p157
sg25
I78
sg26
I7
sg27
I71
sa(dp158
g21
VHIDDEN SEQUEL
p159
sg23
V12931
p160
sg25
I76
sg26
I8
sg27
I73
sa(dp161
g21
VRAVELLING
p162
sg23
V206x9
p163
sg25
I64
sg26
I9
sg27
I65
sasg58
(lp164
sssI1542441900
(dp165
g2
Vhttp://www.skyracing.com.au/index.php?component=racing&task=race&id=107962024&meetingid=105028394&Itemid=89
p166
sg4
V29012404.0805
p167
sg6
(dp168
g8
(lp169
(lp170
I6
aI1
aI2
aI5
aa(lp171
I1
aI2
aI5
aI4
aa(lp172
I5
aI3
aI6
aI2
aa(lp173
I3
aI2
aI11
aI4
aa(lp174
I5
aI3
aI4
aI6
aa(lp175
I6
aI1
aI2
aI5
aa(lp176
I6
aI2
aI5
aI1
aa(lp177
I5
aI6
aI2
aI1
aasg18
(lp178
(dp179
g21
VMURPHY
p180
sg23
V84x55
p181
sg25
I90
sg26
I1
sg27
I97
sa(dp182
g21
VROSTI
p183
sg23
V8x046
p184
sg25
I99
sg26
I2
sg27
I95
sa(dp185
g21
VKARMONAARON
p186
sg23
V40937
p187
sg25
I80
sg26
I3
sg27
I84
sa(dp188
g21
VOUR BARTY
p189
sg23
V68x64
p190
sg25
I76
sg26
I4
sg27
I80
sa(dp191
g21
VTACITURN
p192
sg23
V30722
p193
sg25
I93
sg26
I5
sg27
I90
sa(dp194
g21
VLARRICONI
p195
sg23
V67213
p196
sg25
I100
sg26
I6
sg27
I100
sa(dp197
g21
VABLE KEN
p198
sg23
V85x22
p199
sg25
I78
sg26
I7
sg27
I76
sa(dp200
g21
VOUR GREAT NORTHERN
p201
sg23
V35153
p202
sg25
I89
sg26
I8
sg27
I88
sa(dp203
g21
VSTRATEGIC JEUNY
p204
sg23
V58338
p205
sg25
I73
sg26
I9
sg27
I79
sa(dp206
g21
VWINDFOLA
p207
sg23
V21967
p208
sg25
I86
sg26
I10
sg27
I74
sa(dp209
g21
VCOMPERE
p210
sg23
Vx86x3
p211
sg25
I70
sg26
I11
sg27
I71
sasg58
(lp212
sssI1542431760
(dp213
g2
Vhttp://www.skyracing.com.au/index.php?component=racing&task=race&id=107886330&meetingid=105028298&Itemid=89
p214
sg4
V29012211.0516
p215
sg6
(dp216
g8
(lp217
(lp218
I14
aI6
aI3
aI5
aa(lp219
I2
aI4
aI3
aI14
aa(lp220
I3
aI14
aI6
aI5
aa(lp221
I1
aI2
aI3
aI10
aa(lp222
I5
aI4
aI8
aI6
aa(lp223
I6
aI14
aI4
aI10
aa(lp224
I3
aI5
aI10
aI14
aa(lp225
I14
aI6
aI3
aI4
aasg18
(lp226
(dp227
g21
VSCHERZOSO
p228
sg23
Vx0068
p229
sg25
I75
sg26
I1
sg27
I78
sa(dp230
g21
VVELOX
p231
sg23
V76x06
p232
sg25
I70
sg26
I2
sg27
I73
sa(dp233
g21
VFLORAL FEVER
p234
sg23
V6x390
p235
sg25
I94
sg26
I3
sg27
I94
sa(dp236
g21
VINSTRUMENTALIST
p237
sg23
V40522
p238
sg25
I83
sg26
I4
sg27
I85
sa(dp239
g21
VOWL ON THE PROWL
p240
sg23
V91111
p241
sg25
I100
sg26
I5
sg27
I91
sa(dp242
g21
VPENNY TO SELL
p243
sg23
V0x120
p244
sg25
I92
sg26
I6
sg27
I97
sa(dp245
g21
VCHESTNUT CHARLIE
p246
sg23
V65138
p247
sg25
I78
sg26
I7
sg27
I70
sa(dp248
g21
VGOLDIE'S FORTUNE
p249
sg23
V9x581
p250
sg25
I84
sg26
I8
sg27
I83
sa(dp251
g21
VMENEGATTI
p252
sg23
V31x05
p253
sg25
I66
sg26
I9
sg27
I66
sa(dp254
g21
VNOT TO KNOW
p255
sg23
Vx6013
p256
sg25
I89
sg26
I10
sg27
I87
sa(dp257
g21
VGRACIOUS PROSPECT
p258
sg23
V42004
p259
sg25
I63
sg26
I11
sg27
I62
sa(dp260
g21
VPENTHOUSE POET
p261
sg23
V00x94
p262
sg25
I74
sg26
I12
sg27
I76
sa(dp263
g21
VTOUGH VIC
p264
sg23
Vx0741
p265
sg25
I71
sg26
I13
sg27
I69
sa(dp266
g21
VCRAFTY DEVIL
p267
sg23
V27526
p268
sg25
I99
sg26
I14
sg27
I100
sasg58
(lp269
sssI1542423060
(dp270
g2
Vhttp://www.skyracing.com.au/index.php?component=racing&task=race&id=107886326&meetingid=105028298&Itemid=89
p271
sg4
V29012211.0251
p272
sg6
(dp273
g8
(lp274
(lp275
I8
aI4
aI6
aI9
aa(lp276
I8
aI4
aI10
aI2
aa(lp277
I8
aI2
aI6
aI9
aa(lp278
I8
aI4
aI10
aI9
aa(lp279
I8
aI10
aI4
aI7
aa(lp280
I8
aI6
aI4
aI9
aa(lp281
I8
aI4
aI6
aI9
aa(lp282
I8
aI4
aI6
aI10
aasg18
(lp283
(dp284
g21
VBOOTS TARRINGTON
p285
sg23
g76
sg25
I75
sg26
I1
sg27
I0
sa(dp286
g21
VDANDY DIAMOND
p287
sg23
V8
p288
sg25
I69
sg26
I2
sg27
I79
sa(dp289
g21
VDARLAMAX
p290
sg23
g76
sg25
I84
sg26
I3
sg27
I0
sa(dp291
g21
VHAVASHOUT
p292
sg23
V4x
p293
sg25
I99
sg26
I4
sg27
I96
sa(dp294
g21
VHUMZZ
p295
sg23
g76
sg25
I63
sg26
I5
sg27
I0
sa(dp296
g21
VPUNCHBOWL
p297
sg23
V5
p298
sg25
I91
sg26
I6
sg27
I92
sa(dp299
g21
VTROPICAL THUNDER
p300
sg23
g76
sg25
I61
sg26
I7
sg27
I0
sa(dp301
g21
VHEAVENLY BRIDGES
p302
sg23
V0x2
p303
sg25
I100
sg26
I8
sg27
I100
sa(dp304
g21
VJULINDUR
p305
sg23
V7x3
p306
sg25
I87
sg26
I9
sg27
I86
sa(dp307
g21
VSTRAVAIN
p308
sg23
V8x
p309
sg25
I79
sg26
I10
sg27
I81
sasg58
(lp310
sssI1542437400
(dp311
g2
Vhttp://www.skyracing.com.au/index.php?component=racing&task=race&id=107886347&meetingid=105028458&Itemid=89
p312
sg4
V29012428.0650
p313
sg6
(dp314
g8
(lp315
(lp316
I3
aI2
aI5
aI1
aa(lp317
I1
aI4
aI6
aI3
aa(lp318
I1
aI3
aI2
aI5
aa(lp319
I2
aI1
aI6
aI3
aa(lp320
I1
aI3
aI8
aI7
aa(lp321
I1
aI3
aI2
aI7
aa(lp322
I3
aI2
aI1
aI5
aa(lp323
I1
aI3
aI2
aI6
aasg18
(lp324
(dp325
g21
VWHITE HAWK
p326
sg23
V08x31
p327
sg25
I85
sg26
I1
sg27
I80
sa(dp328
g21
VGEEGEE BLACKPRINCE
p329
sg23
Vx6013
p330
sg25
I95
sg26
I2
sg27
I95
sa(dp331
g21
VCHIEF NAVIGATOR
p332
sg23
V00x11
p333
sg25
I100
sg26
I3
sg27
I100
sa(dp334
g21
VANOTHER BROTHER
p335
sg23
V49284
p336
sg25
I80
sg26
I4
sg27
I71
sa(dp337
g21
VARGILLITE
p338
sg23
V9x442
p339
sg25
I92
sg26
I5
sg27
I94
sa(dp340
g21
VGEEGEES LILLYBET
p341
sg23
V54x24
p342
sg25
I77
sg26
I6
sg27
I66
sa(dp343
g21
VSPECIAL MOMENT
p344
sg23
Vx4016
p345
sg25
I83
sg26
I7
sg27
I76
sa(dp346
g21
VSTYLE GURU
p347
sg23
Vx8782
p348
sg25
I71
sg26
I8
sg27
I62
sasg58
(lp349
sssI1542428700
(dp350
g2
Vhttp://www.skyracing.com.au/index.php?component=racing&task=race&id=107886255&meetingid=105028282&Itemid=89
p351
sg4
V29009535.0425
p352
sg6
(dp353
g8
(lp354
(lp355
I8
aI4
aI2
aI9
aa(lp356
I1
aI4
aI2
aI3
aa(lp357
I2
aI3
aI1
aI4
aa(lp358
I4
aI2
aI3
aI1
aa(lp359
I8
aI1
aI3
aI2
aa(lp360
I8
aI4
aI2
aI9
aa(lp361
I8
aI1
aI2
aI4
aa(lp362
I4
aI2
aI8
aI1
aasg18
(lp363
(dp364
g21
VDOLLAR FOR DOLLAR
p365
sg23
V02205
p366
sg25
I96
sg26
I1
sg27
I81
sa(dp367
g21
VFASTNET TEMPEST
p368
sg23
V40229
p369
sg25
I91
sg26
I2
sg27
I94
sa(dp370
g21
VSIRCCONI
p371
sg23
Vx2310
p372
sg25
I74
sg26
I3
sg27
I73
sa(dp373
g21
VHOLY SNOW
p374
sg23
V3x605
p375
sg25
I89
sg26
I4
sg27
I95
sa(dp376
g21
VLIAPARI
p377
sg23
V000x4
p378
sg25
I71
sg26
I5
sg27
I68
sa(dp379
g21
VMAN OF HIS WORD
p380
sg23
V88x59
p381
sg25
I80
sg26
I6
sg27
I79
sa(dp382
g21
VTATOOSH
p383
sg23
Vx4265
p384
sg25
I64
sg26
I7
sg27
I71
sa(dp385
g21
VFIFTY STARS
p386
sg23
V1x221
p387
sg25
I100
sg26
I8
sg27
I100
sa(dp388
g21
VFOX HALL
p389
sg23
V37x44
p390
sg25
I83
sg26
I9
sg27
I87
sa(dp391
g21
VJEMADAR
p392
sg23
V19x26
p393
sg25
I61
sg26
I10
sg27
I60
sasg58
(lp394
sssI1542420000
(dp395
g2
Vhttp://www.skyracing.com.au/index.php?component=racing&task=race&id=107886251&meetingid=105028282&Itemid=89
p396
sg4
V29009535.0200
p397
sg6
(dp398
g8
(lp399
(lp400
I3
aI6
aI1
aI4
aa(lp401
I3
aI1
aI4
aI5
aa(lp402
I3
aI4
aI2
aI1
aa(lp403
I4
aI5
aI3
aI8
aa(lp404
I4
aI9
aI6
aI10
aa(lp405
I6
aI4
aI1
aI3
aa(lp406
I3
aI8
aI4
aI6
aa(lp407
I4
aI3
aI6
aI1
aasg18
(lp408
(dp409
g21
VVENGEUR MASQUE
p410
sg23
V40590
p411
sg25
I84
sg26
I1
sg27
I90
sa(dp412
g21
VWALL OF FIRE
p413
sg23
V0x040
p414
sg25
I88
sg26
I2
sg27
I80
sa(dp415
g21
VYOGI
p416
sg23
V26307
p417
sg25
I97
sg26
I3
sg27
I100
sa(dp418
g21
VDOUKHAN
p419
sg23
V44x26
p420
sg25
I94
sg26
I4
sg27
I87
sa(dp421
g21
VORMITO
p422
sg23
Vx6898
p423
sg25
I78
sg26
I5
sg27
I68
sa(dp424
g21
VAZURO
p425
sg23
V35213
p426
sg25
I100
sg26
I6
sg27
I93
sa(dp427
g21
VCOUGAR EXPRESS
p428
sg23
V41x85
p429
sg25
I70
sg26
I7
sg27
I73
sa(dp430
g21
VKELLSTORM
p431
sg23
V06714
p432
sg25
I92
sg26
I8
sg27
I83
sa(dp433
g21
VNOUMEA
p434
sg23
V31384
p435
sg25
I73
sg26
I9
sg27
I76
sa(dp436
g21
VGOLD MEDALS
p437
sg23
V12x02
p438
sg25
I81
sg26
I10
sg27
I70
sa(dp439
g21
VFLAAJ
p440
sg23
V77551
p441
sg25
I77
sg26
I11
sg27
I65
sasg58
(lp442
sssI1542433320
(dp443
g2
Vhttp://www.skyracing.com.au/index.php?component=racing&task=race&id=107886445&meetingid=105028394&Itemid=89
p444
sg4
V29012404.0542
p445
sg6
(dp446
g8
(lp447
(lp448
I2
aI4
aI1
aI3
aa(lp449
I1
aI4
aI5
aI2
aa(lp450
I3
aI2
aI5
aI4
aa(lp451
I1
aI4
aI2
aI3
aa(lp452
I3
aI4
aI5
aI1
aa(lp453
I4
aI1
aI2
aI3
aa(lp454
I4
aI1
aI2
aI3
aa(lp455
I4
aI1
aI2
aI3
aasg18
(lp456
(dp457
g21
VJAVA
p458
sg23
V712x7
p459
sg25
I100
sg26
I1
sg27
I93
sa(dp460
g21
VNICCOCO
p461
sg23
V512x5
p462
sg25
I90
sg26
I2
sg27
I100
sa(dp463
g21
VNEUSCHWANSTEIN
p464
sg23
V96x33
p465
sg25
I82
sg26
I3
sg27
I87
sa(dp466
g21
VMETALLIC CROWN
p467
sg23
V12916
p468
sg25
I95
sg26
I4
sg27
I96
sa(dp469
g21
VMARBEL DUKE
p470
sg23
V42x74
p471
sg25
I88
sg26
I5
sg27
I81
sasg58
(lp472
sssI1542450780
(dp473
g2
Vhttp://www.skyracing.com.au/index.php?component=racing&task=race&id=107886481&meetingid=105028378&Itemid=89
p474
sg4
V29012367.1033
p475
sg6
(dp476
g8
(lp477
(lp478
I5
aI7
aI2
aI4
aa(lp479
I4
aI7
aI2
aI6
aa(lp480
I4
aI2
aI6
aI5
aa(lp481
I4
aI7
aI2
aI6
aa(lp482
I4
aI2
aI7
aI6
aa(lp483
I4
aI7
aI5
aI2
aa(lp484
I5
aI7
aI4
aI2
aa(lp485
I4
aI7
aI2
aI5
aasg18
(lp486
(dp487
g21
VTOP SCOTT
p488
sg23
V76x
p489
sg25
I76
sg26
I1
sg27
I68
sa(dp490
g21
VUBIRR ROCK
p491
sg23
V9x93
p492
sg25
I90
sg26
I2
sg27
I92
sa(dp493
g21
VUNCLE JIM
p494
sg23
V6
p495
sg25
I84
sg26
I3
sg27
I73
sa(dp496
g21
VCONFESSIONS
p497
sg23
Vx6206
p498
sg25
I88
sg26
I4
sg27
I77
sa(dp499
g21
VMIDNIGHT MATINEE
p500
sg23
V5
p501
sg25
I100
sg26
I5
sg27
I100
sa(dp502
g21
VMIYAKO ODORI
p503
sg23
V6
p504
sg25
I80
sg26
I6
sg27
I72
sa(dp505
g21
VVANDALUSCIOUS
p506
sg23
V5544x
p507
sg25
I98
sg26
I7
sg27
I95
sasg58
(lp508
sssI1542446640
(dp509
g2
Vhttp://www.skyracing.com.au/index.php?component=racing&task=race&id=107886479&meetingid=105028378&Itemid=89
p510
sg4
V29012367.0924
p511
sg6
(dp512
g8
(lp513
(lp514
I6
aI4
aI7
aI12
aa(lp515
I6
aI7
aI16
aI4
aa(lp516
I7
aI4
aI14
aI13
aa(lp517
I6
aI16
aI7
aI4
aa(lp518
I6
aI7
aI16
aI4
aa(lp519
I6
aI4
aI7
aI12
aa(lp520
I6
aI7
aI4
aI12
aa(lp521
I6
aI7
aI4
aI16
aasg18
(lp522
(dp523
g21
VBEDAZZLE ME
p524
sg23
g76
sg25
I80
sg26
I1
sg27
I0
sa(dp525
g21
VMY SWEET LORD
p526
sg23
g76
sg25
I78
sg26
I2
sg27
I0
sa(dp527
g21
VNULLADANE
p528
sg23
g76
sg25
I77
sg26
I3
sg27
I0
sa(dp529
g21
VJACKSON STORM
p530
sg23
V4
p531
sg25
I98
sg26
I4
sg27
I98
sa(dp532
g21
VBORAKI
p533
sg23
g76
sg25
I70
sg26
I5
sg27
I0
sa(dp534
g21
VHAIKU'S WAY
p535
sg23
V2423x
p536
sg25
I100
sg26
I6
sg27
I100
sa(dp537
g21
VYAZZI JEAN
p538
sg23
V325
p539
sg25
I96
sg26
I7
sg27
I93
sa(dp540
g21
VCITRINE LOVER
p541
sg23
V0x
p542
sg25
I66
sg26
I8
sg27
I60
sa(dp543
g21
VRUN THE CUTTER
p544
sg23
g76
sg25
I86
sg26
I9
sg27
I0
sa(dp545
g21
VSMALL TOWN GIRL
p546
sg23
g76
sg25
I65
sg26
I10
sg27
I0
sa(dp547
g21
VMADDIE'S HEART
p548
sg23
V8
p549
sg25
I85
sg26
I11
sg27
I73
sa(dp550
g21
VFAT MAX
p551
sg23
V6x
p552
sg25
I94
sg26
I12
sg27
I85
sa(dp553
g21
VALTERNATE ROUTE
p554
sg23
V84
p555
sg25
I88
sg26
I13
sg27
I78
sa(dp556
g21
VJONDY JOY
p557
sg23
V48
p558
sg25
I74
sg26
I14
sg27
I72
sa(dp559
g21
VAAVAARA
p560
sg23
V00
p561
sg25
I68
sg26
I15
sg27
I68
sa(dp562
g21
VSHADYVALE STAR
p563
sg23
V4246x
p564
sg25
I92
sg26
I16
sg27
I83
sasg58
(lp565
sssI1542422580
(dp566
g2
Vhttp://www.skyracing.com.au/index.php?component=racing&task=race&id=107886370&meetingid=105028346&Itemid=89
p567
sg4
V29012417.0243
p568
sg6
(dp569
g8
(lp570
(lp571
I1
aI3
aI2
aI6
aa(lp572
I2
aI7
aI6
aI3
aa(lp573
I6
aI7
aI1
aI2
aa(lp574
I2
aI1
aI3
aI5
aa(lp575
I3
aI2
aI6
aI7
aa(lp576
I3
aI1
aI2
aI5
aa(lp577
I2
aI3
aI1
aI4
aa(lp578
I2
aI3
aI1
aI6
aasg18
(lp579
(dp580
g21
VIRON DOME
p581
sg23
V3x
p582
sg25
I94
sg26
I1
sg27
I100
sa(dp583
g21
VKORMA
p584
sg23
V2x94x
p585
sg25
I100
sg26
I2
sg27
I89
sa(dp586
g21
VZABRING
p587
sg23
V24x
p588
sg25
I95
sg26
I3
sg27
I94
sa(dp589
g21
VSHISHAQ
p590
sg23
g76
sg25
I88
sg26
I4
sg27
I0
sa(dp591
g21
VCARNECAR
p592
sg23
V7824x
p593
sg25
I78
sg26
I5
sg27
I80
sa(dp594
g21
VAWESOME MO
p595
sg23
V67x73
p596
sg25
I84
sg26
I6
sg27
I83
sa(dp597
g21
VTEMERITY
p598
sg23
V490x9
p599
sg25
I75
sg26
I7
sg27
I77
sasg58
(lp600
sssI1542444600
(dp601
g2
Vhttp://www.skyracing.com.au/index.php?component=racing&task=race&id=107886478&meetingid=105028378&Itemid=89
p602
sg4
V29012367.0850
p603
sg6
(dp604
g8
(lp605
(lp606
I1
aI11
aI2
aI4
aa(lp607
I1
aI3
aI2
aI4
aa(lp608
I1
aI3
aI2
aI11
aa(lp609
I4
aI3
aI2
aI1
aa(lp610
I1
aI3
aI8
aI11
aa(lp611
I1
aI11
aI2
aI4
aa(lp612
I4
aI1
aI11
aI5
aa(lp613
I1
aI3
aI2
aI11
aasg18
(lp614
(dp615
g21
VWOW FACTOR
p616
sg23
V21124
p617
sg25
I98
sg26
I1
sg27
I100
sa(dp618
g21
VHARADIFY
p619
sg23
V41422
p620
sg25
I89
sg26
I2
sg27
I94
sa(dp621
g21
VOAKFIELD MONARCH
p622
sg23
V83461
p623
sg25
I84
sg26
I3
sg27
I85
sa(dp624
g21
VHINCHINSTYLE
p625
sg23
V18470
p626
sg25
I100
sg26
I4
sg27
I92
sa(dp627
g21
VMR MISUNDERSTOOD
p628
sg23
V31773
p629
sg25
I92
sg26
I5
sg27
I88
sa(dp630
g21
VPANALLEY
p631
sg23
V87414
p632
sg25
I79
sg26
I6
sg27
I79
sa(dp633
g21
VJET'N'WILD
p634
sg23
V34194
p635
sg25
I77
sg26
I7
sg27
I77
sa(dp636
g21
VSHE SALUTES
p637
sg23
Vx0634
p638
sg25
I82
sg26
I8
sg27
I82
sa(dp639
g21
VD'LEEAJET
p640
sg23
V97786
p641
sg25
I71
sg26
I9
sg27
I72
sa(dp642
g21
VCASINO GOLD
p643
sg23
V57946
p644
sg25
I74
sg26
I10
sg27
I74
sa(dp645
g21
VVON RICHTER
p646
sg23
Vx6223
p647
sg25
I95
sg26
I11
sg27
I99
sasg58
(lp648
sssI1542420660
(dp649
g2
Vhttp://www.skyracing.com.au/index.php?component=racing&task=race&id=107886310&meetingid=105028410&Itemid=89
p650
sg4
V29009528.0211
p651
sg6
(dp652
g8
(lp653
(lp654
I4
aI3
aI1
aI6
aa(lp655
I1
aI3
aI7
aI2
aa(lp656
I1
aI3
aI7
aI5
aa(lp657
I8
aI6
aI1
aI3
aa(lp658
I3
aI6
aI2
aI1
aa(lp659
I6
aI4
aI1
aI3
aa(lp660
I4
aI3
aI1
aI6
aa(lp661
I3
aI1
aI6
aI4
aasg18
(lp662
(dp663
g21
VTOORAK SMOCK
p664
sg23
V5x11
p665
sg25
I97
sg26
I1
sg27
I91
sa(dp666
g21
VCHEVITE
p667
sg23
Vx1379
p668
sg25
I79
sg26
I2
sg27
I82
sa(dp669
g21
VBAYOU
p670
sg23
V32183
p671
sg25
I94
sg26
I3
sg27
I97
sa(dp672
g21
VSYMPHONETTE
p673
sg23
V26x1
p674
sg25
I100
sg26
I4
sg27
I100
sa(dp675
g21
VTENDERLY
p676
sg23
V91x46
p677
sg25
I84
sg26
I5
sg27
I77
sa(dp678
g21
VBLACK CHAMPAGNE
p679
sg23
V140x3
p680
sg25
I88
sg26
I6
sg27
I87
sa(dp681
g21
VCHEZBLACK
p682
sg23
V1x85
p683
sg25
I73
sg26
I7
sg27
I72
sa(dp684
g21
VCITY BEATS
p685
sg23
V6265x
p686
sg25
I69
sg26
I8
sg27
I69
sasg58
(lp687
(lp688
I4
aI3
aI1
aI6
aasssI1542428220
(dp689
g2
Vhttp://www.skyracing.com.au/index.php?component=racing&task=race&id=107886284&meetingid=105028330&Itemid=89
p690
sg4
V29009526.0417
p691
sg6
(dp692
g8
(lp693
(lp694
I2
aI1
aI8
aI11
aa(lp695
I1
aI8
aI10
aI2
aa(lp696
I5
aI9
aI11
aI12
aa(lp697
I1
aI9
aI2
aI8
aa(lp698
I1
aI8
aI9
aI2
aa(lp699
I1
aI8
aI2
aI11
aa(lp700
I2
aI6
aI11
aI1
aa(lp701
I1
aI8
aI2
aI9
aasg18
(lp702
(dp703
g21
VBOOMSARA
p704
sg23
V1230x
p705
sg25
I95
sg26
I1
sg27
I92
sa(dp706
g21
VZOUSTYLE
p707
sg23
V11x
p708
sg25
I100
sg26
I2
sg27
I100
sa(dp709
g21
VMITTERE
p710
sg23
Vx321x
p711
sg25
I73
sg26
I3
sg27
I71
sa(dp712
g21
VPARKO
p713
sg23
V3130x
p714
sg25
I75
sg26
I4
sg27
I74
sa(dp715
g21
VTULLIO
p716
sg23
V219x3
p717
sg25
I80
sg26
I5
sg27
I81
sa(dp718
g21
VVALARIO
p719
sg23
V1x
p720
sg25
I99
sg26
I6
sg27
I84
sa(dp721
g21
VSPEEDGUN
p722
sg23
V9x
p723
sg25
I64
sg26
I7
sg27
I62
sa(dp724
g21
VARCHER'S PARADOX
p725
sg23
V0381x
p726
sg25
I85
sg26
I8
sg27
I89
sa(dp727
g21
VCLOCKWISE
p728
sg23
V48x50
p729
sg25
I71
sg26
I9
sg27
I66
sa(dp730
g21
VSPIRIT'S CHOICE
p731
sg23
V1136x
p732
sg25
I79
sg26
I10
sg27
I68
sa(dp733
g21
VJAMI LADY
p734
sg23
V116
p735
sg25
I91
sg26
I11
sg27
I85
sa(dp736
g21
VHOLDIN' MY OWN
p737
sg23
V105x6
p738
sg25
I71
sg26
I12
sg27
I65
sa(dp739
g21
VEPIC GIRL
p740
sg23
V21
p741
sg25
I87
sg26
I13
sg27
I76
sasg58
(lp742
sssI1542419520
(dp743
g2
Vhttp://www.skyracing.com.au/index.php?component=racing&task=race&id=107886280&meetingid=105028330&Itemid=89
p744
sg4
V29009526.0152
p745
sg6
(dp746
g8
(lp747
(lp748
I4
aI2
aI5
aI1
aa(lp749
I1
aI2
aI3
aI4
aa(lp750
I3
aI4
aI5
aI2
aa(lp751
I1
aI3
aI4
aI2
aa(lp752
I5
aI1
aI4
aI3
aa(lp753
I4
aI2
aI5
aI1
aa(lp754
I1
aI4
aI3
aI5
aa(lp755
I4
aI1
aI2
aI5
aasg18
(lp756
(dp757
g21
VMORENDI
p758
sg23
V00x77
p759
sg25
I97
sg26
I1
sg27
I87
sa(dp760
g21
VVASSAL
p761
sg23
V06873
p762
sg25
I88
sg26
I2
sg27
I98
sa(dp763
g21
VMY GIULIANO
p764
sg23
V84184
p765
sg25
I82
sg26
I3
sg27
I82
sa(dp766
g21
VESTIKHRAAJ
p767
sg23
V97221
p768
sg25
I100
sg26
I4
sg27
I100
sa(dp769
g21
VSTANLEY
p770
sg23
V18322
p771
sg25
I90
sg26
I5
sg27
I90
sa(dp772
g21
VBENICO'S PRINCE
p773
sg23
V44951
p774
sg25
I78
sg26
I6
sg27
I79
sa(dp775
g21
VEVANGELIST
p776
sg23
V80x55
p777
sg25
I76
sg26
I7
sg27
I74
sasg58
(lp778
sssI1542445920
(dp779
g2
Vhttp://www.skyracing.com.au/index.php?component=racing&task=race&id=107886436&meetingid=105028426&Itemid=89
p780
sg4
V29009646.0912
p781
sg6
(dp782
g8
(lp783
(lp784
I2
aI5
aI4
aI10
aa(lp785
I3
aI1
aI8
aI7
aa(lp786
I1
aI7
aI5
aI2
aa(lp787
I1
aI8
aI3
aI2
aa(lp788
I6
aI10
aI7
aI4
aa(lp789
I3
aI2
aI11
aI10
aa(lp790
I5
aI2
aI4
aI9
aa(lp791
I1
aI3
aI2
aI7
aasg18
(lp792
(dp793
g21
VWAR GOD
p794
sg23
V60333
p795
sg25
I74
sg26
I1
sg27
I74
sa(dp796
g21
VACTION
p797
sg23
V51x22
p798
sg25
I100
sg26
I2
sg27
I100
sa(dp799
g21
VWRINKLY
p800
sg23
V196x5
p801
sg25
I83
sg26
I3
sg27
I85
sa(dp802
g21
VOLIVER'S TRAVELS
p803
sg23
Vx89x5
p804
sg25
I95
sg26
I4
sg27
I93
sa(dp805
g21
VGREAT AGAIN
p806
sg23
V11134
p807
sg25
I98
sg26
I5
sg27
I96
sa(dp808
g21
VCAPPO D'ORO
p809
sg23
V23x22
p810
sg25
I86
sg26
I6
sg27
I88
sa(dp811
g21
VFIRST AFFAIR
p812
sg23
V47313
p813
sg25
I75
sg26
I7
sg27
I78
sa(dp814
g21
VTAXAGANO
p815
sg23
V164x8
p816
sg25
I78
sg26
I8
sg27
I77
sa(dp817
g21
VFREO
p818
sg23
V25x61
p819
sg25
I89
sg26
I9
sg27
I83
sa(dp820
g21
VMIRACLE MAN
p821
sg23
V3x014
p822
sg25
I90
sg26
I10
sg27
I90
sa(dp823
g21
VNELSON'S FLIGHT
p824
sg23
Vx1693
p825
sg25
I71
sg26
I11
sg27
I72
sasg58
(lp826
sssI1542426180
(dp827
g2
Vhttp://www.skyracing.com.au/index.php?component=racing&task=race&id=107886342&meetingid=105028458&Itemid=89
p828
sg4
V29012428.0343
p829
sg6
(dp830
g8
(lp831
(lp832
I4
aI3
aI8
aI5
aa(lp833
I3
aI1
aI9
aI10
aa(lp834
I3
aI5
aI4
aI9
aa(lp835
I1
aI2
aI3
aI5
aa(lp836
I5
aI4
aI8
aI10
aa(lp837
I3
aI4
aI5
aI8
aa(lp838
I8
aI4
aI5
aI3
aa(lp839
I3
aI4
aI5
aI1
aasg18
(lp840
(dp841
g21
VGOODBYE LONESOME
p842
sg23
V1226x
p843
sg25
I83
sg26
I1
sg27
I74
sa(dp844
g21
VOUR ARTIE
p845
sg23
V4450x
p846
sg25
I89
sg26
I2
sg27
I84
sa(dp847
g21
VCITY OF DREAMS
p848
sg23
V42547
p849
sg25
I94
sg26
I3
sg27
I92
sa(dp850
g21
VFLIKPIX
p851
sg23
V105x1
p852
sg25
I98
sg26
I4
sg27
I100
sa(dp853
g21
VPARTY PLANNER
p854
sg23
Vx1149
p855
sg25
I91
sg26
I5
sg27
I88
sa(dp856
g21
VGEE GEES WILD ONE
p857
sg23
V6x772
p858
sg25
I85
sg26
I6
sg27
I77
sa(dp859
g21
VLEVISSI
p860
sg23
V4717x
p861
sg25
I74
sg26
I7
sg27
I70
sa(dp862
g21
VDIVI
p863
sg23
V2x1
p864
sg25
I100
sg26
I8
sg27
I90
sa(dp865
g21
VPONTYPAUL
p866
sg23
V33992
p867
sg25
I77
sg26
I9
sg27
I73
sa(dp868
g21
VACRONYM
p869
sg23
V3905x
p870
sg25
I79
sg26
I10
sg27
I82
sa(dp871
g21
VODESSA LAD
p872
sg23
V09663
p873
sg25
I72
sg26
I11
sg27
I66
sasg58
(lp874
sssI1542425160
(dp875
g2
Vhttp://www.skyracing.com.au/index.php?component=racing&task=race&id=107886327&meetingid=105028298&Itemid=89
p876
sg4
V29012211.0326
p877
sg6
(dp878
g8
(lp879
(lp880
I6
aI2
aI8
aI1
aa(lp881
I1
aI6
aI2
aI4
aa(lp882
I6
aI2
aI4
aI9
aa(lp883
I1
aI6
aI2
aI4
aa(lp884
I6
aI2
aI1
aI4
aa(lp885
I2
aI6
aI8
aI7
aa(lp886
I2
aI6
aI8
aI1
aa(lp887
I6
aI2
aI1
aI4
aasg18
(lp888
(dp889
g21
VDIAMOND ARROW
p890
sg23
V330x7
p891
sg25
I89
sg26
I1
sg27
I83
sa(dp892
g21
VNATURE'S DRAGON
p893
sg23
V3x8
p894
sg25
I99
sg26
I2
sg27
I95
sa(dp895
g21
VRIPPING DREAM
p896
sg23
g76
sg25
I69
sg26
I3
sg27
I0
sa(dp897
g21
VWISH I WAS ELVIS
p898
sg23
V490
p899
sg25
I73
sg26
I4
sg27
I77
sa(dp900
g21
VFRISKY MISS
p901
sg23
V880x
p902
sg25
I60
sg26
I5
sg27
I66
sa(dp903
g21
VLAOBAN TAI TAI
p904
sg23
V2x035
p905
sg25
I100
sg26
I6
sg27
I100
sa(dp906
g21
VSHIKHOVA
p907
sg23
V90x6
p908
sg25
I80
sg26
I7
sg27
I80
sa(dp909
g21
VCOVERT MISS
p910
sg23
V7x
p911
sg25
I92
sg26
I8
sg27
I88
sa(dp912
g21
VGEMROCKS
p913
sg23
V00x96
p914
sg25
I65
sg26
I9
sg27
I71
sa(dp915
g21
VOOGENBLIK
p916
sg23
g76
sg25
I83
sg26
I10
sg27
I0
sasg58
(lp917
sssI1542439500
(dp918
g2
Vhttp://www.skyracing.com.au/index.php?component=racing&task=race&id=107886433&meetingid=105028426&Itemid=89
p919
sg4
V29009646.0725
p920
sg6
(dp921
g8
(lp922
(lp923
I5
aI1
aI2
aI3
aa(lp924
I1
aI5
aI2
aI6
aa(lp925
I1
aI5
aI2
aI6
aa(lp926
I1
aI4
aI5
aI2
aa(lp927
I1
aI2
aI4
aI5
aa(lp928
I5
aI2
aI1
aI3
aa(lp929
I5
aI2
aI1
aI3
aa(lp930
I1
aI5
aI2
aI4
aasg18
(lp931
(dp932
g21
VLADY COSMOLOGY
p933
sg23
V2x341
p934
sg25
I96
sg26
I1
sg27
I97
sa(dp935
g21
VFLIRTINI
p936
sg23
V1332
p937
sg25
I93
sg26
I2
sg27
I93
sa(dp938
g21
VLEADING GIRL
p939
sg23
V115
p940
sg25
I86
sg26
I3
sg27
I89
sa(dp941
g21
VCOCKATIEL
p942
sg23
V50x72
p943
sg25
I80
sg26
I4
sg27
I84
sa(dp944
g21
VARCADIA QUEEN
p945
sg23
V113
p946
sg25
I100
sg26
I5
sg27
I100
sa(dp947
g21
VCRISTAL DANE
p948
sg23
V14288
p949
sg25
I75
sg26
I6
sg27
I70
sa(dp950
g21
VCASLAVSKA
p951
sg23
V46102
p952
sg25
I84
sg26
I7
sg27
I80
sa(dp953
g21
VPERCEIVE
p954
sg23
Vx3634
p955
sg25
I70
sg26
I8
sg27
I74
sasg58
(lp956
sssI1542430800
(dp957
g2
Vhttp://www.skyracing.com.au/index.php?component=racing&task=race&id=107886256&meetingid=105028282&Itemid=89
p958
sg4
V29009535.0500
p959
sg6
(dp960
g8
(lp961
(lp962
I12
aI3
aI4
aI5
aa(lp963
I1
aI3
aI12
aI5
aa(lp964
I3
aI12
aI5
aI7
aa(lp965
I12
aI1
aI2
aI4
aa(lp966
I12
aI5
aI4
aI1
aa(lp967
I3
aI12
aI4
aI5
aa(lp968
I3
aI12
aI2
aI1
aa(lp969
I12
aI3
aI5
aI1
aasg18
(lp970
(dp971
g21
VLONG LEAF
p972
sg23
Vx2836
p973
sg25
I91
sg26
I1
sg27
I84
sa(dp974
g21
VGOOD 'N' FAST
p975
sg23
Vx3848
p976
sg25
I94
sg26
I2
sg27
I87
sa(dp977
g21
VRINGERDINGDING
p978
sg23
V21831
p979
sg25
I100
sg26
I3
sg27
I97
sa(dp980
g21
VSCOTTISH ROGUE
p981
sg23
V32x82
p982
sg25
I88
sg26
I4
sg27
I92
sa(dp983
g21
VSECRET BLAZE
p984
sg23
V4x263
p985
sg25
I86
sg26
I5
sg27
I89
sa(dp986
g21
VSYD'S COIN
p987
sg23
V86810
p988
sg25
I73
sg26
I6
sg27
I67
sa(dp989
g21
VZOUTORI
p990
sg23
V2x145
p991
sg25
I76
sg26
I7
sg27
I77
sa(dp992
g21
VDU TO PASS
p993
sg23
Vx2221
p994
sg25
I79
sg26
I8
sg27
I79
sa(dp995
g21
VPREDECESSOR
p996
sg23
V01030
p997
sg25
I68
sg26
I9
sg27
I69
sa(dp998
g21
VIGNITER
p999
sg23
V0x818
p1000
sg25
I80
sg26
I10
sg27
I75
sa(dp1001
g21
VACHIEVE VICTORY
p1002
sg23
V33
p1003
sg25
I72
sg26
I11
sg27
I71
sa(dp1004
g21
VSEABROOK
p1005
sg23
Vx3836
p1006
sg25
I96
sg26
I12
sg27
I100
sasg58
(lp1007
sssI1542424440
(dp1008
g2
Vhttp://www.skyracing.com.au/index.php?component=racing&task=race&id=107961872&meetingid=105028234&Itemid=89
p1009
sg4
V29012087.0314
p1010
sg6
(dp1011
g8
(lp1012
(lp1013
I11
aI3
aI5
aI9
aa(lp1014
I9
aI11
aI5
aI10
aa(lp1015
I9
aI10
aI6
aI2
aa(lp1016
I5
aI11
aI9
aI10
aa(lp1017
I5
aI9
aI10
aI11
aa(lp1018
I3
aI11
aI5
aI9
aa(lp1019
I3
aI11
aI9
aI5
aa(lp1020
I9
aI11
aI5
aI3
aasg18
(lp1021
(dp1022
g21
VIRISH SONGS
p1023
sg23
V436x
p1024
sg25
I100
sg26
I1
sg27
I100
sa(dp1025
g21
VPERIGORD
p1026
sg23
g76
sg25
I82
sg26
I2
sg27
I0
sa(dp1027
g21
VSPARKS
p1028
sg23
V9x
p1029
sg25
I98
sg26
I3
sg27
I85
sa(dp1030
g21
VTICKET KEEPER
p1031
sg23
g76
sg25
I79
sg26
I4
sg27
I0
sa(dp1032
g21
VYALANJI
p1033
sg23
V3654x
p1034
sg25
I90
sg26
I5
sg27
I78
sa(dp1035
g21
VDESIGN AHEAD
p1036
sg23
V6
p1037
sg25
I84
sg26
I6
sg27
I70
sa(dp1038
g21
VJUGGANAUT
p1039
sg23
g76
sg25
I77
sg26
I7
sg27
I0
sa(dp1040
g21
VMINNEAPOLIS MISS
p1041
sg23
g76
sg25
I72
sg26
I8
sg27
I0
sa(dp1042
g21
VGEORGIA HIT
p1043
sg23
V5x358
p1044
sg25
I87
sg26
I9
sg27
I74
sa(dp1045
g21
VRUM CAKE
p1046
sg23
V00x5
p1047
sg25
I73
sg26
I10
sg27
I67
sa(dp1048
g21
VTRANSMITTER
p1049
sg23
V9x5x
p1050
sg25
I93
sg26
I11
sg27
I95
sasg58
(lp1051
sssI1542422100
(dp1052
g2
Vhttp://www.skyracing.com.au/index.php?component=racing&task=race&id=107886252&meetingid=105028282&Itemid=89
p1053
sg4
V29009535.0235
p1054
sg6
(dp1055
g8
(lp1056
(lp1057
I4
aI7
aI1
aI5
aa(lp1058
I2
aI1
aI7
aI9
aa(lp1059
I2
aI1
aI9
aI5
aa(lp1060
I2
aI1
aI14
aI5
aa(lp1061
I2
aI6
aI7
aI1
aa(lp1062
I4
aI7
aI1
aI5
aa(lp1063
I1
aI12
aI16
aI7
aa(lp1064
I2
aI1
aI7
aI4
aasg18
(lp1065
(dp1066
g21
VZIZZIS
p1067
sg23
Vx6618
p1068
sg25
I96
sg26
I1
sg27
I95
sa(dp1069
g21
VKHULAASA
p1070
sg23
V97320
p1071
sg25
I74
sg26
I2
sg27
I79
sa(dp1072
g21
VEAWASE
p1073
sg23
V1x995
p1074
sg25
I81
sg26
I3
sg27
I91
sa(dp1075
g21
VSWEET ROCKETTE
p1076
sg23
V2x142
p1077
sg25
I93
sg26
I4
sg27
I100
sa(dp1078
g21
VTAHITIAN DANCER
p1079
sg23
Vx9304
p1080
sg25
I84
sg26
I5
sg27
I93
sa(dp1081
g21
VARISTOCRATIC MISS
p1082
sg23
V57705
p1083
sg25
I68
sg26
I6
sg27
I70
sa(dp1084
g21
VINTO THE ABYSS
p1085
sg23
V9x543
p1086
sg25
I92
sg26
I7
sg27
I99
sa(dp1087
g21
VGOTTA BE GOLD
p1088
sg23
V70x11
p1089
sg25
I79
sg26
I8
sg27
I69
sa(dp1090
g21
VJEN RULES
p1091
sg23
V1x326
p1092
sg25
I86
sg26
I9
sg27
I85
sa(dp1093
g21
VPERSUADER
p1094
sg23
Vx2417
p1095
sg25
I65
sg26
I10
sg27
I67
sa(dp1096
g21
VKINGS BROOK
p1097
sg23
V14x10
p1098
sg25
I66
sg26
I11
sg27
I65
sa(dp1099
g21
VJENTICO
p1100
sg23
V11
p1101
sg25
I100
sg26
I12
sg27
I86
sa(dp1102
g21
VTATIARA
p1103
sg23
V10423
p1104
sg25
I63
sg26
I13
sg27
I63
sa(dp1105
g21
VZARGOS
p1106
sg23
V130
p1107
sg25
I89
sg26
I14
sg27
I82
sa(dp1108
g21
VREWARD THE MAID
p1109
sg23
V012
p1110
sg25
I77
sg26
I15
sg27
I76
sa(dp1111
g21
VCAMELLE
p1112
sg23
V1
p1113
sg25
I98
sg26
I16
sg27
I89
sa(dp1114
g21
VONEIRA
p1115
sg23
V3x2
p1116
sg25
I71
sg26
I17
sg27
I74
sasg58
(lp1117
sssI1542437220
(dp1118
g2
Vhttp://www.skyracing.com.au/index.php?component=racing&task=race&id=107886288&meetingid=105028330&Itemid=89
p1119
sg4
V29009526.0647
p1120
sg6
(dp1121
g8
(lp1122
(lp1123
I10
aI11
aI12
aI8
aa(lp1124
I1
aI2
aI6
aI5
aa(lp1125
I8
aI10
aI12
aI14
aa(lp1126
I4
aI2
aI1
aI7
aa(lp1127
I11
aI8
aI10
aI14
aa(lp1128
I10
aI11
aI12
aI8
aa(lp1129
I11
aI8
aI12
aI13
aa(lp1130
I10
aI11
aI8
aI1
aasg18
(lp1131
(dp1132
g21
VTUMULTUOUS
p1133
sg23
V8351x
p1134
sg25
I76
sg26
I1
sg27
I81
sa(dp1135
g21
VEMPHASIS
p1136
sg23
V070x0
p1137
sg25
I62
sg26
I2
sg27
I62
sa(dp1138
g21
VBEL BURGESS
p1139
sg23
V15714
p1140
sg25
I82
sg26
I3
sg27
I76
sa(dp1141
g21
VCAPITAL GAIN
p1142
sg23
V9000x
p1143
sg25
I73
sg26
I4
sg27
I79
sa(dp1144
g21
VJAMINZAH
p1145
sg23
V7072x
p1146
sg25
I91
sg26
I5
sg27
I87
sa(dp1147
g21
VGLENDARA
p1148
sg23
V95348
p1149
sg25
I66
sg26
I6
sg27
I66
sa(dp1150
g21
VOLD HABITS
p1151
sg23
Vx4947
p1152
sg25
I70
sg26
I7
sg27
I72
sa(dp1153
g21
VTROIS CHOIX
p1154
sg23
Vx5113
p1155
sg25
I96
sg26
I8
sg27
I94
sa(dp1156
g21
VCHILLIN WITH DYLAN
p1157
sg23
V170x0
p1158
sg25
I65
sg26
I9
sg27
I65
sa(dp1159
g21
VMAGNUFIGHTER
p1160
sg23
V635x2
p1161
sg25
I93
sg26
I10
sg27
I100
sa(dp1162
g21
VSAVWELL
p1163
sg23
V412x5
p1164
sg25
I100
sg26
I11
sg27
I98
sa(dp1165
g21
VHANG
p1166
sg23
V0x432
p1167
sg25
I98
sg26
I12
sg27
I95
sa(dp1168
g21
VEL CAMPEADOR
p1169
sg23
V27262
p1170
sg25
I88
sg26
I13
sg27
I89
sa(dp1171
g21
VDOUBLE SUPERLATIVE
p1172
sg23
Vx8361
p1173
sg25
I84
sg26
I14
sg27
I85
sa(dp1174
g21
VBODEGA NEGRA
p1175
sg23
V79364
p1176
sg25
I60
sg26
I15
sg27
I61
sa(dp1177
g21
VMONASTERIO
p1178
sg23
V798x0
p1179
sg25
I68
sg26
I16
sg27
I68
sa(dp1180
g21
VMARTINELLI
p1181
sg23
V83403
p1182
sg25
I78
sg26
I17
sg27
I75
sa(dp1183
g21
VHOTEL COSTE
p1184
sg23
V53413
p1185
sg25
I86
sg26
I18
sg27
I91
sasg58
(lp1186
sssI1542427740
(dp1187
g2
Vhttp://www.skyracing.com.au/index.php?component=racing&task=race&id=107886401&meetingid=105028362&Itemid=89
p1188
sg4
V29012093.0409
p1189
sg6
(dp1190
g8
(lp1191
(lp1192
I1
aI2
aI3
aI4
aa(lp1193
I1
aI2
aI4
aI9
aa(lp1194
I1
aI4
aI9
aI3
aa(lp1195
I1
aI2
aI3
aI4
aa(lp1196
I10
aI4
aI7
aI9
aa(lp1197
I3
aI1
aI5
aI10
aa(lp1198
I3
aI1
aI2
aI4
aa(lp1199
I1
aI4
aI2
aI3
aasg18
(lp1200
(dp1201
g21
VTHE LAUNCHER
p1202
sg23
V26443
p1203
sg25
I100
sg26
I1
sg27
I100
sa(dp1204
g21
VGORESBRIDGE
p1205
sg23
Vx685x
p1206
sg25
I92
sg26
I2
sg27
I97
sa(dp1207
g21
VFISH BURGER
p1208
sg23
V31x49
p1209
sg25
I99
sg26
I3
sg27
I86
sa(dp1210
g21
VA REAL GEM
p1211
sg23
V7x214
p1212
sg25
I93
sg26
I4
sg27
I83
sa(dp1213
g21
VTHE SCOOP
p1214
sg23
V2251x
p1215
sg25
I87
sg26
I5
sg27
I80
sa(dp1216
g21
VRED BLANKET
p1217
sg23
V16813
p1218
sg25
I82
sg26
I6
sg27
I70
sa(dp1219
g21
VAYLA'S ANGEL
p1220
sg23
V35433
p1221
sg25
I70
sg26
I7
sg27
I64
sa(dp1222
g21
VKICKSTARTER
p1223
sg23
V39315
p1224
sg25
I79
sg26
I8
sg27
I65
sa(dp1225
g21
VLA VOGLIA
p1226
sg23
V53234
p1227
sg25
I76
sg26
I9
sg27
I74
sa(dp1228
g21
VSEA PRAISE
p1229
sg23
V5x262
p1230
sg25
I84
sg26
I10
sg27
I78
sa(dp1231
g21
VDAISY PEARL
p1232
sg23
V80603
p1233
sg25
I68
sg26
I11
sg27
I62
sa(dp1234
g21
VWILD JUSTICE
p1235
sg23
Vx4525
p1236
sg25
I74
sg26
I12
sg27
I68
sa(dp1237
g21
VJABBS
p1238
sg23
V84347
p1239
sg25
I67
sg26
I13
sg27
I57
sa(dp1240
g21
VKAPACHINO MISS
p1241
sg23
V57556
p1242
sg25
I62
sg26
I14
sg27
I54
sasg58
(lp1243
sssI1542434400
(dp1244
g2
Vhttp://www.skyracing.com.au/index.php?component=racing&task=race&id=107886272&meetingid=105028218&Itemid=89
p1245
sg4
V29009527.0600
p1246
sg6
(dp1247
g8
(lp1248
(lp1249
I4
aI1
aI5
aI2
aa(lp1250
I10
aI1
aI2
aI13
aa(lp1251
I2
aI1
aI9
aI7
aa(lp1252
I6
aI1
aI11
aI2
aa(lp1253
I13
aI2
aI4
aI5
aa(lp1254
I4
aI1
aI5
aI2
aa(lp1255
I4
aI5
aI1
aI2
aa(lp1256
I1
aI2
aI4
aI5
aasg18
(lp1257
(dp1258
g21
VHUSSTERICAL
p1259
sg23
V100x2
p1260
sg25
I95
sg26
I1
sg27
I97
sa(dp1261
g21
VINVICTUM DOMINA
p1262
sg23
Vx4113
p1263
sg25
I89
sg26
I2
sg27
I90
sa(dp1264
g21
VNICCI'S GOLD
p1265
sg23
V8463x
p1266
sg25
I84
sg26
I3
sg27
I89
sa(dp1267
g21
VDEFT
p1268
sg23
V312x1
p1269
sg25
I99
sg26
I4
sg27
I100
sa(dp1270
g21
VSEASONS
p1271
sg23
Vx211x
p1272
sg25
I100
sg26
I5
sg27
I93
sa(dp1273
g21
VTARABAI
p1274
sg23
Vx4283
p1275
sg25
I76
sg26
I6
sg27
I79
sa(dp1276
g21
VEXCELLENT DESIGN
p1277
sg23
V1x178
p1278
sg25
I79
sg26
I7
sg27
I76
sa(dp1279
g21
VPIERINA
p1280
sg23
V116x7
p1281
sg25
I74
sg26
I8
sg27
I70
sa(dp1282
g21
VLEAMI ASTRAY
p1283
sg23
V15323
p1284
sg25
I70
sg26
I9
sg27
I73
sa(dp1285
g21
VNO INTEREST
p1286
sg23
V0x604
p1287
sg25
I65
sg26
I10
sg27
I67
sa(dp1288
g21
VSEAHAMPTON
p1289
sg23
V3107x
p1290
sg25
I80
sg26
I11
sg27
I82
sa(dp1291
g21
VREADY TO PROPHET
p1292
sg23
V014x
p1293
sg25
I90
sg26
I12
sg27
I86
sa(dp1294
g21
VALLITERATE
p1295
sg23
V59x62
p1296
sg25
I71
sg26
I13
sg27
I70
sasg58
(lp1297
(lp1298
I5
aI12
aI4
aI11
aasssI1542420240
(dp1299
g2
Vhttp://www.skyracing.com.au/index.php?component=racing&task=race&id=107886295&meetingid=105028234&Itemid=89
p1300
sg4
V29012087.0204
p1301
sg6
(dp1302
g8
(lp1303
(lp1304
I1
aI2
aI3
aI4
aa(lp1305
I1
aI2
aI3
aI4
aa(lp1306
I1
aI2
aI3
aI4
aa(lp1307
I1
aI2
aI3
aI4
aa(lp1308
I1
aI2
aI3
aI4
aa(lp1309
I1
aI2
aI3
aI4
aa(lp1310
I1
aI2
aI5
aI4
aa(lp1311
I1
aI2
aI3
aI4
aasg18
(lp1312
(dp1313
g21
VSTRONGER
p1314
sg23
g76
sg25
I100
sg26
I1
sg27
I0
sa(dp1315
g21
VBRAZENPINE
p1316
sg23
g76
sg25
I98
sg26
I2
sg27
I0
sa(dp1317
g21
VFREAKY FRECKLES
p1318
sg23
g76
sg25
I82
sg26
I3
sg27
I0
sa(dp1319
g21
VJUDGE'S DAUGHTER
p1320
sg23
g76
sg25
I86
sg26
I4
sg27
I0
sa(dp1321
g21
VOUTTA REACH
p1322
sg23
g76
sg25
I93
sg26
I5
sg27
I0
sasg58
(lp1323
sssI1542424680
(dp1324
g2
Vhttp://www.skyracing.com.au/index.php?component=racing&task=race&id=107886371&meetingid=105028346&Itemid=89
p1325
sg4
V29012417.0318
p1326
sg6
(dp1327
g8
(lp1328
(lp1329
I1
aI7
aI3
aI2
aa(lp1330
I3
aI4
aI5
aI1
aa(lp1331
I3
aI4
aI5
aI7
aa(lp1332
I4
aI1
aI8
aI9
aa(lp1333
I1
aI9
aI7
aI3
aa(lp1334
I1
aI7
aI3
aI2
aa(lp1335
I7
aI1
aI2
aI3
aa(lp1336
I1
aI3
aI4
aI7
aasg18
(lp1337
(dp1338
g21
VGYPSY'S TIP
p1339
sg23
V237x3
p1340
sg25
I100
sg26
I1
sg27
I100
sa(dp1341
g21
VLITTLE NIKKAS
p1342
sg23
V3
p1343
sg25
I90
sg26
I2
sg27
I88
sa(dp1344
g21
VSUPER FREAK
p1345
sg23
V27x2
p1346
sg25
I87
sg26
I3
sg27
I94
sa(dp1347
g21
VHARLIN ROSE
p1348
sg23
Vx5x25
p1349
sg25
I64
sg26
I4
sg27
I67
sa(dp1350
g21
VANGEL OF WAR
p1351
sg23
Vx5225
p1352
sg25
I79
sg26
I5
sg27
I79
sa(dp1353
g21
VCOMZALI
p1354
sg23
V5704x
p1355
sg25
I77
sg26
I6
sg27
I69
sa(dp1356
g21
VSOWHAT IMAROCKSTAR
p1357
sg23
V4x342
p1358
sg25
I99
sg26
I7
sg27
I97
sa(dp1359
g21
VRELIABLE LASS
p1360
sg23
V589x4
p1361
sg25
I72
sg26
I8
sg27
I75
sa(dp1362
g21
VMCCULLOUGH
p1363
sg23
V4532x
p1364
sg25
I84
sg26
I9
sg27
I81
sasg58
(lp1365
sssI1542439020
(dp1366
g2
Vhttp://www.skyracing.com.au/index.php?component=racing&task=race&id=107886416&meetingid=105028442&Itemid=89
p1367
sg4
V29012099.0717
p1368
sg6
(dp1369
g8
(lp1370
(lp1371
I2
aI3
aI1
aI5
aa(lp1372
I1
aI3
aI2
aI5
aa(lp1373
I1
aI2
aI5
aI3
aa(lp1374
I1
aI4
aI2
aI3
aa(lp1375
I2
aI1
aI3
aI5
aa(lp1376
I5
aI2
aI3
aI1
aa(lp1377
I2
aI3
aI5
aI1
aa(lp1378
I2
aI1
aI3
aI5
aasg18
(lp1379
(dp1380
g21
VNORTH COL
p1381
sg23
V21471
p1382
sg25
I91
sg26
I1
sg27
I91
sa(dp1383
g21
VMOSCHARD
p1384
sg23
V30221
p1385
sg25
I100
sg26
I2
sg27
I100
sa(dp1386
g21
VMAULDENS MILL
p1387
sg23
Vx5818
p1388
sg25
I97
sg26
I3
sg27
I99
sa(dp1389
g21
VATARENZA
p1390
sg23
V6100x
p1391
sg25
I82
sg26
I4
sg27
I75
sa(dp1392
g21
VDANCE MINDY DANCE
p1393
sg23
V48342
p1394
sg25
I88
sg26
I5
sg27
I79
sa(dp1395
g21
VLOSING TICKET
p1396
sg23
V0x97x
p1397
sg25
I78
sg26
I6
sg27
I72
sasg58
(lp1398
sssI1542430320
(dp1399
g2
Vhttp://www.skyracing.com.au/index.php?component=racing&task=race&id=107886285&meetingid=105028330&Itemid=89
p1400
sg4
V29009526.0452
p1401
sg6
(dp1402
g8
(lp1403
(lp1404
I5
aI18
aI2
aI4
aa(lp1405
I5
aI4
aI6
aI12
aa(lp1406
I5
aI12
aI3
aI6
aa(lp1407
I10
aI5
aI3
aI12
aa(lp1408
I8
aI5
aI6
aI3
aa(lp1409
I5
aI18
aI4
aI2
aa(lp1410
I18
aI9
aI2
aI5
aa(lp1411
I5
aI18
aI4
aI6
aasg18
(lp1412
(dp1413
g21
VALASKA
p1414
sg23
V318x0
p1415
sg25
I61
sg26
I1
sg27
I61
sa(dp1416
g21
VDESERT MAN
p1417
sg23
V93x81
p1418
sg25
I99
sg26
I2
sg27
I96
sa(dp1419
g21
VWONDER BOOM
p1420
sg23
V028x2
p1421
sg25
I70
sg26
I3
sg27
I72
sa(dp1422
g21
VBARNSLEY
p1423
sg23
Vx5433
p1424
sg25
I86
sg26
I4
sg27
I93
sa(dp1425
g21
VMUDDY ROPE
p1426
sg23
V0x932
p1427
sg25
I94
sg26
I5
sg27
I100
sa(dp1428
g21
VDESERT COWBOY
p1429
sg23
V04932
p1430
sg25
I75
sg26
I6
sg27
I73
sa(dp1431
g21
VSPIRIT AND FIRE
p1432
sg23
V9x95x
p1433
sg25
I76
sg26
I7
sg27
I76
sa(dp1434
g21
VPAPER TRADE
p1435
sg23
Vx2281
p1436
sg25
I88
sg26
I8
sg27
I88
sa(dp1437
g21
VSOUTHERN FLIGHT
p1438
sg23
V2301x
p1439
sg25
I96
sg26
I9
sg27
I79
sa(dp1440
g21
VADORADANCER
p1441
sg23
Vx62x8
p1442
sg25
I84
sg26
I10
sg27
I85
sa(dp1443
g21
VBRIGHT IDEA
p1444
sg23
V8x714
p1445
sg25
I92
sg26
I11
sg27
I91
sa(dp1446
g21
VRIOLI
p1447
sg23
V57x52
p1448
sg25
I64
sg26
I12
sg27
I65
sa(dp1449
g21
VCYMBALISM
p1450
sg23
V3152x
p1451
sg25
I81
sg26
I13
sg27
I87
sa(dp1452
g21
VWOODDITTON
p1453
sg23
V486x1
p1454
sg25
I78
sg26
I14
sg27
I82
sa(dp1455
g21
VCLOCKWISE
p1456
sg23
V48x50
p1457
sg25
I63
sg26
I15
sg27
I62
sa(dp1458
g21
VLIPS 'N HIPS
p1459
sg23
V64162
p1460
sg25
I66
sg26
I16
sg27
I67
sa(dp1461
g21
VUSURP
p1462
sg23
V18x35
p1463
sg25
I68
sg26
I17
sg27
I68
sa(dp1464
g21
VDON'T YOU KNOW HIM
p1465
sg23
V0x3x1
p1466
sg25
I100
sg26
I18
sg27
I97
sasg58
(lp1467
sssI1542421620
(dp1468
g2
Vhttp://www.skyracing.com.au/index.php?component=racing&task=race&id=107886281&meetingid=105028330&Itemid=89
p1469
sg4
V29009526.0227
p1470
sg6
(dp1471
g8
(lp1472
(lp1473
I2
aI1
aI4
aI13
aa(lp1474
I2
aI1
aI13
aI4
aa(lp1475
I2
aI1
aI13
aI4
aa(lp1476
I2
aI1
aI13
aI4
aa(lp1477
I1
aI2
aI4
aI13
aa(lp1478
I1
aI2
aI4
aI13
aa(lp1479
I2
aI1
aI4
aI7
aa(lp1480
I2
aI1
aI4
aI13
aasg18
(lp1481
(dp1482
g21
VEMBATTLED
p1483
sg23
V2
p1484
sg25
I96
sg26
I1
sg27
I94
sa(dp1485
g21
VBUTTON PUSHER
p1486
sg23
V312
p1487
sg25
I100
sg26
I2
sg27
I100
sa(dp1488
g21
VNEPTUNE'S SPEAR
p1489
sg23
g76
sg25
I83
sg26
I3
sg27
I0
sa(dp1490
g21
VPICTON
p1491
sg23
V2
p1492
sg25
I94
sg26
I4
sg27
I90
sa(dp1493
g21
VTHE WILD ONE
p1494
sg23
g76
sg25
I79
sg26
I5
sg27
I0
sa(dp1495
g21
VBETTER THAN GOLD
p1496
sg23
g76
sg25
I86
sg26
I6
sg27
I0
sa(dp1497
g21
VMISHANI BLOSSOM
p1498
sg23
g76
sg25
I90
sg26
I7
sg27
I0
sa(dp1499
g21
VOH FIVE GLORY
p1500
sg23
g76
sg25
I64
sg26
I8
sg27
I0
sa(dp1501
g21
VPEONY ROSE
p1502
sg23
g76
sg25
I71
sg26
I9
sg27
I0
sa(dp1503
g21
VVALADYIUM
p1504
sg23
g76
sg25
I73
sg26
I10
sg27
I0
sa(dp1505
g21
VVINCERE VOLARE
p1506
sg23
g76
sg25
I88
sg26
I11
sg27
I0
sa(dp1507
g21
VWISHFILLY
p1508
sg23
g76
sg25
I71
sg26
I12
sg27
I0
sa(dp1509
g21
VMISHANI ROMANCE
p1510
sg23
V4
p1511
sg25
I77
sg26
I13
sg27
I87
sasg58
(lp1512
sssI1542427260
(dp1513
g2
Vhttp://www.skyracing.com.au/index.php?component=racing&task=race&id=107886328&meetingid=105028298&Itemid=89
p1514
sg4
V29012211.0401
p1515
sg6
(dp1516
g8
(lp1517
(lp1518
I2
aI6
aI8
aI4
aa(lp1519
I1
aI3
aI4
aI2
aa(lp1520
I4
aI6
aI1
aI2
aa(lp1521
I4
aI7
aI1
aI2
aa(lp1522
I4
aI1
aI7
aI2
aa(lp1523
I6
aI2
aI8
aI4
aa(lp1524
I2
aI8
aI6
aI4
aa(lp1525
I4
aI2
aI1
aI6
aasg18
(lp1526
(dp1527
g21
VMOOT
p1528
sg23
V04708
p1529
sg25
I73
sg26
I1
sg27
I76
sa(dp1530
g21
VMR SINATRA
p1531
sg23
V040x3
p1532
sg25
I99
sg26
I2
sg27
I100
sa(dp1533
g21
VPURRFECT TRICK
p1534
sg23
V8659x
p1535
sg25
I69
sg26
I3
sg27
I70
sa(dp1536
g21
VROYAL SPINNER
p1537
sg23
V6x582
p1538
sg25
I81
sg26
I4
sg27
I84
sa(dp1539
g21
VSARKOZY
p1540
sg23
V190x6
p1541
sg25
I89
sg26
I5
sg27
I80
sa(dp1542
g21
VSASAYURI
p1543
sg23
V4x205
p1544
sg25
I94
sg26
I6
sg27
I96
sa(dp1545
g21
VVOICEOVER
p1546
sg23
V028x6
p1547
sg25
I80
sg26
I7
sg27
I78
sa(dp1548
g21
VBONTAZOLA
p1549
sg23
V1x8
p1550
sg25
I100
sg26
I8
sg27
I90
sasg58
(lp1551
sssI1542441600
(dp1552
g2
Vhttp://www.skyracing.com.au/index.php?component=racing&task=race&id=107886434&meetingid=105028426&Itemid=89
p1553
sg4
V29009646.0800
p1554
sg6
(dp1555
g8
(lp1556
(lp1557
I3
aI1
aI8
aI2
aa(lp1558
I3
aI6
aI7
aI5
aa(lp1559
I7
aI3
aI5
aI6
aa(lp1560
I6
aI4
aI7
aI3
aa(lp1561
I3
aI6
aI7
aI8
aa(lp1562
I6
aI4
aI5
aI3
aa(lp1563
I1
aI2
aI3
aI5
aa(lp1564
I3
aI6
aI7
aI4
aasg18
(lp1565
(dp1566
g21
VSCALES OF JUSTICE
p1567
sg23
V730x5
p1568
sg25
I98
sg26
I1
sg27
I99
sa(dp1569
g21
VSTATE SOLICITOR
p1570
sg23
V85x68
p1571
sg25
I92
sg26
I2
sg27
I87
sa(dp1572
g21
VDAINTY TESS
p1573
sg23
V08x11
p1574
sg25
I100
sg26
I3
sg27
I100
sa(dp1575
g21
VPROFIT STREET
p1576
sg23
V643x3
p1577
sg25
I71
sg26
I4
sg27
I70
sa(dp1578
g21
VSUPER MAXI
p1579
sg23
V21x57
p1580
sg25
I82
sg26
I5
sg27
I77
sa(dp1581
g21
VDURENDAL
p1582
sg23
V22x24
p1583
sg25
I76
sg26
I6
sg27
I78
sa(dp1584
g21
VLOCKROY
p1585
sg23
Vx1432
p1586
sg25
I80
sg26
I7
sg27
I82
sa(dp1587
g21
VBELTER
p1588
sg23
V1211x
p1589
sg25
I86
sg26
I8
sg27
I91
sasg58
(lp1590
sssI1542432960
(dp1591
g2
Vhttp://www.skyracing.com.au/index.php?component=racing&task=race&id=107886360&meetingid=105028250&Itemid=89
p1592
sg4
V29012400.0536
p1593
sg6
(dp1594
g8
(lp1595
(lp1596
I8
aI13
aI12
aI7
aa(lp1597
I2
aI5
aI6
aI9
aa(lp1598
I2
aI7
aI4
aI13
aa(lp1599
I6
aI2
aI3
aI7
aa(lp1600
I13
aI3
aI6
aI8
aa(lp1601
I8
aI13
aI7
aI12
aa(lp1602
I3
aI13
aI8
aI12
aa(lp1603
I2
aI13
aI8
aI6
aasg18
(lp1604
(dp1605
g21
VBART
p1606
sg23
V78x01
p1607
sg25
I100
sg26
I1
sg27
I97
sa(dp1608
g21
VGENTLEMAN MAX
p1609
sg23
V78493
p1610
sg25
I83
sg26
I2
sg27
I80
sa(dp1611
g21
VROMANCE CAN COSTA
p1612
sg23
V110x7
p1613
sg25
I90
sg26
I3
sg27
I85
sa(dp1614
g21
VARROWS DESTINY
p1615
sg23
V48146
p1616
sg25
I75
sg26
I4
sg27
I79
sa(dp1617
g21
VCHARCOL
p1618
sg23
V0x096
p1619
sg25
I72
sg26
I5
sg27
I64
sa(dp1620
g21
VHEYSEN
p1621
sg23
V0x694
p1622
sg25
I79
sg26
I6
sg27
I75
sa(dp1623
g21
VRUN HOFF RUN
p1624
sg23
V12185
p1625
sg25
I85
sg26
I7
sg27
I88
sa(dp1626
g21
VTRIPLE HERO
p1627
sg23
V08x71
p1628
sg25
I97
sg26
I8
sg27
I100
sa(dp1629
g21
VARDANZA
p1630
sg23
Vx9075
p1631
sg25
I71
sg26
I9
sg27
I70
sa(dp1632
g21
VBUTLER BUTLER
p1633
sg23
V00402
p1634
sg25
I74
sg26
I10
sg27
I74
sa(dp1635
g21
VGUN TRACE
p1636
sg23
V0x000
p1637
sg25
I63
sg26
I11
sg27
I63
sa(dp1638
g21
VTYRES ARE CRUCIAL
p1639
sg23
Vx5983
p1640
sg25
I88
sg26
I12
sg27
I92
sa(dp1641
g21
VMAGIC PEGASUS
p1642
sg23
V30212
p1643
sg25
I93
sg26
I13
sg27
I94
sa(dp1644
g21
VCHEW TOY
p1645
sg23
V49953
p1646
sg25
I67
sg26
I14
sg27
I68
sasg58
(lp1647
sssI1542424200
(dp1648
g2
Vhttp://www.skyracing.com.au/index.php?component=racing&task=race&id=107886253&meetingid=105028282&Itemid=89
p1649
sg4
V29009535.0310
p1650
sg6
(dp1651
g8
(lp1652
(lp1653
I4
aI6
aI5
aI3
aa(lp1654
I1
aI2
aI5
aI4
aa(lp1655
I4
aI3
aI1
aI7
aa(lp1656
I1
aI5
aI2
aI4
aa(lp1657
I5
aI4
aI8
aI2
aa(lp1658
I6
aI4
aI5
aI8
aa(lp1659
I4
aI3
aI2
aI5
aa(lp1660
I4
aI5
aI1
aI6
aasg18
(lp1661
(dp1662
g21
VTALLY
p1663
sg23
Vx5869
p1664
sg25
I70
sg26
I1
sg27
I69
sa(dp1665
g21
VTRADESMAN
p1666
sg23
V123x0
p1667
sg25
I81
sg26
I2
sg27
I76
sa(dp1668
g21
VKIWIA
p1669
sg23
V43x49
p1670
sg25
I95
sg26
I3
sg27
I88
sa(dp1671
g21
VMASK OF TIME
p1672
sg23
V97412
p1673
sg25
I100
sg26
I4
sg27
I100
sa(dp1674
g21
VBLACK ON GOLD
p1675
sg23
Vx58x4
p1676
sg25
I92
sg26
I5
sg27
I94
sa(dp1677
g21
VBRING ME ROSES
p1678
sg23
V0x742
p1679
sg25
I86
sg26
I6
sg27
I96
sa(dp1680
g21
VMURAAQEB
p1681
sg23
V31500
p1682
sg25
I62
sg26
I7
sg27
I61
sa(dp1683
g21
VRADIPOLE
p1684
sg23
Vx8895
p1685
sg25
I73
sg26
I8
sg27
I84
sa(dp1686
g21
VMAHAMEDEIS
p1687
sg23
Vx8146
p1688
sg25
I80
sg26
I9
sg27
I80
sa(dp1689
g21
VHE EKSCELS
p1690
sg23
V9x783
p1691
sg25
I64
sg26
I10
sg27
I66
sasg58
(lp1692
sssI1542419100
(dp1693
g2
Vhttp://www.skyracing.com.au/index.php?component=racing&task=race&id=107886265&meetingid=105028218&Itemid=89
p1694
sg4
V29009527.0145
p1695
sg6
(dp1696
g8
(lp1697
(lp1698
I3
aI1
aI2
aI9
aa(lp1699
I2
aI4
aI1
aI6
aa(lp1700
I4
aI7
aI3
aI8
aa(lp1701
I1
aI2
aI4
aI8
aa(lp1702
I8
aI2
aI1
aI4
aa(lp1703
I2
aI3
aI1
aI7
aa(lp1704
I3
aI1
aI7
aI2
aa(lp1705
I2
aI1
aI4
aI3
aasg18
(lp1706
(dp1707
g21
VCHESS STAR
p1708
sg23
V231x
p1709
sg25
I98
sg26
I1
sg27
I97
sa(dp1710
g21
VRONSTAR
p1711
sg23
V113x2
p1712
sg25
I90
sg26
I2
sg27
I87
sa(dp1713
g21
VROHERYN
p1714
sg23
V11
p1715
sg25
I100
sg26
I3
sg27
I100
sa(dp1716
g21
VHEART CONQUERED
p1717
sg23
V6x144
p1718
sg25
I80
sg26
I4
sg27
I73
sa(dp1719
g21
VBEIDI
p1720
sg23
V1474x
p1721
sg25
I73
sg26
I5
sg27
I76
sa(dp1722
g21
VPEMBROKE CASTLE
p1723
sg23
V7x347
p1724
sg25
I70
sg26
I6
sg27
I66
sa(dp1725
g21
VSHADOW BRIDGE
p1726
sg23
V6x11
p1727
sg25
I88
sg26
I7
sg27
I78
sa(dp1728
g21
VMISS INVINCIBLE
p1729
sg23
V4x272
p1730
sg25
I64
sg26
I8
sg27
I64
sa(dp1731
g21
VCOLOMBINA
p1732
sg23
V33x15
p1733
sg25
I84
sg26
I9
sg27
I83
sasg58
(lp1734
(lp1735
I1
aI3
aI2
aI9
aasssI1542433440
(dp1736
g2
Vhttp://www.skyracing.com.au/index.php?component=racing&task=race&id=107886301&meetingid=105028234&Itemid=89
p1737
sg4
V29012087.0544
p1738
sg6
(dp1739
g8
(lp1740
(lp1741
I10
aI1
aI8
aI4
aa(lp1742
I1
aI4
aI11
aI9
aa(lp1743
I8
aI6
aI9
aI1
aa(lp1744
I8
aI4
aI11
aI6
aa(lp1745
I8
aI9
aI6
aI1
aa(lp1746
I8
aI10
aI1
aI9
aa(lp1747
I8
aI1
aI10
aI2
aa(lp1748
I8
aI1
aI10
aI4
aasg18
(lp1749
(dp1750
g21
VHE'S A GIVEN
p1751
sg23
V72774
p1752
sg25
I90
sg26
I1
sg27
I96
sa(dp1753
g21
VUNDERGROUND
p1754
sg23
V1160x
p1755
sg25
I97
sg26
I2
sg27
I80
sa(dp1756
g21
VPORKY PIES
p1757
sg23
V3130x
p1758
sg25
I83
sg26
I3
sg27
I82
sa(dp1759
g21
VPRIMA STELLA
p1760
sg23
V09488
p1761
sg25
I87
sg26
I4
sg27
I90
sa(dp1762
g21
VRUBINO VELOCE
p1763
sg23
V414x9
p1764
sg25
I72
sg26
I5
sg27
I68
sa(dp1765
g21
VLEAVE YA NUMBA
p1766
sg23
V66123
p1767
sg25
I79
sg26
I6
sg27
I76
sa(dp1768
g21
VSENSACOVA
p1769
sg23
V900x7
p1770
sg25
I69
sg26
I7
sg27
I67
sa(dp1771
g21
VFEISTY FOX
p1772
sg23
V7x212
p1773
sg25
I100
sg26
I8
sg27
I92
sa(dp1774
g21
VBOLORD
p1775
sg23
V75533
p1776
sg25
I84
sg26
I9
sg27
I86
sa(dp1777
g21
VSOSTENIDO
p1778
sg23
V20x36
p1779
sg25
I94
sg26
I10
sg27
I100
sa(dp1780
g21
VLUCKY PROSPECTOR
p1781
sg23
V0x9x5
p1782
sg25
I73
sg26
I11
sg27
I72
sa(dp1783
g21
VMR BOOMJANGLES
p1784
sg23
V01574
p1785
sg25
I76
sg26
I12
sg27
I73
sasg58
(lp1786
sssI1542440100
(dp1787
g2
Vhttp://www.skyracing.com.au/index.php?component=racing&task=race&id=107886476&meetingid=105028378&Itemid=89
p1788
sg4
V29012367.0735
p1789
sg6
(dp1790
g8
(lp1791
(lp1792
I2
aI7
aI4
aI8
aa(lp1793
I1
aI4
aI7
aI2
aa(lp1794
I3
aI6
aI4
aI8
aa(lp1795
I3
aI6
aI2
aI4
aa(lp1796
I6
aI8
aI2
aI4
aa(lp1797
I8
aI2
aI4
aI7
aa(lp1798
I2
aI4
aI7
aI8
aa(lp1799
I2
aI4
aI6
aI8
aasg18
(lp1800
(dp1801
g21
VIRON GEORGE
p1802
sg23
V40x79
p1803
sg25
I78
sg26
I1
sg27
I82
sa(dp1804
g21
VKAY KAY BOY
p1805
sg23
V213x9
p1806
sg25
I100
sg26
I2
sg27
I100
sa(dp1807
g21
VMR CHOW
p1808
sg23
V12104
p1809
sg25
I81
sg26
I3
sg27
I79
sa(dp1810
g21
VROSIE POSIE
p1811
sg23
Vx4256
p1812
sg25
I94
sg26
I4
sg27
I90
sa(dp1813
g21
VBURNING MOUNTAIN
p1814
sg23
V61233
p1815
sg25
I70
sg26
I5
sg27
I77
sa(dp1816
g21
VJIM 'N' ANDY
p1817
sg23
Vx0536
p1818
sg25
I76
sg26
I6
sg27
I71
sa(dp1819
g21
VOCCHILUPO
p1820
sg23
V6117x
p1821
sg25
I98
sg26
I7
sg27
I95
sa(dp1822
g21
VI AM THE WARRIOR
p1823
sg23
V62112
p1824
sg25
I88
sg26
I8
sg27
I85
sa(dp1825
g21
VSELFIE
p1826
sg23
V60209
p1827
sg25
I67
sg26
I9
sg27
I68
sasg58
(lp1828
sssI1542423720
(dp1829
g2
Vhttp://www.skyracing.com.au/index.php?component=racing&task=race&id=107886282&meetingid=105028330&Itemid=89
p1830
sg4
V29009526.0302
p1831
sg6
(dp1832
g8
(lp1833
(lp1834
I1
aI3
aI6
aI2
aa(lp1835
I1
aI2
aI4
aI8
aa(lp1836
I1
aI2
aI3
aI5
aa(lp1837
I1
aI2
aI3
aI4
aa(lp1838
I8
aI1
aI3
aI4
aa(lp1839
I1
aI3
aI6
aI2
aa(lp1840
I1
aI3
aI6
aI5
aa(lp1841
I1
aI3
aI2
aI8
aasg18
(lp1842
(dp1843
g21
VLIGHT UP THE ROOM
p1844
sg23
V13x11
p1845
sg25
I100
sg26
I1
sg27
I100
sa(dp1846
g21
VPLUMARO
p1847
sg23
V87x54
p1848
sg25
I83
sg26
I2
sg27
I89
sa(dp1849
g21
VTIPPING
p1850
sg23
V46x16
p1851
sg25
I99
sg26
I3
sg27
I98
sa(dp1852
g21
VCHAMPAGNE GARDEN
p1853
sg23
V310x4
p1854
sg25
I66
sg26
I4
sg27
I70
sa(dp1855
g21
VCOASTAL BOY
p1856
sg23
Vx9031
p1857
sg25
I88
sg26
I5
sg27
I80
sa(dp1858
g21
VBAREFOOT
p1859
sg23
V252x1
p1860
sg25
I93
sg26
I6
sg27
I94
sa(dp1861
g21
VROSENDAHL RED
p1862
sg23
V2x421
p1863
sg25
I80
sg26
I7
sg27
I82
sa(dp1864
g21
VGRAND DE LAGO
p1865
sg23
V0x533
p1866
sg25
I70
sg26
I8
sg27
I74
sa(dp1867
g21
VCRAFTY SPIRIT
p1868
sg23
V0x10
p1869
sg25
I74
sg26
I9
sg27
I67
sa(dp1870
g21
VQUANYIN
p1871
sg23
V23070
p1872
sg25
I61
sg26
I10
sg27
I61
sasg58
(lp1873
sssI1542436380
(dp1874
g2
Vhttp://www.skyracing.com.au/index.php?component=racing&task=race&id=107886415&meetingid=105028442&Itemid=89
p1875
sg4
V29012099.0633
p1876
sg6
(dp1877
g8
(lp1878
(lp1879
I5
aI1
aI3
aI4
aa(lp1880
I1
aI3
aI5
aI2
aa(lp1881
I5
aI2
aI4
aI6
aa(lp1882
I4
aI1
aI2
aI5
aa(lp1883
I1
aI5
aI4
aI2
aa(lp1884
I5
aI1
aI3
aI4
aa(lp1885
I5
aI1
aI3
aI4
aa(lp1886
I5
aI1
aI4
aI3
aasg18
(lp1887
(dp1888
g21
VALL MAN
p1889
sg23
V5x85x
p1890
sg25
I96
sg26
I1
sg27
I99
sa(dp1891
g21
VLIVE FIRE
p1892
sg23
V4x426
p1893
sg25
I82
sg26
I2
sg27
I84
sa(dp1894
g21
VPIRATES MISTRESS
p1895
sg23
V5577x
p1896
sg25
I93
sg26
I3
sg27
I93
sa(dp1897
g21
VTUCEPI
p1898
sg23
V50x85
p1899
sg25
I86
sg26
I4
sg27
I85
sa(dp1900
g21
VKEEPER MEAN
p1901
sg23
V745
p1902
sg25
I100
sg26
I5
sg27
I100
sa(dp1903
g21
VFROSTY LIAISON
p1904
sg23
V47
p1905
sg25
I78
sg26
I6
sg27
I79
sasg58
(lp1906
sssI1542429360
(dp1907
g2
Vhttp://www.skyracing.com.au/index.php?component=racing&task=race&id=107886314&meetingid=105028410&Itemid=89
p1908
sg4
V29009528.0436
p1909
sg6
(dp1910
g8
(lp1911
(lp1912
I2
aI6
aI4
aI7
aa(lp1913
I3
aI5
aI2
aI4
aa(lp1914
I2
aI4
aI6
aI7
aa(lp1915
I3
aI2
aI4
aI6
aa(lp1916
I6
aI4
aI8
aI5
aa(lp1917
I2
aI6
aI4
aI8
aa(lp1918
I2
aI6
aI4
aI7
aa(lp1919
I2
aI6
aI4
aI3
aasg18
(lp1920
(dp1921
g21
VMAIL IT IN
p1922
sg23
V1520x
p1923
sg25
I79
sg26
I1
sg27
I78
sa(dp1924
g21
VTATOOSH
p1925
sg23
Vx4265
p1926
sg25
I100
sg26
I2
sg27
I100
sa(dp1927
g21
VUSTINOV'S FURY
p1928
sg23
V1x897
p1929
sg25
I70
sg26
I3
sg27
I71
sa(dp1930
g21
VHUSSYBAY
p1931
sg23
Vx6452
p1932
sg25
I92
sg26
I4
sg27
I90
sa(dp1933
g21
VEXALTED LIGHTNING
p1934
sg23
V957x0
p1935
sg25
I74
sg26
I5
sg27
I73
sa(dp1936
g21
VCHAPEL CITY
p1937
sg23
V22063
p1938
sg25
I95
sg26
I6
sg27
I99
sa(dp1939
g21
VSOARING HIGH
p1940
sg23
V1x704
p1941
sg25
I89
sg26
I7
sg27
I89
sa(dp1942
g21
VSTAR PATRIOT
p1943
sg23
V13124
p1944
sg25
I84
sg26
I8
sg27
I83
sasg58
(lp1945
(lp1946
I4
aI2
aI6
aI8
aasssI1542428340
(dp1947
g2
Vhttp://www.skyracing.com.au/index.php?component=racing&task=race&id=107886343&meetingid=105028458&Itemid=89
p1948
sg4
V29012428.0419
p1949
sg6
(dp1950
g8
(lp1951
(lp1952
I1
aI3
aI4
aI2
aa(lp1953
I3
aI1
aI2
aI4
aa(lp1954
I3
aI1
aI4
aI2
aa(lp1955
I1
aI3
aI2
aI4
aa(lp1956
I1
aI3
aI5
aI4
aa(lp1957
I1
aI3
aI4
aI2
aa(lp1958
I3
aI1
aI4
aI2
aa(lp1959
I1
aI3
aI4
aI2
aasg18
(lp1960
(dp1961
g21
VGEE GEE SECONDOVER
p1962
sg23
V222x1
p1963
sg25
I100
sg26
I1
sg27
I100
sa(dp1964
g21
VASPIRATE
p1965
sg23
V181x6
p1966
sg25
I88
sg26
I2
sg27
I85
sa(dp1967
g21
VGEE GEE QUEEN BEE
p1968
sg23
V1x110
p1969
sg25
I99
sg26
I3
sg27
I99
sa(dp1970
g21
VCLEVER CHARLOTTE
p1971
sg23
V1x155
p1972
sg25
I91
sg26
I4
sg27
I92
sa(dp1973
g21
VGEE GEE PENGALA
p1974
sg23
V17x67
p1975
sg25
I81
sg26
I5
sg27
I84
sasg58
(lp1976
sssI1542436980
(dp1977
g2
Vhttp://www.skyracing.com.au/index.php?component=racing&task=race&id=107886432&meetingid=105028426&Itemid=89
p1978
sg4
V29009646.0643
p1979
sg6
(dp1980
g8
(lp1981
(lp1982
I8
aI6
aI1
aI10
aa(lp1983
I9
aI4
aI1
aI2
aa(lp1984
I1
aI7
aI4
aI3
aa(lp1985
I1
aI2
aI4
aI3
aa(lp1986
I8
aI9
aI13
aI1
aa(lp1987
I6
aI3
aI1
aI11
aa(lp1988
I6
aI1
aI8
aI9
aa(lp1989
I1
aI8
aI6
aI9
aasg18
(lp1990
(dp1991
g21
VPINBALL WIZARD
p1992
sg23
Vx4265
p1993
sg25
I99
sg26
I1
sg27
I93
sa(dp1994
g21
VHARRY THOMAS
p1995
sg23
V5630x
p1996
sg25
I76
sg26
I2
sg27
I81
sa(dp1997
g21
VIMPERIAL VENUS
p1998
sg23
V52356
p1999
sg25
I79
sg26
I3
sg27
I50
sa(dp2000
g21
VKAAPANDER
p2001
sg23
V208x4
p2002
sg25
I72
sg26
I4
sg27
I74
sa(dp2003
g21
VFRIAR'S GIFT
p2004
sg23
V176x6
p2005
sg25
I64
sg26
I5
sg27
I45
sa(dp2006
g21
VLICKETY SPLIT
p2007
sg23
V1813x
p2008
sg25
I93
sg26
I6
sg27
I98
sa(dp2009
g21
VPRESENTATIE
p2010
sg23
Vx2259
p2011
sg25
I70
sg26
I7
sg27
I46
sa(dp2012
g21
VM'LADY
p2013
sg23
V0x141
p2014
sg25
I100
sg26
I8
sg27
I100
sa(dp2015
g21
VPATAPUS
p2016
sg23
V63632
p2017
sg25
I87
sg26
I9
sg27
I89
sa(dp2018
g21
VTRULY BELONG
p2019
sg23
V7525x
p2020
sg25
I90
sg26
I10
sg27
I92
sa(dp2021
g21
VWEST FIFTY FOURTH
p2022
sg23
V32437
p2023
sg25
I84
sg26
I11
sg27
I86
sa(dp2024
g21
VKLONDIKE KENNY
p2025
sg23
V3339x
p2026
sg25
I74
sg26
I12
sg27
I75
sa(dp2027
g21
VALTA SULL'AMORE
p2028
sg23
V030x1
p2029
sg25
I81
sg26
I13
sg27
I79
sasg58
(lp2030
sssI1542426300
(dp2031
g2
Vhttp://www.skyracing.com.au/index.php?component=racing&task=race&id=107886254&meetingid=105028282&Itemid=89
p2032
sg4
V29009535.0345
p2033
sg6
(dp2034
g8
(lp2035
(lp2036
I5
aI1
aI10
aI2
aa(lp2037
I2
aI4
aI5
aI8
aa(lp2038
I4
aI1
aI6
aI9
aa(lp2039
I5
aI8
aI1
aI4
aa(lp2040
I9
aI4
aI10
aI5
aa(lp2041
I10
aI1
aI5
aI2
aa(lp2042
I5
aI10
aI2
aI9
aa(lp2043
I5
aI1
aI4
aI10
aasg18
(lp2044
(dp2045
g21
VFIRST AMONG EQUALS
p2046
sg23
Vx6287
p2047
sg25
I90
sg26
I1
sg27
I97
sa(dp2048
g21
VRICH CHARM
p2049
sg23
V4x49x
p2050
sg25
I93
sg26
I2
sg27
I88
sa(dp2051
g21
VILLUSTRIOUS LAD
p2052
sg23
Vx05x9
p2053
sg25
I70
sg26
I3
sg27
I70
sa(dp2054
g21
VCASINO WIZARD
p2055
sg23
V7x210
p2056
sg25
I75
sg26
I4
sg27
I77
sa(dp2057
g21
VCHAMOIS ROAD
p2058
sg23
V515x2
p2059
sg25
I96
sg26
I5
sg27
I100
sa(dp2060
g21
VMISSROCK
p2061
sg23
V20x37
p2062
sg25
I85
sg26
I6
sg27
I82
sa(dp2063
g21
VFUHRYK
p2064
sg23
V00068
p2065
sg25
I83
sg26
I7
sg27
I79
sa(dp2066
g21
VSAVANNA AMOUR
p2067
sg23
V4x976
p2068
sg25
I78
sg26
I8
sg27
I71
sa(dp2069
g21
VQUILISTA
p2070
sg23
V48454
p2071
sg25
I89
sg26
I9
sg27
I86
sa(dp2072
g21
VCOOL PASSION
p2073
sg23
Vx4871
p2074
sg25
I100
sg26
I10
sg27
I93
sa(dp2075
g21
VELLICAZOOM
p2076
sg23
V7x120
p2077
sg25
I73
sg26
I11
sg27
I75
sasg58
(lp2078
sssI1542425280
(dp2079
g2
Vhttp://www.skyracing.com.au/index.php?component=racing&task=race&id=107886400&meetingid=105028362&Itemid=89
p2080
sg4
V29012093.0328
p2081
sg6
(dp2082
g8
(lp2083
(lp2084
I4
aI1
aI7
aI5
aa(lp2085
I9
aI7
aI4
aI11
aa(lp2086
I7
aI4
aI2
aI11
aa(lp2087
I4
aI7
aI9
aI11
aa(lp2088
I4
aI11
aI9
aI7
aa(lp2089
I7
aI4
aI1
aI5
aa(lp2090
I4
aI1
aI7
aI5
aa(lp2091
I4
aI7
aI9
aI11
aasg18
(lp2092
(dp2093
g21
VAXLROWS
p2094
sg23
V6x
p2095
sg25
I96
sg26
I1
sg27
I96
sa(dp2096
g21
VBUSTER MOON
p2097
sg23
V0
p2098
sg25
I76
sg26
I2
sg27
I67
sa(dp2099
g21
VDARTS
p2100
sg23
V9
p2101
sg25
I73
sg26
I3
sg27
I59
sa(dp2102
g21
VDESPIRITO
p2103
sg23
Vx4533
p2104
sg25
I100
sg26
I4
sg27
I100
sa(dp2105
g21
VPAPA JO
p2106
sg23
V6x
p2107
sg25
I90
sg26
I5
sg27
I81
sa(dp2108
g21
VSEMAPHORE GIRL
p2109
sg23
g76
sg25
I79
sg26
I6
sg27
I0
sa(dp2110
g21
VSIXTY ONE TIGERS
p2111
sg23
Vx5564
p2112
sg25
I95
sg26
I7
sg27
I88
sa(dp2113
g21
VMUDDY PUDDLE DAY
p2114
sg23
V8x
p2115
sg25
I83
sg26
I8
sg27
I72
sa(dp2116
g21
VGREY FACTOR
p2117
sg23
Vx639x
p2118
sg25
I88
sg26
I9
sg27
I80
sa(dp2119
g21
VSCHERBATSKY
p2120
sg23
V098x
p2121
sg25
I71
sg26
I10
sg27
I57
sa(dp2122
g21
VWE CALL HER LOLA
p2123
sg23
V28x00
p2124
sg25
I85
sg26
I11
sg27
I74
sasg58
(lp2125
sssI1542435360
(dp2126
g2
Vhttp://www.skyracing.com.au/index.php?component=racing&task=race&id=107886361&meetingid=105028250&Itemid=89
p2127
sg4
V29012400.0616
p2128
sg6
(dp2129
g8
(lp2130
(lp2131
I6
aI8
aI2
aI3
aa(lp2132
I10
aI1
aI2
aI3
aa(lp2133
I10
aI5
aI4
aI7
aa(lp2134
I10
aI3
aI5
aI1
aa(lp2135
I10
aI6
aI8
aI7
aa(lp2136
I8
aI2
aI3
aI6
aa(lp2137
I3
aI6
aI8
aI2
aa(lp2138
I10
aI8
aI6
aI2
aasg18
(lp2139
(dp2140
g21
VDIDNT EVEN KISS ME
p2141
sg23
V72298
p2142
sg25
I74
sg26
I1
sg27
I69
sa(dp2143
g21
VNEWTOWN IS COMING
p2144
sg23
V72x04
p2145
sg25
I89
sg26
I2
sg27
I91
sa(dp2146
g21
VLANDMINE
p2147
sg23
V4113x
p2148
sg25
I100
sg26
I3
sg27
I86
sa(dp2149
g21
VGASWORX
p2150
sg23
V775x6
p2151
sg25
I83
sg26
I4
sg27
I75
sa(dp2152
g21
VLIGHTHOUSE
p2153
sg23
Vx0476
p2154
sg25
I78
sg26
I5
sg27
I71
sa(dp2155
g21
VCLASSIC CONQUEST
p2156
sg23
V54x23
p2157
sg25
I97
sg26
I6
sg27
I100
sa(dp2158
g21
VEXCEPTIONAL RHYTHM
p2159
sg23
V410x1
p2160
sg25
I90
sg26
I7
sg27
I81
sa(dp2161
g21
VFOXLIKE
p2162
sg23
V2322x
p2163
sg25
I94
sg26
I8
sg27
I92
sa(dp2164
g21
VALL AFLUTTER
p2165
sg23
V70338
p2166
sg25
I62
sg26
I9
sg27
I59
sa(dp2167
g21
VBENNO'S BOY
p2168
sg23
V34822
p2169
sg25
I86
sg26
I10
sg27
I84
sa(dp2170
g21
VSAINT AQUILINA
p2171
sg23
V65096
p2172
sg25
I68
sg26
I11
sg27
I64
sa(dp2173
g21
VI'M A PRIMA DONNA
p2174
sg23
Vx81x4
p2175
sg25
I77
sg26
I12
sg27
I76
sa(dp2176
g21
VCOBRA KAI
p2177
sg23
V16530
p2178
sg25
I70
sg26
I13
sg27
I66
sa(dp2179
g21
VEMERALD ICE
p2180
sg23
V85693
p2181
sg25
I64
sg26
I14
sg27
I60
sa(dp2182
g21
VWHISKEY BUSINESS
p2183
sg23
V08388
p2184
sg25
I61
sg26
I15
sg27
I57
sasg58
(lp2185
sssI1542438600
(dp2186
g2
Vhttp://www.skyracing.com.au/index.php?component=racing&task=race&id=107886490&meetingid=105028314&Itemid=89
p2187
sg4
V29012092.0710
p2188
sg6
(dp2189
g8
(lp2190
(lp2191
I8
aI7
aI3
aI9
aa(lp2192
I3
aI8
aI1
aI4
aa(lp2193
I3
aI8
aI1
aI7
aa(lp2194
I3
aI1
aI8
aI4
aa(lp2195
I3
aI8
aI7
aI9
aa(lp2196
I7
aI8
aI3
aI9
aa(lp2197
I8
aI7
aI3
aI9
aa(lp2198
I3
aI8
aI7
aI1
aasg18
(lp2199
(dp2200
g21
VCOSMIC SCOOP
p2201
sg23
V60x45
p2202
sg25
I80
sg26
I1
sg27
I74
sa(dp2203
g21
VELECTROPOP
p2204
sg23
V0767
p2205
sg25
I64
sg26
I2
sg27
I59
sa(dp2206
g21
VFOOT FOOT
p2207
sg23
V39084
p2208
sg25
I86
sg26
I3
sg27
I84
sa(dp2209
g21
VKILLA MOOVZ
p2210
sg23
V83075
p2211
sg25
I74
sg26
I4
sg27
I70
sa(dp2212
g21
VLOPE DE FIELD
p2213
sg23
V23924
p2214
sg25
I100
sg26
I5
sg27
I100
sa(dp2215
g21
VREBECCA
p2216
sg23
Vx6907
p2217
sg25
I70
sg26
I6
sg27
I66
sa(dp2218
g21
VEXCEEDINGLY EASY
p2219
sg23
V0x52
p2220
sg25
I91
sg26
I7
sg27
I86
sa(dp2221
g21
VMANDAYANA
p2222
sg23
V59x33
p2223
sg25
I97
sg26
I8
sg27
I98
sa(dp2224
g21
VPIERRLESS
p2225
sg23
V40x84
p2226
sg25
I81
sg26
I9
sg27
I76
sasg58
(lp2227
sssI1542426060
(dp2228
g2
Vhttp://www.skyracing.com.au/index.php?component=racing&task=race&id=107961932&meetingid=105028250&Itemid=89
p2229
sg4
V29012400.0341
p2230
sg6
(dp2231
g8
(lp2232
(lp2233
I6
aI5
aI7
aI4
aa(lp2234
I1
aI4
aI5
aI7
aa(lp2235
I7
aI6
aI5
aI2
aa(lp2236
I4
aI1
aI6
aI5
aa(lp2237
I5
aI6
aI7
aI4
aa(lp2238
I7
aI5
aI6
aI4
aa(lp2239
I6
aI5
aI7
aI4
aa(lp2240
I6
aI5
aI7
aI4
aasg18
(lp2241
(dp2242
g21
VJINDABERRA
p2243
sg23
V5x754
p2244
sg25
I86
sg26
I1
sg27
I84
sa(dp2245
g21
VRISING FORCE
p2246
sg23
Vx9819
p2247
sg25
I79
sg26
I2
sg27
I78
sa(dp2248
g21
VTEMPERS FLARE
p2249
sg23
V77292
p2250
sg25
I88
sg26
I3
sg27
I92
sa(dp2251
g21
VHONORARY MISS
p2252
sg23
V286x5
p2253
sg25
I92
sg26
I4
sg27
I89
sa(dp2254
g21
VROYAL PARADE
p2255
sg23
V6x613
p2256
sg25
I96
sg26
I5
sg27
I98
sa(dp2257
g21
VSEPULCHRE
p2258
sg23
V891
p2259
sg25
I100
sg26
I6
sg27
I100
sa(dp2260
g21
VHAJDUK
p2261
sg23
V5x632
p2262
sg25
I95
sg26
I7
sg27
I95
sa(dp2263
g21
VLAIKA BOOM
p2264
sg23
V7x558
p2265
sg25
I73
sg26
I8
sg27
I73
sa(dp2266
g21
VSARGE BRIGARDE
p2267
sg23
V09x08
p2268
sg25
I72
sg26
I9
sg27
I72
sa(dp2269
g21
VHIGH STREET
p2270
sg23
V483
p2271
sg25
I76
sg26
I10
sg27
I75
sa(dp2272
g21
VSISTER HAZEL
p2273
sg23
V64562
p2274
sg25
I81
sg26
I11
sg27
I80
sa(dp2275
g21
VTENNESSEE DANCER
p2276
sg23
V98598
p2277
sg25
I68
sg26
I12
sg27
I68
sa(dp2278
g21
VACCELLAR RAIDER
p2279
sg23
V5005
p2280
sg25
I66
sg26
I13
sg27
I66
sasg58
(lp2281
sssI1542429900
(dp2282
g2
Vhttp://www.skyracing.com.au/index.php?component=racing&task=race&id=107886270&meetingid=105028218&Itemid=89
p2283
sg4
V29009527.0445
p2284
sg6
(dp2285
g8
(lp2286
(lp2287
I1
aI12
aI7
aI11
aa(lp2288
I2
aI1
aI3
aI4
aa(lp2289
I2
aI1
aI3
aI6
aa(lp2290
I1
aI3
aI6
aI9
aa(lp2291
I9
aI12
aI11
aI7
aa(lp2292
I1
aI12
aI11
aI9
aa(lp2293
I1
aI12
aI11
aI2
aa(lp2294
I1
aI12
aI2
aI3
aasg18
(lp2295
(dp2296
g21
VJUST DREAMING
p2297
sg23
V30x35
p2298
sg25
I100
sg26
I1
sg27
I100
sa(dp2299
g21
VSUNCRAZE
p2300
sg23
Vx0320
p2301
sg25
I92
sg26
I2
sg27
I84
sa(dp2302
g21
VSOUCHEZ
p2303
sg23
V68444
p2304
sg25
I83
sg26
I3
sg27
I79
sa(dp2305
g21
VTHE GETAWAY
p2306
sg23
V4145x
p2307
sg25
I72
sg26
I4
sg27
I71
sa(dp2308
g21
VBETTER NOT BLUE
p2309
sg23
V3x076
p2310
sg25
I69
sg26
I5
sg27
I71
sa(dp2311
g21
VDROCHAID
p2312
sg23
V4x767
p2313
sg25
I86
sg26
I6
sg27
I81
sa(dp2314
g21
VDISSOLUTION
p2315
sg23
V6x002
p2316
sg25
I78
sg26
I7
sg27
I95
sa(dp2317
g21
VMUTARAKEM
p2318
sg23
V1095x
p2319
sg25
I75
sg26
I8
sg27
I76
sa(dp2320
g21
VARRAIGNMENT
p2321
sg23
V63382
p2322
sg25
I87
sg26
I9
sg27
I89
sa(dp2323
g21
VLE JUGE
p2324
sg23
V858x7
p2325
sg25
I74
sg26
I10
sg27
I73
sa(dp2326
g21
VNOTIO
p2327
sg23
V135x5
p2328
sg25
I95
sg26
I11
sg27
I92
sa(dp2329
g21
VWATCHDOG
p2330
sg23
Vx2132
p2331
sg25
I96
sg26
I12
sg27
I97
sasg58
(lp2332
(lp2333
I11
aI9
aI12
aI2
aasssI1542421200
(dp2334
g2
Vhttp://www.skyracing.com.au/index.php?component=racing&task=race&id=107886266&meetingid=105028218&Itemid=89
p2335
sg4
V29009527.0220
p2336
sg6
(dp2337
g8
(lp2338
(lp2339
I6
aI5
aI1
aI2
aa(lp2340
I1
aI2
aI3
aI5
aa(lp2341
I2
aI5
aI4
aI1
aa(lp2342
I1
aI3
aI2
aI5
aa(lp2343
I5
aI6
aI4
aI3
aa(lp2344
I5
aI6
aI1
aI2
aa(lp2345
I2
aI5
aI6
aI1
aa(lp2346
I5
aI1
aI2
aI6
aasg18
(lp2347
(dp2348
g21
VVASSAL
p2349
sg23
V06873
p2350
sg25
I89
sg26
I1
sg27
I93
sa(dp2351
g21
VMY GIULIANO
p2352
sg23
V84184
p2353
sg25
I90
sg26
I2
sg27
I88
sa(dp2354
g21
VSHERLOCK HOLMES
p2355
sg23
V14x00
p2356
sg25
I81
sg26
I3
sg27
I79
sa(dp2357
g21
VNOUMEA
p2358
sg23
V31384
p2359
sg25
I80
sg26
I4
sg27
I81
sa(dp2360
g21
VTAMARACK
p2361
sg23
V23613
p2362
sg25
I100
sg26
I5
sg27
I96
sa(dp2363
g21
VSOLO MISSION
p2364
sg23
V3x364
p2365
sg25
I95
sg26
I6
sg27
I100
sa(dp2366
g21
VTHE BANDIT
p2367
sg23
Vx6952
p2368
sg25
I75
sg26
I7
sg27
I76
sa(dp2369
g21
VCASIRAGHI
p2370
sg23
V00909
p2371
sg25
I72
sg26
I8
sg27
I72
sasg58
(lp2372
(lp2373
I5
aI6
aI4
aI7
aasssI1542439800
(dp2374
g2
Vhttp://www.skyracing.com.au/index.php?component=racing&task=race&id=107886448&meetingid=105028394&Itemid=89
p2375
sg4
V29012404.0730
p2376
sg6
(dp2377
g8
(lp2378
(lp2379
I2
aI1
aI3
aI6
aa(lp2380
I1
aI7
aI2
aI3
aa(lp2381
I2
aI9
aI7
aI1
aa(lp2382
I3
aI1
aI2
aI6
aa(lp2383
I2
aI1
aI6
aI3
aa(lp2384
I2
aI1
aI6
aI3
aa(lp2385
I3
aI1
aI2
aI7
aa(lp2386
I2
aI1
aI3
aI6
aasg18
(lp2387
(dp2388
g21
VSON OF A FLING
p2389
sg23
V467x8
p2390
sg25
I94
sg26
I1
sg27
I99
sa(dp2391
g21
VMELANION
p2392
sg23
V54163
p2393
sg25
I95
sg26
I2
sg27
I100
sa(dp2394
g21
VMADAME DUPORTH
p2395
sg23
V83x64
p2396
sg25
I100
sg26
I3
sg27
I92
sa(dp2397
g21
VSANT ANGELO
p2398
sg23
V498x
p2399
sg25
I64
sg26
I4
sg27
I68
sa(dp2400
g21
VWAWRINKA
p2401
sg23
V44326
p2402
sg25
I78
sg26
I5
sg27
I78
sa(dp2403
g21
VEDGE OF CHAOS
p2404
sg23
V43337
p2405
sg25
I83
sg26
I6
sg27
I89
sa(dp2406
g21
VFLINDERS BEACH
p2407
sg23
V475x2
p2408
sg25
I88
sg26
I7
sg27
I81
sa(dp2409
g21
VFOXY LULU
p2410
sg23
V60444
p2411
sg25
I71
sg26
I8
sg27
I72
sa(dp2412
g21
VFROM FIFTH
p2413
sg23
V33858
p2414
sg25
I73
sg26
I9
sg27
I75
sasg58
(lp2415
sssI1542426780
(dp2416
g2
Vhttp://www.skyracing.com.au/index.php?component=racing&task=race&id=107961947&meetingid=105028346&Itemid=89
p2417
sg4
V29012417.0353
p2418
sg6
(dp2419
g8
(lp2420
(lp2421
I3
aI8
aI5
aI2
aa(lp2422
I8
aI2
aI3
aI7
aa(lp2423
I8
aI2
aI3
aI7
aa(lp2424
I8
aI1
aI3
aI9
aa(lp2425
I3
aI7
aI2
aI8
aa(lp2426
I5
aI3
aI2
aI8
aa(lp2427
I3
aI2
aI5
aI8
aa(lp2428
I3
aI8
aI2
aI5
aasg18
(lp2429
(dp2430
g21
VTHE DEMTEL MAN
p2431
sg23
V50
p2432
sg25
I78
sg26
I1
sg27
I66
sa(dp2433
g21
VCHAMBERLAIN
p2434
sg23
V60042
p2435
sg25
I97
sg26
I2
sg27
I77
sa(dp2436
g21
VTOP LUCK
p2437
sg23
Vx4532
p2438
sg25
I100
sg26
I3
sg27
I100
sa(dp2439
g21
VROYAL YACHT
p2440
sg23
V9x098
p2441
sg25
I68
sg26
I4
sg27
I49
sa(dp2442
g21
VLANZOFFANY
p2443
sg23
V50x75
p2444
sg25
I88
sg26
I5
sg27
I82
sa(dp2445
g21
VWISHBEATS
p2446
sg23
V07
p2447
sg25
I72
sg26
I6
sg27
I60
sa(dp2448
g21
VLILIERO
p2449
sg23
V00x46
p2450
sg25
I77
sg26
I7
sg27
I72
sa(dp2451
g21
VUBER MOVER
p2452
sg23
V49204
p2453
sg25
I90
sg26
I8
sg27
I95
sa(dp2454
g21
VIBERIAN LACE
p2455
sg23
V69735
p2456
sg25
I83
sg26
I9
sg27
I64
sa(dp2457
g21
VLOCUST
p2458
sg23
V0997
p2459
sg25
I60
sg26
I10
sg27
I54
sasg58
(lp2460
sssI1542443220
(dp2461
g2
Vhttp://www.skyracing.com.au/index.php?component=racing&task=race&id=107886418&meetingid=105028442&Itemid=89
p2462
sg4
V29012099.0827
p2463
sg6
(dp2464
g8
(lp2465
(lp2466
I2
aI1
aI3
aI7
aa(lp2467
I5
aI1
aI2
aI3
aa(lp2468
I1
aI2
aI3
aI4
aa(lp2469
I2
aI1
aI3
aI5
aa(lp2470
I6
aI1
aI2
aI3
aa(lp2471
I1
aI3
aI2
aI7
aa(lp2472
I2
aI1
aI3
aI5
aa(lp2473
I1
aI2
aI3
aI5
aasg18
(lp2474
(dp2475
g21
VFOXY ROYALE
p2476
sg23
V24322
p2477
sg25
I98
sg26
I1
sg27
I95
sa(dp2478
g21
VSAMMY THE BOSS
p2479
sg23
V5x167
p2480
sg25
I100
sg26
I2
sg27
I100
sa(dp2481
g21
VTIP AND RUN
p2482
sg23
V3134x
p2483
sg25
I90
sg26
I3
sg27
I91
sa(dp2484
g21
VHIT TUNE
p2485
sg23
V8057x
p2486
sg25
I79
sg26
I4
sg27
I82
sa(dp2487
g21
VSCOTTY TOO HOTTY
p2488
sg23
Vx047x
p2489
sg25
I88
sg26
I5
sg27
I79
sa(dp2490
g21
VSOUTHERN WARRIOR
p2491
sg23
V3580x
p2492
sg25
I74
sg26
I6
sg27
I74
sa(dp2493
g21
VTRUTH AND LIES
p2494
sg23
V3344x
p2495
sg25
I84
sg26
I7
sg27
I85
sa(dp2496
g21
VDELLAVEDOVA
p2497
sg23
V7008x
p2498
sg25
I69
sg26
I8
sg27
I70
sasg58
(lp2499
sssI1542434520
(dp2500
g2
Vhttp://www.skyracing.com.au/index.php?component=racing&task=race&id=107886404&meetingid=105028362&Itemid=89
p2501
sg4
V29012093.0602
p2502
sg6
(dp2503
g8
(lp2504
(lp2505
I6
aI9
aI5
aI8
aa(lp2506
I2
aI1
aI6
aI8
aa(lp2507
I8
aI4
aI5
aI9
aa(lp2508
I1
aI6
aI8
aI4
aa(lp2509
I6
aI8
aI10
aI5
aa(lp2510
I6
aI9
aI8
aI5
aa(lp2511
I5
aI12
aI9
aI6
aa(lp2512
I6
aI8
aI9
aI1
aasg18
(lp2513
(dp2514
g21
VHOT VINNI
p2515
sg23
V2277x
p2516
sg25
I67
sg26
I1
sg27
I69
sa(dp2517
g21
VHANOVER SQUARE
p2518
sg23
V565x2
p2519
sg25
I76
sg26
I2
sg27
I80
sa(dp2520
g21
VSAN VINCENZO
p2521
sg23
V3495x
p2522
sg25
I80
sg26
I3
sg27
I85
sa(dp2523
g21
VREGAL CONSERVE
p2524
sg23
V64348
p2525
sg25
I87
sg26
I4
sg27
I67
sa(dp2526
g21
VDAYTIME DANCER
p2527
sg23
V21451
p2528
sg25
I100
sg26
I5
sg27
I96
sa(dp2529
g21
VSHEEZALADY
p2530
sg23
Vx228x
p2531
sg25
I95
sg26
I6
sg27
I100
sa(dp2532
g21
VTIMETUS
p2533
sg23
V140x4
p2534
sg25
I74
sg26
I7
sg27
I78
sa(dp2535
g21
VCHIEF ADVOCATE
p2536
sg23
V33731
p2537
sg25
I90
sg26
I8
sg27
I93
sa(dp2538
g21
VKARAHARAGA
p2539
sg23
V148x2
p2540
sg25
I94
sg26
I9
sg27
I98
sa(dp2541
g21
VGOLOVKIN
p2542
sg23
V24211
p2543
sg25
I88
sg26
I10
sg27
I91
sa(dp2544
g21
VMAC'S GAL
p2545
sg23
V11215
p2546
sg25
I84
sg26
I11
sg27
I86
sa(dp2547
g21
VECHOING
p2548
sg23
V44x14
p2549
sg25
I99
sg26
I12
sg27
I89
sa(dp2550
g21
VFORSYTH
p2551
sg23
Vx879x
p2552
sg25
I64
sg26
I13
sg27
I64
sa(dp2553
g21
VMRS QUIGLEY
p2554
sg23
Vx3822
p2555
sg25
I71
sg26
I14
sg27
I77
sa(dp2556
g21
VRELNINO
p2557
sg23
V12922
p2558
sg25
I68
sg26
I15
sg27
I74
sa(dp2559
g21
VI'M FAVULOUS
p2560
sg23
V86571
p2561
sg25
I79
sg26
I16
sg27
I71
sasg58
(lp2562
sssI1542425820
(dp2563
g2
Vhttp://www.skyracing.com.au/index.php?component=racing&task=race&id=107886283&meetingid=105028330&Itemid=89
p2564
sg4
V29009526.0337
p2565
sg6
(dp2566
g8
(lp2567
(lp2568
I13
aI11
aI6
aI10
aa(lp2569
I1
aI14
aI2
aI5
aa(lp2570
I14
aI2
aI1
aI5
aa(lp2571
I9
aI14
aI2
aI1
aa(lp2572
I2
aI11
aI1
aI6
aa(lp2573
I13
aI11
aI6
aI2
aa(lp2574
I11
aI13
aI10
aI6
aa(lp2575
I2
aI14
aI11
aI1
aasg18
(lp2576
(dp2577
g21
VBRYNEICH
p2578
sg23
Vx7321
p2579
sg25
I80
sg26
I1
sg27
I84
sa(dp2580
g21
VCEDARWOOD
p2581
sg23
V04341
p2582
sg25
I86
sg26
I2
sg27
I89
sa(dp2583
g21
VLE DRAMA
p2584
sg23
V88148
p2585
sg25
I62
sg26
I3
sg27
I63
sa(dp2586
g21
VLOTA CREEK GOLD
p2587
sg23
V26733
p2588
sg25
I79
sg26
I4
sg27
I72
sa(dp2589
g21
VPOLEMIC
p2590
sg23
V31674
p2591
sg25
I71
sg26
I5
sg27
I69
sa(dp2592
g21
VCAPEOS
p2593
sg23
V83512
p2594
sg25
I88
sg26
I6
sg27
I94
sa(dp2595
g21
VEPIC RANT
p2596
sg23
V490x7
p2597
sg25
I72
sg26
I7
sg27
I73
sa(dp2598
g21
VPETAIN
p2599
sg23
Vx4151
p2600
sg25
I91
sg26
I8
sg27
I79
sa(dp2601
g21
VRANCHO MONTOYA
p2602
sg23
V05x26
p2603
sg25
I77
sg26
I9
sg27
I76
sa(dp2604
g21
VAMTHAAL
p2605
sg23
V425x1
p2606
sg25
I94
sg26
I10
sg27
I91
sa(dp2607
g21
VMYMMING
p2608
sg23
V21122
p2609
sg25
I100
sg26
I11
sg27
I97
sa(dp2610
g21
VNASHVILLE SKYLINE
p2611
sg23
V13349
p2612
sg25
I65
sg26
I12
sg27
I65
sa(dp2613
g21
VPONYTALES
p2614
sg23
V72061
p2615
sg25
I98
sg26
I13
sg27
I100
sa(dp2616
g21
VOMINECA
p2617
sg23
Vx0460
p2618
sg25
I73
sg26
I14
sg27
I81
sa(dp2619
g21
VROTHFORD
p2620
sg23
V41962
p2621
sg25
I60
sg26
I15
sg27
I61
sasg58
(lp2622
sssI1542432480
(dp2623
g2
Vhttp://www.skyracing.com.au/index.php?component=racing&task=race&id=107886389&meetingid=105028266&Itemid=89
p2624
sg4
V29012103.0528
p2625
sg6
(dp2626
g8
(lp2627
(lp2628
I2
aI1
aI10
aI7
aa(lp2629
I1
aI4
aI10
aI2
aa(lp2630
I1
aI2
aI4
aI5
aa(lp2631
I1
aI2
aI3
aI4
aa(lp2632
I1
aI7
aI13
aI6
aa(lp2633
I1
aI2
aI10
aI5
aa(lp2634
I2
aI1
aI7
aI4
aa(lp2635
I1
aI2
aI10
aI4
aasg18
(lp2636
(dp2637
g21
VATUM
p2638
sg23
V23326
p2639
sg25
I97
sg26
I1
sg27
I96
sa(dp2640
g21
VJETGIRL
p2641
sg23
V118x5
p2642
sg25
I100
sg26
I2
sg27
I100
sa(dp2643
g21
VMANHATTAN JUSTICE
p2644
sg23
V40x0x
p2645
sg25
I73
sg26
I3
sg27
I71
sa(dp2646
g21
VCOROGLEN
p2647
sg23
V39994
p2648
sg25
I90
sg26
I4
sg27
I82
sa(dp2649
g21
VNINO
p2650
sg23
V1x392
p2651
sg25
I84
sg26
I5
sg27
I87
sa(dp2652
g21
VRED MARAUDER
p2653
sg23
V747x1
p2654
sg25
I83
sg26
I6
sg27
I85
sa(dp2655
g21
VTHE LONG RUN
p2656
sg23
V61
p2657
sg25
I95
sg26
I7
sg27
I90
sa(dp2658
g21
VGORGEOUS BOY
p2659
sg23
V0126x
p2660
sg25
I79
sg26
I8
sg27
I77
sa(dp2661
g21
VBOUNTY BELLE
p2662
sg23
V87288
p2663
sg25
I71
sg26
I9
sg27
I70
sa(dp2664
g21
VBYZANTIUM
p2665
sg23
V66064
p2666
sg25
I89
sg26
I10
sg27
I95
sa(dp2667
g21
VNORTHERN CONQUEROR
p2668
sg23
V6370x
p2669
sg25
I72
sg26
I11
sg27
I74
sa(dp2670
g21
VTENNESSEE PASHA
p2671
sg23
V9790x
p2672
sg25
I65
sg26
I12
sg27
I66
sa(dp2673
g21
VDARK ELIXIR
p2674
sg23
V0x653
p2675
sg25
I77
sg26
I13
sg27
I79
sasg58
(lp2676
sssI1542436560
(dp2677
g2
Vhttp://www.skyracing.com.au/index.php?component=racing&task=race&id=107886332&meetingid=105028298&Itemid=89
p2678
sg4
V29012211.0636
p2679
sg6
(dp2680
g8
(lp2681
(lp2682
I3
aI2
aI10
aI7
aa(lp2683
I2
aI3
aI7
aI6
aa(lp2684
I3
aI7
aI2
aI10
aa(lp2685
I3
aI8
aI1
aI7
aa(lp2686
I3
aI10
aI7
aI2
aa(lp2687
I3
aI2
aI10
aI7
aa(lp2688
I3
aI1
aI2
aI7
aa(lp2689
I3
aI2
aI7
aI10
aasg18
(lp2690
(dp2691
g21
VAIR GORDON
p2692
sg23
V1558x
p2693
sg25
I95
sg26
I1
sg27
I86
sa(dp2694
g21
VDANIGREE
p2695
sg23
V16676
p2696
sg25
I88
sg26
I2
sg27
I95
sa(dp2697
g21
VSLEEK ACHEEVA
p2698
sg23
V31233
p2699
sg25
I100
sg26
I3
sg27
I100
sa(dp2700
g21
VSUPLEX CITY
p2701
sg23
V233x1
p2702
sg25
I98
sg26
I4
sg27
I96
sa(dp2703
g21
VBEAU GARCON
p2704
sg23
V531x5
p2705
sg25
I76
sg26
I5
sg27
I79
sa(dp2706
g21
VGRASSMERE FLYER
p2707
sg23
V846x7
p2708
sg25
I73
sg26
I6
sg27
I73
sa(dp2709
g21
VLIZZY'S KID
p2710
sg23
V99521
p2711
sg25
I91
sg26
I7
sg27
I87
sa(dp2712
g21
VTELEMARKETER
p2713
sg23
V2x90x
p2714
sg25
I70
sg26
I8
sg27
I71
sa(dp2715
g21
VPHLYING PHYLLIS
p2716
sg23
Vx7370
p2717
sg25
I79
sg26
I9
sg27
I76
sa(dp2718
g21
VWONGA MISS
p2719
sg23
Vx7414
p2720
sg25
I86
sg26
I10
sg27
I90
sa(dp2721
g21
VCLASSIC PORT
p2722
sg23
V755x5
p2723
sg25
I65
sg26
I11
sg27
I64
sa(dp2724
g21
VCHIPPAWA
p2725
sg23
V2190x
p2726
sg25
I69
sg26
I12
sg27
I70
sa(dp2727
g21
VNORMANDY LAD
p2728
sg23
V47x57
p2729
sg25
I82
sg26
I13
sg27
I81
sa(dp2730
g21
VEDRAAK
p2731
sg23
V90099
p2732
sg25
I62
sg26
I14
sg27
I62
sasg58
(lp2733
sssI1542431460
(dp2734
g2
Vhttp://www.skyracing.com.au/index.php?component=racing&task=race&id=107886315&meetingid=105028410&Itemid=89
p2735
sg4
V29009528.0511
p2736
sg6
(dp2737
g8
(lp2738
(lp2739
I6
aI7
aI5
aI8
aa(lp2740
I5
aI2
aI4
aI1
aa(lp2741
I2
aI1
aI6
aI7
aa(lp2742
I5
aI2
aI4
aI1
aa(lp2743
I7
aI3
aI8
aI6
aa(lp2744
I7
aI6
aI5
aI8
aa(lp2745
I7
aI8
aI6
aI5
aa(lp2746
I7
aI5
aI6
aI2
aasg18
(lp2747
(dp2748
g21
VSO YOU TOO
p2749
sg23
V314x2
p2750
sg25
I80
sg26
I1
sg27
I80
sa(dp2751
g21
VCOUNTER PULSE
p2752
sg23
V05244
p2753
sg25
I81
sg26
I2
sg27
I77
sa(dp2754
g21
VEXALTED ADAM
p2755
sg23
V1500x
p2756
sg25
I75
sg26
I3
sg27
I75
sa(dp2757
g21
VKARLOVASI
p2758
sg23
V64x77
p2759
sg25
I72
sg26
I4
sg27
I70
sa(dp2760
g21
VBENZ
p2761
sg23
V438x5
p2762
sg25
I89
sg26
I5
sg27
I93
sa(dp2763
g21
VOBERLAND
p2764
sg23
V32841
p2765
sg25
I95
sg26
I6
sg27
I100
sa(dp2766
g21
VAMBERDI
p2767
sg23
V121x1
p2768
sg25
I100
sg26
I7
sg27
I95
sa(dp2769
g21
VSET TO SPARKLE
p2770
sg23
V1207x
p2771
sg25
I94
sg26
I8
sg27
I87
sasg58
(lp2772
(lp2773
I7
aI8
aI6
aI5
aasssI1542422760
(dp2774
g2
Vhttp://www.skyracing.com.au/index.php?component=racing&task=race&id=107886311&meetingid=105028410&Itemid=89
p2775
sg4
V29009528.0246
p2776
sg6
(dp2777
g8
(lp2778
(lp2779
I1
aI4
aI2
aI6
aa(lp2780
I1
aI2
aI5
aI4
aa(lp2781
I1
aI2
aI4
aI6
aa(lp2782
I1
aI2
aI6
aI4
aa(lp2783
I5
aI8
aI4
aI3
aa(lp2784
I2
aI1
aI4
aI7
aa(lp2785
I4
aI1
aI7
aI2
aa(lp2786
I1
aI2
aI4
aI5
aasg18
(lp2787
(dp2788
g21
VMR QUICKIE
p2789
sg23
V2141
p2790
sg25
I100
sg26
I1
sg27
I100
sa(dp2791
g21
VICE GHOST
p2792
sg23
V3x143
p2793
sg25
I88
sg26
I2
sg27
I84
sa(dp2794
g21
VMAORI MAGIC
p2795
sg23
Vx9331
p2796
sg25
I75
sg26
I3
sg27
I69
sa(dp2797
g21
VST GEORGES VAULTS
p2798
sg23
V558x1
p2799
sg25
I98
sg26
I4
sg27
I96
sa(dp2800
g21
VMANZALA
p2801
sg23
V450x5
p2802
sg25
I70
sg26
I5
sg27
I63
sa(dp2803
g21
VHOREYAT DUBAI
p2804
sg23
V512
p2805
sg25
I82
sg26
I6
sg27
I79
sa(dp2806
g21
VSHARK IN THE WATER
p2807
sg23
V16
p2808
sg25
I92
sg26
I7
sg27
I75
sa(dp2809
g21
VYANKEE EYES
p2810
sg23
V0x515
p2811
sg25
I79
sg26
I8
sg27
I73
sa(dp2812
g21
VSPLASH SOME CASH
p2813
sg23
V051
p2814
sg25
I67
sg26
I9
sg27
I57
sasg58
(lp2815
(lp2816
I1
aI4
aI6
aI2
aasssI1542436080
(dp2817
g2
Vhttp://www.skyracing.com.au/index.php?component=racing&task=race&id=107886376&meetingid=105028346&Itemid=89
p2818
sg4
V29012417.0628
p2819
sg6
(dp2820
g8
(lp2821
(lp2822
I5
aI1
aI12
aI11
aa(lp2823
I1
aI3
aI6
aI12
aa(lp2824
I1
aI5
aI9
aI10
aa(lp2825
I1
aI3
aI5
aI2
aa(lp2826
I5
aI12
aI7
aI1
aa(lp2827
I1
aI5
aI12
aI11
aa(lp2828
I5
aI1
aI7
aI12
aa(lp2829
I1
aI5
aI12
aI3
aasg18
(lp2830
(dp2831
g21
VPLEASED
p2832
sg23
Vx2551
p2833
sg25
I96
sg26
I1
sg27
I96
sa(dp2834
g21
VEPIC RANT
p2835
sg23
V490x7
p2836
sg25
I86
sg26
I2
sg27
I87
sa(dp2837
g21
VGLEN ORD
p2838
sg23
V2430x
p2839
sg25
I74
sg26
I3
sg27
I76
sa(dp2840
g21
VSMOOTH CONSUL
p2841
sg23
V56x55
p2842
sg25
I78
sg26
I4
sg27
I74
sa(dp2843
g21
VTIME TO PLAY
p2844
sg23
V03131
p2845
sg25
I100
sg26
I5
sg27
I100
sa(dp2846
g21
VSAYONARAMOSA
p2847
sg23
V21x06
p2848
sg25
I82
sg26
I6
sg27
I71
sa(dp2849
g21
VJINX 'N' DRINX
p2850
sg23
Vx0177
p2851
sg25
I90
sg26
I7
sg27
I78
sa(dp2852
g21
VROLLING ROMAN
p2853
sg23
V6x994
p2854
sg25
I76
sg26
I8
sg27
I81
sa(dp2855
g21
VBEAU ISA
p2856
sg23
V35109
p2857
sg25
I69
sg26
I9
sg27
I72
sa(dp2858
g21
VPREPEE
p2859
sg23
V260x1
p2860
sg25
I71
sg26
I10
sg27
I86
sa(dp2861
g21
VSUBSOLAR
p2862
sg23
V474x5
p2863
sg25
I88
sg26
I11
sg27
I90
sa(dp2864
g21
VWACK'EM
p2865
sg23
V98552
p2866
sg25
I94
sg26
I12
sg27
I93
sasg58
(lp2867
sssI1542440700
(dp2868
g2
Vhttp://www.skyracing.com.au/index.php?component=racing&task=race&id=107886491&meetingid=105028314&Itemid=89
p2869
sg4
V29012092.0745
p2870
sg6
(dp2871
g8
(lp2872
(lp2873
I4
aI2
aI3
aI9
aa(lp2874
I4
aI3
aI2
aI1
aa(lp2875
I3
aI11
aI10
aI6
aa(lp2876
I4
aI9
aI5
aI3
aa(lp2877
I4
aI2
aI8
aI3
aa(lp2878
I4
aI3
aI2
aI9
aa(lp2879
I4
aI9
aI2
aI8
aa(lp2880
I4
aI3
aI2
aI9
aasg18
(lp2881
(dp2882
g21
VCOBAIN
p2883
sg23
Vx269x
p2884
sg25
I81
sg26
I1
sg27
I84
sa(dp2885
g21
VKAPHIT
p2886
sg23
V37x
p2887
sg25
I93
sg26
I2
sg27
I95
sa(dp2888
g21
VMOONLIGHT'S REWARD
p2889
sg23
Vx5286
p2890
sg25
I89
sg26
I3
sg27
I90
sa(dp2891
g21
VCELESTIAL KING
p2892
sg23
V34x
p2893
sg25
I100
sg26
I4
sg27
I100
sa(dp2894
g21
VRENZULLI
p2895
sg23
V9937x
p2896
sg25
I85
sg26
I5
sg27
I75
sa(dp2897
g21
VTHIN GREEN LINE
p2898
sg23
V798x6
p2899
sg25
I73
sg26
I6
sg27
I61
sa(dp2900
g21
VTINY HUSSY
p2901
sg23
g76
sg25
I75
sg26
I7
sg27
I0
sa(dp2902
g21
VAGGRESSION
p2903
sg23
V8x
p2904
sg25
I90
sg26
I8
sg27
I79
sa(dp2905
g21
VDU WELL
p2906
sg23
V75x
p2907
sg25
I97
sg26
I9
sg27
I85
sa(dp2908
g21
VGOD'S WONDER
p2909
sg23
V60x6
p2910
sg25
I71
sg26
I10
sg27
I66
sa(dp2911
g21
VINVINCIBLE KATE
p2912
sg23
V5686
p2913
sg25
I79
sg26
I11
sg27
I71
sasg58
(lp2914
sssI1542432000
(dp2915
g2
Vhttp://www.skyracing.com.au/index.php?component=racing&task=race&id=107886271&meetingid=105028218&Itemid=89
p2916
sg4
V29009527.0520
p2917
sg6
(dp2918
g8
(lp2919
(lp2920
I7
aI6
aI1
aI11
aa(lp2921
I5
aI3
aI8
aI1
aa(lp2922
I1
aI6
aI5
aI7
aa(lp2923
I1
aI7
aI3
aI4
aa(lp2924
I11
aI12
aI7
aI6
aa(lp2925
I7
aI6
aI1
aI8
aa(lp2926
I7
aI1
aI11
aI6
aa(lp2927
I7
aI1
aI6
aI5
aasg18
(lp2928
(dp2929
g21
VBADAJOZ
p2930
sg23
V57x78
p2931
sg25
I86
sg26
I1
sg27
I93
sa(dp2932
g21
VSTRATHMORE
p2933
sg23
V7709x
p2934
sg25
I79
sg26
I2
sg27
I75
sa(dp2935
g21
VSIR PLUSH
p2936
sg23
V55280
p2937
sg25
I70
sg26
I3
sg27
I68
sa(dp2938
g21
VMY FAVORITE
p2939
sg23
Vx454x
p2940
sg25
I93
sg26
I4
sg27
I79
sa(dp2941
g21
VPERIZADA
p2942
sg23
V6x587
p2943
sg25
I81
sg26
I5
sg27
I86
sa(dp2944
g21
VDISSOLUTE
p2945
sg23
V2x523
p2946
sg25
I92
sg26
I6
sg27
I98
sa(dp2947
g21
VISAURIAN
p2948
sg23
V7x124
p2949
sg25
I99
sg26
I7
sg27
I100
sa(dp2950
g21
VTANGO RAIN
p2951
sg23
V27x98
p2952
sg25
I77
sg26
I8
sg27
I87
sa(dp2953
g21
VJORDA
p2954
sg23
Vx0880
p2955
sg25
I72
sg26
I9
sg27
I71
sa(dp2956
g21
VGIBRALTAR GIRL
p2957
sg23
V7x67x
p2958
sg25
I74
sg26
I10
sg27
I73
sa(dp2959
g21
VNICTOCK
p2960
sg23
V00x63
p2961
sg25
I100
sg26
I11
sg27
I92
sa(dp2962
g21
VHOLY SEAL
p2963
sg23
V13x0x
p2964
sg25
I88
sg26
I12
sg27
I80
sa(dp2965
g21
VISORICH
p2966
sg23
V00558
p2967
sg25
I66
sg26
I13
sg27
I66
sasg58
(lp2968
(lp2969
I11
aI1
aI10
aI2
aasssI1542423300
(dp2970
g2
Vhttp://www.skyracing.com.au/index.php?component=racing&task=race&id=107886267&meetingid=105028218&Itemid=89
p2971
sg4
V29009527.0255
p2972
sg6
(dp2973
g8
(lp2974
(lp2975
I1
aI6
aI3
aI4
aa(lp2976
I1
aI10
aI14
aI4
aa(lp2977
I1
aI10
aI14
aI4
aa(lp2978
I1
aI10
aI14
aI4
aa(lp2979
I1
aI9
aI16
aI3
aa(lp2980
I1
aI6
aI3
aI10
aa(lp2981
I6
aI15
aI3
aI1
aa(lp2982
I1
aI10
aI6
aI3
aasg18
(lp2983
(dp2984
g21
VI AM CAPITAN
p2985
sg23
V320x2
p2986
sg25
I96
sg26
I1
sg27
I100
sa(dp2987
g21
VMISSED OUT
p2988
sg23
V25304
p2989
sg25
I69
sg26
I2
sg27
I69
sa(dp2990
g21
VIAMACRUMPET
p2991
sg23
V2x161
p2992
sg25
I98
sg26
I3
sg27
I96
sa(dp2993
g21
VTIGERS IMAGE
p2994
sg23
V8x141
p2995
sg25
I84
sg26
I4
sg27
I94
sa(dp2996
g21
VFAIR DINKUM
p2997
sg23
Vx1513
p2998
sg25
I91
sg26
I5
sg27
I87
sa(dp2999
g21
VLEGION OF BOOM
p3000
sg23
V31
p3001
sg25
I100
sg26
I6
sg27
I98
sa(dp3002
g21
VMICK THE HAT
p3003
sg23
V2x133
p3004
sg25
I87
sg26
I7
sg27
I85
sa(dp3005
g21
VMILNE BAY
p3006
sg23
V1213x
p3007
sg25
I75
sg26
I8
sg27
I75
sa(dp3008
g21
VTULLY TOFF
p3009
sg23
V260x1
p3010
sg25
I78
sg26
I9
sg27
I78
sa(dp3011
g21
VYOUSAY BOLT
p3012
sg23
V31x51
p3013
sg25
I81
sg26
I10
sg27
I91
sa(dp3014
g21
VOUR ROSEMAREE
p3015
sg23
Vx0755
p3016
sg25
I72
sg26
I11
sg27
I72
sa(dp3017
g21
VCARIBOU
p3018
sg23
V9x727
p3019
sg25
I62
sg26
I12
sg27
I63
sa(dp3020
g21
VTRUE PRIDE
p3021
sg23
Vx1641
p3022
sg25
I64
sg26
I13
sg27
I64
sa(dp3023
g21
VSANCTUARY COVE
p3024
sg23
V9x652
p3025
sg25
I66
sg26
I14
sg27
I66
sa(dp3026
g21
VCARRUTHERS
p3027
sg23
V431x1
p3028
sg25
I93
sg26
I15
sg27
I80
sa(dp3029
g21
VCACCINI
p3030
sg23
V12162
p3031
sg25
I77
sg26
I16
sg27
I77
sa(dp3032
g21
VREVITUP REDNUT
p3033
sg23
V2521x
p3034
sg25
I88
sg26
I17
sg27
I89
sasg58
(lp3035
(lp3036
I10
aI5
aI3
aI1
aasssI1542445320
(dp3037
g2
Vhttp://www.skyracing.com.au/index.php?component=racing&task=race&id=107886419&meetingid=105028442&Itemid=89
p3038
sg4
V29012099.0902
p3039
sg6
(dp3040
g8
(lp3041
(lp3042
I5
aI6
aI1
aI4
aa(lp3043
I4
aI3
aI1
aI2
aa(lp3044
I4
aI6
aI5
aI2
aa(lp3045
I4
aI1
aI2
aI5
aa(lp3046
I5
aI7
aI4
aI1
aa(lp3047
I5
aI6
aI4
aI1
aa(lp3048
I5
aI6
aI1
aI2
aa(lp3049
I4
aI5
aI6
aI1
aasg18
(lp3050
(dp3051
g21
VHEY BRO
p3052
sg23
V5307x
p3053
sg25
I90
sg26
I1
sg27
I92
sa(dp3054
g21
VPENALTY POINT
p3055
sg23
V73x66
p3056
sg25
I89
sg26
I2
sg27
I82
sa(dp3057
g21
VSATURDAY SKIES
p3058
sg23
V6257x
p3059
sg25
I75
sg26
I3
sg27
I75
sa(dp3060
g21
VRUSSIAN RIVER
p3061
sg23
V88654
p3062
sg25
I82
sg26
I4
sg27
I89
sa(dp3063
g21
VNASHVILLE CAT
p3064
sg23
V35234
p3065
sg25
I96
sg26
I5
sg27
I100
sa(dp3066
g21
VGALVESTON BAY
p3067
sg23
V50231
p3068
sg25
I100
sg26
I6
sg27
I97
sa(dp3069
g21
VFRIAR'S LUCK
p3070
sg23
V1870x
p3071
sg25
I70
sg26
I7
sg27
I71
sa(dp3072
g21
VOCEAN DIGGER
p3073
sg23
V5011x
p3074
sg25
I78
sg26
I8
sg27
I78
sa(dp3075
g21
VTUMBLEWEED TANGO
p3076
sg23
V3x69x
p3077
sg25
I63
sg26
I9
sg27
I65
sasg58
(lp3078
sssI1542428460
(dp3079
g2
Vhttp://www.skyracing.com.au/index.php?component=racing&task=race&id=107961933&meetingid=105028250&Itemid=89
p3080
sg4
V29012400.0421
p3081
sg6
(dp3082
g8
(lp3083
(lp3084
I1
aI2
aI3
aI6
aa(lp3085
I1
aI2
aI15
aI3
aa(lp3086
I2
aI3
aI6
aI4
aa(lp3087
I1
aI2
aI5
aI6
aa(lp3088
I6
aI2
aI3
aI5
aa(lp3089
I1
aI2
aI6
aI8
aa(lp3090
I1
aI3
aI2
aI14
aa(lp3091
I2
aI1
aI6
aI3
aasg18
(lp3092
(dp3093
g21
VSOUTHERN TURF
p3094
sg23
V7263x
p3095
sg25
I99
sg26
I1
sg27
I100
sa(dp3096
g21
VTRUMBO
p3097
sg23
V624x2
p3098
sg25
I93
sg26
I2
sg27
I98
sa(dp3099
g21
VEL NIETO
p3100
sg23
V071
p3101
sg25
I100
sg26
I3
sg27
I95
sa(dp3102
g21
VNOTHING
p3103
sg23
Vx7180
p3104
sg25
I78
sg26
I4
sg27
I71
sa(dp3105
g21
VRED MEDUSA
p3106
sg23
V120x7
p3107
sg25
I83
sg26
I5
sg27
I81
sa(dp3108
g21
VCAPTAIN RYDER
p3109
sg23
V02412
p3110
sg25
I88
sg26
I6
sg27
I91
sa(dp3111
g21
VRIOHSEI
p3112
sg23
V55x16
p3113
sg25
I64
sg26
I7
sg27
I70
sa(dp3114
g21
VCORAZON DE ORO
p3115
sg23
V955x5
p3116
sg25
I84
sg26
I8
sg27
I89
sa(dp3117
g21
VEDEA
p3118
sg23
V9x878
p3119
sg25
I72
sg26
I9
sg27
I67
sa(dp3120
g21
VLADY PATRIKA
p3121
sg23
V909x1
p3122
sg25
I73
sg26
I10
sg27
I77
sa(dp3123
g21
VENCONTI
p3124
sg23
V57832
p3125
sg25
I77
sg26
I11
sg27
I79
sa(dp3126
g21
VBLINKIN TRYING
p3127
sg23
V08962
p3128
sg25
I69
sg26
I12
sg27
I73
sa(dp3129
g21
VGAELIC BOLT
p3130
sg23
V40870
p3131
sg25
I62
sg26
I13
sg27
I63
sa(dp3132
g21
VTHE COSTA DREAMS
p3133
sg23
V96x1
p3134
sg25
I92
sg26
I14
sg27
I84
sa(dp3135
g21
VTRACEY'S DAISY
p3136
sg23
V06x86
p3137
sg25
I61
sg26
I15
sg27
I61
sasg58
(lp3138
sssI1542428940
(dp3139
g2
Vhttp://www.skyracing.com.au/index.php?component=racing&task=race&id=107886299&meetingid=105028234&Itemid=89
p3140
sg4
V29012087.0429
p3141
sg6
(dp3142
g8
(lp3143
(lp3144
I7
aI2
aI1
aI4
aa(lp3145
I1
aI5
aI3
aI2
aa(lp3146
I3
aI2
aI10
aI7
aa(lp3147
I2
aI4
aI5
aI1
aa(lp3148
I10
aI4
aI2
aI1
aa(lp3149
I7
aI2
aI4
aI1
aa(lp3150
I4
aI7
aI2
aI1
aa(lp3151
I2
aI7
aI1
aI4
aasg18
(lp3152
(dp3153
g21
VSINGLE STORY
p3154
sg23
V12x
p3155
sg25
I94
sg26
I1
sg27
I95
sa(dp3156
g21
VKNIGHT ARROW
p3157
sg23
V14x3
p3158
sg25
I92
sg26
I2
sg27
I99
sa(dp3159
g21
VOAKFIELD JET
p3160
sg23
V715
p3161
sg25
I74
sg26
I3
sg27
I77
sa(dp3162
g21
VTEST OF WAR
p3163
sg23
V1x
p3164
sg25
I98
sg26
I4
sg27
I92
sa(dp3165
g21
VBETTER TAKE COVER
p3166
sg23
V314x4
p3167
sg25
I82
sg26
I5
sg27
I88
sa(dp3168
g21
VSAINT ANTONIO LAD
p3169
sg23
V356x6
p3170
sg25
I79
sg26
I6
sg27
I80
sa(dp3171
g21
VRAGAZZE
p3172
sg23
V1
p3173
sg25
I100
sg26
I7
sg27
I100
sa(dp3174
g21
VKATIE DID IT
p3175
sg23
V16
p3176
sg25
I77
sg26
I8
sg27
I74
sa(dp3177
g21
VZAVANCE
p3178
sg23
V81
p3179
sg25
I84
sg26
I9
sg27
I78
sa(dp3180
g21
VLADY TYCOON
p3181
sg23
V31
p3182
sg25
I87
sg26
I10
sg27
I84
sa(dp3183
g21
VJUAPHIKOA
p3184
sg23
V43x40
p3185
sg25
I71
sg26
I11
sg27
I72
sasg58
(lp3186
sssI1542435600
(dp3187
g2
Vhttp://www.skyracing.com.au/index.php?component=racing&task=race&id=107886258&meetingid=105028282&Itemid=89
p3188
sg4
V29009535.0620
p3189
sg6
(dp3190
g8
(lp3191
(lp3192
I13
aI6
aI9
aI2
aa(lp3193
I1
aI4
aI2
aI3
aa(lp3194
I1
aI3
aI4
aI2
aa(lp3195
I1
aI4
aI3
aI5
aa(lp3196
I14
aI3
aI5
aI9
aa(lp3197
I9
aI6
aI13
aI3
aa(lp3198
I6
aI13
aI9
aI14
aa(lp3199
I1
aI3
aI4
aI9
aasg18
(lp3200
(dp3201
g21
VFAATINAH
p3202
sg23
Vx1664
p3203
sg25
I71
sg26
I1
sg27
I76
sa(dp3204
g21
VTHERMAL CURRENT
p3205
sg23
V9x341
p3206
sg25
I89
sg26
I2
sg27
I91
sa(dp3207
g21
VBONS AWAY
p3208
sg23
Vx4332
p3209
sg25
I86
sg26
I3
sg27
I89
sa(dp3210
g21
VMALIBU STYLE
p3211
sg23
V51x46
p3212
sg25
I62
sg26
I4
sg27
I62
sa(dp3213
g21
VI'LL HAVE A BIT
p3214
sg23
V513x3
p3215
sg25
I83
sg26
I5
sg27
I80
sa(dp3216
g21
VSPENDING TO WIN
p3217
sg23
V231x1
p3218
sg25
I98
sg26
I6
sg27
I98
sa(dp3219
g21
VGUARD OF HONOUR
p3220
sg23
V1x785
p3221
sg25
I74
sg26
I7
sg27
I74
sa(dp3222
g21
VROCKET TOMMY
p3223
sg23
Vx167x
p3224
sg25
I79
sg26
I8
sg27
I72
sa(dp3225
g21
VSOOTHING
p3226
sg23
Vx1163
p3227
sg25
I94
sg26
I9
sg27
I93
sa(dp3228
g21
VINVINCIBLE AL
p3229
sg23
V11323
p3230
sg25
I75
sg26
I10
sg27
I78
sa(dp3231
g21
VNASDEX
p3232
sg23
V356x6
p3233
sg25
I71
sg26
I11
sg27
I64
sa(dp3234
g21
VESSENCE OF TERROR
p3235
sg23
V30x12
p3236
sg25
I64
sg26
I12
sg27
I71
sa(dp3237
g21
VCROWN WITNESS
p3238
sg23
V1114x
p3239
sg25
I100
sg26
I13
sg27
I100
sa(dp3240
g21
VWRITTEN CHOICE
p3241
sg23
Vx2110
p3242
sg25
I90
sg26
I14
sg27
I84
sasg58
(lp3243
sssI1542424860
(dp3244
g2
Vhttp://www.skyracing.com.au/index.php?component=racing&task=race&id=107886312&meetingid=105028410&Itemid=89
p3245
sg4
V29009528.0321
p3246
sg6
(dp3247
g8
(lp3248
(lp3249
I9
aI3
aI6
aI1
aa(lp3250
I3
aI4
aI1
aI10
aa(lp3251
I3
aI1
aI7
aI2
aa(lp3252
I3
aI1
aI2
aI6
aa(lp3253
I3
aI6
aI8
aI10
aa(lp3254
I1
aI9
aI3
aI6
aa(lp3255
I3
aI9
aI6
aI4
aa(lp3256
I3
aI1
aI9
aI6
aasg18
(lp3257
(dp3258
g21
VCOOL MAVERICK
p3259
sg23
V41218
p3260
sg25
I87
sg26
I1
sg27
I87
sa(dp3261
g21
VJUST KAPPY
p3262
sg23
V63180
p3263
sg25
I69
sg26
I2
sg27
I66
sa(dp3264
g21
VLAURE ME IN
p3265
sg23
V218x2
p3266
sg25
I96
sg26
I3
sg27
I95
sa(dp3267
g21
VSWISS DESIGN
p3268
sg23
V21x98
p3269
sg25
I84
sg26
I4
sg27
I83
sa(dp3270
g21
VMARINA
p3271
sg23
V8213x
p3272
sg25
I80
sg26
I5
sg27
I72
sa(dp3273
g21
VFLYING KRUPT
p3274
sg23
V209x2
p3275
sg25
I94
sg26
I6
sg27
I94
sa(dp3276
g21
VTARANTINO
p3277
sg23
Vx4572
p3278
sg25
I73
sg26
I7
sg27
I78
sa(dp3279
g21
VBWUVA
p3280
sg23
V34647
p3281
sg25
I63
sg26
I8
sg27
I75
sa(dp3282
g21
VBLINDER
p3283
sg23
V1
p3284
sg25
I100
sg26
I9
sg27
I100
sa(dp3285
g21
VTWO ODD SOX
p3286
sg23
V666x3
p3287
sg25
I61
sg26
I10
sg27
I62
sasg58
(lp3288
(lp3289
I3
aI6
aI5
aI7
aasssI1542431280
(dp3290
g2
Vhttp://www.skyracing.com.au/index.php?component=racing&task=race&id=107886374&meetingid=105028346&Itemid=89
p3291
sg4
V29012417.0508
p3292
sg6
(dp3293
g8
(lp3294
(lp3295
I4
aI1
aI7
aI2
aa(lp3296
I9
aI8
aI4
aI6
aa(lp3297
I7
aI1
aI4
aI3
aa(lp3298
I2
aI4
aI1
aI3
aa(lp3299
I7
aI4
aI10
aI9
aa(lp3300
I4
aI7
aI1
aI2
aa(lp3301
I2
aI7
aI1
aI4
aa(lp3302
I4
aI7
aI1
aI2
aasg18
(lp3303
(dp3304
g21
VGRANDIOSO
p3305
sg23
V50x13
p3306
sg25
I97
sg26
I1
sg27
I96
sa(dp3307
g21
VTRUE MYTH
p3308
sg23
V219x5
p3309
sg25
I100
sg26
I2
sg27
I92
sa(dp3310
g21
VSEQUABLUR
p3311
sg23
V241x4
p3312
sg25
I81
sg26
I3
sg27
I79
sa(dp3313
g21
VSTRYKE OF DELIGHT
p3314
sg23
V364x4
p3315
sg25
I94
sg26
I4
sg27
I100
sa(dp3316
g21
VLADY EIGHTY EIGHT
p3317
sg23
V5688x
p3318
sg25
I86
sg26
I5
sg27
I80
sa(dp3319
g21
VTAKINGS
p3320
sg23
V2237x
p3321
sg25
I88
sg26
I6
sg27
I86
sa(dp3322
g21
VAMELIA JANE
p3323
sg23
V6x434
p3324
sg25
I91
sg26
I7
sg27
I93
sa(dp3325
g21
VMASSIVE ATTACK
p3326
sg23
V05470
p3327
sg25
I75
sg26
I8
sg27
I77
sa(dp3328
g21
VNAKANAI
p3329
sg23
V43600
p3330
sg25
I74
sg26
I9
sg27
I74
sa(dp3331
g21
VOMISSION
p3332
sg23
Vx2682
p3333
sg25
I78
sg26
I10
sg27
I89
sa(dp3334
g21
VBLOOMIN' ARRY
p3335
sg23
V13306
p3336
sg25
I72
sg26
I11
sg27
I70
sasg58
(lp3337
sssI1542438180
(dp3338
g2
Vhttp://www.skyracing.com.au/index.php?component=racing&task=race&id=107961952&meetingid=105028346&Itemid=89
p3339
sg4
V29012417.0703
p3340
sg6
(dp3341
g8
(lp3342
(lp3343
I1
aI12
aI11
aI4
aa(lp3344
I5
aI3
aI1
aI7
aa(lp3345
I1
aI6
aI9
aI7
aa(lp3346
I1
aI5
aI4
aI7
aa(lp3347
I1
aI4
aI9
aI7
aa(lp3348
I12
aI1
aI4
aI6
aa(lp3349
I12
aI1
aI4
aI3
aa(lp3350
I1
aI4
aI12
aI5
aasg18
(lp3351
(dp3352
g21
VONENESS
p3353
sg23
V124x2
p3354
sg25
I100
sg26
I1
sg27
I100
sa(dp3355
g21
VI'M ALONE
p3356
sg23
V979x8
p3357
sg25
I66
sg26
I2
sg27
I64
sa(dp3358
g21
VEL SHADAY
p3359
sg23
V1147x
p3360
sg25
I88
sg26
I3
sg27
I84
sa(dp3361
g21
VCAPTIVATOR
p3362
sg23
V0124x
p3363
sg25
I93
sg26
I4
sg27
I90
sa(dp3364
g21
VMOTION GRANTED
p3365
sg23
V0770x
p3366
sg25
I73
sg26
I5
sg27
I72
sa(dp3367
g21
VMR CHOW
p3368
sg23
V12104
p3369
sg25
I92
sg26
I6
sg27
I89
sa(dp3370
g21
VMR MARKOU
p3371
sg23
V225x7
p3372
sg25
I87
sg26
I7
sg27
I85
sa(dp3373
g21
VBAREFOOT TYCOON
p3374
sg23
V2357x
p3375
sg25
I85
sg26
I8
sg27
I79
sa(dp3376
g21
VLEGAL COUNSEL
p3377
sg23
V32123
p3378
sg25
I80
sg26
I9
sg27
I80
sa(dp3379
g21
VMADLUCE MISSILE
p3380
sg23
V149x4
p3381
sg25
I76
sg26
I10
sg27
I73
sa(dp3382
g21
VCORAL BAY
p3383
sg23
V663x1
p3384
sg25
I95
sg26
I11
sg27
I92
sa(dp3385
g21
VPRECIPITATE
p3386
sg23
Vx4232
p3387
sg25
I98
sg26
I12
sg27
I96
sa(dp3388
g21
VROUND MOUNTAIN GAL
p3389
sg23
Vx7500
p3390
sg25
I64
sg26
I13
sg27
I62
sa(dp3391
g21
VCHAVO
p3392
sg23
Vx441x
p3393
sg25
I78
sg26
I14
sg27
I76
sa(dp3394
g21
VGREGORY
p3395
sg23
V725x7
p3396
sg25
I68
sg26
I15
sg27
I66
sa(dp3397
g21
VBIMINI ROAD
p3398
sg23
V658x0
p3399
sg25
I70
sg26
I16
sg27
I69
sasg58
(lp3400
sssI1542443820
(dp3401
g2
Vhttp://www.skyracing.com.au/index.php?component=racing&task=race&id=107886435&meetingid=105028426&Itemid=89
p3402
sg4
V29009646.0837
p3403
sg6
(dp3404
g8
(lp3405
(lp3406
I2
aI5
aI1
aI3
aa(lp3407
I1
aI8
aI10
aI2
aa(lp3408
I4
aI3
aI2
aI5
aa(lp3409
I3
aI8
aI2
aI4
aa(lp3410
I2
aI3
aI4
aI5
aa(lp3411
I1
aI2
aI8
aI7
aa(lp3412
I2
aI3
aI5
aI1
aa(lp3413
I2
aI3
aI1
aI8
aasg18
(lp3414
(dp3415
g21
VMULGA
p3416
sg23
V1465x
p3417
sg25
I92
sg26
I1
sg27
I94
sa(dp3418
g21
VROYAL COMMAND
p3419
sg23
V42x32
p3420
sg25
I100
sg26
I2
sg27
I100
sa(dp3421
g21
VSPILLINOVA
p3422
sg23
V711x4
p3423
sg25
I94
sg26
I3
sg27
I91
sa(dp3424
g21
VJUST LIKE FIRE
p3425
sg23
V143x3
p3426
sg25
I87
sg26
I4
sg27
I88
sa(dp3427
g21
VTHISAWAY
p3428
sg23
Vx8615
p3429
sg25
I97
sg26
I5
sg27
I99
sa(dp3430
g21
VRISING SEA
p3431
sg23
V637x4
p3432
sg25
I80
sg26
I6
sg27
I85
sa(dp3433
g21
VKIMBO'S GIRL
p3434
sg23
V44x05
p3435
sg25
I78
sg26
I7
sg27
I80
sa(dp3436
g21
VLORD LUDLOW
p3437
sg23
V49x08
p3438
sg25
I72
sg26
I8
sg27
I70
sa(dp3439
g21
VMR UNDERCOVER
p3440
sg23
V14536
p3441
sg25
I73
sg26
I9
sg27
I77
sa(dp3442
g21
VPURIST
p3443
sg23
V49x06
p3444
sg25
I67
sg26
I10
sg27
I67
sa(dp3445
g21
VUPWARD OTHERS
p3446
sg23
V13x90
p3447
sg25
I62
sg26
I11
sg27
I63
sa(dp3448
g21
VBACHELORS PROSPECT
p3449
sg23
V0x964
p3450
sg25
I70
sg26
I12
sg27
I70
sa(dp3451
g21
VCRYSTAL VALLEY
p3452
sg23
V0x190
p3453
sg25
I84
sg26
I13
sg27
I74
sa(dp3454
g21
VFINGERMARK
p3455
sg23
V44x48
p3456
sg25
I77
sg26
I14
sg27
I79
sasg58
(lp3457
sssI1542435120
NsI1542442800
(dp3458
g2
Vhttp://www.skyracing.com.au/index.php?component=racing&task=race&id=107962067&meetingid=105028314&Itemid=89
p3459
sg4
V29012092.0820
p3460
sg6
(dp3461
g8
(lp3462
(lp3463
I2
aI6
aI11
aI10
aa(lp3464
I6
aI8
aI11
aI2
aa(lp3465
I6
aI2
aI11
aI10
aa(lp3466
I6
aI2
aI11
aI1
aa(lp3467
I6
aI2
aI8
aI11
aa(lp3468
I2
aI6
aI10
aI11
aa(lp3469
I2
aI6
aI11
aI7
aa(lp3470
I6
aI2
aI11
aI8
aasg18
(lp3471
(dp3472
g21
VADAMATINE
p3473
sg23
V08x8
p3474
sg25
I78
sg26
I1
sg27
I84
sa(dp3475
g21
VBRASADA
p3476
sg23
V2
p3477
sg25
I100
sg26
I2
sg27
I100
sa(dp3478
g21
VEKOFANITE
p3479
sg23
g76
sg25
I81
sg26
I3
sg27
I0
sa(dp3480
g21
VHIGHEST DUTY
p3481
sg23
V959
p3482
sg25
I85
sg26
I4
sg27
I76
sa(dp3483
g21
VMAGNUS EQUUS
p3484
sg23
V9
p3485
sg25
I72
sg26
I5
sg27
I69
sa(dp3486
g21
VMR JAMMO
p3487
sg23
V78x3
p3488
sg25
I99
sg26
I6
sg27
I99
sa(dp3489
g21
VSUNNINGDALE
p3490
sg23
g76
sg25
I92
sg26
I7
sg27
I0
sa(dp3491
g21
VSUTHEBYS
p3492
sg23
V06088
p3493
sg25
I77
sg26
I8
sg27
I79
sa(dp3494
g21
VHOOROOROB
p3495
sg23
g76
sg25
I73
sg26
I9
sg27
I0
sa(dp3496
g21
VRELANSKI
p3497
sg23
V8x05
p3498
sg25
I89
sg26
I10
sg27
I85
sa(dp3499
g21
VEIGHT ONE SANCHEZ
p3500
sg23
V30553
p3501
sg25
I94
sg26
I11
sg27
I92
sasg58
(lp3502
sssI1542440760
(dp3503
g2
Vhttp://www.skyracing.com.au/index.php?component=racing&task=race&id=107961982&meetingid=105028362&Itemid=89
p3504
sg4
V29012093.0746
p3505
sg6
(dp3506
g8
(lp3507
(lp3508
I2
aI5
aI1
aI6
aa(lp3509
I3
aI1
aI2
aI5
aa(lp3510
I3
aI1
aI2
aI5
aa(lp3511
I3
aI1
aI2
aI4
aa(lp3512
I2
aI3
aI1
aI5
aa(lp3513
I1
aI5
aI2
aI6
aa(lp3514
I5
aI2
aI1
aI4
aa(lp3515
I1
aI2
aI3
aI5
aasg18
(lp3516
(dp3517
g21
VHARD STRIDE
p3518
sg23
V10130
p3519
sg25
I90
sg26
I1
sg27
I94
sa(dp3520
g21
VBOOMWAA
p3521
sg23
V83x16
p3522
sg25
I97
sg26
I2
sg27
I100
sa(dp3523
g21
VTISANI TOMSO
p3524
sg23
V27828
p3525
sg25
I78
sg26
I3
sg27
I85
sa(dp3526
g21
VBEAT STREET
p3527
sg23
V4530x
p3528
sg25
I86
sg26
I4
sg27
I82
sa(dp3529
g21
VPUBLISHING POWER
p3530
sg23
V78644
p3531
sg25
I100
sg26
I5
sg27
I98
sa(dp3532
g21
VNARANJA
p3533
sg23
V9341x
p3534
sg25
I89
sg26
I6
sg27
I90
sa(dp3535
g21
VCHOI OI
p3536
sg23
V15x54
p3537
sg25
I94
sg26
I7
sg27
I79
sa(dp3538
g21
VGENDEBIEN
p3539
sg23
V060x1
p3540
sg25
I81
sg26
I8
sg27
I87
sa(dp3541
g21
VZIP TO THE MOON
p3542
sg23
V72370
p3543
sg25
I68
sg26
I9
sg27
I69
sa(dp3544
g21
VDRINKING COCKTAILS
p3545
sg23
V46481
p3546
sg25
I70
sg26
I10
sg27
I74
sa(dp3547
g21
VHOT VINNI
p3548
sg23
V2277x
p3549
sg25
I66
sg26
I11
sg27
I66
sa(dp3550
g21
VPOLAR BLITZ
p3551
sg23
V818x8
p3552
sg25
I73
sg26
I12
sg27
I71
sa(dp3553
g21
VHANOVER SQUARE
p3554
sg23
V565x2
p3555
sg25
I77
sg26
I13
sg27
I75
sasg58
(lp3556
sssI1542437940
(dp3557
g2
Vhttp://www.skyracing.com.au/index.php?component=racing&task=race&id=107962050&meetingid=105028378&Itemid=89
p3558
sg4
V29012367.0659
p3559
sg6
(dp3560
g8
(lp3561
(lp3562
I4
aI2
aI1
aI3
aa(lp3563
I1
aI3
aI2
aI9
aa(lp3564
I3
aI2
aI6
aI7
aa(lp3565
I1
aI2
aI6
aI11
aa(lp3566
I6
aI1
aI2
aI4
aa(lp3567
I1
aI4
aI2
aI9
aa(lp3568
I3
aI4
aI2
aI1
aa(lp3569
I1
aI2
aI4
aI3
aasg18
(lp3570
(dp3571
g21
VMARROCK
p3572
sg23
V7234x
p3573
sg25
I95
sg26
I1
sg27
I93
sa(dp3574
g21
VTHE DANGER
p3575
sg23
Vx6177
p3576
sg25
I92
sg26
I2
sg27
I97
sa(dp3577
g21
VFLAME OF LIBERTY
p3578
sg23
V2x717
p3579
sg25
I97
sg26
I3
sg27
I90
sa(dp3580
g21
VROSENDAHL RED
p3581
sg23
V2x421
p3582
sg25
I100
sg26
I4
sg27
I100
sa(dp3583
g21
VSHEEZINAJAM
p3584
sg23
V20x86
p3585
sg25
I80
sg26
I5
sg27
I76
sa(dp3586
g21
VCOOLMUNDA
p3587
sg23
V645x2
p3588
sg25
I85
sg26
I6
sg27
I83
sa(dp3589
g21
VGYPSY MISS
p3590
sg23
V360x4
p3591
sg25
I75
sg26
I7
sg27
I80
sa(dp3592
g21
VMISHANI SILVA
p3593
sg23
V61662
p3594
sg25
I73
sg26
I8
sg27
I72
sa(dp3595
g21
VERROL
p3596
sg23
V1135x
p3597
sg25
I78
sg26
I9
sg27
I87
sa(dp3598
g21
VI'M FAVULOUS
p3599
sg23
V86571
p3600
sg25
I88
sg26
I10
sg27
I78
sa(dp3601
g21
VIRONBORN
p3602
sg23
V35802
p3603
sg25
I70
sg26
I11
sg27
I70
sa(dp3604
g21
VSTAR OF COLUMBIA
p3605
sg23
V465x2
p3606
sg25
I71
sg26
I12
sg27
I70
sa(dp3607
g21
VRENEWING HOPE
p3608
sg23
V6x556
p3609
sg25
I66
sg26
I13
sg27
I64
sasg58
(lp3610
sssI1542447420
(dp3611
g2
Vhttp://www.skyracing.com.au/index.php?component=racing&task=race&id=107961995&meetingid=105028442&Itemid=89
p3612
sg4
V29012099.0937
p3613
sg6
(dp3614
g8
(lp3615
(lp3616
I3
aI4
aI2
aI8
aa(lp3617
I1
aI2
aI4
aI3
aa(lp3618
I4
aI3
aI7
aI1
aa(lp3619
I1
aI3
aI6
aI4
aa(lp3620
I2
aI3
aI8
aI1
aa(lp3621
I4
aI3
aI2
aI7
aa(lp3622
I3
aI4
aI2
aI8
aa(lp3623
I3
aI4
aI2
aI1
aasg18
(lp3624
(dp3625
g21
VBELLS TOWER
p3626
sg23
V48782
p3627
sg25
I82
sg26
I1
sg27
I80
sa(dp3628
g21
VHEAVEN'S GATE
p3629
sg23
V0076x
p3630
sg25
I96
sg26
I2
sg27
I92
sa(dp3631
g21
VPARADISE SQUARE
p3632
sg23
V57351
p3633
sg25
I100
sg26
I3
sg27
I100
sa(dp3634
g21
VCARD KNIGHT
p3635
sg23
V52132
p3636
sg25
I93
sg26
I4
sg27
I97
sa(dp3637
g21
VMEDOM
p3638
sg23
V8121x
p3639
sg25
I85
sg26
I5
sg27
I83
sa(dp3640
g21
VALUMINIZE
p3641
sg23
V54418
p3642
sg25
I79
sg26
I6
sg27
I72
sa(dp3643
g21
VHE SAID SHE SAID
p3644
sg23
V12450
p3645
sg25
I87
sg26
I7
sg27
I88
sa(dp3646
g21
VNAZARETH
p3647
sg23
V33x21
p3648
sg25
I90
sg26
I8
sg27
I90
sa(dp3649
g21
VBOHEMIAN LASS
p3650
sg23
V3248x
p3651
sg25
I74
sg26
I9
sg27
I77
sa(dp3652
g21
VKILLORGLIN
p3653
sg23
V37772
p3654
sg25
I69
sg26
I10
sg27
I69
sa(dp3655
g21
VMISS HARLEY QUINN
p3656
sg23
V180x5
p3657
sg25
I77
sg26
I11
sg27
I67
sa(dp3658
g21
VVALMONT
p3659
sg23
V4724x
p3660
sg25
I70
sg26
I12
sg27
I75
sasg58
(lp3661
sssI1542431040
(dp3662
g2
Vhttp://www.skyracing.com.au/index.php?component=racing&task=race&id=107961875&meetingid=105028234&Itemid=89
p3663
sg4
V29012087.0504
p3664
sg6
(dp3665
g8
(lp3666
(lp3667
I1
aI9
aI5
aI8
aa(lp3668
I1
aI9
aI11
aI5
aa(lp3669
I1
aI9
aI11
aI5
aa(lp3670
I9
aI11
aI5
aI3
aa(lp3671
I1
aI11
aI9
aI5
aa(lp3672
I9
aI1
aI5
aI8
aa(lp3673
I1
aI9
aI4
aI5
aa(lp3674
I1
aI9
aI11
aI5
aasg18
(lp3675
(dp3676
g21
VARCHEDEMUS
p3677
sg23
V5x2
p3678
sg25
I100
sg26
I1
sg27
I100
sa(dp3679
g21
VFOLLOW THE MONEY
p3680
sg23
V44x67
p3681
sg25
I76
sg26
I2
sg27
I76
sa(dp3682
g21
VRHODE ISLAND
p3683
sg23
V80x85
p3684
sg25
I79
sg26
I3
sg27
I78
sa(dp3685
g21
VCULBERTSON
p3686
sg23
g76
sg25
I95
sg26
I4
sg27
I0
sa(dp3687
g21
VLEARDO
p3688
sg23
V4
p3689
sg25
I92
sg26
I5
sg27
I90
sa(dp3690
g21
VSTRYKE THE GATES
p3691
sg23
V5
p3692
sg25
I73
sg26
I6
sg27
I68
sa(dp3693
g21
VBRIGID OF KILDARE
p3694
sg23
g76
sg25
I82
sg26
I7
sg27
I0
sa(dp3695
g21
VFRENCH FROLIC
p3696
sg23
V4
p3697
sg25
I87
sg26
I8
sg27
I84
sa(dp3698
g21
VLOVED ONE
p3699
sg23
V5x24
p3700
sg25
I99
sg26
I9
sg27
I95
sa(dp3701
g21
VSHE'SINTHELIMELITE
p3702
sg23
V05x8
p3703
sg25
I70
sg26
I10
sg27
I65
sa(dp3704
g21
VWINSPEAR
p3705
sg23
V609x2
p3706
sg25
I84
sg26
I11
sg27
I80
sasg58
(lp3707
sssI1542437700
(dp3708
g2
Vhttp://www.skyracing.com.au/index.php?component=racing&task=race&id=107961834&meetingid=105028282&Itemid=89
p3709
sg4
V29009535.0655
p3710
sg6
(dp3711
g8
(lp3712
(lp3713
I2
aI3
aI4
aI9
aa(lp3714
I1
aI2
aI4
aI8
aa(lp3715
I2
aI1
aI8
aI7
aa(lp3716
I2
aI4
aI8
aI7
aa(lp3717
I8
aI6
aI3
aI4
aa(lp3718
I2
aI16
aI3
aI4
aa(lp3719
I3
aI2
aI4
aI16
aa(lp3720
I2
aI4
aI8
aI3
aasg18
(lp3721
(dp3722
g21
VPEDRENA
p3723
sg23
V80x09
p3724
sg25
I71
sg26
I1
sg27
I64
sa(dp3725
g21
VOUR CROWN MISTRESS
p3726
sg23
V1x034
p3727
sg25
I100
sg26
I2
sg27
I100
sa(dp3728
g21
VSHOKO
p3729
sg23
V12201
p3730
sg25
I97
sg26
I3
sg27
I99
sa(dp3731
g21
VZUMBELINA
p3732
sg23
V53117
p3733
sg25
I92
sg26
I4
sg27
I95
sa(dp3734
g21
VSPLIT LIP
p3735
sg23
Vx0020
p3736
sg25
I85
sg26
I5
sg27
I85
sa(dp3737
g21
VTRULY DISCREET
p3738
sg23
Vx5016
p3739
sg25
I79
sg26
I6
sg27
I78
sa(dp3740
g21
VSPANNER HEAD
p3741
sg23
V54125
p3742
sg25
I76
sg26
I7
sg27
I77
sa(dp3743
g21
VSEDUCTIVE MISS
p3744
sg23
V91562
p3745
sg25
I82
sg26
I8
sg27
I80
sa(dp3746
g21
VMINTHA
p3747
sg23
V1321x
p3748
sg25
I93
sg26
I9
sg27
I94
sa(dp3749
g21
VSNOGGING
p3750
sg23
V90x48
p3751
sg25
I67
sg26
I10
sg27
I69
sa(dp3752
g21
VLADY CROMAC
p3753
sg23
V25195
p3754
sg25
I62
sg26
I11
sg27
I62
sa(dp3755
g21
VAEECEE TONG DE
p3756
sg23
V41560
p3757
sg25
I64
sg26
I12
sg27
I66
sa(dp3758
g21
VI'M A PRINCESS
p3759
sg23
V611x3
p3760
sg25
I89
sg26
I13
sg27
I88
sa(dp3761
g21
VANGELIC SPIRIT
p3762
sg23
Vx9231
p3763
sg25
I69
sg26
I14
sg27
I72
sa(dp3764
g21
VOUR GIRL SILKE
p3765
sg23
Vx1102
p3766
sg25
I86
sg26
I15
sg27
I87
sa(dp3767
g21
VOUR SEA GODDESS
p3768
sg23
V1x211
p3769
sg25
I96
sg26
I16
sg27
I90
sa(dp3770
g21
VSHROUDED IN MIST
p3771
sg23
Vx80x1
p3772
sg25
I74
sg26
I17
sg27
I75
sasg58
(lp3773
sssI1542436680
(dp3774
g2
Vhttp://www.skyracing.com.au/index.php?component=racing&task=race&id=107961980&meetingid=105028362&Itemid=89
p3775
sg4
V29012093.0638
p3776
sg6
(dp3777
g8
(lp3778
(lp3779
I4
aI3
aI10
aI9
aa(lp3780
I3
aI1
aI5
aI2
aa(lp3781
I3
aI1
aI2
aI5
aa(lp3782
I3
aI5
aI2
aI7
aa(lp3783
I9
aI11
aI13
aI7
aa(lp3784
I10
aI4
aI3
aI2
aa(lp3785
I4
aI3
aI2
aI10
aa(lp3786
I3
aI4
aI10
aI2
aasg18
(lp3787
(dp3788
g21
VCRAWFISH
p3789
sg23
V53344
p3790
sg25
I73
sg26
I1
sg27
I69
sa(dp3791
g21
VMOHAKA RIVER
p3792
sg23
V18154
p3793
sg25
I98
sg26
I2
sg27
I86
sa(dp3794
g21
VPOTEMKIN
p3795
sg23
V68426
p3796
sg25
I95
sg26
I3
sg27
I96
sa(dp3797
g21
VYEEZY
p3798
sg23
V51171
p3799
sg25
I100
sg26
I4
sg27
I100
sa(dp3800
g21
VROCKSETTA
p3801
sg23
V63354
p3802
sg25
I78
sg26
I5
sg27
I75
sa(dp3803
g21
VGUD ONYA
p3804
sg23
V41648
p3805
sg25
I65
sg26
I6
sg27
I69
sa(dp3806
g21
VMR OPURRTUNIST
p3807
sg23
V21133
p3808
sg25
I81
sg26
I7
sg27
I85
sa(dp3809
g21
VSTYLISH LUCK
p3810
sg23
V45x61
p3811
sg25
I76
sg26
I8
sg27
I78
sa(dp3812
g21
VIMMUTABLE
p3813
sg23
V19212
p3814
sg25
I87
sg26
I9
sg27
I91
sa(dp3815
g21
VARCTIC CIRCLE
p3816
sg23
V25433
p3817
sg25
I92
sg26
I10
sg27
I92
sa(dp3818
g21
VGRAND EDGEROI
p3819
sg23
V12x04
p3820
sg25
I84
sg26
I11
sg27
I80
sa(dp3821
g21
VDITZY DARCI
p3822
sg23
V50396
p3823
sg25
I72
sg26
I12
sg27
I62
sa(dp3824
g21
VPART THE SEA
p3825
sg23
V65472
p3826
sg25
I69
sg26
I13
sg27
I73
sa(dp3827
g21
VBRIBE THE WITNESS
p3828
sg23
V54635
p3829
sg25
I62
sg26
I14
sg27
I65
sasg58
(lp3830
sssI1542427980
(dp3831
g2
Vhttp://www.skyracing.com.au/index.php?component=racing&task=race&id=107961962&meetingid=105028266&Itemid=89
p3832
sg4
V29012103.0413
p3833
sg6
(dp3834
g8
(lp3835
(lp3836
I3
aI11
aI8
aI4
aa(lp3837
I5
aI1
aI3
aI4
aa(lp3838
I3
aI4
aI6
aI2
aa(lp3839
I9
aI6
aI8
aI3
aa(lp3840
I8
aI3
aI5
aI1
aa(lp3841
I3
aI8
aI11
aI9
aa(lp3842
I3
aI8
aI11
aI4
aa(lp3843
I3
aI8
aI5
aI11
aasg18
(lp3844
(dp3845
g21
VBARADINE BOUND
p3846
sg23
V38604
p3847
sg25
I80
sg26
I1
sg27
I84
sa(dp3848
g21
VBORN TO POWER
p3849
sg23
V86801
p3850
sg25
I78
sg26
I2
sg27
I79
sa(dp3851
g21
VCADEYRN
p3852
sg23
V76213
p3853
sg25
I100
sg26
I3
sg27
I100
sa(dp3854
g21
VCHUR BRO
p3855
sg23
V01406
p3856
sg25
I88
sg26
I4
sg27
I91
sa(dp3857
g21
VDIZZY SPELL
p3858
sg23
V90020
p3859
sg25
I74
sg26
I5
sg27
I73
sa(dp3860
g21
VMORE RANSOM
p3861
sg23
V86048
p3862
sg25
I76
sg26
I6
sg27
I77
sa(dp3863
g21
VCHRISSY BE
p3864
sg23
V90781
p3865
sg25
I91
sg26
I7
sg27
I81
sa(dp3866
g21
VSNAPPY DIAMOND
p3867
sg23
V06614
p3868
sg25
I98
sg26
I8
sg27
I93
sa(dp3869
g21
VBEMBOKA
p3870
sg23
V79458
p3871
sg25
I85
sg26
I9
sg27
I87
sa(dp3872
g21
VLINGENNIC
p3873
sg23
Vx0860
p3874
sg25
I69
sg26
I10
sg27
I72
sa(dp3875
g21
VCAT WALK QUEEN
p3876
sg23
V57365
p3877
sg25
I94
sg26
I11
sg27
I97
sa(dp3878
g21
VOPHAEO ROSE
p3879
sg23
V63788
p3880
sg25
I67
sg26
I12
sg27
I64
sa(dp3881
g21
VYARRAMIN
p3882
sg23
V078
p3883
sg25
I71
sg26
I13
sg27
I71
sasg58
(lp3884
sssI1542434640
(dp3885
g2
Vhttp://www.skyracing.com.au/index.php?component=racing&task=race&id=107962006&meetingid=105028426&Itemid=89
p3886
sg4
V29009646.0604
p3887
sg6
(dp3888
g8
(lp3889
(lp3890
I4
aI5
aI8
aI6
aa(lp3891
I3
aI1
aI6
aI9
aa(lp3892
I1
aI4
aI2
aI8
aa(lp3893
I3
aI1
aI2
aI4
aa(lp3894
I4
aI6
aI7
aI5
aa(lp3895
I8
aI4
aI5
aI3
aa(lp3896
I4
aI5
aI7
aI8
aa(lp3897
I4
aI1
aI3
aI8
aasg18
(lp3898
(dp3899
g21
VRED PUBLISHER
p3900
sg23
V82055
p3901
sg25
I71
sg26
I1
sg27
I69
sa(dp3902
g21
VMAD BRAD
p3903
sg23
V76633
p3904
sg25
I79
sg26
I2
sg27
I81
sa(dp3905
g21
VWOODSVILLE
p3906
sg23
V05360
p3907
sg25
I66
sg26
I3
sg27
I66
sa(dp3908
g21
VARCADIA PRINCE
p3909
sg23
V19x12
p3910
sg25
I100
sg26
I4
sg27
I100
sa(dp3911
g21
VBROKER
p3912
sg23
V2257x
p3913
sg25
I96
sg26
I5
sg27
I99
sa(dp3914
g21
VMIDDLE EARTH
p3915
sg23
V5469x
p3916
sg25
I87
sg26
I6
sg27
I87
sa(dp3917
g21
VMRS BROWN'S BOY
p3918
sg23
V135x4
p3919
sg25
I83
sg26
I7
sg27
I79
sa(dp3920
g21
VDENIM PACK
p3921
sg23
V267x4
p3922
sg25
I94
sg26
I8
sg27
I91
sa(dp3923
g21
VRAGAZZO D'ORO
p3924
sg23
V9x689
p3925
sg25
I75
sg26
I9
sg27
I72
sasg58
(lp3926
sssI1542425400
(dp3927
g2
Vhttp://www.skyracing.com.au/index.php?component=racing&task=race&id=107961843&meetingid=105028218&Itemid=89
p3928
sg4
V29009527.0330
p3929
sg6
(dp3930
g8
(lp3931
(lp3932
I2
aI4
aI5
aI7
aa(lp3933
I2
aI6
aI7
aI4
aa(lp3934
I2
aI4
aI5
aI8
aa(lp3935
I1
aI2
aI4
aI7
aa(lp3936
I7
aI2
aI5
aI6
aa(lp3937
I2
aI4
aI5
aI7
aa(lp3938
I5
aI4
aI3
aI2
aa(lp3939
I2
aI4
aI7
aI5
aasg18
(lp3940
(dp3941
g21
VSENSE OF OCCASION
p3942
sg23
V99x08
p3943
sg25
I65
sg26
I1
sg27
I64
sa(dp3944
g21
VRED EXCITEMENT
p3945
sg23
Vx9201
p3946
sg25
I95
sg26
I2
sg27
I100
sa(dp3947
g21
VOUR CENTURY
p3948
sg23
Vx013x
p3949
sg25
I94
sg26
I3
sg27
I75
sa(dp3950
g21
VMASK OF TIME
p3951
sg23
V97412
p3952
sg25
I87
sg26
I4
sg27
I98
sa(dp3953
g21
VEXOTERIC
p3954
sg23
V62211
p3955
sg25
I100
sg26
I5
sg27
I92
sa(dp3956
g21
VTESTASHADOW
p3957
sg23
V37823
p3958
sg25
I69
sg26
I6
sg27
I72
sa(dp3959
g21
VARTICUS
p3960
sg23
V080x2
p3961
sg25
I77
sg26
I7
sg27
I87
sa(dp3962
g21
VABDON
p3963
sg23
V20255
p3964
sg25
I79
sg26
I8
sg27
I82
sa(dp3965
g21
VNAVAL WARFARE
p3966
sg23
Vx6063
p3967
sg25
I81
sg26
I9
sg27
I79
sasg58
(lp3968
(lp3969
I3
aI7
aI2
aI5
aasssI1542430560
(dp3970
g2
Vhttp://www.skyracing.com.au/index.php?component=racing&task=race&id=107961934&meetingid=105028250&Itemid=89
p3971
sg4
V29012400.0456
p3972
sg6
(dp3973
g8
(lp3974
(lp3975
I1
aI7
aI4
aI3
aa(lp3976
I1
aI2
aI3
aI10
aa(lp3977
I1
aI8
aI7
aI4
aa(lp3978
I1
aI3
aI10
aI4
aa(lp3979
I3
aI7
aI10
aI12
aa(lp3980
I7
aI1
aI4
aI10
aa(lp3981
I4
aI7
aI1
aI10
aa(lp3982
I1
aI7
aI3
aI4
aasg18
(lp3983
(dp3984
g21
VMISSED OUT
p3985
sg23
V25304
p3986
sg25
I93
sg26
I1
sg27
I100
sa(dp3987
g21
VFLYING FROG
p3988
sg23
V980x8
p3989
sg25
I72
sg26
I2
sg27
I63
sa(dp3990
g21
VWARRAGUL
p3991
sg23
V03x02
p3992
sg25
I80
sg26
I3
sg27
I89
sa(dp3993
g21
VMR BROWN FOX
p3994
sg23
V829x1
p3995
sg25
I98
sg26
I4
sg27
I91
sa(dp3996
g21
VBAY OF MODENA
p3997
sg23
Vx1458
p3998
sg25
I74
sg26
I5
sg27
I76
sa(dp3999
g21
VBEING DAZZLED
p4000
sg23
V30615
p4001
sg25
I70
sg26
I6
sg27
I66
sa(dp4002
g21
VDIAMONDS FOR ALICE
p4003
sg23
V23231
p4004
sg25
I100
sg26
I7
sg27
I96
sa(dp4005
g21
VNEVADA DANE
p4006
sg23
V5x354
p4007
sg25
I84
sg26
I8
sg27
I78
sa(dp4008
g21
VJOUNAMA
p4009
sg23
V0136x
p4010
sg25
I79
sg26
I9
sg27
I82
sa(dp4011
g21
VWOLFOFPETERSTREET
p4012
sg23
V223x3
p4013
sg25
I88
sg26
I10
sg27
I85
sa(dp4014
g21
VPATRIKA BELLE
p4015
sg23
V00x53
p4016
sg25
I76
sg26
I11
sg27
I71
sa(dp4017
g21
VSWEET TEMPTATIONS
p4018
sg23
V16x
p4019
sg25
I90
sg26
I12
sg27
I75
sa(dp4020
g21
VSERGEANT SAM
p4021
sg23
V7094x
p4022
sg25
I63
sg26
I13
sg27
I61
sa(dp4023
g21
VCORAZON DE ORO
p4024
sg23
V955x5
p4025
sg25
I65
sg26
I14
sg27
I68
sasg58
(lp4026
sssI1542444900
(dp4027
g2
Vhttp://www.skyracing.com.au/index.php?component=racing&task=race&id=107886493&meetingid=105028314&Itemid=89
p4028
sg4
V29012092.0855
p4029
sg6
(dp4030
g8
(lp4031
(lp4032
I1
aI3
aI4
aI2
aa(lp4033
I2
aI4
aI7
aI5
aa(lp4034
I2
aI3
aI1
aI6
aa(lp4035
I2
aI3
aI1
aI4
aa(lp4036
I2
aI6
aI1
aI4
aa(lp4037
I1
aI4
aI3
aI2
aa(lp4038
I1
aI3
aI2
aI6
aa(lp4039
I2
aI1
aI3
aI4
aasg18
(lp4040
(dp4041
g21
VFRANKEL MY DEAR
p4042
sg23
V85x11
p4043
sg25
I100
sg26
I1
sg27
I100
sa(dp4044
g21
VWRECKING BALL
p4045
sg23
V82x62
p4046
sg25
I94
sg26
I2
sg27
I89
sa(dp4047
g21
VALL THAT SHE WANTS
p4048
sg23
V1x19
p4049
sg25
I95
sg26
I3
sg27
I96
sa(dp4050
g21
VGO ONE BETTER
p4051
sg23
V66253
p4052
sg25
I87
sg26
I4
sg27
I91
sa(dp4053
g21
VALL ABOUT RHYTHM
p4054
sg23
V044x8
p4055
sg25
I82
sg26
I5
sg27
I79
sa(dp4056
g21
VTHEODOLITE
p4057
sg23
V90192
p4058
sg25
I79
sg26
I6
sg27
I83
sa(dp4059
g21
VUNRULY STUDENT
p4060
sg23
V089x5
p4061
sg25
I77
sg26
I7
sg27
I73
sasg58
(lp4062
sssI1542427500
(dp4063
g2
Vhttp://www.skyracing.com.au/index.php?component=racing&task=race&id=107961844&meetingid=105028218&Itemid=89
p4064
sg4
V29009527.0405
p4065
sg6
(dp4066
g8
(lp4067
(lp4068
I7
aI1
aI6
aI8
aa(lp4069
I1
aI3
aI2
aI6
aa(lp4070
I1
aI6
aI7
aI8
aa(lp4071
I1
aI2
aI8
aI7
aa(lp4072
I1
aI3
aI7
aI9
aa(lp4073
I7
aI1
aI8
aI3
aa(lp4074
I7
aI1
aI5
aI6
aa(lp4075
I1
aI7
aI3
aI6
aasg18
(lp4076
(dp4077
g21
VJUNGLE EDGE
p4078
sg23
V69720
p4079
sg25
I90
sg26
I1
sg27
I95
sa(dp4080
g21
VSNIPPETS LAND
p4081
sg23
V771x9
p4082
sg25
I67
sg26
I2
sg27
I72
sa(dp4083
g21
VOXFORD POET
p4084
sg23
V258x5
p4085
sg25
I74
sg26
I3
sg27
I83
sa(dp4086
g21
VMY NORDIC HERO
p4087
sg23
V1572x
p4088
sg25
I79
sg26
I4
sg27
I64
sa(dp4089
g21
VTOUGHERTHANTHEREST
p4090
sg23
V009x7
p4091
sg25
I95
sg26
I5
sg27
I78
sa(dp4092
g21
VFIRSTHAND
p4093
sg23
V40x45
p4094
sg25
I88
sg26
I6
sg27
I91
sa(dp4095
g21
VJUST DREAMING
p4096
sg23
V30x35
p4097
sg25
I100
sg26
I7
sg27
I100
sa(dp4098
g21
VPASSAGE OF TIME
p4099
sg23
V707x2
p4100
sg25
I83
sg26
I8
sg27
I87
sa(dp4101
g21
VDAGNY
p4102
sg23
V4328x
p4103
sg25
I71
sg26
I9
sg27
I73
sasg58
(lp4104
(lp4105
I9
aI8
aI6
aI2
aasssI1542434160
(dp4106
g2
Vhttp://www.skyracing.com.au/index.php?component=racing&task=race&id=107961906&meetingid=105028298&Itemid=89
p4107
sg4
V29012211.0556
p4108
sg6
(dp4109
g8
(lp4110
(lp4111
I2
aI1
aI3
aI14
aa(lp4112
I1
aI2
aI3
aI7
aa(lp4113
I1
aI2
aI7
aI3
aa(lp4114
I7
aI2
aI1
aI11
aa(lp4115
I7
aI11
aI14
aI2
aa(lp4116
I1
aI2
aI14
aI3
aa(lp4117
I3
aI2
aI7
aI1
aa(lp4118
I2
aI1
aI7
aI3
aasg18
(lp4119
(dp4120
g21
VBASSONS
p4121
sg23
V66834
p4122
sg25
I90
sg26
I1
sg27
I96
sa(dp4123
g21
VCENTENARY SHOT
p4124
sg23
V5x648
p4125
sg25
I97
sg26
I2
sg27
I100
sa(dp4126
g21
VINASTRIDE
p4127
sg23
V22754
p4128
sg25
I100
sg26
I3
sg27
I92
sa(dp4129
g21
VJIMMIE JIM
p4130
sg23
V245x8
p4131
sg25
I74
sg26
I4
sg27
I71
sa(dp4132
g21
VSTORM SYSTEM
p4133
sg23
V75x86
p4134
sg25
I72
sg26
I5
sg27
I68
sa(dp4135
g21
VHOSPEDA
p4136
sg23
V45458
p4137
sg25
I85
sg26
I6
sg27
I73
sa(dp4138
g21
VDOOGAN'S DESTINY
p4139
sg23
V06762
p4140
sg25
I93
sg26
I7
sg27
I88
sa(dp4141
g21
VGO WALLY
p4142
sg23
V537x3
p4143
sg25
I75
sg26
I8
sg27
I80
sa(dp4144
g21
VMISS CAVATICA
p4145
sg23
V9954x
p4146
sg25
I79
sg26
I9
sg27
I85
sa(dp4147
g21
VLILAC WINE
p4148
sg23
V05336
p4149
sg25
I71
sg26
I10
sg27
I75
sa(dp4150
g21
VCLAIBORNE KING
p4151
sg23
Vx4662
p4152
sg25
I82
sg26
I11
sg27
I77
sa(dp4153
g21
VSWEET SCHILLY
p4154
sg23
V6x727
p4155
sg25
I64
sg26
I12
sg27
I63
sa(dp4156
g21
VSHARK MAGIC
p4157
sg23
V00900
p4158
sg25
I62
sg26
I13
sg27
I61
sa(dp4159
g21
VKINJULATOR
p4160
sg23
V75263
p4161
sg25
I89
sg26
I14
sg27
I90
sasg58
(lp4162
sssI1542430440
(dp4163
g2
Vhttp://www.skyracing.com.au/index.php?component=racing&task=race&id=107961919&meetingid=105028458&Itemid=89
p4164
sg4
V29012428.0454
p4165
sg6
(dp4166
g8
(lp4167
(lp4168
I5
aI1
aI3
aI4
aa(lp4169
I2
aI3
aI1
aI5
aa(lp4170
I2
aI5
aI4
aI7
aa(lp4171
I2
aI3
aI4
aI5
aa(lp4172
I5
aI4
aI7
aI1
aa(lp4173
I5
aI1
aI3
aI4
aa(lp4174
I5
aI1
aI4
aI3
aa(lp4175
I5
aI2
aI3
aI1
aasg18
(lp4176
(dp4177
g21
VAGREE TO
p4178
sg23
V2134x
p4179
sg25
I95
sg26
I1
sg27
I98
sa(dp4180
g21
VAPRIANO
p4181
sg23
V46278
p4182
sg25
I77
sg26
I2
sg27
I76
sa(dp4183
g21
VGALEOCERDO
p4184
sg23
V736x7
p4185
sg25
I90
sg26
I3
sg27
I91
sa(dp4186
g21
VTOUGH MISSILE
p4187
sg23
V312x2
p4188
sg25
I88
sg26
I4
sg27
I85
sa(dp4189
g21
VSAVS FINALE
p4190
sg23
V2x221
p4191
sg25
I100
sg26
I5
sg27
I100
sa(dp4192
g21
VNUNIVAK
p4193
sg23
V28x57
p4194
sg25
I83
sg26
I6
sg27
I82
sa(dp4195
g21
VMOTOWN BLUES
p4196
sg23
Vx2231
p4197
sg25
I80
sg26
I7
sg27
I78
sasg58
(lp4198
sssI1542432120
(dp4199
g2
Vhttp://www.skyracing.com.au/index.php?component=racing&task=race&id=107961978&meetingid=105028362&Itemid=89
p4200
sg4
V29012093.0522
p4201
sg6
(dp4202
g8
(lp4203
(lp4204
I5
aI7
aI1
aI8
aa(lp4205
I5
aI1
aI6
aI4
aa(lp4206
I1
aI9
aI4
aI8
aa(lp4207
I5
aI1
aI4
aI2
aa(lp4208
I6
aI1
aI9
aI7
aa(lp4209
I5
aI7
aI8
aI1
aa(lp4210
I5
aI1
aI7
aI8
aa(lp4211
I5
aI1
aI7
aI6
aasg18
(lp4212
(dp4213
g21
VDE LOSKO
p4214
sg23
Vx5922
p4215
sg25
I95
sg26
I1
sg27
I92
sa(dp4216
g21
VGOOLBURRA GUY
p4217
sg23
V759x
p4218
sg25
I81
sg26
I2
sg27
I82
sa(dp4219
g21
VHEY AMIGO
p4220
sg23
V655
p4221
sg25
I68
sg26
I3
sg27
I64
sa(dp4222
g21
VSPARMAN
p4223
sg23
V537x5
p4224
sg25
I72
sg26
I4
sg27
I72
sa(dp4225
g21
VSELECT ROYAL
p4226
sg23
Vx7238
p4227
sg25
I100
sg26
I5
sg27
I100
sa(dp4228
g21
VALL ABOUT MARY
p4229
sg23
V08506
p4230
sg25
I78
sg26
I6
sg27
I79
sa(dp4231
g21
VEDENANNIE
p4232
sg23
V32493
p4233
sg25
I93
sg26
I7
sg27
I97
sa(dp4234
g21
VLUCKY DEALEN
p4235
sg23
V37x52
p4236
sg25
I87
sg26
I8
sg27
I89
sa(dp4237
g21
VMY HAPPY PLACE
p4238
sg23
V657x2
p4239
sg25
I73
sg26
I9
sg27
I75
sasg58
(lp4240
sssI1542430080
(dp4241
g2
Vhttp://www.skyracing.com.au/index.php?component=racing&task=race&id=107961963&meetingid=105028266&Itemid=89
p4242
sg4
V29012103.0448
p4243
sg6
(dp4244
g8
(lp4245
(lp4246
I2
aI4
aI10
aI5
aa(lp4247
I1
aI2
aI10
aI5
aa(lp4248
I1
aI2
aI5
aI11
aa(lp4249
I1
aI2
aI10
aI11
aa(lp4250
I1
aI4
aI7
aI3
aa(lp4251
I4
aI2
aI5
aI10
aa(lp4252
I4
aI2
aI5
aI3
aa(lp4253
I2
aI1
aI4
aI10
aasg18
(lp4254
(dp4255
g21
VGOOD VERDICT
p4256
sg23
V27352
p4257
sg25
I85
sg26
I1
sg27
I88
sa(dp4258
g21
VKIND REWARD
p4259
sg23
V55x14
p4260
sg25
I99
sg26
I2
sg27
I100
sa(dp4261
g21
VDALICO GOLD
p4262
sg23
V71
p4263
sg25
I90
sg26
I3
sg27
I84
sa(dp4264
g21
VARROW HAZE
p4265
sg23
V1
p4266
sg25
I100
sg26
I4
sg27
I96
sa(dp4267
g21
VMAGIC TICKET
p4268
sg23
V646x1
p4269
sg25
I93
sg26
I5
sg27
I91
sa(dp4270
g21
VPRIOR ENGAGEMENT
p4271
sg23
V65908
p4272
sg25
I74
sg26
I6
sg27
I74
sa(dp4273
g21
VRED MARAUDER
p4274
sg23
V747x1
p4275
sg25
I78
sg26
I7
sg27
I79
sa(dp4276
g21
VZARWRINKLES
p4277
sg23
V56915
p4278
sg25
I81
sg26
I8
sg27
I81
sa(dp4279
g21
VVELVET GLOVE
p4280
sg23
V62288
p4281
sg25
I71
sg26
I9
sg27
I70
sa(dp4282
g21
VRAVITUDE
p4283
sg23
V40244
p4284
sg25
I89
sg26
I10
sg27
I93
sa(dp4285
g21
VLOVE 'N' DESIRE
p4286
sg23
V75514
p4287
sg25
I76
sg26
I11
sg27
I75
sa(dp4288
g21
VSTATO
p4289
sg23
V08x57
p4290
sg25
I65
sg26
I12
sg27
I64
sa(dp4291
g21
VSENORITAVILLE
p4292
sg23
V38442
p4293
sg25
I68
sg26
I13
sg27
I71
sasg58
(lp4294
sssI1542434880
(dp4295
g2
Vhttp://www.skyracing.com.au/index.php?component=racing&task=race&id=107961965&meetingid=105028266&Itemid=89
p4296
sg4
V29012103.0608
p4297
sg6
(dp4298
g8
(lp4299
(lp4300
I11
aI10
aI3
aI5
aa(lp4301
I9
aI8
aI7
aI2
aa(lp4302
I5
aI3
aI11
aI8
aa(lp4303
I9
aI12
aI5
aI3
aa(lp4304
I8
aI11
aI10
aI9
aa(lp4305
I11
aI3
aI10
aI5
aa(lp4306
I11
aI10
aI4
aI3
aa(lp4307
I11
aI8
aI9
aI3
aasg18
(lp4308
(dp4309
g21
VBELL SERENADE
p4310
sg23
V65623
p4311
sg25
I100
sg26
I1
sg27
I100
sa(dp4312
g21
VPANDA'S MR NOSEY
p4313
sg23
V90869
p4314
sg25
I70
sg26
I2
sg27
I75
sa(dp4315
g21
VLEAP OF LEGEND
p4316
sg23
Vx8042
p4317
sg25
I88
sg26
I3
sg27
I92
sa(dp4318
g21
VOPEROSE
p4319
sg23
V51x66
p4320
sg25
I92
sg26
I4
sg27
I78
sa(dp4321
g21
VMABROUK
p4322
sg23
V697x3
p4323
sg25
I84
sg26
I5
sg27
I89
sa(dp4324
g21
VUSAINLY
p4325
sg23
V85688
p4326
sg25
I68
sg26
I6
sg27
I70
sa(dp4327
g21
VWOLLARTANT
p4328
sg23
V949x5
p4329
sg25
I78
sg26
I7
sg27
I80
sa(dp4330
g21
VDUNDERRY
p4331
sg23
V30368
p4332
sg25
I74
sg26
I8
sg27
I74
sa(dp4333
g21
VKWANZA
p4334
sg23
V93090
p4335
sg25
I65
sg26
I9
sg27
I67
sa(dp4336
g21
VWINTERCONI
p4337
sg23
V43036
p4338
sg25
I95
sg26
I10
sg27
I93
sa(dp4339
g21
VHU HIT HU
p4340
sg23
V54514
p4341
sg25
I99
sg26
I11
sg27
I97
sa(dp4342
g21
VJUJU MAN
p4343
sg23
V36x07
p4344
sg25
I62
sg26
I12
sg27
I62
sa(dp4345
g21
VPRATTLER
p4346
sg23
V09040
p4347
sg25
I80
sg26
I13
sg27
I71
sa(dp4348
g21
VDARK ELIXIR
p4349
sg23
V0x653
p4350
sg25
I76
sg26
I14
sg27
I86
sasg58
(lp4351
sssI1542421380
(dp4352
g2
Vhttp://www.skyracing.com.au/index.php?component=racing&task=race&id=107961915&meetingid=105028458&Itemid=89
p4353
sg4
V29012428.0223
p4354
sg6
(dp4355
g8
(lp4356
(lp4357
I8
aI3
aI2
aI5
aa(lp4358
I16
aI2
aI5
aI10
aa(lp4359
I2
aI5
aI16
aI3
aa(lp4360
I3
aI16
aI2
aI5
aa(lp4361
I2
aI8
aI5
aI16
aa(lp4362
I8
aI3
aI2
aI5
aa(lp4363
I8
aI3
aI2
aI5
aa(lp4364
I2
aI8
aI3
aI5
aasg18
(lp4365
(dp4366
g21
VAPOLOGIZE
p4367
sg23
V0
p4368
sg25
I64
sg26
I1
sg27
I66
sa(dp4369
g21
VHUONTEGZ
p4370
sg23
V47x20
p4371
sg25
I96
sg26
I2
sg27
I94
sa(dp4372
g21
VIRON THRONE
p4373
sg23
V44x6
p4374
sg25
I97
sg26
I3
sg27
I96
sa(dp4375
g21
VJOE PALOOKA
p4376
sg23
V540x8
p4377
sg25
I74
sg26
I4
sg27
I68
sa(dp4378
g21
VPINCENT VAN GOGH
p4379
sg23
Vx3267
p4380
sg25
I94
sg26
I5
sg27
I90
sa(dp4381
g21
VBULLION FRINGE
p4382
sg23
V8
p4383
sg25
I78
sg26
I6
sg27
I76
sa(dp4384
g21
VGEE GEE BORN FREE
p4385
sg23
Vx4657
p4386
sg25
I87
sg26
I7
sg27
I86
sa(dp4387
g21
VGEE GEE ROCKSTAR
p4388
sg23
V72x
p4389
sg25
I100
sg26
I8
sg27
I100
sa(dp4390
g21
VAGGIE
p4391
sg23
V3290x
p4392
sg25
I84
sg26
I9
sg27
I81
sa(dp4393
g21
VBRIMONDO
p4394
sg23
V34053
p4395
sg25
I81
sg26
I10
sg27
I79
sa(dp4396
g21
VMISTRESS OF DESIGN
p4397
sg23
V9x890
p4398
sg25
I67
sg26
I11
sg27
I62
sa(dp4399
g21
VTY'S MISSILE
p4400
sg23
Vx8705
p4401
sg25
I69
sg26
I12
sg27
I72
sa(dp4402
g21
VGYMPINS
p4403
sg23
g76
sg25
I90
sg26
I13
sg27
I0
sa(dp4404
g21
VMISS ISO
p4405
sg23
V060x5
p4406
sg25
I71
sg26
I14
sg27
I73
sa(dp4407
g21
VSHADY HUSTLE
p4408
sg23
g76
sg25
I76
sg26
I15
sg27
I0
sa(dp4409
g21
VVERDANCY
p4410
sg23
V460x6
p4411
sg25
I88
sg26
I16
sg27
I87
sasg58
(lp4412
sssI1542435720
(dp4413
g2
Vhttp://www.skyracing.com.au/index.php?component=racing&task=race&id=107962021&meetingid=105028394&Itemid=89
p4414
sg4
V29012404.0622
p4415
sg6
(dp4416
g8
(lp4417
(lp4418
I4
aI3
aI2
aI1
aa(lp4419
I2
aI4
aI3
aI1
aa(lp4420
I3
aI4
aI2
aI1
aa(lp4421
I1
aI5
aI3
aI4
aa(lp4422
I2
aI1
aI5
aI4
aa(lp4423
I4
aI3
aI2
aI1
aa(lp4424
I4
aI3
aI2
aI1
aa(lp4425
I4
aI3
aI2
aI1
aasg18
(lp4426
(dp4427
g21
VRESTLESS
p4428
sg23
V31x42
p4429
sg25
I86
sg26
I1
sg27
I87
sa(dp4430
g21
VZIMZALA
p4431
sg23
Vx80x5
p4432
sg25
I90
sg26
I2
sg27
I90
sa(dp4433
g21
VISLE OF LIGHT
p4434
sg23
V6x155
p4435
sg25
I100
sg26
I3
sg27
I95
sa(dp4436
g21
VMY SNIP
p4437
sg23
Vx2625
p4438
sg25
I96
sg26
I4
sg27
I100
sa(dp4439
g21
VCAN LA
p4440
sg23
V0294x
p4441
sg25
I81
sg26
I5
sg27
I84
sa(dp4442
g21
VCHOICE APPROACH
p4443
sg23
V77x73
p4444
sg25
I80
sg26
I6
sg27
I79
sasg58
(lp4445
sssI1542417900
(dp4446
g2
Vhttp://www.skyracing.com.au/index.php?component=racing&task=race&id=107961825&meetingid=105028282&Itemid=89
p4447
sg4
V29009535.0125
p4448
sg6
(dp4449
g8
(lp4450
(lp4451
I9
aI2
aI1
aI10
aa(lp4452
I1
aI10
aI2
aI9
aa(lp4453
I1
aI10
aI2
aI9
aa(lp4454
I1
aI10
aI2
aI9
aa(lp4455
I1
aI9
aI10
aI2
aa(lp4456
I2
aI9
aI1
aI10
aa(lp4457
I9
aI2
aI1
aI7
aa(lp4458
I1
aI2
aI9
aI10
aasg18
(lp4459
(dp4460
g21
VJONAH
p4461
sg23
V2
p4462
sg25
I94
sg26
I1
sg27
I87
sa(dp4463
g21
VMEMPHIS ROCK
p4464
sg23
V47
p4465
sg25
I96
sg26
I2
sg27
I93
sa(dp4466
g21
VBANDINELLI
p4467
sg23
g76
sg25
I66
sg26
I3
sg27
I0
sa(dp4468
g21
VOH SO REWARDING
p4469
sg23
g76
sg25
I75
sg26
I4
sg27
I0
sa(dp4470
g21
VOPTIMIZZER
p4471
sg23
g76
sg25
I72
sg26
I5
sg27
I0
sa(dp4472
g21
VOYASHIO
p4473
sg23
g76
sg25
I73
sg26
I6
sg27
I0
sa(dp4474
g21
VTORCHED
p4475
sg23
g76
sg25
I92
sg26
I7
sg27
I0
sa(dp4476
g21
VWOLF WHISTLE
p4477
sg23
g76
sg25
I70
sg26
I8
sg27
I0
sa(dp4478
g21
VSALOME
p4479
sg23
V3
p4480
sg25
I100
sg26
I9
sg27
I100
sa(dp4481
g21
VFIRST DAWN
p4482
sg23
V7
p4483
sg25
I79
sg26
I10
sg27
I83
sa(dp4484
g21
VEDINBURGH
p4485
sg23
g76
sg25
I81
sg26
I11
sg27
I0
sa(dp4486
g21
VSALINA
p4487
sg23
g76
sg25
I86
sg26
I12
sg27
I0
sa(dp4488
g21
VSTEAL MY KISSES
p4489
sg23
g76
sg25
I88
sg26
I13
sg27
I0
sasg58
(lp4490
sssI1542433680
(dp4491
g2
Vhttp://www.skyracing.com.au/index.php?component=racing&task=race&id=107961950&meetingid=105028346&Itemid=89
p4492
sg4
V29012417.0548
p4493
sg6
(dp4494
g8
(lp4495
(lp4496
I1
aI3
aI6
aI7
aa(lp4497
I3
aI4
aI9
aI1
aa(lp4498
I3
aI4
aI1
aI7
aa(lp4499
I3
aI9
aI4
aI1
aa(lp4500
I1
aI3
aI9
aI6
aa(lp4501
I3
aI1
aI6
aI7
aa(lp4502
I1
aI7
aI6
aI5
aa(lp4503
I3
aI1
aI4
aI9
aasg18
(lp4504
(dp4505
g21
VSPICERS PEAK
p4506
sg23
Vx3251
p4507
sg25
I100
sg26
I1
sg27
I100
sa(dp4508
g21
VSTORMY LEO
p4509
sg23
V608x4
p4510
sg25
I74
sg26
I2
sg27
I73
sa(dp4511
g21
VTOGA PICTA
p4512
sg23
V49x43
p4513
sg25
I91
sg26
I3
sg27
I96
sa(dp4514
g21
VVOLOMITE
p4515
sg23
Vx5454
p4516
sg25
I76
sg26
I4
sg27
I77
sa(dp4517
g21
VBACCHUR
p4518
sg23
V18x6
p4519
sg25
I89
sg26
I5
sg27
I86
sa(dp4520
g21
VBRINKMANSHIP
p4521
sg23
Vx2573
p4522
sg25
I99
sg26
I6
sg27
I93
sa(dp4523
g21
VALL APOLOGIES
p4524
sg23
V416
p4525
sg25
I94
sg26
I7
sg27
I90
sa(dp4526
g21
VPASS OF GOLD
p4527
sg23
V97994
p4528
sg25
I79
sg26
I8
sg27
I79
sa(dp4529
g21
VSERIOUS DOUBTS
p4530
sg23
V17x56
p4531
sg25
I86
sg26
I9
sg27
I88
sa(dp4532
g21
VSTAR OF COLUMBIA
p4533
sg23
V465x2
p4534
sg25
I80
sg26
I10
sg27
I82
sa(dp4535
g21
VDEBONAIR DES
p4536
sg23
V739x7
p4537
sg25
I70
sg26
I11
sg27
I72
sasg58
(lp4538
sssI1542447000
(dp4539
g2
Vhttp://www.skyracing.com.au/index.php?component=racing&task=race&id=107962069&meetingid=105028314&Itemid=89
p4540
sg4
V29012092.0930
p4541
sg6
(dp4542
g8
(lp4543
(lp4544
I6
aI1
aI2
aI4
aa(lp4545
I6
aI2
aI1
aI8
aa(lp4546
I2
aI1
aI6
aI7
aa(lp4547
I1
aI5
aI2
aI6
aa(lp4548
I6
aI1
aI7
aI8
aa(lp4549
I1
aI6
aI2
aI4
aa(lp4550
I1
aI6
aI2
aI4
aa(lp4551
I1
aI6
aI2
aI7
aasg18
(lp4552
(dp4553
g21
VCUBBY
p4554
sg23
V245x2
p4555
sg25
I100
sg26
I1
sg27
I97
sa(dp4556
g21
VINFERNAL
p4557
sg23
V688x3
p4558
sg25
I93
sg26
I2
sg27
I93
sa(dp4559
g21
VFAY'S JOY
p4560
sg23
Vx08x4
p4561
sg25
I85
sg26
I3
sg27
I82
sa(dp4562
g21
VSPIRITOSA
p4563
sg23
V6x37
p4564
sg25
I82
sg26
I4
sg27
I85
sa(dp4565
g21
VWOMAN IN RED
p4566
sg23
V557x8
p4567
sg25
I80
sg26
I5
sg27
I76
sa(dp4568
g21
VMERRY MAGIC
p4569
sg23
V74841
p4570
sg25
I95
sg26
I6
sg27
I100
sa(dp4571
g21
VCHEAP TYCOON
p4572
sg23
Vx0743
p4573
sg25
I74
sg26
I7
sg27
I78
sa(dp4574
g21
VCOUREUSE CONTROLS
p4575
sg23
V06x46
p4576
sg25
I70
sg26
I8
sg27
I68
sasg58
(lp4577
sssI1542448020
(dp4578
g2
Vhttp://www.skyracing.com.au/index.php?component=racing&task=race&id=107962012&meetingid=105028426&Itemid=89
p4579
sg4
V29009646.0947
p4580
sg6
(dp4581
g8
(lp4582
(lp4583
I1
aI12
aI15
aI9
aa(lp4584
I7
aI3
aI6
aI1
aa(lp4585
I1
aI2
aI8
aI3
aa(lp4586
I13
aI3
aI6
aI12
aa(lp4587
I12
aI5
aI14
aI9
aa(lp4588
I1
aI12
aI15
aI9
aa(lp4589
I1
aI12
aI9
aI2
aa(lp4590
I1
aI12
aI3
aI15
aasg18
(lp4591
(dp4592
g21
VDARK PROSPECT
p4593
sg23
V51433
p4594
sg25
I100
sg26
I1
sg27
I100
sa(dp4595
g21
VDOUBLE DIGIT
p4596
sg23
V91518
p4597
sg25
I94
sg26
I2
sg27
I89
sa(dp4598
g21
VSENSO
p4599
sg23
V35x84
p4600
sg25
I89
sg26
I3
sg27
I91
sa(dp4601
g21
VBARZINHO
p4602
sg23
V90x07
p4603
sg25
I73
sg26
I4
sg27
I74
sa(dp4604
g21
VMY FAIR BEAUTY
p4605
sg23
V18591
p4606
sg25
I86
sg26
I5
sg27
I82
sa(dp4607
g21
VPUSH TO PASS
p4608
sg23
V74746
p4609
sg25
I72
sg26
I6
sg27
I76
sa(dp4610
g21
VNOT AGAIN KEN
p4611
sg23
V00x00
p4612
sg25
I62
sg26
I7
sg27
I63
sa(dp4613
g21
VJUICING CARROTS
p4614
sg23
V23338
p4615
sg25
I84
sg26
I8
sg27
I86
sa(dp4616
g21
VPRESS THE PETAL
p4617
sg23
V54x33
p4618
sg25
I91
sg26
I9
sg27
I93
sa(dp4619
g21
VRED PADDY
p4620
sg23
V52088
p4621
sg25
I65
sg26
I10
sg27
I65
sa(dp4622
g21
VMR ALBY
p4623
sg23
V51581
p4624
sg25
I76
sg26
I11
sg27
I79
sa(dp4625
g21
VTHE BIG SHOW
p4626
sg23
Vx3621
p4627
sg25
I99
sg26
I12
sg27
I98
sa(dp4628
g21
VTOPPA DAWOZZA
p4629
sg23
V56472
p4630
sg25
I69
sg26
I13
sg27
I71
sa(dp4631
g21
VRARE COIN
p4632
sg23
Vx8899
p4633
sg25
I66
sg26
I14
sg27
I68
sa(dp4634
g21
VAMERICAN JOY
p4635
sg23
V39x25
p4636
sg25
I95
sg26
I15
sg27
I96
sa(dp4637
g21
VBEAUCOUNT
p4638
sg23
Vx5243
p4639
sg25
I80
sg26
I16
sg27
I84
sa(dp4640
g21
VTHE ENCHANTRESS
p4641
sg23
V11306
p4642
sg25
I79
sg26
I17
sg27
I66
sasg58
(lp4643
sssI1542423960
(dp4644
g2
Vhttp://www.skyracing.com.au/index.php?component=racing&task=race&id=107961931&meetingid=105028250&Itemid=89
p4645
sg4
V29012400.0306
p4646
sg6
(dp4647
g8
(lp4648
(lp4649
I3
aI5
aI6
aI12
aa(lp4650
I3
aI5
aI12
aI6
aa(lp4651
I3
aI6
aI12
aI8
aa(lp4652
I12
aI3
aI6
aI5
aa(lp4653
I3
aI12
aI7
aI5
aa(lp4654
I3
aI6
aI5
aI1
aa(lp4655
I3
aI6
aI5
aI8
aa(lp4656
I3
aI12
aI6
aI5
aasg18
(lp4657
(dp4658
g21
VHOUSE PARTY
p4659
sg23
V57
p4660
sg25
I80
sg26
I1
sg27
I80
sa(dp4661
g21
VJACKDAW
p4662
sg23
V5
p4663
sg25
I79
sg26
I2
sg27
I79
sa(dp4664
g21
VAMMERLAND
p4665
sg23
V828x2
p4666
sg25
I100
sg26
I3
sg27
I100
sa(dp4667
g21
VCOURT THE WARRIOR
p4668
sg23
V6
p4669
sg25
I76
sg26
I4
sg27
I77
sa(dp4670
g21
VSPUDFEST
p4671
sg23
V0544x
p4672
sg25
I96
sg26
I5
sg27
I97
sa(dp4673
g21
VWITHORN
p4674
sg23
V554x4
p4675
sg25
I95
sg26
I6
sg27
I93
sa(dp4676
g21
VCURRAWONG
p4677
sg23
V57x27
p4678
sg25
I84
sg26
I7
sg27
I84
sa(dp4679
g21
VDARK ALIBI
p4680
sg23
V5
p4681
sg25
I87
sg26
I8
sg27
I88
sa(dp4682
g21
VFLAMING FOX
p4683
sg23
V79
p4684
sg25
I68
sg26
I9
sg27
I68
sa(dp4685
g21
VLOLLY
p4686
sg23
V76520
p4687
sg25
I74
sg26
I10
sg27
I74
sa(dp4688
g21
VMUSIC WRITER
p4689
sg23
V69x95
p4690
sg25
I71
sg26
I11
sg27
I72
sa(dp4691
g21
VOLD TRAFFORD
p4692
sg23
V80454
p4693
sg25
I90
sg26
I12
sg27
I90
sasg58
(lp4694
sssI1542433860
(dp4695
g2
Vhttp://www.skyracing.com.au/index.php?component=racing&task=race&id=107886316&meetingid=105028410&Itemid=89
p4696
sg4
V29009528.0551
p4697
sg6
(dp4698
g8
(lp4699
(lp4700
I3
aI2
aI10
aI6
aa(lp4701
I8
aI2
aI1
aI5
aa(lp4702
I2
aI6
aI3
aI7
aa(lp4703
I13
aI4
aI2
aI3
aa(lp4704
I3
aI2
aI9
aI6
aa(lp4705
I2
aI3
aI10
aI6
aa(lp4706
I2
aI3
aI1
aI10
aa(lp4707
I2
aI3
aI6
aI10
aasg18
(lp4708
(dp4709
g21
VGRACENA
p4710
sg23
V4x005
p4711
sg25
I96
sg26
I1
sg27
I87
sa(dp4712
g21
VAAGAS
p4713
sg23
V15333
p4714
sg25
I95
sg26
I2
sg27
I96
sa(dp4715
g21
VBOX ON COLLINS
p4716
sg23
V40x22
p4717
sg25
I100
sg26
I3
sg27
I100
sa(dp4718
g21
VDR DAPPER
p4719
sg23
V80605
p4720
sg25
I72
sg26
I4
sg27
I70
sa(dp4721
g21
VOH SO UNFAIR
p4722
sg23
V11862
p4723
sg25
I85
sg26
I5
sg27
I79
sa(dp4724
g21
VWITH A BIT OF DASH
p4725
sg23
V41622
p4726
sg25
I87
sg26
I6
sg27
I90
sa(dp4727
g21
VI HAVE ARRIVED
p4728
sg23
V92443
p4729
sg25
I79
sg26
I7
sg27
I80
sa(dp4730
g21
VRESET ME I'M WILD
p4731
sg23
Vx0065
p4732
sg25
I75
sg26
I8
sg27
I77
sa(dp4733
g21
VAURORA MISS
p4734
sg23
V80x43
p4735
sg25
I70
sg26
I9
sg27
I68
sa(dp4736
g21
VSTAR STATUS
p4737
sg23
Vx3413
p4738
sg25
I91
sg26
I10
sg27
I93
sa(dp4739
g21
VSET TO CRUISE
p4740
sg23
V96x71
p4741
sg25
I74
sg26
I11
sg27
I73
sa(dp4742
g21
VSVETLANA'S ARROW
p4743
sg23
V84796
p4744
sg25
I65
sg26
I12
sg27
I67
sa(dp4745
g21
VAMEROCK
p4746
sg23
V33x00
p4747
sg25
I80
sg26
I13
sg27
I84
sasg58
(lp4748
(lp4749
I3
aI10
aI13
aI6
aasssI1542436260
(dp4750
g2
Vhttp://www.skyracing.com.au/index.php?component=racing&task=race&id=107961892&meetingid=105028410&Itemid=89
p4751
sg4
V29009528.0631
p4752
sg6
(dp4753
g8
(lp4754
(lp4755
I4
aI10
aI9
aI2
aa(lp4756
I1
aI5
aI3
aI6
aa(lp4757
I2
aI4
aI1
aI9
aa(lp4758
I1
aI2
aI4
aI8
aa(lp4759
I9
aI10
aI12
aI4
aa(lp4760
I4
aI10
aI9
aI2
aa(lp4761
I4
aI10
aI9
aI7
aa(lp4762
I4
aI1
aI10
aI9
aasg18
(lp4763
(dp4764
g21
VREADY SUNSHINE
p4765
sg23
V54332
p4766
sg25
I79
sg26
I1
sg27
I86
sa(dp4767
g21
VEXPERIMENTATION
p4768
sg23
V44x13
p4769
sg25
I90
sg26
I2
sg27
I91
sa(dp4770
g21
VCOCKLES
p4771
sg23
V007x0
p4772
sg25
I63
sg26
I3
sg27
I64
sa(dp4773
g21
VDOMINATION
p4774
sg23
V81919
p4775
sg25
I100
sg26
I4
sg27
I100
sa(dp4776
g21
VCLASSY JACK
p4777
sg23
V94x84
p4778
sg25
I70
sg26
I5
sg27
I72
sa(dp4779
g21
VMISS CUOCO
p4780
sg23
V030x8
p4781
sg25
I81
sg26
I6
sg27
I79
sa(dp4782
g21
VWING SNIPPER
p4783
sg23
Vx67x6
p4784
sg25
I87
sg26
I7
sg27
I75
sa(dp4785
g21
VFLORID
p4786
sg23
Vx256x
p4787
sg25
I85
sg26
I8
sg27
I89
sa(dp4788
g21
VMISS LABELLE
p4789
sg23
V0x225
p4790
sg25
I94
sg26
I9
sg27
I95
sa(dp4791
g21
VOVER AND ABOVE
p4792
sg23
V2120x
p4793
sg25
I98
sg26
I10
sg27
I99
sa(dp4794
g21
VICELANDIC STAR
p4795
sg23
Vx2375
p4796
sg25
I65
sg26
I11
sg27
I70
sa(dp4797
g21
VKABINI
p4798
sg23
V950x2
p4799
sg25
I75
sg26
I12
sg27
I80
sa(dp4800
g21
VATOMIC LOKADE
p4801
sg23
V72170
p4802
sg25
I70
sg26
I13
sg27
I73
sa(dp4803
g21
VANAMNESIS
p4804
sg23
V1x560
p4805
sg25
I73
sg26
I14
sg27
I63
sasg58
(lp4806
(lp4807
I8
aI10
aI12
aI4
aasssI1542435240
(dp4808
g2
Vhttp://www.skyracing.com.au/index.php?component=racing&task=race&id=107961921&meetingid=105028458&Itemid=89
p4809
sg4
V29012428.0614
p4810
sg6
(dp4811
g8
(lp4812
(lp4813
I1
aI3
aI2
aI4
aa(lp4814
I4
aI3
aI2
aI6
aa(lp4815
I3
aI2
aI1
aI5
aa(lp4816
I3
aI6
aI1
aI5
aa(lp4817
I1
aI5
aI3
aI4
aa(lp4818
I4
aI1
aI3
aI2
aa(lp4819
I1
aI3
aI2
aI5
aa(lp4820
I3
aI1
aI4
aI2
aasg18
(lp4821
(dp4822
g21
VPAION
p4823
sg23
V1x241
p4824
sg25
I100
sg26
I1
sg27
I100
sa(dp4825
g21
VTHE GREATNESS
p4826
sg23
V0x126
p4827
sg25
I92
sg26
I2
sg27
I90
sa(dp4828
g21
VMANILENYA
p4829
sg23
V46x22
p4830
sg25
I96
sg26
I3
sg27
I96
sa(dp4831
g21
VWYUNA
p4832
sg23
Vx4397
p4833
sg25
I84
sg26
I4
sg27
I79
sa(dp4834
g21
VQUICK QUILL
p4835
sg23
V55316
p4836
sg25
I87
sg26
I5
sg27
I74
sa(dp4837
g21
VGEEGEES GRAN LODGE
p4838
sg23
V80x65
p4839
sg25
I79
sg26
I6
sg27
I70
sa(dp4840
g21
VHIRVONEN
p4841
sg23
V3x575
p4842
sg25
I73
sg26
I7
sg27
I65
sasg58
(lp4843
sssI1542421860
(dp4844
g2
Vhttp://www.skyracing.com.au/index.php?component=racing&task=race&id=107961930&meetingid=105028250&Itemid=89
p4845
sg4
V29012400.0231
p4846
sg6
(dp4847
g8
(lp4848
(lp4849
I1
aI2
aI7
aI4
aa(lp4850
I1
aI9
aI10
aI7
aa(lp4851
I1
aI7
aI11
aI8
aa(lp4852
I9
aI1
aI2
aI4
aa(lp4853
I9
aI1
aI2
aI4
aa(lp4854
I1
aI2
aI7
aI4
aa(lp4855
I1
aI2
aI4
aI5
aa(lp4856
I1
aI9
aI2
aI7
aasg18
(lp4857
(dp4858
g21
VNOBODY'S PUPPET
p4859
sg23
Vx2523
p4860
sg25
I100
sg26
I1
sg27
I100
sa(dp4861
g21
VTOOLBAR
p4862
sg23
V2367x
p4863
sg25
I99
sg26
I2
sg27
I95
sa(dp4864
g21
VLUVIA
p4865
sg23
V6
p4866
sg25
I73
sg26
I3
sg27
I71
sa(dp4867
g21
VPROSE 'N' CONS
p4868
sg23
V93x
p4869
sg25
I95
sg26
I4
sg27
I86
sa(dp4870
g21
VFABULOUS FRAN
p4871
sg23
g76
sg25
I91
sg26
I5
sg27
I0
sa(dp4872
g21
VONAROLL
p4873
sg23
g76
sg25
I84
sg26
I6
sg27
I0
sa(dp4874
g21
VBEAR ESTEEM
p4875
sg23
V8x203
p4876
sg25
I89
sg26
I7
sg27
I92
sa(dp4877
g21
VFEARLESS FALCON
p4878
sg23
V37x89
p4879
sg25
I72
sg26
I8
sg27
I65
sa(dp4880
g21
VFOX BEAT
p4881
sg23
V0799x
p4882
sg25
I82
sg26
I9
sg27
I84
sa(dp4883
g21
VMIDNIGHT JUMPER
p4884
sg23
V0930x
p4885
sg25
I70
sg26
I10
sg27
I60
sa(dp4886
g21
VSINGLE RED ROSE
p4887
sg23
V77994
p4888
sg25
I76
sg26
I11
sg27
I76
sa(dp4889
g21
VWHO TOLD YA
p4890
sg23
V6377x
p4891
sg25
I78
sg26
I12
sg27
I79
sasg58
(lp4892
sssI1542426540
(dp4893
g2
Vhttp://www.skyracing.com.au/index.php?component=racing&task=race&id=107886298&meetingid=105028234&Itemid=89
p4894
sg4
V29012087.0349
p4895
sg6
(dp4896
g8
(lp4897
(lp4898
I2
aI4
aI3
aI6
aa(lp4899
I2
aI5
aI10
aI7
aa(lp4900
I2
aI3
aI6
aI5
aa(lp4901
I7
aI2
aI1
aI3
aa(lp4902
I6
aI2
aI10
aI9
aa(lp4903
I4
aI2
aI9
aI3
aa(lp4904
I4
aI2
aI7
aI3
aa(lp4905
I2
aI4
aI3
aI6
aasg18
(lp4906
(dp4907
g21
VJUST LIKE STRATUM
p4908
sg23
V75x7x
p4909
sg25
I84
sg26
I1
sg27
I76
sa(dp4910
g21
VTIME OUT OF MIND
p4911
sg23
V18x52
p4912
sg25
I96
sg26
I2
sg27
I100
sa(dp4913
g21
VCRIMSON TICKET
p4914
sg23
Vx29x5
p4915
sg25
I92
sg26
I3
sg27
I91
sa(dp4916
g21
VRARE EPISODE
p4917
sg23
V133
p4918
sg25
I100
sg26
I4
sg27
I95
sa(dp4919
g21
VDESTINY'S REWARD
p4920
sg23
V76469
p4921
sg25
I74
sg26
I5
sg27
I67
sa(dp4922
g21
VLIVING DOLL
p4923
sg23
V5x311
p4924
sg25
I88
sg26
I6
sg27
I87
sa(dp4925
g21
VTWIRLING MOSS
p4926
sg23
Vx15x4
p4927
sg25
I93
sg26
I7
sg27
I83
sa(dp4928
g21
VGENOVEFFA
p4929
sg23
V8215x
p4930
sg25
I81
sg26
I8
sg27
I80
sa(dp4931
g21
VGRUNDALINA
p4932
sg23
Vx423x
p4933
sg25
I79
sg26
I9
sg27
I84
sa(dp4934
g21
VTAPAVINO
p4935
sg23
V0x682
p4936
sg25
I76
sg26
I10
sg27
I73
sa(dp4937
g21
VSEE ME OUT
p4938
sg23
V77x14
p4939
sg25
I70
sg26
I11
sg27
I71
sasg58
(lp4940
sssI1542433200
(dp4941
g2
Vhttp://www.skyracing.com.au/index.php?component=racing&task=race&id=107961832&meetingid=105028282&Itemid=89
p4942
sg4
V29009535.0540
p4943
sg6
(dp4944
g8
(lp4945
(lp4946
I4
aI7
aI3
aI2
aa(lp4947
I4
aI2
aI1
aI3
aa(lp4948
I4
aI2
aI1
aI3
aa(lp4949
I2
aI4
aI1
aI3
aa(lp4950
I2
aI4
aI1
aI3
aa(lp4951
I4
aI3
aI7
aI8
aa(lp4952
I7
aI8
aI2
aI4
aa(lp4953
I4
aI2
aI3
aI1
aasg18
(lp4954
(dp4955
g21
VWHO SHOT THEBARMAN
p4956
sg23
V76940
p4957
sg25
I80
sg26
I1
sg27
I72
sa(dp4958
g21
VVENTURA STORM
p4959
sg23
V94010
p4960
sg25
I83
sg26
I2
sg27
I88
sa(dp4961
g21
VLIBRAN
p4962
sg23
V37833
p4963
sg25
I88
sg26
I3
sg27
I92
sa(dp4964
g21
VTHE TAJ MAHAL
p4965
sg23
V79159
p4966
sg25
I93
sg26
I4
sg27
I100
sa(dp4967
g21
VSIR ISAAC NEWTON
p4968
sg23
Vx4365
p4969
sg25
I71
sg26
I5
sg27
I79
sa(dp4970
g21
VLORD FANDANGO
p4971
sg23
V0x364
p4972
sg25
I74
sg26
I6
sg27
I76
sa(dp4973
g21
VDAL HARRAILD
p4974
sg23
V24682
p4975
sg25
I96
sg26
I7
sg27
I97
sa(dp4976
g21
VOUR LIBRETTO
p4977
sg23
V11117
p4978
sg25
I100
sg26
I8
sg27
I84
sasg58
(lp4979
sssI1542432840
(dp4980
g2
Vhttp://www.skyracing.com.au/index.php?component=racing&task=race&id=107961920&meetingid=105028458&Itemid=89
p4981
sg4
V29012428.0534
p4982
sg6
(dp4983
g8
(lp4984
(lp4985
I1
aI4
aI5
aI3
aa(lp4986
I1
aI3
aI6
aI4
aa(lp4987
I1
aI5
aI3
aI7
aa(lp4988
I2
aI1
aI5
aI3
aa(lp4989
I7
aI5
aI4
aI8
aa(lp4990
I1
aI5
aI4
aI3
aa(lp4991
I1
aI2
aI4
aI5
aa(lp4992
I1
aI5
aI4
aI3
aasg18
(lp4993
(dp4994
g21
VCOUNT DA VINCI
p4995
sg23
V456x0
p4996
sg25
I100
sg26
I1
sg27
I100
sa(dp4997
g21
VJERILDERIE LETTER
p4998
sg23
V25x06
p4999
sg25
I94
sg26
I2
sg27
I81
sa(dp5000
g21
VGEEGEES GOLDENGIRL
p5001
sg23
V250x5
p5002
sg25
I81
sg26
I3
sg27
I87
sa(dp5003
g21
VKOOL KASH
p5004
sg23
V1111x
p5005
sg25
I95
sg26
I4
sg27
I95
sa(dp5006
g21
VKILLIN FALLS
p5007
sg23
V55x33
p5008
sg25
I85
sg26
I5
sg27
I93
sa(dp5009
g21
VGEEGEES BARITONE
p5010
sg23
V809x6
p5011
sg25
I63
sg26
I6
sg27
I68
sa(dp5012
g21
VMINUTE REPEATER
p5013
sg23
V15x84
p5014
sg25
I74
sg26
I7
sg27
I76
sa(dp5015
g21
VCENTURY ARROW
p5016
sg23
V124x5
p5017
sg25
I80
sg26
I8
sg27
I79
sa(dp5018
g21
VKING MANU
p5019
sg23
Vx4x34
p5020
sg25
I71
sg26
I9
sg27
I70
sa(dp5021
g21
VBOART
p5022
sg23
V44365
p5023
sg25
I60
sg26
I10
sg27
I62
sasg58
(lp5024
sssI1542423480
(dp5025
g2
Vhttp://www.skyracing.com.au/index.php?component=racing&task=race&id=107961960&meetingid=105028266&Itemid=89
p5026
sg4
V29012103.0258
p5027
sg6
(dp5028
g8
(lp5029
(lp5030
I8
aI1
aI5
aI6
aa(lp5031
I8
aI1
aI6
aI5
aa(lp5032
I1
aI8
aI5
aI6
aa(lp5033
I1
aI6
aI8
aI5
aa(lp5034
I8
aI1
aI6
aI5
aa(lp5035
I8
aI1
aI5
aI6
aa(lp5036
I8
aI1
aI6
aI5
aa(lp5037
I8
aI1
aI6
aI5
aasg18
(lp5038
(dp5039
g21
VBENNELONG
p5040
sg23
V78803
p5041
sg25
I96
sg26
I1
sg27
I97
sa(dp5042
g21
VGREAT SHINE
p5043
sg23
g76
sg25
I77
sg26
I2
sg27
I0
sa(dp5044
g21
VMY GIRL GRACE
p5045
sg23
g76
sg25
I86
sg26
I3
sg27
I0
sa(dp5046
g21
VSUPREME EXPRESS
p5047
sg23
g76
sg25
I67
sg26
I4
sg27
I0
sa(dp5048
g21
VTALDORA MISS
p5049
sg23
V4
p5050
sg25
I90
sg26
I5
sg27
I91
sa(dp5051
g21
VMATCHFOX
p5052
sg23
Vx5396
p5053
sg25
I84
sg26
I6
sg27
I89
sa(dp5054
g21
VCASULA LAD
p5055
sg23
V40864
p5056
sg25
I78
sg26
I7
sg27
I82
sa(dp5057
g21
VSTARS GALAWE
p5058
sg23
V32453
p5059
sg25
I100
sg26
I8
sg27
I100
sa(dp5060
g21
VSTRADA LANE
p5061
sg23
V5760x
p5062
sg25
I70
sg26
I9
sg27
I80
sasg58
(lp5063
sssI1542438840
(dp5064
g2
Vhttp://www.skyracing.com.au/index.php?component=racing&task=race&id=107886406&meetingid=105028362&Itemid=89
p5065
sg4
V29012093.0714
p5066
sg6
(dp5067
g8
(lp5068
(lp5069
I9
aI16
aI1
aI2
aa(lp5070
I2
aI4
aI1
aI3
aa(lp5071
I4
aI3
aI7
aI8
aa(lp5072
I2
aI4
aI1
aI10
aa(lp5073
I9
aI14
aI8
aI3
aa(lp5074
I9
aI1
aI2
aI16
aa(lp5075
I9
aI4
aI16
aI12
aa(lp5076
I9
aI2
aI4
aI1
aasg18
(lp5077
(dp5078
g21
VFAB'S COWBOY
p5079
sg23
Vx1112
p5080
sg25
I100
sg26
I1
sg27
I95
sa(dp5081
g21
VBLUE JEST
p5082
sg23
V15253
p5083
sg25
I93
sg26
I2
sg27
I94
sa(dp5084
g21
VWELL SIGHTED
p5085
sg23
V33015
p5086
sg25
I81
sg26
I3
sg27
I82
sa(dp5087
g21
VISN'T SHE ELEGANT
p5088
sg23
V11136
p5089
sg25
I92
sg26
I4
sg27
I91
sa(dp5090
g21
VDECONSTRUCTED
p5091
sg23
V70420
p5092
sg25
I84
sg26
I5
sg27
I84
sa(dp5093
g21
VPALACE TYCOON
p5094
sg23
V15415
p5095
sg25
I67
sg26
I6
sg27
I68
sa(dp5096
g21
VARTIE'S SHORE
p5097
sg23
V02741
p5098
sg25
I79
sg26
I7
sg27
I78
sa(dp5099
g21
VATOUCHMORE
p5100
sg23
V35351
p5101
sg25
I76
sg26
I8
sg27
I76
sa(dp5102
g21
VGIVUS A CUDDLE
p5103
sg23
V32511
p5104
sg25
I98
sg26
I9
sg27
I100
sa(dp5105
g21
VGREEN EMPIRE
p5106
sg23
V42333
p5107
sg25
I65
sg26
I10
sg27
I66
sa(dp5108
g21
VHEROISM
p5109
sg23
V02511
p5110
sg25
I62
sg26
I11
sg27
I65
sa(dp5111
g21
VHI HARRY
p5112
sg23
Vx1212
p5113
sg25
I88
sg26
I12
sg27
I86
sa(dp5114
g21
VDAWN FIGHTER
p5115
sg23
V24423
p5116
sg25
I68
sg26
I13
sg27
I63
sa(dp5117
g21
VESCHIELE
p5118
sg23
V24221
p5119
sg25
I87
sg26
I14
sg27
I89
sa(dp5120
g21
VSTILL THE SAME
p5121
sg23
V11551
p5122
sg25
I75
sg26
I15
sg27
I75
sa(dp5123
g21
VONEMORE EMOTION
p5124
sg23
V21211
p5125
sg25
I95
sg26
I16
sg27
I99
sa(dp5126
g21
VTURKEY BEACH
p5127
sg23
V22332
p5128
sg25
I71
sg26
I17
sg27
I70
sasg58
(lp5129
sssI1542437820
(dp5130
g2
Vhttp://www.skyracing.com.au/index.php?component=racing&task=race&id=107962022&meetingid=105028394&Itemid=89
p5131
sg4
V29012404.0657
p5132
sg6
(dp5133
g8
(lp5134
(lp5135
I5
aI6
aI4
aI2
aa(lp5136
I3
aI1
aI5
aI7
aa(lp5137
I4
aI7
aI6
aI5
aa(lp5138
I4
aI2
aI7
aI6
aa(lp5139
I5
aI8
aI1
aI7
aa(lp5140
I4
aI5
aI6
aI2
aa(lp5141
I4
aI3
aI6
aI5
aa(lp5142
I5
aI4
aI6
aI7
aasg18
(lp5143
(dp5144
g21
VCOSMIC KHELEYF
p5145
sg23
Vx5654
p5146
sg25
I66
sg26
I1
sg27
I77
sa(dp5147
g21
VWAS AGONA
p5148
sg23
V1635x
p5149
sg25
I87
sg26
I2
sg27
I89
sa(dp5150
g21
VHOOK ME UP
p5151
sg23
V65686
p5152
sg25
I78
sg26
I3
sg27
I68
sa(dp5153
g21
VMAKIN' THE GRADE
p5154
sg23
V50x51
p5155
sg25
I100
sg26
I4
sg27
I91
sa(dp5156
g21
VKAPTAN APOLLO
p5157
sg23
V66x31
p5158
sg25
I96
sg26
I5
sg27
I100
sa(dp5159
g21
VMEAZZA
p5160
sg23
V49x11
p5161
sg25
I94
sg26
I6
sg27
I98
sa(dp5162
g21
VHOWDEE
p5163
sg23
V11286
p5164
sg25
I69
sg26
I7
sg27
I80
sa(dp5165
g21
VOMINOUS WARNING
p5166
sg23
V53714
p5167
sg25
I83
sg26
I8
sg27
I83
sa(dp5168
g21
VNICCOROSSA
p5169
sg23
V71206
p5170
sg25
I73
sg26
I9
sg27
I70
sa(dp5171
g21
VROEBUCK
p5172
sg23
Vx9098
p5173
sg25
I62
sg26
I10
sg27
I62
sasg58
(lp5174
sssI1542436800
(dp5175
g2
Vhttp://www.skyracing.com.au/index.php?component=racing&task=race&id=107961848&meetingid=105028218&Itemid=89
p5176
sg4
V29009527.0640
p5177
sg6
(dp5178
g8
(lp5179
(lp5180
I1
aI2
aI11
aI6
aa(lp5181
I5
aI4
aI1
aI6
aa(lp5182
I1
aI6
aI2
aI7
aa(lp5183
I2
aI1
aI6
aI4
aa(lp5184
I12
aI1
aI2
aI6
aa(lp5185
I11
aI1
aI2
aI3
aa(lp5186
I3
aI11
aI1
aI2
aa(lp5187
I1
aI2
aI11
aI6
aasg18
(lp5188
(dp5189
g21
VNEWSFAN
p5190
sg23
V122x1
p5191
sg25
I100
sg26
I1
sg27
I100
sa(dp5192
g21
VSCHUBERT
p5193
sg23
V3x551
p5194
sg25
I94
sg26
I2
sg27
I97
sa(dp5195
g21
VASTERIUS
p5196
sg23
Vx119x
p5197
sg25
I95
sg26
I3
sg27
I89
sa(dp5198
g21
VCONARCHIE
p5199
sg23
V11570
p5200
sg25
I64
sg26
I4
sg27
I64
sa(dp5201
g21
VGENERALISSIMO
p5202
sg23
V480x3
p5203
sg25
I71
sg26
I5
sg27
I72
sa(dp5204
g21
VMAPMAKER
p5205
sg23
V81302
p5206
sg25
I80
sg26
I6
sg27
I93
sa(dp5207
g21
VCATESBY
p5208
sg23
V365x1
p5209
sg25
I83
sg26
I7
sg27
I76
sa(dp5210
g21
VSPARKY LAD
p5211
sg23
V7215x
p5212
sg25
I92
sg26
I8
sg27
I87
sa(dp5213
g21
VKOOL VINNIE
p5214
sg23
V795x2
p5215
sg25
I69
sg26
I9
sg27
I70
sa(dp5216
g21
VMETAMORPHIC
p5217
sg23
V12246
p5218
sg25
I78
sg26
I10
sg27
I82
sa(dp5219
g21
VSOUTHERN LAD
p5220
sg23
Vx1x13
p5221
sg25
I98
sg26
I11
sg27
I95
sa(dp5222
g21
VSWEET DEAL
p5223
sg23
V014x2
p5224
sg25
I76
sg26
I12
sg27
I80
sa(dp5225
g21
VMONSIEUR SISU
p5226
sg23
V147x4
p5227
sg25
I86
sg26
I13
sg27
I78
sa(dp5228
g21
VTHE PHAROAH
p5229
sg23
V48x68
p5230
sg25
I66
sg26
I14
sg27
I66
sa(dp5231
g21
VI AM MAGNIFICENT
p5232
sg23
V817x5
p5233
sg25
I74
sg26
I15
sg27
I68
sa(dp5234
g21
VSNITZEL DAY
p5235
sg23
V6027x
p5236
sg25
I88
sg26
I16
sg27
I86
sasg58
(lp5237
(lp5238
I11
aI1
aI12
aI6
aasssI1542441120
(dp5239
g2
Vhttp://www.skyracing.com.au/index.php?component=racing&task=race&id=107961992&meetingid=105028442&Itemid=89
p5240
sg4
V29012099.0752
p5241
sg6
(dp5242
g8
(lp5243
(lp5244
I5
aI2
aI1
aI7
aa(lp5245
I5
aI1
aI2
aI3
aa(lp5246
I1
aI2
aI6
aI3
aa(lp5247
I1
aI5
aI2
aI3
aa(lp5248
I1
aI5
aI3
aI2
aa(lp5249
I2
aI5
aI1
aI3
aa(lp5250
I5
aI2
aI1
aI7
aa(lp5251
I1
aI5
aI2
aI3
aasg18
(lp5252
(dp5253
g21
VSOBRERO
p5254
sg23
V22x63
p5255
sg25
I91
sg26
I1
sg27
I88
sa(dp5256
g21
VROGER THE DODGER
p5257
sg23
V45433
p5258
sg25
I98
sg26
I2
sg27
I94
sa(dp5259
g21
VKING FOR LIFE
p5260
sg23
V738
p5261
sg25
I83
sg26
I3
sg27
I78
sa(dp5262
g21
VSPIROS
p5263
sg23
V0x
p5264
sg25
I69
sg26
I4
sg27
I65
sa(dp5265
g21
VTRANSITIONAL
p5266
sg23
V2232x
p5267
sg25
I100
sg26
I5
sg27
I100
sa(dp5268
g21
VSASHA FIERCE
p5269
sg23
Vx7x94
p5270
sg25
I67
sg26
I6
sg27
I62
sa(dp5271
g21
VHOT
p5272
sg23
V9x
p5273
sg25
I89
sg26
I7
sg27
I81
sa(dp5274
g21
VBALTASAR
p5275
sg23
V97
p5276
sg25
I75
sg26
I8
sg27
I70
sa(dp5277
g21
VCITY RANSOM
p5278
sg23
V5
p5279
sg25
I79
sg26
I9
sg27
I75
sasg58
(lp5280
sssI1542423600
(dp5281
g2
Vhttp://www.skyracing.com.au/index.php?component=racing&task=race&id=107961916&meetingid=105028458&Itemid=89
p5282
sg4
V29012428.0300
p5283
sg6
(dp5284
g8
(lp5285
(lp5286
I1
aI2
aI3
aI4
aa(lp5287
I1
aI2
aI3
aI4
aa(lp5288
I1
aI2
aI3
aI4
aa(lp5289
I1
aI2
aI3
aI4
aa(lp5290
I1
aI2
aI3
aI4
aa(lp5291
I1
aI2
aI3
aI4
aa(lp5292
I7
aI9
aI8
aI3
aa(lp5293
I1
aI2
aI3
aI4
aasg18
(lp5294
(dp5295
g21
VFITZWILLIAM
p5296
sg23
g76
sg25
I82
sg26
I1
sg27
I0
sa(dp5297
g21
VGEE GEE BAY WATCH
p5298
sg23
g76
sg25
I75
sg26
I2
sg27
I0
sa(dp5299
g21
VGEE GEE MANPOWER
p5300
sg23
g76
sg25
I88
sg26
I3
sg27
I0
sa(dp5301
g21
VGEE GEES PUNTER
p5302
sg23
g76
sg25
I71
sg26
I4
sg27
I0
sa(dp5303
g21
VMAN OF THE MOMENT
p5304
sg23
g76
sg25
I64
sg26
I5
sg27
I0
sa(dp5305
g21
VBANCA STAR
p5306
sg23
g76
sg25
I78
sg26
I6
sg27
I0
sa(dp5307
g21
VGEE GEE DOUBLE HOT
p5308
sg23
g76
sg25
I100
sg26
I7
sg27
I0
sa(dp5309
g21
VGEE GEES DARL
p5310
sg23
g76
sg25
I90
sg26
I8
sg27
I0
sa(dp5311
g21
VMACEYANNA
p5312
sg23
g76
sg25
I97
sg26
I9
sg27
I0
sasg58
(lp5313
sssI1542449100
(dp5314
g2
Vhttp://www.skyracing.com.au/index.php?component=racing&task=race&id=107886495&meetingid=105028314&Itemid=89
p5315
sg4
V29012092.1005
p5316
sg6
(dp5317
g8
(lp5318
(lp5319
I2
aI5
aI7
aI9
aa(lp5320
I4
aI1
aI3
aI2
aa(lp5321
I2
aI1
aI7
aI3
aa(lp5322
I1
aI2
aI4
aI8
aa(lp5323
I2
aI7
aI6
aI5
aa(lp5324
I2
aI7
aI9
aI5
aa(lp5325
I5
aI2
aI9
aI4
aa(lp5326
I2
aI7
aI1
aI4
aasg18
(lp5327
(dp5328
g21
VCRYPTO PEER ROCKS
p5329
sg23
V42976
p5330
sg25
I80
sg26
I1
sg27
I81
sa(dp5331
g21
VHERE COMES LENNI
p5332
sg23
V257x2
p5333
sg25
I97
sg26
I2
sg27
I100
sa(dp5334
g21
VSTORNAWAY
p5335
sg23
V29304
p5336
sg25
I77
sg26
I3
sg27
I69
sa(dp5337
g21
VDON'T PLEAD GUILTY
p5338
sg23
V83458
p5339
sg25
I88
sg26
I4
sg27
I77
sa(dp5340
g21
VABLE ENGINE
p5341
sg23
V052x4
p5342
sg25
I100
sg26
I5
sg27
I97
sa(dp5343
g21
VJOHN'S REVENGE
p5344
sg23
V90x74
p5345
sg25
I66
sg26
I6
sg27
I68
sa(dp5346
g21
VBOOZE FREE
p5347
sg23
V73522
p5348
sg25
I81
sg26
I7
sg27
I93
sa(dp5349
g21
VDANGEROUS SPIN
p5350
sg23
V494x4
p5351
sg25
I69
sg26
I8
sg27
I79
sa(dp5352
g21
VNO TAN TAT
p5353
sg23
V98669
p5354
sg25
I90
sg26
I9
sg27
I88
sasg58
(lp5355
sssI1542432720
(dp5356
g2
Vhttp://www.skyracing.com.au/index.php?component=racing&task=race&id=107961861&meetingid=105028330&Itemid=89
p5357
sg4
V29009526.0532
p5358
sg6
(dp5359
g8
(lp5360
(lp5361
I8
aI1
aI5
aI9
aa(lp5362
I2
aI6
aI3
aI5
aa(lp5363
I3
aI5
aI1
aI7
aa(lp5364
I2
aI3
aI5
aI1
aa(lp5365
I5
aI13
aI9
aI3
aa(lp5366
I8
aI1
aI2
aI5
aa(lp5367
I1
aI8
aI9
aI13
aa(lp5368
I5
aI2
aI8
aI1
aasg18
(lp5369
(dp5370
g21
VTAWFIQ BOY
p5371
sg23
V21151
p5372
sg25
I95
sg26
I1
sg27
I98
sa(dp5373
g21
VOINK
p5374
sg23
V3220x
p5375
sg25
I83
sg26
I2
sg27
I87
sa(dp5376
g21
VHINGUS ROSE
p5377
sg23
V51312
p5378
sg25
I82
sg26
I3
sg27
I83
sa(dp5379
g21
VSNITZ
p5380
sg23
V60x30
p5381
sg25
I92
sg26
I4
sg27
I94
sa(dp5382
g21
VIMPASSE
p5383
sg23
V10611
p5384
sg25
I100
sg26
I5
sg27
I95
sa(dp5385
g21
VSLYDINI
p5386
sg23
V8850x
p5387
sg25
I72
sg26
I6
sg27
I74
sa(dp5388
g21
VLUCKY TOM
p5389
sg23
V27734
p5390
sg25
I69
sg26
I7
sg27
I68
sa(dp5391
g21
VFEMME FIREBALL
p5392
sg23
V89x11
p5393
sg25
I99
sg26
I8
sg27
I100
sa(dp5394
g21
VQUEEN OF KINGSTON
p5395
sg23
V21212
p5396
sg25
I88
sg26
I9
sg27
I92
sa(dp5397
g21
VREADY FOR DANGER
p5398
sg23
V1122x
p5399
sg25
I86
sg26
I10
sg27
I80
sa(dp5400
g21
VCHARLIE CAT
p5401
sg23
V43024
p5402
sg25
I66
sg26
I11
sg27
I66
sa(dp5403
g21
VCONSTANTINE
p5404
sg23
V3169x
p5405
sg25
I78
sg26
I12
sg27
I72
sa(dp5406
g21
VECKER ROAD
p5407
sg23
Vx1111
p5408
sg25
I93
sg26
I13
sg27
I89
sa(dp5409
g21
VFINAL ZERO
p5410
sg23
V49x33
p5411
sg25
I76
sg26
I14
sg27
I78
sa(dp5412
g21
VDEITCH
p5413
sg23
V42x61
p5414
sg25
I73
sg26
I15
sg27
I76
sa(dp5415
g21
VSO SKILLED
p5416
sg23
V6x254
p5417
sg25
I65
sg26
I16
sg27
I65
sasg58
(lp5418
sssI1542429660
(dp5419
g2
Vhttp://www.skyracing.com.au/index.php?component=racing&task=race&id=107961904&meetingid=105028298&Itemid=89
p5420
sg4
V29012211.0441
p5421
sg6
(dp5422
g8
(lp5423
(lp5424
I1
aI6
aI2
aI5
aa(lp5425
I1
aI3
aI7
aI6
aa(lp5426
I1
aI6
aI5
aI9
aa(lp5427
I1
aI3
aI5
aI6
aa(lp5428
I1
aI6
aI3
aI7
aa(lp5429
I6
aI1
aI5
aI2
aa(lp5430
I2
aI5
aI6
aI1
aa(lp5431
I1
aI6
aI3
aI5
aasg18
(lp5432
(dp5433
g21
VMAGNA CARTA
p5434
sg23
V13331
p5435
sg25
I85
sg26
I1
sg27
I100
sa(dp5436
g21
VDO THE HIPPY
p5437
sg23
V7x216
p5438
sg25
I100
sg26
I2
sg27
I86
sa(dp5439
g21
VARROCHAR
p5440
sg23
Vx1800
p5441
sg25
I74
sg26
I3
sg27
I67
sa(dp5442
g21
VCHALCIDIAN
p5443
sg23
V9x681
p5444
sg25
I80
sg26
I4
sg27
I74
sa(dp5445
g21
VGRANDVIEW AVENUE
p5446
sg23
V2516
p5447
sg25
I96
sg26
I5
sg27
I84
sa(dp5448
g21
VMIGHTY MOSHE
p5449
sg23
V546x1
p5450
sg25
I90
sg26
I6
sg27
I94
sa(dp5451
g21
VGROGANS ANVIL
p5452
sg23
Vx279x
p5453
sg25
I82
sg26
I7
sg27
I77
sa(dp5454
g21
VSETTE BELLO
p5455
sg23
Vx0x99
p5456
sg25
I68
sg26
I8
sg27
I60
sa(dp5457
g21
VMONTRE
p5458
sg23
V96866
p5459
sg25
I69
sg26
I9
sg27
I72
sasg58
(lp5460
sssI1542420960
(dp5461
g2
Vhttp://www.skyracing.com.au/index.php?component=racing&task=race&id=107961900&meetingid=105028298&Itemid=89
p5462
sg4
V29012211.0216
p5463
sg6
(dp5464
g8
(lp5465
(lp5466
I5
aI3
aI2
aI7
aa(lp5467
I2
aI5
aI3
aI1
aa(lp5468
I5
aI3
aI2
aI7
aa(lp5469
I2
aI1
aI3
aI5
aa(lp5470
I2
aI5
aI3
aI7
aa(lp5471
I2
aI5
aI3
aI7
aa(lp5472
I5
aI3
aI2
aI8
aa(lp5473
I2
aI5
aI3
aI7
aasg18
(lp5474
(dp5475
g21
VRED SKIES
p5476
sg23
V0760x
p5477
sg25
I73
sg26
I1
sg27
I78
sa(dp5478
g21
VUNIVERSAL THIEF
p5479
sg23
V227x0
p5480
sg25
I92
sg26
I2
sg27
I90
sa(dp5481
g21
VGRASSMERE MISS
p5482
sg23
V82
p5483
sg25
I99
sg26
I3
sg27
I96
sa(dp5484
g21
VIZZI BIZZI
p5485
sg23
V8x
p5486
sg25
I69
sg26
I4
sg27
I81
sa(dp5487
g21
VLITTLE ROBYN
p5488
sg23
V23335
p5489
sg25
I100
sg26
I5
sg27
I100
sa(dp5490
g21
VOCEAN BOOTY
p5491
sg23
g76
sg25
I79
sg26
I6
sg27
I0
sa(dp5492
g21
VSNITZELWAY
p5493
sg23
V80x93
p5494
sg25
I81
sg26
I7
sg27
I86
sa(dp5495
g21
VSWEETGEORGIA BROWN
p5496
sg23
g76
sg25
I88
sg26
I8
sg27
I0
sasg58
(lp5497
sssI1542426960
(dp5498
g2
Vhttp://www.skyracing.com.au/index.php?component=racing&task=race&id=107961888&meetingid=105028410&Itemid=89
p5499
sg4
V29009528.0356
p5500
sg6
(dp5501
g8
(lp5502
(lp5503
I3
aI2
aI8
aI1
aa(lp5504
I1
aI2
aI7
aI5
aa(lp5505
I2
aI5
aI6
aI8
aa(lp5506
I1
aI2
aI5
aI3
aa(lp5507
I2
aI3
aI6
aI9
aa(lp5508
I2
aI3
aI8
aI1
aa(lp5509
I2
aI3
aI8
aI1
aa(lp5510
I2
aI3
aI1
aI5
aasg18
(lp5511
(dp5512
g21
VMERIDIAN STAR
p5513
sg23
V1x600
p5514
sg25
I85
sg26
I1
sg27
I85
sa(dp5515
g21
VMISS JANE
p5516
sg23
Vx2514
p5517
sg25
I98
sg26
I2
sg27
I94
sa(dp5518
g21
VDIAMOND TYCOON
p5519
sg23
V1116x
p5520
sg25
I100
sg26
I3
sg27
I100
sa(dp5521
g21
VFLYING TORMENTA
p5522
sg23
V042x0
p5523
sg25
I63
sg26
I4
sg27
I63
sa(dp5524
g21
VLUCKY FLIPPER
p5525
sg23
V600x2
p5526
sg25
I81
sg26
I5
sg27
I79
sa(dp5527
g21
VKISSING GAME
p5528
sg23
V34300
p5529
sg25
I72
sg26
I6
sg27
I67
sa(dp5530
g21
VTRUPT
p5531
sg23
V88096
p5532
sg25
I76
sg26
I7
sg27
I75
sa(dp5533
g21
VSOMETHING SILVER
p5534
sg23
V844x1
p5535
sg25
I91
sg26
I8
sg27
I91
sa(dp5536
g21
VTOUCH
p5537
sg23
V1763x
p5538
sg25
I79
sg26
I9
sg27
I77
sasg58
(lp5539
(lp5540
I3
aI2
aI1
aI8
aasssI1542425580
(dp5541
g2
Vhttp://www.skyracing.com.au/index.php?component=racing&task=race&id=107961961&meetingid=105028266&Itemid=89
p5542
sg4
V29012103.0333
p5543
sg6
(dp5544
g8
(lp5545
(lp5546
I7
aI12
aI8
aI3
aa(lp5547
I9
aI3
aI12
aI4
aa(lp5548
I3
aI12
aI7
aI9
aa(lp5549
I12
aI6
aI7
aI9
aa(lp5550
I12
aI9
aI7
aI6
aa(lp5551
I12
aI7
aI3
aI8
aa(lp5552
I7
aI12
aI8
aI3
aa(lp5553
I12
aI7
aI3
aI9
aasg18
(lp5554
(dp5555
g21
VCARMEL BAY
p5556
sg23
g76
sg25
I83
sg26
I1
sg27
I0
sa(dp5557
g21
VCASULA LAD
p5558
sg23
V40864
p5559
sg25
I86
sg26
I2
sg27
I86
sa(dp5560
g21
VSKIPPER JOE
p5561
sg23
V74
p5562
sg25
I92
sg26
I3
sg27
I90
sa(dp5563
g21
VTYPHOON MAX
p5564
sg23
V957x9
p5565
sg25
I79
sg26
I4
sg27
I82
sa(dp5566
g21
VEAST ESPLANADE
p5567
sg23
V0
p5568
sg25
I71
sg26
I5
sg27
I72
sa(dp5569
g21
VIN TOO DEEP
p5570
sg23
V608x6
p5571
sg25
I70
sg26
I6
sg27
I74
sa(dp5572
g21
VDELIGHT
p5573
sg23
V5x425
p5574
sg25
I100
sg26
I7
sg27
I100
sa(dp5575
g21
VFIVE AYES
p5576
sg23
V9x543
p5577
sg25
I94
sg26
I8
sg27
I95
sa(dp5578
g21
VFLEUR DE FORCE
p5579
sg23
V30357
p5580
sg25
I88
sg26
I9
sg27
I88
sa(dp5581
g21
VGLITTERANE
p5582
sg23
Vx7069
p5583
sg25
I67
sg26
I10
sg27
I68
sa(dp5584
g21
VTE ROPA LILLY
p5585
sg23
V997x7
p5586
sg25
I75
sg26
I11
sg27
I78
sa(dp5587
g21
VYOU KNOW ZON
p5588
sg23
V02433
p5589
sg25
I97
sg26
I12
sg27
I96
sa(dp5590
g21
VNANGA
p5591
sg23
V98450
p5592
sg25
I74
sg26
I13
sg27
I75
sasg58
(lp5593
sssI1542432240
(dp5594
g2
Vhttp://www.skyracing.com.au/index.php?component=racing&task=race&id=107962005&meetingid=105028426&Itemid=89
p5595
sg4
V29009646.0524
p5596
sg6
(dp5597
g8
(lp5598
(lp5599
I1
aI4
aI5
aI2
aa(lp5600
I1
aI4
aI5
aI2
aa(lp5601
I1
aI4
aI5
aI2
aa(lp5602
I1
aI4
aI5
aI2
aa(lp5603
I4
aI1
aI5
aI2
aa(lp5604
I1
aI4
aI5
aI2
aa(lp5605
I1
aI4
aI7
aI6
aa(lp5606
I1
aI4
aI5
aI2
aasg18
(lp5607
(dp5608
g21
VSPECIALISM
p5609
sg23
V1
p5610
sg25
I100
sg26
I1
sg27
I100
sa(dp5611
g21
VCAPTAIN DENISOV
p5612
sg23
g76
sg25
I78
sg26
I2
sg27
I0
sa(dp5613
g21
VSACRED KING
p5614
sg23
g76
sg25
I72
sg26
I3
sg27
I0
sa(dp5615
g21
VMIA DOLCE
p5616
sg23
V2
p5617
sg25
I98
sg26
I4
sg27
I98
sa(dp5618
g21
VNOBEL IMPACT
p5619
sg23
V46
p5620
sg25
I84
sg26
I5
sg27
I93
sa(dp5621
g21
VGUNNEDOO
p5622
sg23
g76
sg25
I87
sg26
I6
sg27
I0
sa(dp5623
g21
VJEVELATION
p5624
sg23
g76
sg25
I91
sg26
I7
sg27
I0
sa(dp5625
g21
VPUNCTILIOUS
p5626
sg23
g76
sg25
I76
sg26
I8
sg27
I0
sasg58
(lp5627
sssI1542422340
(dp5628
g2
Vhttp://www.skyracing.com.au/index.php?component=racing&task=race&id=107961871&meetingid=105028234&Itemid=89
p5629
sg4
V29012087.0239
p5630
sg6
(dp5631
g8
(lp5632
(lp5633
I1
aI3
aI4
aI2
aa(lp5634
I1
aI4
aI3
aI2
aa(lp5635
I1
aI4
aI3
aI2
aa(lp5636
I2
aI1
aI4
aI3
aa(lp5637
I1
aI5
aI4
aI3
aa(lp5638
I1
aI3
aI4
aI2
aa(lp5639
I1
aI3
aI7
aI4
aa(lp5640
I1
aI4
aI3
aI2
aasg18
(lp5641
(dp5642
g21
VWATCHDOG
p5643
sg23
Vx2132
p5644
sg25
I100
sg26
I1
sg27
I100
sa(dp5645
g21
VDESTINY'S HERO
p5646
sg23
V787x8
p5647
sg25
I83
sg26
I2
sg27
I88
sa(dp5648
g21
VCOOL AND NEAT
p5649
sg23
V22312
p5650
sg25
I95
sg26
I3
sg27
I98
sa(dp5651
g21
VNERUDA
p5652
sg23
V15213
p5653
sg25
I85
sg26
I4
sg27
I91
sa(dp5654
g21
VSMILING MANOLITO
p5655
sg23
V324x1
p5656
sg25
I78
sg26
I5
sg27
I80
sa(dp5657
g21
VCELEBRIS
p5658
sg23
V222x6
p5659
sg25
I74
sg26
I6
sg27
I75
sa(dp5660
g21
VANGEL OF TRUTH
p5661
sg23
V4x1
p5662
sg25
I92
sg26
I7
sg27
I81
sa(dp5663
g21
VLORD CHAMBERLAIN
p5664
sg23
V80x05
p5665
sg25
I70
sg26
I8
sg27
I69
sasg58
(lp5666
sssI1542429780
(dp5667
g2
Vhttp://www.skyracing.com.au/index.php?component=racing&task=race&id=107961977&meetingid=105028362&Itemid=89
p5668
sg4
V29012093.0443
p5669
sg6
(dp5670
g8
(lp5671
(lp5672
I2
aI5
aI6
aI1
aa(lp5673
I10
aI3
aI1
aI5
aa(lp5674
I3
aI5
aI4
aI2
aa(lp5675
I7
aI1
aI12
aI2
aa(lp5676
I10
aI6
aI5
aI4
aa(lp5677
I5
aI2
aI6
aI8
aa(lp5678
I5
aI8
aI7
aI2
aa(lp5679
I5
aI2
aI10
aI6
aasg18
(lp5680
(dp5681
g21
VISSY COMMAND
p5682
sg23
V28243
p5683
sg25
I89
sg26
I1
sg27
I89
sa(dp5684
g21
VSCHMIZO
p5685
sg23
V72111
p5686
sg25
I98
sg26
I2
sg27
I100
sa(dp5687
g21
VLEROY ROCKS
p5688
sg23
V85x14
p5689
sg25
I75
sg26
I3
sg27
I81
sa(dp5690
g21
VZOOMING
p5691
sg23
V034x1
p5692
sg25
I79
sg26
I4
sg27
I84
sa(dp5693
g21
VTABRIZ
p5694
sg23
V82512
p5695
sg25
I100
sg26
I5
sg27
I95
sa(dp5696
g21
VSTAR PAINTER
p5697
sg23
V72332
p5698
sg25
I85
sg26
I6
sg27
I92
sa(dp5699
g21
VOLIVIA 'N' ME
p5700
sg23
V16x79
p5701
sg25
I90
sg26
I7
sg27
I76
sa(dp5702
g21
VTHIRD ROCK
p5703
sg23
V1x537
p5704
sg25
I94
sg26
I8
sg27
I86
sa(dp5705
g21
VPABULUM
p5706
sg23
V41926
p5707
sg25
I74
sg26
I9
sg27
I69
sa(dp5708
g21
VWONDERFUL WALLY
p5709
sg23
V33632
p5710
sg25
I81
sg26
I10
sg27
I78
sa(dp5711
g21
VTHE INTERN
p5712
sg23
V61513
p5713
sg25
I71
sg26
I11
sg27
I72
sa(dp5714
g21
VGRAVITY FORCE
p5715
sg23
V33254
p5716
sg25
I69
sg26
I12
sg27
I67
sa(dp5717
g21
VKAPACHINO MISS
p5718
sg23
V57556
p5719
sg25
I66
sg26
I13
sg27
I65
sasg58
(lp5720
sssI1542448800
(dp5721
g2
Vhttp://www.skyracing.com.au/index.php?component=racing&task=race&id=107962055&meetingid=105028378&Itemid=89
p5722
sg4
V29012367.1000
p5723
sg6
(dp5724
g8
(lp5725
(lp5726
I1
aI2
aI3
aI5
aa(lp5727
I2
aI1
aI3
aI4
aa(lp5728
I1
aI3
aI5
aI4
aa(lp5729
I1
aI3
aI5
aI2
aa(lp5730
I3
aI1
aI5
aI2
aa(lp5731
I1
aI2
aI3
aI5
aa(lp5732
I1
aI2
aI3
aI6
aa(lp5733
I1
aI3
aI2
aI5
aasg18
(lp5734
(dp5735
g21
VAMTHAAL
p5736
sg23
V425x1
p5737
sg25
I100
sg26
I1
sg27
I100
sa(dp5738
g21
VARAZONA
p5739
sg23
V71546
p5740
sg25
I99
sg26
I2
sg27
I99
sa(dp5741
g21
VVON RICHTER
p5742
sg23
Vx6223
p5743
sg25
I94
sg26
I3
sg27
I93
sa(dp5744
g21
VJACARANDA PRINCE
p5745
sg23
V28739
p5746
sg25
I78
sg26
I4
sg27
I79
sa(dp5747
g21
VDAZET
p5748
sg23
V53622
p5749
sg25
I87
sg26
I5
sg27
I86
sa(dp5750
g21
VSILK TOPPER
p5751
sg23
V10779
p5752
sg25
I81
sg26
I6
sg27
I83
sa(dp5753
g21
VTHERE'S NEMO
p5754
sg23
V6306x
p5755
sg25
I77
sg26
I7
sg27
I77
sasg58
(lp5756
sssI1542429180
(dp5757
g2
Vhttp://www.skyracing.com.au/index.php?component=racing&task=race&id=107961948&meetingid=105028346&Itemid=89
p5758
sg4
V29012417.0433
p5759
sg6
(dp5760
g8
(lp5761
(lp5762
I5
aI10
aI12
aI3
aa(lp5763
I2
aI12
aI1
aI11
aa(lp5764
I5
aI12
aI7
aI13
aa(lp5765
I1
aI5
aI2
aI12
aa(lp5766
I14
aI10
aI7
aI5
aa(lp5767
I5
aI12
aI10
aI3
aa(lp5768
I4
aI5
aI10
aI3
aa(lp5769
I5
aI12
aI10
aI1
aasg18
(lp5770
(dp5771
g21
VCHARLES THE THIRD
p5772
sg23
V11x95
p5773
sg25
I81
sg26
I1
sg27
I80
sa(dp5774
g21
VSHELTER LADY
p5775
sg23
Vx3468
p5776
sg25
I74
sg26
I2
sg27
I74
sa(dp5777
g21
VSILOM ROAD
p5778
sg23
V77833
p5779
sg25
I87
sg26
I3
sg27
I92
sa(dp5780
g21
VSMART AS ATTACK
p5781
sg23
V63015
p5782
sg25
I98
sg26
I4
sg27
I87
sa(dp5783
g21
VTWILIGHTER
p5784
sg23
V4x421
p5785
sg25
I100
sg26
I5
sg27
I100
sa(dp5786
g21
VDELOS
p5787
sg23
V6x805
p5788
sg25
I77
sg26
I6
sg27
I61
sa(dp5789
g21
VTEMPETE ROUGE
p5790
sg23
Vx5618
p5791
sg25
I79
sg26
I7
sg27
I78
sa(dp5792
g21
VTHEY CALL ME ROSE
p5793
sg23
V99401
p5794
sg25
I66
sg26
I8
sg27
I67
sa(dp5795
g21
VQUEEN GORGO
p5796
sg23
V70x01
p5797
sg25
I61
sg26
I9
sg27
I68
sa(dp5798
g21
VLAST LIGHT
p5799
sg23
Vx4216
p5800
sg25
I95
sg26
I10
sg27
I97
sa(dp5801
g21
VCANONGATE
p5802
sg23
V99363
p5803
sg25
I69
sg26
I11
sg27
I72
sa(dp5804
g21
VWALK TO THE BAR
p5805
sg23
Vx0452
p5806
sg25
I91
sg26
I12
sg27
I94
sa(dp5807
g21
VSKY ONE
p5808
sg23
V67150
p5809
sg25
I70
sg26
I13
sg27
I62
sa(dp5810
g21
VIT'S CHOUX TIME
p5811
sg23
Vx3533
p5812
sg25
I85
sg26
I14
sg27
I84
sa(dp5813
g21
VLUCKY CAPTAIN
p5814
sg23
V75314
p5815
sg25
I63
sg26
I15
sg27
I76
sasg58
(lp5816
sss.