(dp0
I1541944800
(dp1
S'skyracing_url'
p2
Vhttp://www.skyracing.com.au/index.php?component=racing&task=race&id=107663724&meetingid=106456352&Itemid=89
p3
sS'betfair_raceid'
p4
V29001601.1400
p5
sS'dat2'
p6
(dp7
S'ratings_auto'
p8
(lp9
(lp10
I5
aI6
aI4
aI8
aa(lp11
I7
aI5
aI3
aI2
aa(lp12
I7
aI1
aI2
aI3
aa(lp13
I2
aI5
aI7
aI8
aa(lp14
I5
aI6
aI8
aI3
aa(lp15
I5
aI4
aI6
aI3
aa(lp16
I5
aI4
aI6
aI8
aa(lp17
I5
aI7
aI6
aI4
aasS'horse_details'
p18
(lp19
(dp20
S'horse_name'
p21
VCOBOLOBO
p22
sS'horse_form'
p23
V1807x
p24
sS'rating_2'
p25
I69
sS'horse_number'
p26
I1
sS'rating_1'
p27
I71
sa(dp28
g21
VDAN EMMETT
p29
sg23
V4x95x
p30
sg25
I67
sg26
I2
sg27
I68
sa(dp31
g21
VFLEMCARA
p32
sg23
V1190x
p33
sg25
I78
sg26
I3
sg27
I83
sa(dp34
g21
VJUST YOUR TYPE
p35
sg23
Vx241x
p36
sg25
I99
sg26
I4
sg27
I94
sa(dp37
g21
VKILBRICKEN STORM
p38
sg23
V3x13x
p39
sg25
I100
sg26
I5
sg27
I100
sa(dp40
g21
VMULCAHYS HILL
p41
sg23
V1240x
p42
sg25
I92
sg26
I6
sg27
I99
sa(dp43
g21
VPRIME VENTURE
p44
sg23
V860x6
p45
sg25
I73
sg26
I7
sg27
I76
sa(dp46
g21
VSAMUEL JACKSON
p47
sg23
V1135x
p48
sg25
I85
sg26
I8
sg27
I89
sa(dp49
g21
VSTEELY ADDITION
p50
sg23
V11x8x
p51
sg25
I83
sg26
I9
sg27
I80
sasS'ratings_manual'
p52
(lp53
sssI1541947200
(dp54
g2
Vhttp://www.skyracing.com.au/index.php?component=racing&task=race&id=107663696&meetingid=106778026&Itemid=89
p55
sg4
V29001600.1440
p56
sg6
(dp57
g8
(lp58
(lp59
I1
aI5
aI2
aI3
aa(lp60
I5
aI3
aI8
aI6
aa(lp61
I3
aI8
aI10
aI11
aa(lp62
I1
aI3
aI8
aI6
aa(lp63
I3
aI5
aI6
aI2
aa(lp64
I1
aI5
aI2
aI3
aa(lp65
I1
aI8
aI2
aI5
aa(lp66
I3
aI5
aI1
aI8
aasg18
(lp67
(dp68
g21
VCAMPEADOR
p69
sg23
Vx143x
p70
sg25
I100
sg26
I1
sg27
I100
sa(dp71
g21
VDOLCIANO DICI
p72
sg23
V41x4x
p73
sg25
I96
sg26
I2
sg27
I94
sa(dp74
g21
VDUCA DE THAIX
p75
sg23
V90x23
p76
sg25
I89
sg26
I3
sg27
I92
sa(dp77
g21
VINDIAN MONSOON
p78
sg23
V6420x
p79
sg25
I76
sg26
I4
sg27
I73
sa(dp80
g21
VJETZ
p81
sg23
V4228x
p82
sg25
I91
sg26
I5
sg27
I99
sa(dp83
g21
VSCOIR MEAR
p84
sg23
V5207x
p85
sg25
I78
sg26
I6
sg27
I79
sa(dp86
g21
VTHE JAM MAN
p87
sg23
V1x21x
p88
sg25
I81
sg26
I7
sg27
I82
sa(dp89
g21
VTRAINWRECK
p90
sg23
V210x5
p91
sg25
I95
sg26
I8
sg27
I88
sa(dp92
g21
VTREASURE CHEST
p93
sg23
V206x8
p94
sg25
I70
sg26
I9
sg27
I70
sa(dp95
g21
VUS AND THEM
p96
sg23
V2x0x4
p97
sg25
I85
sg26
I10
sg27
I84
sa(dp98
g21
VWESTERN BOY
p99
sg23
V049x0
p100
sg25
I74
sg26
I11
sg27
I77
sasg52
(lp101
sssI1541940900
(dp102
g2
Vhttp://www.skyracing.com.au/index.php?component=racing&task=race&id=107663722&meetingid=106456352&Itemid=89
p103
sg4
V29001601.1255
p104
sg6
(dp105
g8
(lp106
(lp107
I3
aI2
aI5
aI4
aa(lp108
I3
aI5
aI4
aI1
aa(lp109
I6
aI1
aI2
aI3
aa(lp110
I3
aI4
aI1
aI5
aa(lp111
I5
aI3
aI4
aI1
aa(lp112
I2
aI3
aI5
aI4
aa(lp113
I5
aI3
aI4
aI2
aa(lp114
I3
aI5
aI4
aI2
aasg18
(lp115
(dp116
g21
VBILLY HICKS
p117
sg23
V645x4
p118
sg25
I84
sg26
I1
sg27
I76
sa(dp119
g21
VSHREWD TACTICS
p120
sg23
V9842x
p121
sg25
I89
sg26
I2
sg27
I96
sa(dp122
g21
VALF 'N' DOR
p123
sg23
V2326x
p124
sg25
I94
sg26
I3
sg27
I100
sa(dp125
g21
VLE COEUR NET
p126
sg23
V2232x
p127
sg25
I100
sg26
I4
sg27
I82
sa(dp128
g21
VBREDON HILL LAD
p129
sg23
V1833x
p130
sg25
I95
sg26
I5
sg27
I88
sa(dp131
g21
VLERICHI BELLE
p132
sg23
Vx02x6
p133
sg25
I80
sg26
I6
sg27
I80
sa(dp134
g21
VAIR DE ROCK
p135
sg23
V75x5x
p136
sg25
I65
sg26
I7
sg27
I67
sa(dp137
g21
VAZA RUN
p138
sg23
V3549x
p139
sg25
I71
sg26
I8
sg27
I61
sa(dp140
g21
VRUN DON'T HIDE
p141
sg23
V3035x
p142
sg25
I75
sg26
I9
sg27
I70
sasg52
(lp143
sssI1541946600
(dp144
g2
Vhttp://www.skyracing.com.au/index.php?component=racing&task=race&id=107663725&meetingid=106456352&Itemid=89
p145
sg4
V29001601.1430
p146
sg6
(dp147
g8
(lp148
(lp149
I1
aI14
aI4
aI2
aa(lp150
I1
aI4
aI5
aI8
aa(lp151
I8
aI14
aI15
aI1
aa(lp152
I1
aI11
aI8
aI4
aa(lp153
I1
aI5
aI4
aI12
aa(lp154
I1
aI14
aI2
aI4
aa(lp155
I1
aI4
aI12
aI11
aa(lp156
I1
aI14
aI4
aI8
aasg18
(lp157
(dp158
g21
VACEY MILAN
p159
sg23
V1114x
p160
sg25
I100
sg26
I1
sg27
I100
sa(dp161
g21
VALFIE CORBITT
p162
sg23
V3x31x
p163
sg25
I87
sg26
I2
sg27
I90
sa(dp164
g21
VBIG MAN CLARENCE
p165
sg23
V2x12x
p166
sg25
I73
sg26
I3
sg27
I74
sa(dp167
g21
VCOURT MASTER
p168
sg23
V1x2x
p169
sg25
I95
sg26
I4
sg27
I95
sa(dp170
g21
VGLENTROOL
p171
sg23
V3317x
p172
sg25
I71
sg26
I5
sg27
I71
sa(dp173
g21
VHAHADI
p174
sg23
V0x41x
p175
sg25
I69
sg26
I6
sg27
I70
sa(dp176
g21
VJURYS OUT
p177
sg23
V8x7x
p178
sg25
I63
sg26
I7
sg27
I63
sa(dp179
g21
VLANDOFSMILES
p180
sg23
Vx23x4
p181
sg25
I82
sg26
I8
sg27
I88
sa(dp182
g21
VLISNAGAR OSCAR
p183
sg23
V1x3
p184
sg25
I90
sg26
I9
sg27
I86
sa(dp185
g21
VNATIVE SOLDIER
p186
sg23
Vx846x
p187
sg25
I60
sg26
I10
sg27
I61
sa(dp188
g21
VPRIDE OF LECALE
p189
sg23
V2107x
p190
sg25
I85
sg26
I11
sg27
I80
sa(dp191
g21
VTREASURE DILLON
p192
sg23
V1x
p193
sg25
I97
sg26
I12
sg27
I79
sa(dp194
g21
VTRUCKIN AWAY
p195
sg23
V3x
p196
sg25
I75
sg26
I13
sg27
I76
sa(dp197
g21
VVOLCANO
p198
sg23
V5x0x3
p199
sg25
I79
sg26
I14
sg27
I96
sa(dp200
g21
VWORLD WAR
p201
sg23
V884x8
p202
sg25
I67
sg26
I15
sg27
I67
sasg52
(lp203
sssI1541951100
(dp204
g2
Vhttp://www.skyracing.com.au/index.php?component=racing&task=race&id=107663698&meetingid=106778026&Itemid=89
p205
sg4
V29001600.1545
p206
sg6
(dp207
g8
(lp208
(lp209
I6
aI5
aI11
aI1
aa(lp210
I6
aI11
aI5
aI2
aa(lp211
I10
aI9
aI1
aI2
aa(lp212
I6
aI11
aI5
aI2
aa(lp213
I6
aI5
aI11
aI10
aa(lp214
I11
aI6
aI1
aI5
aa(lp215
I6
aI5
aI1
aI11
aa(lp216
I6
aI11
aI5
aI10
aasg18
(lp217
(dp218
g21
VGETAWAY NORTH
p219
sg23
V00x
p220
sg25
I95
sg26
I1
sg27
I81
sa(dp221
g21
VHALSAFARI
p222
sg23
V8x
p223
sg25
I88
sg26
I2
sg27
I76
sa(dp224
g21
VTHROUGHWAY
p225
sg23
V
p226
sg25
I73
sg26
I3
sg27
I0
sa(dp227
g21
VWESTERN DOYEN
p228
sg23
g226
sg25
I77
sg26
I4
sg27
I0
sa(dp229
g21
VCENOTICE
p230
sg23
V431x
p231
sg25
I96
sg26
I5
sg27
I95
sa(dp232
g21
VCOLUMN OF FIRE
p233
sg23
V2x
p234
sg25
I100
sg26
I6
sg27
I100
sa(dp235
g21
VI'M CHARLIE
p236
sg23
g226
sg25
I85
sg26
I7
sg27
I0
sa(dp237
g21
VLORD FITZWILLIAM
p238
sg23
g226
sg25
I81
sg26
I8
sg27
I0
sa(dp239
g21
VSHANTOU WARRIOR
p240
sg23
V79
p241
sg25
I71
sg26
I9
sg27
I68
sa(dp242
g21
VPIN POINT PARITY
p243
sg23
V7
p244
sg25
I79
sg26
I10
sg27
I71
sa(dp245
g21
VTWO SHOE TOM
p246
sg23
V54x
p247
sg25
I92
sg26
I11
sg27
I83
sasg52
(lp248
sssI1541942700
(dp249
g2
Vhttp://www.skyracing.com.au/index.php?component=racing&task=race&id=107663723&meetingid=106456352&Itemid=89
p250
sg4
V29001601.1325
p251
sg6
(dp252
g8
(lp253
(lp254
I1
aI7
aI9
aI5
aa(lp255
I1
aI11
aI6
aI9
aa(lp256
I1
aI2
aI14
aI8
aa(lp257
I1
aI11
aI6
aI9
aa(lp258
I1
aI6
aI9
aI7
aa(lp259
I7
aI1
aI9
aI5
aa(lp260
I1
aI7
aI11
aI9
aa(lp261
I1
aI7
aI9
aI6
aasg18
(lp262
(dp263
g21
VGOOD BOY BOBBY
p264
sg23
V131x1
p265
sg25
I100
sg26
I1
sg27
I100
sa(dp266
g21
VALMONTASER
p267
sg23
V44065
p268
sg25
I74
sg26
I2
sg27
I72
sa(dp269
g21
VBREDON HILL LEO
p270
sg23
V4x9x
p271
sg25
I72
sg26
I3
sg27
I69
sa(dp272
g21
VCOBRA COMMANDER
p273
sg23
V3x
p274
sg25
I78
sg26
I4
sg27
I78
sa(dp275
g21
VECEPARTI
p276
sg23
Vx310x
p277
sg25
I83
sg26
I5
sg27
I90
sa(dp278
g21
VLECHLADE MAGICIAN
p279
sg23
V103x
p280
sg25
I87
sg26
I6
sg27
I86
sa(dp281
g21
VMICK MANHATTAN
p282
sg23
V1x
p283
sg25
I96
sg26
I7
sg27
I96
sa(dp284
g21
VMUSTAAQEEM
p285
sg23
V57006
p286
sg25
I71
sg26
I8
sg27
I74
sa(dp287
g21
VREMASTERED
p288
sg23
V6x21x
p289
sg25
I90
sg26
I9
sg27
I95
sa(dp290
g21
VROOSTER COGBURN
p291
sg23
V44x0x
p292
sg25
I76
sg26
I10
sg27
I75
sa(dp293
g21
VSMITHS CROSS
p294
sg23
V3112x
p295
sg25
I93
sg26
I11
sg27
I89
sa(dp296
g21
VSTREET ART
p297
sg23
V0960x
p298
sg25
I66
sg26
I12
sg27
I63
sa(dp299
g21
VTHE LION ROARS
p300
sg23
V3x
p301
sg25
I85
sg26
I13
sg27
I80
sa(dp302
g21
VTYROLEAN
p303
sg23
V348x0
p304
sg25
I62
sg26
I14
sg27
I66
sasg52
(lp305
sssI1541939700
(dp306
g2
Vhttp://www.skyracing.com.au/index.php?component=racing&task=race&id=107663692&meetingid=106778026&Itemid=89
p307
sg4
V29001600.1235
p308
sg6
(dp309
g8
(lp310
(lp311
I2
aI6
aI13
aI5
aa(lp312
I6
aI1
aI8
aI12
aa(lp313
I6
aI12
aI2
aI13
aa(lp314
I1
aI8
aI12
aI9
aa(lp315
I6
aI19
aI22
aI8
aa(lp316
I2
aI6
aI13
aI5
aa(lp317
I19
aI4
aI5
aI2
aa(lp318
I6
aI2
aI1
aI12
aasg18
(lp319
(dp320
g21
VSESKINANE
p321
sg23
V413x0
p322
sg25
I65
sg26
I1
sg27
I60
sa(dp323
g21
VLORD IN RED
p324
sg23
V40x31
p325
sg25
I99
sg26
I2
sg27
I100
sa(dp326
g21
VCAPTAINOFTHEFLEET
p327
sg23
V7606x
p328
sg25
I66
sg26
I3
sg27
I67
sa(dp329
g21
VWAAHEB
p330
sg23
V0x360
p331
sg25
I96
sg26
I4
sg27
I86
sa(dp332
g21
VSTACKS MOUNTAIN
p333
sg23
Vx48x2
p334
sg25
I94
sg26
I5
sg27
I94
sa(dp335
g21
VLAKE TAKAPUNA
p336
sg23
Vx9014
p337
sg25
I89
sg26
I6
sg27
I99
sa(dp338
g21
VPI AHIO
p339
sg23
V59x6x
p340
sg25
I86
sg26
I7
sg27
I71
sa(dp341
g21
VKING'S WAR
p342
sg23
V56230
p343
sg25
I69
sg26
I8
sg27
I69
sa(dp344
g21
VMARKET'S FIELD
p345
sg23
Vx0x6x
p346
sg25
I75
sg26
I9
sg27
I63
sa(dp347
g21
VSTEAMBOAT BILL
p348
sg23
V4000x
p349
sg25
I56
sg26
I10
sg27
I55
sa(dp350
g21
VAASLEAGH DAWN
p351
sg23
V10647
p352
sg25
I82
sg26
I11
sg27
I79
sa(dp353
g21
VOH'HEREWEGO
p354
sg23
Vx9110
p355
sg25
I84
sg26
I12
sg27
I89
sa(dp356
g21
VSERIOUS EGO
p357
sg23
V3x875
p358
sg25
I91
sg26
I13
sg27
I95
sa(dp359
g21
VBALLINLINA BOY
p360
sg23
V06665
p361
sg25
I63
sg26
I14
sg27
I64
sa(dp362
g21
VOFFICERS MESS
p363
sg23
V157x8
p364
sg25
I60
sg26
I15
sg27
I66
sa(dp365
g21
VNERUAL
p366
sg23
V2863x
p367
sg25
I71
sg26
I16
sg27
I74
sa(dp368
g21
VEPSILON INDI
p369
sg23
V306x2
p370
sg25
I79
sg26
I17
sg27
I82
sa(dp371
g21
VSLICKER CITY
p372
sg23
Vx948x
p373
sg25
I68
sg26
I18
sg27
I70
sa(dp374
g21
VCHAPTER TWO
p375
sg23
V3231x
p376
sg25
I100
sg26
I19
sg27
I90
sa(dp377
g21
VWHITBER'S CHOICE
p378
sg23
V5530x
p379
sg25
I76
sg26
I20
sg27
I80
sa(dp380
g21
VWILLIAM TYNDALE
p381
sg23
V00x2x
p382
sg25
I70
sg26
I21
sg27
I77
sa(dp383
g21
VMYSTIC EMBARR
p384
sg23
V3751x
p385
sg25
I80
sg26
I22
sg27
I85
sa(dp386
g21
VOLIVE D'HAGUENET
p387
sg23
V75680
p388
sg25
I58
sg26
I23
sg27
I58
sa(dp389
g21
VBORIS BORU
p390
sg23
V35x07
p391
sg25
I54
sg26
I24
sg27
I56
sasg52
(lp392
sssI1541952600
(dp393
g2
Vhttp://www.skyracing.com.au/index.php?component=racing&task=race&id=107663728&meetingid=106456352&Itemid=89
p394
sg4
V29001601.1610
p395
sg6
(dp396
g8
(lp397
(lp398
I4
aI5
aI1
aI3
aa(lp399
I4
aI2
aI3
aI6
aa(lp400
I1
aI5
aI4
aI3
aa(lp401
I2
aI4
aI3
aI8
aa(lp402
I1
aI4
aI3
aI6
aa(lp403
I4
aI5
aI1
aI6
aa(lp404
I5
aI4
aI1
aI3
aa(lp405
I4
aI1
aI5
aI3
aasg18
(lp406
(dp407
g21
VNABHAN
p408
sg23
V28367
p409
sg25
I92
sg26
I1
sg27
I93
sa(dp410
g21
VCUBAN PETE
p411
sg23
V6739x
p412
sg25
I82
sg26
I2
sg27
I83
sa(dp413
g21
VQUEEN OF THE WIND
p414
sg23
Vx16x7
p415
sg25
I89
sg26
I3
sg27
I85
sa(dp416
g21
VST JOHN'S
p417
sg23
V53444
p418
sg25
I98
sg26
I4
sg27
I100
sa(dp419
g21
VKATIE CONNELL
p420
sg23
Vx66x4
p421
sg25
I100
sg26
I5
sg27
I99
sa(dp422
g21
VSOME CAN DANCE
p423
sg23
V545x8
p424
sg25
I69
sg26
I6
sg27
I80
sa(dp425
g21
VMOLLYOW
p426
sg23
V5x905
p427
sg25
I76
sg26
I7
sg27
I76
sa(dp428
g21
VLIVE FOR TODAY
p429
sg23
Vx0x20
p430
sg25
I79
sg26
I8
sg27
I69
sasg52
(lp431
sssI1541940300
(dp432
g2
Vhttp://www.skyracing.com.au/index.php?component=racing&task=race&id=107663707&meetingid=106456336&Itemid=89
p433
sg4
V29001602.1245
p434
sg6
(dp435
g8
(lp436
(lp437
I5
aI7
aI4
aI9
aa(lp438
I7
aI5
aI12
aI11
aa(lp439
I4
aI3
aI5
aI7
aa(lp440
I7
aI4
aI5
aI8
aa(lp441
I7
aI5
aI12
aI8
aa(lp442
I5
aI7
aI4
aI9
aa(lp443
I5
aI3
aI9
aI12
aa(lp444
I5
aI7
aI4
aI12
aasg18
(lp445
(dp446
g21
VZUBAYR
p447
sg23
V0847x
p448
sg25
I88
sg26
I1
sg27
I94
sa(dp449
g21
VSEROSEVSKY
p450
sg23
V2x123
p451
sg25
I95
sg26
I2
sg27
I98
sa(dp452
g21
VERAGON DE CHANAY
p453
sg23
V172x6
p454
sg25
I84
sg26
I3
sg27
I78
sa(dp455
g21
VBALLYWOOD
p456
sg23
V2x0x4
p457
sg25
I81
sg26
I4
sg27
I86
sa(dp458
g21
VTHE BOTTOM BAR
p459
sg23
Vx123x
p460
sg25
I100
sg26
I5
sg27
I100
sa(dp461
g21
VDARCY WARD
p462
sg23
V1x62x
p463
sg25
I98
sg26
I6
sg27
I87
sa(dp464
g21
VPOKER SCHOOL
p465
sg23
Vx235x
p466
sg25
I79
sg26
I7
sg27
I92
sa(dp467
g21
VKINGS WALK
p468
sg23
V3x14x
p469
sg25
I73
sg26
I8
sg27
I76
sa(dp470
g21
VASYLO
p471
sg23
V69x1x
p472
sg25
I90
sg26
I9
sg27
I81
sa(dp473
g21
VCHEAP AND CHEERFUL
p474
sg23
V7415x
p475
sg25
I68
sg26
I10
sg27
I71
sa(dp476
g21
VLEX TALIONIS
p477
sg23
V2416x
p478
sg25
I72
sg26
I11
sg27
I71
sa(dp479
g21
VRAMORE WILL
p480
sg23
V6115x
p481
sg25
I76
sg26
I12
sg27
I74
sasg52
(lp482
sssI1541944200
(dp483
g2
Vhttp://www.skyracing.com.au/index.php?component=racing&task=race&id=107663709&meetingid=106456336&Itemid=89
p484
sg4
V29001602.1350
p485
sg6
(dp486
g8
(lp487
(lp488
I5
aI3
aI9
aI8
aa(lp489
I9
aI8
aI12
aI5
aa(lp490
I7
aI12
aI6
aI1
aa(lp491
I9
aI8
aI12
aI5
aa(lp492
I9
aI5
aI10
aI8
aa(lp493
I5
aI3
aI8
aI9
aa(lp494
I9
aI5
aI10
aI3
aa(lp495
I9
aI5
aI8
aI12
aasg18
(lp496
(dp497
g21
VBUILDING FUTURES
p498
sg23
V6x9x
p499
sg25
I69
sg26
I1
sg27
I70
sa(dp500
g21
VDUARIGLE
p501
sg23
V71x5x
p502
sg25
I85
sg26
I2
sg27
I78
sa(dp503
g21
VELDORADO ALLEN
p504
sg23
V23x
p505
sg25
I94
sg26
I3
sg27
I97
sa(dp506
g21
VELITE GARDE
p507
sg23
V40x
p508
sg25
I74
sg26
I4
sg27
I77
sa(dp509
g21
VFINAWN BAWN
p510
sg23
V1x
p511
sg25
I100
sg26
I5
sg27
I100
sa(dp512
g21
VLET'S GET AT IT
p513
sg23
V4x965
p514
sg25
I64
sg26
I6
sg27
I70
sa(dp515
g21
VNO GETAWAY
p516
sg23
Vx5x48
p517
sg25
I72
sg26
I7
sg27
I73
sa(dp518
g21
VOAKLEY
p519
sg23
V35x
p520
sg25
I88
sg26
I8
sg27
I91
sa(dp521
g21
VSEVARANO
p522
sg23
V1x5x
p523
sg25
I99
sg26
I9
sg27
I95
sa(dp524
g21
VSTAR OF LANKA
p525
sg23
V133x
p526
sg25
I91
sg26
I10
sg27
I87
sa(dp527
g21
VSTORM WIZARD
p528
sg23
g226
sg25
I76
sg26
I11
sg27
I0
sa(dp529
g21
VWEST TO THE BRIDGE
p530
sg23
V825x5
p531
sg25
I81
sg26
I12
sg27
I85
sa(dp532
g21
VCANGODEMAYO
p533
sg23
Vx050x
p534
sg25
I79
sg26
I13
sg27
I82
sa(dp535
g21
VHAVENTTHEFROGGIEST
p536
sg23
V8x00x
p537
sg25
I62
sg26
I14
sg27
I66
sasg52
(lp538
sssI1541948700
(dp539
g2
Vhttp://www.skyracing.com.au/index.php?component=racing&task=race&id=107663726&meetingid=106456352&Itemid=89
p540
sg4
V29001601.1505
p541
sg6
(dp542
g8
(lp543
(lp544
I3
aI5
aI1
aI2
aa(lp545
I3
aI6
aI4
aI5
aa(lp546
I2
aI7
aI1
aI3
aa(lp547
I4
aI3
aI1
aI6
aa(lp548
I6
aI3
aI4
aI7
aa(lp549
I3
aI1
aI5
aI2
aa(lp550
I1
aI5
aI3
aI2
aa(lp551
I3
aI6
aI4
aI1
aasg18
(lp552
(dp553
g21
VBUCKHORN TIMOTHY
p554
sg23
Vx110x
p555
sg25
I91
sg26
I1
sg27
I94
sa(dp556
g21
VKAKI DE LA PREE
p557
sg23
V8x5x3
p558
sg25
I86
sg26
I2
sg27
I88
sa(dp559
g21
VMORE BUCK'S
p560
sg23
V7211x
p561
sg25
I100
sg26
I3
sg27
I100
sa(dp562
g21
VPOBBLES BAY
p563
sg23
V9740x
p564
sg25
I79
sg26
I4
sg27
I77
sa(dp565
g21
VQUIZ MASTER
p566
sg23
V1222x
p567
sg25
I98
sg26
I5
sg27
I96
sa(dp568
g21
VWEST OF THE EDGE
p569
sg23
V7220x
p570
sg25
I73
sg26
I6
sg27
I78
sa(dp571
g21
VGRANARD
p572
sg23
Vx14x8
p573
sg25
I83
sg26
I7
sg27
I83
sasg52
(lp574
sssI1541942100
(dp575
g2
Vhttp://www.skyracing.com.au/index.php?component=racing&task=race&id=107663708&meetingid=106456336&Itemid=89
p576
sg4
V29001602.1315
p577
sg6
(dp578
g8
(lp579
(lp580
I1
aI2
aI5
aI4
aa(lp581
I4
aI1
aI10
aI9
aa(lp582
I4
aI9
aI10
aI6
aa(lp583
I4
aI1
aI10
aI9
aa(lp584
I10
aI4
aI8
aI6
aa(lp585
I4
aI1
aI2
aI5
aa(lp586
I5
aI1
aI3
aI2
aa(lp587
I4
aI1
aI10
aI2
aasg18
(lp588
(dp589
g21
VSPRINGTOWN LAKE
p590
sg23
V2310x
p591
sg25
I100
sg26
I1
sg27
I100
sa(dp592
g21
VNO HASSLE HOFF
p593
sg23
V9300x
p594
sg25
I83
sg26
I2
sg27
I96
sa(dp595
g21
VHITHERJACQUES LADY
p596
sg23
V3520x
p597
sg25
I91
sg26
I3
sg27
I62
sa(dp598
g21
VVIVAS
p599
sg23
V34x11
p600
sg25
I88
sg26
I4
sg27
I78
sa(dp601
g21
VMOLINEAUX
p602
sg23
V1231x
p603
sg25
I98
sg26
I5
sg27
I90
sa(dp604
g21
VDENTLEY DE MEE
p605
sg23
V322x2
p606
sg25
I80
sg26
I6
sg27
I70
sa(dp607
g21
VCONINGSBY
p608
sg23
V224x0
p609
sg25
I74
sg26
I7
sg27
I53
sa(dp610
g21
VCALL ME SID
p611
sg23
V8147x
p612
sg25
I67
sg26
I8
sg27
I50
sa(dp613
g21
VWOLFCATCHER
p614
sg23
V61x65
p615
sg25
I61
sg26
I9
sg27
I59
sa(dp616
g21
VLITHIC
p617
sg23
V044x4
p618
sg25
I70
sg26
I10
sg27
I69
sasg52
(lp619
sssI1541948100
(dp620
g2
Vhttp://www.skyracing.com.au/index.php?component=racing&task=race&id=107663711&meetingid=106456336&Itemid=89
p621
sg4
V29001602.1455
p622
sg6
(dp623
g8
(lp624
(lp625
I6
aI5
aI12
aI4
aa(lp626
I3
aI4
aI7
aI16
aa(lp627
I3
aI2
aI10
aI7
aa(lp628
I3
aI4
aI16
aI18
aa(lp629
I3
aI12
aI16
aI4
aa(lp630
I5
aI12
aI4
aI6
aa(lp631
I6
aI5
aI1
aI4
aa(lp632
I3
aI4
aI12
aI5
aasg18
(lp633
(dp634
g21
VARTHINGTON
p635
sg23
V203x5
p636
sg25
I92
sg26
I1
sg27
I82
sa(dp637
g21
VTOTTERDOWN
p638
sg23
V19x13
p639
sg25
I87
sg26
I2
sg27
I72
sa(dp640
g21
VFLASHING GLANCE
p641
sg23
V8x332
p642
sg25
I80
sg26
I3
sg27
I76
sa(dp643
g21
VHAREFIELD
p644
sg23
V1028x
p645
sg25
I96
sg26
I4
sg27
I89
sa(dp646
g21
VDESTRIER
p647
sg23
Vx152x
p648
sg25
I97
sg26
I5
sg27
I94
sa(dp649
g21
VDON'T ASK
p650
sg23
V32x1x
p651
sg25
I100
sg26
I6
sg27
I100
sa(dp652
g21
VCASTAFIORE
p653
sg23
V186x0
p654
sg25
I84
sg26
I7
sg27
I67
sa(dp655
g21
VROMANOR
p656
sg23
V1311x
p657
sg25
I73
sg26
I8
sg27
I73
sa(dp658
g21
VTURNING GOLD
p659
sg23
V4158x
p660
sg25
I79
sg26
I9
sg27
I78
sa(dp661
g21
VHAAFAPIECE
p662
sg23
V31363
p663
sg25
I69
sg26
I10
sg27
I62
sa(dp664
g21
VROYAL SUNDAY
p665
sg23
V6x19x
p666
sg25
I71
sg26
I11
sg27
I65
sa(dp667
g21
VVAZIANI
p668
sg23
V5x12x
p669
sg25
I90
sg26
I12
sg27
I90
sa(dp670
g21
VNELSON'S TOUCH
p671
sg23
V7131x
p672
sg25
I77
sg26
I13
sg27
I79
sa(dp673
g21
VHOLLYWOOD KEN
p674
sg23
Vx511x
p675
sg25
I82
sg26
I14
sg27
I85
sa(dp676
g21
VARDAMIR
p677
sg23
V22693
p678
sg25
I68
sg26
I15
sg27
I64
sa(dp679
g21
VAR MEST
p680
sg23
V3140x
p681
sg25
I65
sg26
I16
sg27
I57
sa(dp682
g21
VHARMONISE
p683
sg23
V557x4
p684
sg25
I63
sg26
I17
sg27
I59
sa(dp685
g21
VCIGARISI
p686
sg23
V5316x
p687
sg25
I89
sg26
I18
sg27
I84
sa(dp688
g21
VGREGARIOUS
p689
sg23
V134x0
p690
sg25
I61
sg26
I19
sg27
I53
sa(dp691
g21
VMONDAY CLUB
p692
sg23
V92313
p693
sg25
I66
sg26
I20
sg27
I61
sa(dp694
g21
VPUTTING GREEN
p695
sg23
V4724x
p696
sg25
I70
sg26
I21
sg27
I69
sa(dp697
g21
VDEEBAJ
p698
sg23
V7072x
p699
sg25
I58
sg26
I22
sg27
I55
sasg52
(lp700
sssI1541952000
(dp701
g2
Vhttp://www.skyracing.com.au/index.php?component=racing&task=race&id=107663713&meetingid=106456336&Itemid=89
p702
sg4
V29001602.1600
p703
sg6
(dp704
g8
(lp705
(lp706
I6
aI7
aI14
aI3
aa(lp707
I13
aI7
aI14
aI6
aa(lp708
I3
aI5
aI1
aI2
aa(lp709
I13
aI7
aI6
aI14
aa(lp710
I14
aI7
aI6
aI3
aa(lp711
I7
aI6
aI14
aI3
aa(lp712
I14
aI7
aI6
aI12
aa(lp713
I7
aI6
aI14
aI13
aasg18
(lp714
(dp715
g21
VCRACKER JAK
p716
sg23
V4x4x
p717
sg25
I70
sg26
I1
sg27
I72
sa(dp718
g21
VFAT SAM
p719
sg23
g226
sg25
I85
sg26
I2
sg27
I0
sa(dp720
g21
VFRANSHAM
p721
sg23
V7x2
p722
sg25
I79
sg26
I3
sg27
I89
sa(dp723
g21
VGOLDEN TAIPAN
p724
sg23
V03x
p725
sg25
I80
sg26
I4
sg27
I82
sa(dp726
g21
VHERO'S CREEK
p727
sg23
V6x9x8
p728
sg25
I76
sg26
I5
sg27
I80
sa(dp729
g21
VHUNTSMANS JOG
p730
sg23
V2x
p731
sg25
I95
sg26
I6
sg27
I100
sa(dp732
g21
VJACKSON HILL
p733
sg23
V2x
p734
sg25
I100
sg26
I7
sg27
I97
sa(dp735
g21
VJAMESSAINTPATRICK
p736
sg23
V41x
p737
sg25
I88
sg26
I8
sg27
I85
sa(dp738
g21
VPEDDLER
p739
sg23
g226
sg25
I71
sg26
I9
sg27
I0
sa(dp740
g21
VPETE'S CHOICE
p741
sg23
V7x0x
p742
sg25
I62
sg26
I10
sg27
I70
sa(dp743
g21
VRIGHT OLD TOUCH
p744
sg23
V0x
p745
sg25
I73
sg26
I11
sg27
I76
sa(dp746
g21
VSMARTY WILD
p747
sg23
g226
sg25
I90
sg26
I12
sg27
I0
sa(dp748
g21
VTHE RAVEN'S RETURN
p749
sg23
V40x
p750
sg25
I65
sg26
I13
sg27
I75
sa(dp751
g21
VTHUNDERSTRUCK
p752
sg23
V1x
p753
sg25
I98
sg26
I14
sg27
I92
sasg52
(lp754
sssI1541945400
(dp755
g2
Vhttp://www.skyracing.com.au/index.php?component=racing&task=race&id=107663695&meetingid=106778026&Itemid=89
p756
sg4
V29001600.1410
p757
sg6
(dp758
g8
(lp759
(lp760
I1
aI5
aI2
aI3
aa(lp761
I2
aI1
aI3
aI5
aa(lp762
I5
aI3
aI4
aI1
aa(lp763
I2
aI3
aI4
aI5
aa(lp764
I2
aI5
aI3
aI1
aa(lp765
I1
aI5
aI2
aI3
aa(lp766
I1
aI2
aI5
aI3
aa(lp767
I2
aI5
aI1
aI3
aasg18
(lp768
(dp769
g21
VBALLYOISIN
p770
sg23
V811x1
p771
sg25
I100
sg26
I1
sg27
I100
sa(dp772
g21
VDOCTOR PHOENIX
p773
sg23
V1275x
p774
sg25
I96
sg26
I2
sg27
I92
sa(dp775
g21
VORDINARY WORLD
p776
sg23
V457x4
p777
sg25
I89
sg26
I3
sg27
I85
sa(dp778
g21
VROCK THE WORLD
p779
sg23
V70045
p780
sg25
I84
sg26
I4
sg27
I84
sa(dp781
g21
VLISTEN DEAR
p782
sg23
V1x222
p783
sg25
I90
sg26
I5
sg27
I99
sasg52
(lp784
sssI1541949300
(dp785
g2
Vhttp://www.skyracing.com.au/index.php?component=racing&task=race&id=107663697&meetingid=106778026&Itemid=89
p786
sg4
V29001600.1515
p787
sg6
(dp788
g8
(lp789
(lp790
I5
aI4
aI12
aI8
aa(lp791
I2
aI3
aI5
aI10
aa(lp792
I4
aI3
aI5
aI10
aa(lp793
I2
aI1
aI5
aI12
aa(lp794
I2
aI3
aI5
aI10
aa(lp795
I5
aI4
aI8
aI12
aa(lp796
I2
aI4
aI6
aI5
aa(lp797
I5
aI2
aI4
aI3
aasg18
(lp798
(dp799
g21
VJIMMY BREEKIE
p800
sg23
V4365x
p801
sg25
I76
sg26
I1
sg27
I80
sa(dp802
g21
VCROSSHUE BOY
p803
sg23
V131x0
p804
sg25
I92
sg26
I2
sg27
I88
sa(dp805
g21
VTEACHER'S PET
p806
sg23
V00004
p807
sg25
I68
sg26
I3
sg27
I70
sa(dp808
g21
VWONDER LAISH
p809
sg23
Vx7x83
p810
sg25
I100
sg26
I4
sg27
I98
sa(dp811
g21
VGOLD SEAL
p812
sg23
V31613
p813
sg25
I97
sg26
I5
sg27
I100
sa(dp814
g21
VOSCARS DEN
p815
sg23
Vx400x
p816
sg25
I93
sg26
I6
sg27
I67
sa(dp817
g21
VLIKE AN OPEN BOOK
p818
sg23
V51904
p819
sg25
I85
sg26
I7
sg27
I75
sa(dp820
g21
VRARE CONOR
p821
sg23
V2x444
p822
sg25
I88
sg26
I8
sg27
I93
sa(dp823
g21
VVOICES OF SPRING
p824
sg23
V0x48x
p825
sg25
I70
sg26
I9
sg27
I76
sa(dp826
g21
VMISTY MILLIE
p827
sg23
V01x02
p828
sg25
I87
sg26
I10
sg27
I92
sa(dp829
g21
VTHEOPHILUS
p830
sg23
Vx90x0
p831
sg25
I64
sg26
I11
sg27
I65
sa(dp832
g21
VANGE D'OR JAVILEX
p833
sg23
V93x0x
p834
sg25
I95
sg26
I12
sg27
I95
sa(dp835
g21
VFRANKIEFIVEANGELS
p836
sg23
V5856x
p837
sg25
I82
sg26
I13
sg27
I87
sa(dp838
g21
VWADE HARPER
p839
sg23
V5590x
p840
sg25
I66
sg26
I14
sg27
I68
sa(dp841
g21
VYOUNGNEDOFTHEHILL
p842
sg23
V82053
p843
sg25
I79
sg26
I15
sg27
I83
sa(dp844
g21
VFOLLY DAT
p845
sg23
Vx91x6
p846
sg25
I73
sg26
I16
sg27
I79
sasg52
(lp847
sssI1541946000
(dp848
g2
Vhttp://www.skyracing.com.au/index.php?component=racing&task=race&id=107663710&meetingid=106456336&Itemid=89
p849
sg4
V29001602.1420
p850
sg6
(dp851
g8
(lp852
(lp853
I2
aI1
aI4
aI3
aa(lp854
I2
aI1
aI4
aI3
aa(lp855
I3
aI1
aI2
aI4
aa(lp856
I1
aI4
aI2
aI3
aa(lp857
I2
aI1
aI4
aI3
aa(lp858
I1
aI4
aI2
aI3
aa(lp859
I4
aI2
aI1
aI3
aa(lp860
I1
aI2
aI4
aI3
aasg18
(lp861
(dp862
g21
VELEGANT ESCAPE
p863
sg23
V2133x
p864
sg25
I92
sg26
I1
sg27
I86
sa(dp865
g21
VTERREFORT
p866
sg23
V1121x
p867
sg25
I100
sg26
I2
sg27
I100
sa(dp868
g21
VCOO STAR SIVOLA
p869
sg23
V119x8
p870
sg25
I85
sg26
I3
sg27
I76
sa(dp871
g21
VTHOMAS PATRICK
p872
sg23
V1411x
p873
sg25
I97
sg26
I4
sg27
I83
sasg52
(lp874
sssI1541949900
(dp875
g2
Vhttp://www.skyracing.com.au/index.php?component=racing&task=race&id=107663712&meetingid=106456336&Itemid=89
p876
sg4
V29001602.1525
p877
sg6
(dp878
g8
(lp879
(lp880
I3
aI4
aI5
aI8
aa(lp881
I1
aI7
aI5
aI6
aa(lp882
I3
aI7
aI1
aI11
aa(lp883
I4
aI2
aI5
aI6
aa(lp884
I1
aI6
aI9
aI3
aa(lp885
I3
aI4
aI5
aI8
aa(lp886
I8
aI6
aI3
aI5
aa(lp887
I3
aI4
aI1
aI5
aasg18
(lp888
(dp889
g21
VTHEATRE GUIDE
p890
sg23
V087x0
p891
sg25
I86
sg26
I1
sg27
I87
sa(dp892
g21
VTENOR NIVERNAIS
p893
sg23
Vx060x
p894
sg25
I83
sg26
I2
sg27
I76
sa(dp895
g21
VCAROLE'S DESTRIER
p896
sg23
V0x5x3
p897
sg25
I96
sg26
I3
sg27
I100
sa(dp898
g21
VROCK GONE
p899
sg23
V37x2x
p900
sg25
I92
sg26
I4
sg27
I99
sa(dp901
g21
VPETE THE FEAT
p902
sg23
V1271x
p903
sg25
I93
sg26
I5
sg27
I93
sa(dp904
g21
VRATHLIN ROSE
p905
sg23
V2100x
p906
sg25
I87
sg26
I6
sg27
I82
sa(dp907
g21
VLOOSE CHIPS
p908
sg23
V056x5
p909
sg25
I70
sg26
I7
sg27
I74
sa(dp910
g21
VMENDIP EXPRESS
p911
sg23
V4x15x
p912
sg25
I100
sg26
I8
sg27
I91
sa(dp913
g21
VFLAMING CHARMER
p914
sg23
V4545x
p915
sg25
I78
sg26
I9
sg27
I86
sa(dp916
g21
VVINO GRIEGO
p917
sg23
V4065x
p918
sg25
I76
sg26
I10
sg27
I78
sa(dp919
g21
VCOURT FRONTIER
p920
sg23
Vx7x05
p921
sg25
I73
sg26
I11
sg27
I72
sasg52
(lp922
sssI1541941500
(dp923
g2
Vhttp://www.skyracing.com.au/index.php?component=racing&task=race&id=107663693&meetingid=106778026&Itemid=89
p924
sg4
V29001600.1305
p925
sg6
(dp926
g8
(lp927
(lp928
I1
aI5
aI2
aI7
aa(lp929
I5
aI7
aI3
aI1
aa(lp930
I7
aI1
aI5
aI2
aa(lp931
I5
aI3
aI1
aI8
aa(lp932
I3
aI1
aI8
aI7
aa(lp933
I1
aI5
aI2
aI7
aa(lp934
I5
aI1
aI2
aI6
aa(lp935
I1
aI5
aI7
aI3
aasg18
(lp936
(dp937
g21
VQUICK GRABIM
p938
sg23
V20x11
p939
sg25
I95
sg26
I1
sg27
I100
sa(dp940
g21
VARAMON
p941
sg23
V31x12
p942
sg25
I93
sg26
I2
sg27
I90
sa(dp943
g21
VCHOUNGAYA
p944
sg23
Vx23x1
p945
sg25
I78
sg26
I3
sg27
I83
sa(dp946
g21
VDAYBREAK BOY
p947
sg23
V205x1
p948
sg25
I69
sg26
I4
sg27
I77
sa(dp949
g21
VFELIX DESJY
p950
sg23
Vx65x1
p951
sg25
I100
sg26
I5
sg27
I97
sa(dp952
g21
VMAGNIUM
p953
sg23
V71x
p954
sg25
I87
sg26
I6
sg27
I71
sa(dp955
g21
VMAKE MY HEART FLY
p956
sg23
V12433
p957
sg25
I73
sg26
I7
sg27
I85
sa(dp958
g21
VWESTERN VICTORY
p959
sg23
V442x1
p960
sg25
I81
sg26
I8
sg27
I78
sasg52
(lp961
sssI1541943300
(dp962
g2
Vhttp://www.skyracing.com.au/index.php?component=racing&task=race&id=107663694&meetingid=106778026&Itemid=89
p963
sg4
V29001600.1335
p964
sg6
(dp965
g8
(lp966
(lp967
I4
aI1
aI2
aI5
aa(lp968
I6
aI1
aI4
aI3
aa(lp969
I5
aI1
aI2
aI3
aa(lp970
I6
aI1
aI3
aI5
aa(lp971
I6
aI3
aI4
aI2
aa(lp972
I4
aI1
aI2
aI5
aa(lp973
I4
aI2
aI5
aI1
aa(lp974
I4
aI1
aI6
aI5
aasg18
(lp975
(dp976
g21
VIDENTITY THIEF
p977
sg23
V2414x
p978
sg25
I90
sg26
I1
sg27
I95
sa(dp979
g21
VDORTMUND PARK
p980
sg23
V1481x
p981
sg25
I97
sg26
I2
sg27
I94
sa(dp982
g21
VJEZKI
p983
sg23
V4100x
p984
sg25
I81
sg26
I3
sg27
I80
sa(dp985
g21
VAPPLE'S JADE
p986
sg23
V1x33x
p987
sg25
I100
sg26
I4
sg27
I100
sa(dp988
g21
VARCTIC FIRE
p989
sg23
V3x314
p990
sg25
I87
sg26
I5
sg27
I87
sa(dp991
g21
VCONEY ISLAND
p992
sg23
Vx177x
p993
sg25
I79
sg26
I6
sg27
I83
sasg52
(lp994
sssI1541950500
(dp995
g2
Vhttp://www.skyracing.com.au/index.php?component=racing&task=race&id=107663727&meetingid=106456352&Itemid=89
p996
sg4
V29001601.1535
p997
sg6
(dp998
g8
(lp999
(lp1000
I2
aI3
aI5
aI1
aa(lp1001
I4
aI2
aI5
aI6
aa(lp1002
I4
aI2
aI6
aI1
aa(lp1003
I1
aI4
aI2
aI8
aa(lp1004
I5
aI4
aI8
aI2
aa(lp1005
I5
aI2
aI3
aI1
aa(lp1006
I3
aI5
aI1
aI2
aa(lp1007
I2
aI4
aI5
aI1
aasg18
(lp1008
(dp1009
g21
VCONAS TAOI
p1010
sg23
Vx853x
p1011
sg25
I92
sg26
I1
sg27
I86
sa(dp1012
g21
VLUNAR FLOW
p1013
sg23
V251x6
p1014
sg25
I88
sg26
I2
sg27
I100
sa(dp1015
g21
VSIR DU BEARN
p1016
sg23
V11x1x
p1017
sg25
I100
sg26
I3
sg27
I95
sa(dp1018
g21
VMISTY MAI
p1019
sg23
V159x6
p1020
sg25
I60
sg26
I4
sg27
I59
sa(dp1021
g21
VJEPECK
p1022
sg23
V4333x
p1023
sg25
I96
sg26
I5
sg27
I89
sa(dp1024
g21
VMARKET ROAD
p1025
sg23
V454x0
p1026
sg25
I81
sg26
I6
sg27
I80
sa(dp1027
g21
VSIDEWAYS
p1028
sg23
Vx42x3
p1029
sg25
I72
sg26
I7
sg27
I64
sa(dp1030
g21
VALLCHILLEDOUT
p1031
sg23
V73x9x
p1032
sg25
I79
sg26
I8
sg27
I77
sa(dp1033
g21
VKILCREA BRIDGE
p1034
sg23
V3229x
p1035
sg25
I76
sg26
I9
sg27
I74
sa(dp1036
g21
VSTEEL NATIVE
p1037
sg23
V9555x
p1038
sg25
I65
sg26
I10
sg27
I68
sasg52
(lp1039
sss.