(dp0
Vhttp://www.skyracing.com.au/index.php?component=racing&task=race&id=107652637&meetingid=104171761&Itemid=89
p1
(dp2
S'ratings_auto'
p3
(lp4
(lp5
I3
aI2
aI7
aI5
aa(lp6
I12
aI2
aI3
aI7
aa(lp7
I2
aI7
aI12
aI14
aa(lp8
I2
aI12
aI8
aI14
aa(lp9
I3
aI12
aI14
aI2
aa(lp10
I3
aI7
aI2
aI5
aa(lp11
I3
aI2
aI7
aI5
aa(lp12
I2
aI3
aI12
aI7
aasS'horse_details'
p13
(lp14
(dp15
S'horse_name'
p16
VOSMOND
p17
sS'horse_form'
p18
Vx309x
p19
sS'rating_2'
p20
I91
sS'horse_number'
p21
I1
sS'rating_1'
p22
I0
sa(dp23
g16
VSAVVY ACQUISITION
p24
sg18
V294x6
p25
sg20
I98
sg21
I2
sg22
I97
sa(dp26
g16
VKARAS
p27
sg18
V3823x
p28
sg20
I100
sg21
I3
sg22
I100
sa(dp29
g16
VTHAT'LLDO
p30
sg18
V6
p31
sg20
I74
sg21
I4
sg22
I75
sa(dp32
g16
VHEZA GOOD BOY
p33
sg18
V75
p34
sg20
I89
sg21
I5
sg22
I87
sa(dp35
g16
VAZDAJA
p36
sg18
V
p37
sg20
I80
sg21
I6
sg22
I0
sa(dp38
g16
VELMO'S FIRE
p39
sg18
V3x6x4
p40
sg20
I94
sg21
I7
sg22
I94
sa(dp41
g16
VDOCAROCKET
p42
sg18
Vx78x9
p43
sg20
I62
sg21
I8
sg22
I67
sa(dp44
g16
VLUVYOULONGTIME
p45
sg18
V50x7
p46
sg20
I69
sg21
I9
sg22
I70
sa(dp47
g16
VCOME ALIVE
p48
sg18
V856x9
p49
sg20
I67
sg21
I10
sg22
I71
sa(dp50
g16
VFLYING DEE JAY
p51
sg18
V959x4
p52
sg20
I77
sg21
I11
sg22
I78
sa(dp53
g16
VMISSY MUSKETEER
p54
sg18
V340x7
p55
sg20
I79
sg21
I12
sg22
I80
sa(dp56
g16
VSMOKIN' HUSSAY
p57
sg18
V800x5
p58
sg20
I72
sg21
I13
sg22
I74
sa(dp59
g16
VIN SEATTLE
p60
sg18
V34003
p61
sg20
I85
sg21
I14
sg22
I84
sasS'ratings_manual'
p62
(lp63
(lp64
I7
aI2
aI4
aI3
aassVhttp://www.skyracing.com.au/index.php?component=racing&task=race&id=107652519&meetingid=104171857&Itemid=89
p65
(dp66
g3
(lp67
(lp68
I17
aI3
aI8
aI14
aa(lp69
I1
aI14
aI8
aI7
aa(lp70
I1
aI8
aI7
aI2
aa(lp71
I3
aI1
aI7
aI2
aa(lp72
I1
aI8
aI11
aI2
aa(lp73
I17
aI3
aI14
aI8
aa(lp74
I3
aI17
aI14
aI8
aa(lp75
I1
aI8
aI3
aI17
aasg13
(lp76
(dp77
g16
VJIN LU
p78
sg18
V710x2
p79
sg20
I90
sg21
I1
sg22
I83
sa(dp80
g16
VALBUT ME
p81
sg18
V33214
p82
sg20
I91
sg21
I2
sg22
I86
sa(dp83
g16
VSTRAD
p84
sg18
V641x7
p85
sg20
I100
sg21
I3
sg22
I95
sa(dp86
g16
VTHOM BROWN
p87
sg18
Vx2x06
p88
sg20
I80
sg21
I4
sg22
I0
sa(dp89
g16
VZAH WANTED
p90
sg18
V6x853
p91
sg20
I63
sg21
I5
sg22
I0
sa(dp92
g16
VIMELDAS GIRL
p93
sg18
Vx9x12
p94
sg20
I89
sg21
I6
sg22
I0
sa(dp95
g16
VCOUP DREAMWOOD
p96
sg18
V41x87
p97
sg20
I70
sg21
I7
sg22
I74
sa(dp98
g16
VMONZA CIRCUITO
p99
sg18
Vx5623
p100
sg20
I93
sg21
I8
sg22
I94
sa(dp101
g16
VSAVASAVA
p102
sg18
V60x00
p103
sg20
I75
sg21
I9
sg22
I77
sa(dp104
g16
VBATTLE KAT
p105
sg18
V45710
p106
sg20
I74
sg21
I10
sg22
I61
sa(dp107
g16
VBRIDGET TOWN
p108
sg18
V20290
p109
sg20
I60
sg21
I11
sg22
I63
sa(dp110
g16
VMISS DIORELLA
p111
sg18
V63x19
p112
sg20
I81
sg21
I12
sg22
I66
sa(dp113
g16
VRED RIVER ROCK
p114
sg18
V0x853
p115
sg20
I92
sg21
I13
sg22
I0
sa(dp116
g16
VSO BRAZEN
p117
sg18
V23646
p118
sg20
I94
sg21
I14
sg22
I92
sa(dp119
g16
VSPLENDIOR
p120
sg18
V4x435
p121
sg20
I61
sg21
I15
sg22
I65
sa(dp122
g16
VHANNAH MARENE
p123
sg18
V4x020
p124
sg20
I62
sg21
I16
sg22
I0
sa(dp125
g16
VCASUAL WINKS
p126
sg18
V0218
p127
sg20
I99
sg21
I17
sg22
I100
sa(dp128
g16
VQUAINTRELLE
p129
sg18
V00x42
p130
sg20
I71
sg21
I18
sg22
I79
sa(dp131
g16
VLORD SNOW
p132
sg18
V548x5
p133
sg20
I55
sg21
I19
sg22
I0
sa(dp134
g16
VGOLDEN VALKYRIE
p135
sg18
V90x98
p136
sg20
I56
sg21
I20
sg22
I0
sasg62
(lp137
ssVhttp://www.skyracing.com.au/index.php?component=racing&task=race&id=107652518&meetingid=104171857&Itemid=89
p138
(dp139
g3
(lp140
(lp141
I4
aI2
aI1
aI9
aa(lp142
I2
aI5
aI1
aI6
aa(lp143
I2
aI5
aI1
aI6
aa(lp144
I2
aI10
aI5
aI1
aa(lp145
I1
aI6
aI3
aI10
aa(lp146
I2
aI4
aI1
aI8
aa(lp147
I2
aI9
aI4
aI1
aa(lp148
I2
aI1
aI5
aI4
aasg13
(lp149
(dp150
g16
VSWORD OF OSMAN
p151
sg18
V7x651
p152
sg20
I90
sg21
I1
sg22
I93
sa(dp153
g16
VMADISON COUNTY
p154
sg18
V1x213
p155
sg20
I100
sg21
I2
sg22
I96
sa(dp156
g16
VSIR NATE
p157
sg18
V3x571
p158
sg20
I85
sg21
I3
sg22
I76
sa(dp159
g16
VTHE CHOSEN ONE
p160
sg18
V11
p161
sg20
I98
sg21
I4
sg22
I100
sa(dp162
g16
VQIJI EXPRESS
p163
sg18
V2x412
p164
sg20
I86
sg21
I5
sg22
I85
sa(dp165
g16
VBIT LIPPY
p166
sg18
V21x15
p167
sg20
I82
sg21
I6
sg22
I84
sa(dp168
g16
VIN A TWINKLING
p169
sg18
V2x172
p170
sg20
I69
sg21
I7
sg22
I63
sa(dp171
g16
VKING LOUIS
p172
sg18
Vx6231
p173
sg20
I74
sg21
I8
sg22
I80
sa(dp174
g16
VDAWN PATROL
p175
sg18
V11
p176
sg20
I99
sg21
I9
sg22
I88
sa(dp177
g16
VMORE WONDER
p178
sg18
Vx8x32
p179
sg20
I68
sg21
I10
sg22
I67
sa(dp180
g16
VPUBLICIST
p181
sg18
V341
p182
sg20
I76
sg21
I11
sg22
I75
sa(dp183
g16
VMR UNIVERSE
p184
sg18
V30623
p185
sg20
I72
sg21
I12
sg22
I72
sa(dp186
g16
VLAPHROAIG
p187
sg18
V7320
p188
sg20
I70
sg21
I13
sg22
I68
sasg62
(lp189
ssVhttp://www.skyracing.com.au/index.php?component=racing&task=race&id=107652622&meetingid=104171681&Itemid=89
p190
(dp191
g3
(lp192
(lp193
I4
aI9
aI8
aI6
aa(lp194
I9
aI10
aI5
aI4
aa(lp195
I10
aI5
aI9
aI4
aa(lp196
I9
aI10
aI5
aI7
aa(lp197
I9
aI10
aI4
aI6
aa(lp198
I9
aI4
aI8
aI6
aa(lp199
I4
aI8
aI9
aI6
aa(lp200
I9
aI10
aI4
aI5
aasg13
(lp201
(dp202
g16
VZEPPELIN
p203
sg18
V323x3
p204
sg20
I100
sg21
I1
sg22
I0
sa(dp205
g16
VCULBERTSON
p206
sg18
g37
sg20
I92
sg21
I2
sg22
I0
sa(dp207
g16
VSAVING
p208
sg18
g37
sg20
I74
sg21
I3
sg22
I0
sa(dp209
g16
VBLACK SUNRISE
p210
sg18
V4
p211
sg20
I99
sg21
I4
sg22
I100
sa(dp212
g16
VNEWSTEAD
p213
sg18
V0
p214
sg20
I70
sg21
I5
sg22
I84
sa(dp215
g16
VWRISTBAND
p216
sg18
V5
p217
sg20
I79
sg21
I6
sg22
I86
sa(dp218
g16
VSCHEMER
p219
sg18
V8
p220
sg20
I61
sg21
I7
sg22
I76
sa(dp221
g16
VTALENT AWARD
p222
sg18
V8
p223
sg20
I89
sg21
I8
sg22
I89
sa(dp224
g16
VANOTHER SONETTE
p225
sg18
V360x7
p226
sg20
I83
sg21
I9
sg22
I94
sa(dp227
g16
VTRUST THE FOX
p228
sg18
V9x655
p229
sg20
I65
sg21
I10
sg22
I77
sasg62
(lp230
(lp231
I4
aI6
aI3
aI8
aa(lp232
I4
aI5
aI3
aI6
aassVhttp://www.skyracing.com.au/index.php?component=racing&task=race&id=107652531&meetingid=104171873&Itemid=89
p233
(dp234
g3
(lp235
(lp236
I2
aI1
aI4
aI7
aa(lp237
I1
aI2
aI7
aI5
aa(lp238
I1
aI2
aI7
aI3
aa(lp239
I2
aI7
aI1
aI5
aa(lp240
I3
aI5
aI2
aI4
aa(lp241
I2
aI1
aI7
aI5
aa(lp242
I4
aI2
aI1
aI5
aa(lp243
I2
aI1
aI7
aI5
aasg13
(lp244
(dp245
g16
VUNTAMED DIAMOND
p246
sg18
V10x26
p247
sg20
I92
sg21
I1
sg22
I96
sa(dp248
g16
VINDECISION
p249
sg18
V6x522
p250
sg20
I95
sg21
I2
sg22
I100
sa(dp251
g16
VYEARN
p252
sg18
V6x291
p253
sg20
I78
sg21
I3
sg22
I77
sa(dp254
g16
VYOUR WAY
p255
sg18
Vx77x3
p256
sg20
I100
sg21
I4
sg22
I92
sa(dp257
g16
VRIKKI TIKKI TAVI
p258
sg18
V34x25
p259
sg20
I85
sg21
I5
sg22
I83
sa(dp260
g16
VLUCYINRIO
p261
sg18
V566x8
p262
sg20
I71
sg21
I6
sg22
I71
sa(dp263
g16
VSANTA MONICA
p264
sg18
V02215
p265
sg20
I81
sg21
I7
sg22
I87
sa(dp266
g16
VALIGNS WITH ME
p267
sg18
V6x224
p268
sg20
I77
sg21
I8
sg22
I80
sasg62
(lp269
ssVhttp://www.skyracing.com.au/index.php?component=racing&task=race&id=107652593&meetingid=104171729&Itemid=89
p270
(dp271
g3
(lp272
(lp273
I2
aI5
aI7
aI1
aa(lp274
I1
aI4
aI6
aI2
aa(lp275
I4
aI1
aI2
aI8
aa(lp276
I4
aI1
aI2
aI5
aa(lp277
I4
aI1
aI6
aI2
aa(lp278
I5
aI2
aI7
aI4
aa(lp279
I4
aI2
aI5
aI1
aa(lp280
I4
aI1
aI2
aI5
aasg13
(lp281
(dp282
g16
VSTRATEGIC DEMAND
p283
sg18
Vx9893
p284
sg20
I80
sg21
I1
sg22
I85
sa(dp285
g16
VSTRIKE FORCE
p286
sg18
V41030
p287
sg20
I86
sg21
I2
sg22
I100
sa(dp288
g16
VLIFE OF WALDO
p289
sg18
V61111
p290
sg20
I100
sg21
I3
sg22
I0
sa(dp291
g16
VGOLD FIELDS
p292
sg18
V60647
p293
sg20
I95
sg21
I4
sg22
I81
sa(dp294
g16
VPORTMAN
p295
sg18
V66x65
p296
sg20
I91
sg21
I5
sg22
I92
sa(dp297
g16
VSTAR FORTUNE
p298
sg18
V08053
p299
sg20
I82
sg21
I6
sg22
I74
sa(dp300
g16
VGET THE PICTURE
p301
sg18
V310x5
p302
sg20
I74
sg21
I7
sg22
I89
sa(dp303
g16
VDANGLE LAD
p304
sg18
V80x77
p305
sg20
I70
sg21
I8
sg22
I72
sasg62
(lp306
(lp307
I5
aI4
aI6
aI2
aassVhttp://www.skyracing.com.au/index.php?component=racing&task=race&id=107652663&meetingid=104171793&Itemid=89
p308
(dp309
g3
(lp310
(lp311
I4
aI1
aI2
aI5
aa(lp312
I3
aI1
aI2
aI5
aa(lp313
I6
aI5
aI1
aI2
aa(lp314
I1
aI4
aI5
aI3
aa(lp315
I3
aI4
aI2
aI6
aa(lp316
I4
aI2
aI5
aI1
aa(lp317
I4
aI2
aI1
aI3
aa(lp318
I4
aI1
aI2
aI5
aasg13
(lp319
(dp320
g16
VSKY MUSTER
p321
sg18
V211x5
p322
sg20
I94
sg21
I1
sg22
I97
sa(dp323
g16
VBRUNSWICK STREET
p324
sg18
V6153x
p325
sg20
I96
sg21
I2
sg22
I92
sa(dp326
g16
VEVIL DREAMS
p327
sg18
V2008x
p328
sg20
I85
sg21
I3
sg22
I84
sa(dp329
g16
VIRON LOTUS
p330
sg18
V7x12x
p331
sg20
I100
sg21
I4
sg22
I100
sa(dp332
g16
VSHE RA
p333
sg18
V421x3
p334
sg20
I81
sg21
I5
sg22
I88
sa(dp335
g16
VJOLLY BOY
p336
sg18
V21252
p337
sg20
I78
sg21
I6
sg22
I79
sasg62
(lp338
(lp339
I4
aI6
aI1
aI2
aassVhttp://www.skyracing.com.au/index.php?component=racing&task=race&id=107652800&meetingid=104171777&Itemid=89
p340
(dp341
g3
(lp342
(lp343
I2
aI4
aI1
aI5
aa(lp344
I1
aI2
aI3
aI5
aa(lp345
I1
aI2
aI3
aI5
aa(lp346
I1
aI2
aI3
aI6
aa(lp347
I7
aI2
aI4
aI5
aa(lp348
I4
aI2
aI5
aI1
aa(lp349
I2
aI5
aI3
aI1
aa(lp350
I2
aI1
aI4
aI5
aasg13
(lp351
(dp352
g16
VSAIPAN
p353
sg18
V65064
p354
sg20
I86
sg21
I1
sg22
I89
sa(dp355
g16
VTEEROYS TRIBUTE
p356
sg18
Vx12x1
p357
sg20
I100
sg21
I2
sg22
I100
sa(dp358
g16
VBAGGER CHANCE
p359
sg18
V000x6
p360
sg20
I82
sg21
I3
sg22
I78
sa(dp361
g16
VVICEMAN
p362
sg18
Vx1612
p363
sg20
I95
sg21
I4
sg22
I94
sa(dp364
g16
VCAPTAIN LEO
p365
sg18
V3x164
p366
sg20
I94
sg21
I5
sg22
I85
sa(dp367
g16
VZOUZOUKAKIA
p368
sg18
V8789x
p369
sg20
I76
sg21
I6
sg22
I75
sa(dp370
g16
VDISTRICT
p371
sg18
V21253
p372
sg20
I80
sg21
I7
sg22
I81
sasg62
(lp373
(lp374
I1
aI2
aI5
aI7
aassVhttp://www.skyracing.com.au/index.php?component=racing&task=race&id=107652681&meetingid=104171825&Itemid=89
p375
(dp376
g3
(lp377
(lp378
I10
aI7
aI2
aI1
aa(lp379
I2
aI1
aI3
aI10
aa(lp380
I1
aI6
aI2
aI3
aa(lp381
I2
aI1
aI10
aI6
aa(lp382
I7
aI10
aI2
aI3
aa(lp383
I7
aI10
aI2
aI3
aa(lp384
I10
aI7
aI3
aI1
aa(lp385
I2
aI10
aI1
aI7
aasg13
(lp386
(dp387
g16
VPUSHIN' SHAPES
p388
sg18
V02141
p389
sg20
I73
sg21
I1
sg22
I76
sa(dp390
g16
VIHTSAHYMN
p391
sg18
V3x446
p392
sg20
I65
sg21
I2
sg22
I79
sa(dp393
g16
VPRIZE CATCH
p394
sg18
V81185
p395
sg20
I78
sg21
I3
sg22
I72
sa(dp396
g16
VROYAL STAR
p397
sg18
V53x64
p398
sg20
I100
sg21
I4
sg22
I0
sa(dp399
g16
VCAPPO D'ORO
p400
sg18
V23x22
p401
sg20
I90
sg21
I5
sg22
I0
sa(dp402
g16
VDARK MUSKET
p403
sg18
Vx7730
p404
sg20
I61
sg21
I6
sg22
I62
sa(dp405
g16
VELEGANT BLAST
p406
sg18
Vx3332
p407
sg20
I87
sg21
I7
sg22
I90
sa(dp408
g16
VFIRST AFFAIR
p409
sg18
V47313
p410
sg20
I82
sg21
I8
sg22
I0
sa(dp411
g16
VLIKE A BUTTERFLY
p412
sg18
V269x5
p413
sg20
I70
sg21
I9
sg22
I0
sa(dp414
g16
VMISSILE LAUNCH
p415
sg18
V18x56
p416
sg20
I98
sg21
I10
sg22
I100
sasg62
(lp417
(lp418
I5
aI7
aI10
aI1
aa(lp419
I4
aI7
aI1
aI5
aassVhttp://www.skyracing.com.au/index.php?component=racing&task=race&id=107652636&meetingid=104171761&Itemid=89
p420
(dp421
g3
(lp422
(lp423
I1
aI7
aI10
aI8
aa(lp424
I7
aI2
aI1
aI8
aa(lp425
I2
aI8
aI9
aI3
aa(lp426
I1
aI8
aI7
aI2
aa(lp427
I7
aI8
aI1
aI2
aa(lp428
I1
aI7
aI10
aI8
aa(lp429
I1
aI8
aI7
aI5
aa(lp430
I1
aI7
aI8
aI2
aasg13
(lp431
(dp432
g16
VCHIEF HAVOC
p433
sg18
V6x2x
p434
sg20
I100
sg21
I1
sg22
I100
sa(dp435
g16
VGAME SET MATCH
p436
sg18
V45
p437
sg20
I74
sg21
I2
sg22
I81
sa(dp438
g16
VPERJURY
p439
sg18
V6
p440
sg20
I63
sg21
I3
sg22
I72
sa(dp441
g16
VBLUE COMET
p442
sg18
g37
sg20
I78
sg21
I4
sg22
I0
sa(dp443
g16
VPER ARDUA
p444
sg18
g37
sg20
I85
sg21
I5
sg22
I0
sa(dp445
g16
VVIBRANT THUNDER
p446
sg18
g37
sg20
I67
sg21
I6
sg22
I0
sa(dp447
g16
VMEANER
p448
sg18
V4454x
p449
sg20
I87
sg21
I7
sg22
I97
sa(dp450
g16
VRAZZY
p451
sg18
V92434
p452
sg20
I93
sg21
I8
sg22
I84
sa(dp453
g16
VMISHANI WICKED
p454
sg18
V99x7
p455
sg20
I68
sg21
I9
sg22
I75
sa(dp456
g16
VMURTALLICA
p457
sg18
V0x
p458
sg20
I75
sg21
I10
sg22
I86
sa(dp459
g16
VRELIABLE LASS
p460
sg18
V589x4
p461
sg20
I80
sg21
I11
sg22
I0
sa(dp462
g16
VSUZI BEL
p463
sg18
Vx5545
p464
sg20
I72
sg21
I12
sg22
I0
sa(dp465
g16
VBURNING SUCCESS
p466
sg18
V96453
p467
sg20
I98
sg21
I13
sg22
I0
sa(dp468
g16
VCHICOUTIMI
p469
sg18
V3554x
p470
sg20
I90
sg21
I14
sg22
I0
sasg62
(lp471
(lp472
I4
aI1
aI2
aI7
aassVhttp://www.skyracing.com.au/index.php?component=racing&task=race&id=107652677&meetingid=104171825&Itemid=89
p473
(dp474
g3
(lp475
(lp476
I8
aI1
aI5
aI3
aa(lp477
I1
aI4
aI3
aI5
aa(lp478
I1
aI3
aI5
aI7
aa(lp479
I4
aI1
aI9
aI3
aa(lp480
I5
aI1
aI3
aI9
aa(lp481
I8
aI5
aI1
aI4
aa(lp482
I8
aI1
aI5
aI3
aa(lp483
I1
aI5
aI3
aI8
aasg13
(lp484
(dp485
g16
VPABLO'S POEM
p486
sg18
Vx2115
p487
sg20
I96
sg21
I1
sg22
I95
sa(dp488
g16
VCAROLINA REAPER
p489
sg18
V856x7
p490
sg20
I61
sg21
I2
sg22
I60
sa(dp491
g16
VDRIFTSTAR
p492
sg18
V40x51
p493
sg20
I89
sg21
I3
sg22
I88
sa(dp494
g16
VSUPER STARDOM
p495
sg18
V113x0
p496
sg20
I84
sg21
I4
sg22
I81
sa(dp497
g16
VCUP NIGHT
p498
sg18
Vx2131
p499
sg20
I91
sg21
I5
sg22
I91
sa(dp500
g16
VALCINA
p501
sg18
V4x126
p502
sg20
I75
sg21
I6
sg22
I0
sa(dp503
g16
VSHIP CREEK
p504
sg18
V26118
p505
sg20
I79
sg21
I7
sg22
I75
sa(dp506
g16
VDANCE MUSIC
p507
sg18
V114
p508
sg20
I100
sg21
I8
sg22
I100
sa(dp509
g16
VSTARES ANDWHISPERS
p510
sg18
V2x572
p511
sg20
I72
sg21
I9
sg22
I65
sa(dp512
g16
VEUPHONIOUS
p513
sg18
V76x22
p514
sg20
I67
sg21
I10
sg22
I70
sasg62
(lp515
(lp516
I1
aI5
aI8
aI3
aa(lp517
I1
aI8
aI3
aI5
aassVhttp://www.skyracing.com.au/index.php?component=racing&task=race&id=107652576&meetingid=104171713&Itemid=89
p518
(dp519
g3
(lp520
(lp521
I2
aI7
aI1
aI13
aa(lp522
I1
aI2
aI4
aI6
aa(lp523
I1
aI7
aI8
aI13
aa(lp524
I1
aI4
aI7
aI8
aa(lp525
I9
aI7
aI2
aI1
aa(lp526
I7
aI1
aI2
aI13
aa(lp527
I4
aI7
aI8
aI2
aa(lp528
I1
aI7
aI2
aI4
aasg13
(lp529
(dp530
g16
VLIBRAN
p531
sg18
V83783
p532
sg20
I94
sg21
I1
sg22
I94
sa(dp533
g16
VGALLIC CHIEFTAIN
p534
sg18
V02484
p535
sg20
I91
sg21
I2
sg22
I100
sa(dp536
g16
VLORD FANDANGO
p537
sg18
V0x364
p538
sg20
I80
sg21
I3
sg22
I0
sa(dp539
g16
VMEGABLAST
p540
sg18
V3x507
p541
sg20
I89
sg21
I4
sg22
I80
sa(dp542
g16
VWALL OF FIRE
p543
sg18
V0x040
p544
sg20
I67
sg21
I5
sg22
I0
sa(dp545
g16
VCASTERTON
p546
sg18
V246x6
p547
sg20
I78
sg21
I6
sg22
I77
sa(dp548
g16
VJAAMEH
p549
sg18
V18123
p550
sg20
I100
sg21
I7
sg22
I96
sa(dp551
g16
VNORTHWEST PASSAGE
p552
sg18
V58428
p553
sg20
I96
sg21
I8
sg22
I76
sa(dp554
g16
VRED ALTO
p555
sg18
V37551
p556
sg20
I68
sg21
I9
sg22
I70
sa(dp557
g16
VSIR ISAAC NEWTON
p558
sg18
V0x436
p559
sg20
I71
sg21
I10
sg22
I68
sa(dp560
g16
VMIDTERM
p561
sg18
Vx0254
p562
sg20
I85
sg21
I11
sg22
I0
sa(dp563
g16
VMISS ADMIRATION
p564
sg18
V51076
p565
sg20
I74
sg21
I12
sg22
I72
sa(dp566
g16
VSULLY
p567
sg18
Vx5625
p568
sg20
I75
sg21
I13
sg22
I85
sa(dp569
g16
VORMITO
p570
sg18
V0x689
p571
sg20
I63
sg21
I14
sg22
I66
sasg62
(lp572
(lp573
I7
aI6
aI1
aI3
aa(lp574
I1
aI7
aI2
aI12
aa(lp575
I7
aI3
aI12
aI6
aassVhttp://www.skyracing.com.au/index.php?component=racing&task=race&id=107652573&meetingid=104171713&Itemid=89
p576
(dp577
g3
(lp578
(lp579
I5
aI7
aI8
aI6
aa(lp580
I4
aI6
aI1
aI10
aa(lp581
I2
aI4
aI10
aI5
aa(lp582
I4
aI6
aI10
aI2
aa(lp583
I11
aI5
aI6
aI10
aa(lp584
I5
aI7
aI8
aI4
aa(lp585
I5
aI2
aI8
aI6
aa(lp586
I4
aI5
aI6
aI7
aasg13
(lp587
(dp588
g16
VLYCURGUS
p589
sg18
V213x9
p590
sg20
I76
sg21
I1
sg22
I68
sa(dp591
g16
VSILVERA
p592
sg18
V19424
p593
sg20
I84
sg21
I2
sg22
I78
sa(dp594
g16
VRIYADH
p595
sg18
V84075
p596
sg20
I67
sg21
I3
sg22
I71
sa(dp597
g16
VETYMOLOGY
p598
sg18
V44x29
p599
sg20
I78
sg21
I4
sg22
I80
sa(dp600
g16
VLUCKY FOR ALL
p601
sg18
V7x321
p602
sg20
I100
sg21
I5
sg22
I100
sa(dp603
g16
VTHE PINNACLE
p604
sg18
Vx6693
p605
sg20
I83
sg21
I6
sg22
I90
sa(dp606
g16
VDANON ROMAN
p607
sg18
V6x352
p608
sg20
I90
sg21
I7
sg22
I99
sa(dp609
g16
VPLEASURING
p610
sg18
Vx7833
p611
sg20
I94
sg21
I8
sg22
I94
sa(dp612
g16
VSPECIAL ALERT
p613
sg18
V06752
p614
sg20
I70
sg21
I9
sg22
I77
sa(dp615
g16
VBOXACHOCOLATES
p616
sg18
V2x502
p617
sg20
I68
sg21
I10
sg22
I73
sa(dp618
g16
VTOP PROSPECT
p619
sg18
V326x2
p620
sg20
I87
sg21
I11
sg22
I85
sa(dp621
g16
VRUOMAZA
p622
sg18
Vx1312
p623
sg20
I99
sg21
I12
sg22
I0
sa(dp624
g16
VDOCKER PAV
p625
sg18
Vx0x95
p626
sg20
I74
sg21
I13
sg22
I65
sasg62
(lp627
(lp628
I5
aI2
aI4
aI7
aa(lp629
I7
aI5
aI2
aI6
aa(lp630
I5
aI7
aI10
aI2
aassVhttp://www.skyracing.com.au/index.php?component=racing&task=race&id=107652654&meetingid=104171809&Itemid=89
p631
(dp632
g3
(lp633
(lp634
I6
aI7
aI14
aI12
aa(lp635
I9
aI6
aI5
aI3
aa(lp636
I3
aI12
aI13
aI10
aa(lp637
I5
aI3
aI7
aI10
aa(lp638
I12
aI6
aI10
aI9
aa(lp639
I6
aI7
aI12
aI14
aa(lp640
I6
aI7
aI14
aI3
aa(lp641
I6
aI12
aI3
aI7
aasg13
(lp642
(dp643
g16
VAAGAS
p644
sg18
V15333
p645
sg20
I85
sg21
I1
sg22
I0
sa(dp646
g16
VENKI
p647
sg18
V0x977
p648
sg20
I64
sg21
I2
sg22
I0
sa(dp649
g16
VBURIED TREASURE
p650
sg18
V19912
p651
sg20
I89
sg21
I3
sg22
I85
sa(dp652
g16
VLAURE ME IN
p653
sg18
V218x2
p654
sg20
I100
sg21
I4
sg22
I0
sa(dp655
g16
VMARMAN
p656
sg18
V6250x
p657
sg20
I60
sg21
I5
sg22
I56
sa(dp658
g16
VPICTURE ME ROLLING
p659
sg18
V111x0
p660
sg20
I97
sg21
I6
sg22
I100
sa(dp661
g16
VEL DESPERADO
p662
sg18
V1332x
p663
sg20
I95
sg21
I7
sg22
I94
sa(dp664
g16
VPOLAR VORTEX
p665
sg18
V37461
p666
sg20
I82
sg21
I8
sg22
I0
sa(dp667
g16
VREDEEM BOUNTY
p668
sg18
V80x78
p669
sg20
I67
sg21
I9
sg22
I65
sa(dp670
g16
VCONTAINMENT
p671
sg18
V51815
p672
sg20
I79
sg21
I10
sg22
I79
sa(dp673
g16
VEURO GOLD
p674
sg18
V26118
p675
sg20
I57
sg21
I11
sg22
I0
sa(dp676
g16
VWILLOCHRA
p677
sg18
V29x51
p678
sg20
I87
sg21
I12
sg22
I88
sa(dp679
g16
VEXALTED DEE
p680
sg18
V14218
p681
sg20
I71
sg21
I13
sg22
I66
sa(dp682
g16
VPARIS CRYSTAL
p683
sg18
V19x4
p684
sg20
I93
sg21
I14
sg22
I90
sa(dp685
g16
VAUTMED
p686
sg18
V1237x
p687
sg20
I62
sg21
I15
sg22
I0
sa(dp688
g16
VEXACTING
p689
sg18
V92x53
p690
sg20
I75
sg21
I16
sg22
I71
sa(dp691
g16
VELTIZAAM
p692
sg18
V7215x
p693
sg20
I91
sg21
I17
sg22
I0
sa(dp694
g16
VLIZZIE LOUISE
p695
sg18
V2138x
p696
sg20
I77
sg21
I18
sg22
I0
sa(dp697
g16
VJUST LIVE ON
p698
sg18
V356x5
p699
sg20
I52
sg21
I19
sg22
I0
sa(dp700
g16
VSTAGHORN
p701
sg18
V62x56
p702
sg20
I69
sg21
I20
sg22
I68
sasg62
(lp703
(lp704
I10
aI7
aI3
aI14
aa(lp705
I14
aI7
aI6
aI3
aassVhttp://www.skyracing.com.au/index.php?component=racing&task=race&id=107652618&meetingid=104171681&Itemid=89
p706
(dp707
g3
(lp708
(lp709
I7
aI3
aI5
aI4
aa(lp710
I3
aI8
aI1
aI6
aa(lp711
I5
aI8
aI6
aI1
aa(lp712
I3
aI1
aI2
aI8
aa(lp713
I3
aI7
aI6
aI8
aa(lp714
I7
aI3
aI5
aI4
aa(lp715
I5
aI7
aI2
aI3
aa(lp716
I3
aI7
aI5
aI8
aasg13
(lp717
(dp718
g16
VPAMPLEMOUSSE
p719
sg18
V2218x
p720
sg20
I78
sg21
I1
sg22
I78
sa(dp721
g16
VCLASSIFY
p722
sg18
V1x8x
p723
sg20
I94
sg21
I2
sg22
I83
sa(dp724
g16
VODDS OR EVENS
p725
sg18
V1329x
p726
sg20
I85
sg21
I3
sg22
I99
sa(dp727
g16
VDANCING PHRYNE
p728
sg18
V2421x
p729
sg20
I81
sg21
I4
sg22
I86
sa(dp730
g16
VNATALIA
p731
sg18
V1x5
p732
sg20
I100
sg21
I5
sg22
I93
sa(dp733
g16
VJACK'S IMAGE
p734
sg18
V142x6
p735
sg20
I77
sg21
I6
sg22
I76
sa(dp736
g16
VSILVER MELODY
p737
sg18
V1x
p738
sg20
I96
sg21
I7
sg22
I100
sa(dp739
g16
VALPINE DRAGON
p740
sg18
V7x958
p741
sg20
I69
sg21
I8
sg22
I70
sasg62
(lp742
(lp743
I5
aI6
aI2
aI3
aa(lp744
I5
aI7
aI2
aI1
aassVhttp://www.skyracing.com.au/index.php?component=racing&task=race&id=107652527&meetingid=104171873&Itemid=89
p745
(dp746
g3
(lp747
(lp748
I4
aI1
aI2
aI3
aa(lp749
I4
aI1
aI2
aI3
aa(lp750
I4
aI1
aI2
aI3
aa(lp751
I4
aI1
aI2
aI3
aa(lp752
I4
aI1
aI2
aI3
aa(lp753
I4
aI1
aI2
aI3
aa(lp754
I7
aI4
aI1
aI5
aa(lp755
I4
aI1
aI6
aI3
aasg13
(lp756
(dp757
g16
VMAYBEASHOWOFF
p758
sg18
V5
p759
sg20
I91
sg21
I1
sg22
I92
sa(dp760
g16
VRANGER
p761
sg18
g37
sg20
I83
sg21
I2
sg22
I0
sa(dp762
g16
VSPRINGSTEEN
p763
sg18
g37
sg20
I76
sg21
I3
sg22
I0
sa(dp764
g16
VMISS FENDT
p765
sg18
V7
p766
sg20
I98
sg21
I4
sg22
I100
sa(dp767
g16
VPROBABEEL
p768
sg18
g37
sg20
I90
sg21
I5
sg22
I0
sa(dp769
g16
VSHIBUYA KOSATEN
p770
sg18
g37
sg20
I78
sg21
I6
sg22
I0
sa(dp771
g16
VTENNESSEE ROCK
p772
sg18
g37
sg20
I100
sg21
I7
sg22
I0
sasg62
(lp773
ssVhttp://www.skyracing.com.au/index.php?component=racing&task=race&id=107652634&meetingid=104171761&Itemid=89
p774
(dp775
g3
(lp776
(lp777
I4
aI7
aI2
aI3
aa(lp778
I3
aI1
aI2
aI7
aa(lp779
I1
aI7
aI3
aI4
aa(lp780
I2
aI4
aI6
aI7
aa(lp781
I7
aI4
aI2
aI1
aa(lp782
I7
aI4
aI3
aI6
aa(lp783
I4
aI7
aI6
aI3
aa(lp784
I7
aI4
aI2
aI3
aasg13
(lp785
(dp786
g16
VFOURGRANDMAN
p787
sg18
Vx9638
p788
sg20
I78
sg21
I1
sg22
I79
sa(dp789
g16
VQUEACHY
p790
sg18
V31092
p791
sg20
I87
sg21
I2
sg22
I92
sa(dp792
g16
VSILENT FLYER
p793
sg18
V23242
p794
sg20
I82
sg21
I3
sg22
I87
sa(dp795
g16
VSTATELY MANNER
p796
sg18
V5x941
p797
sg20
I100
sg21
I4
sg22
I100
sa(dp798
g16
VD'LEEAJET
p799
sg18
V79778
p800
sg20
I76
sg21
I5
sg22
I76
sa(dp801
g16
VDINISTY
p802
sg18
V51483
p803
sg20
I90
sg21
I6
sg22
I83
sa(dp804
g16
VMY DELILAH
p805
sg18
V21723
p806
sg20
I95
sg21
I7
sg22
I96
sasg62
(lp807
(lp808
I4
aI7
aI2
aI3
aassVhttp://www.skyracing.com.au/index.php?component=racing&task=race&id=107652662&meetingid=104171793&Itemid=89
p809
(dp810
g3
(lp811
(lp812
I1
aI2
aI3
aI5
aa(lp813
I3
aI5
aI1
aI2
aa(lp814
I3
aI2
aI1
aI4
aa(lp815
I1
aI3
aI5
aI2
aa(lp816
I1
aI2
aI3
aI5
aa(lp817
I3
aI1
aI2
aI5
aa(lp818
I1
aI3
aI2
aI5
aa(lp819
I1
aI3
aI2
aI5
aasg13
(lp820
(dp821
g16
VMADAME DUPORTH
p822
sg18
V183x6
p823
sg20
I100
sg21
I1
sg22
I100
sa(dp824
g16
VTREGORIK
p825
sg18
V8x442
p826
sg20
I94
sg21
I2
sg22
I99
sa(dp827
g16
VWICKED AFFAIR
p828
sg18
V84274
p829
sg20
I96
sg21
I3
sg22
I89
sa(dp830
g16
VFIRING EQUIANO
p831
sg18
V9x9
p832
sg20
I84
sg21
I4
sg22
I78
sa(dp833
g16
VFLINDERS BEACH
p834
sg18
V4475x
p835
sg20
I86
sg21
I5
sg22
I82
sasg62
(lp836
(lp837
I1
aI2
aI3
aI5
aassVhttp://www.skyracing.com.au/index.php?component=racing&task=race&id=107652648&meetingid=104171809&Itemid=89
p838
(dp839
g3
(lp840
(lp841
I2
aI1
aI4
aI3
aa(lp842
I2
aI1
aI5
aI6
aa(lp843
I2
aI1
aI6
aI3
aa(lp844
I2
aI5
aI1
aI3
aa(lp845
I3
aI2
aI8
aI6
aa(lp846
I2
aI1
aI3
aI4
aa(lp847
I2
aI3
aI1
aI4
aa(lp848
I2
aI1
aI3
aI5
aasg13
(lp849
(dp850
g16
VALIRIS
p851
sg18
V95
p852
sg20
I94
sg21
I1
sg22
I99
sa(dp853
g16
VKAMIEN
p854
sg18
V4
p855
sg20
I100
sg21
I2
sg22
I100
sa(dp856
g16
VLEFT HAND MAN
p857
sg18
V4
p858
sg20
I98
sg21
I3
sg22
I89
sa(dp859
g16
VREGALO DI GAETANO
p860
sg18
V5
p861
sg20
I89
sg21
I4
sg22
I94
sa(dp862
g16
VSMART ALICK
p863
sg18
V40x68
p864
sg20
I68
sg21
I5
sg22
I75
sa(dp865
g16
VJETTY LANE
p866
sg18
V7
p867
sg20
I75
sg21
I6
sg22
I80
sa(dp868
g16
VKENYAN WONDER
p869
sg18
g37
sg20
I79
sg21
I7
sg22
I0
sa(dp870
g16
VMISS HARMONIUM
p871
sg18
V3x7
p872
sg20
I81
sg21
I8
sg22
I82
sa(dp873
g16
VWANT THE TRUTH
p874
sg18
g37
sg20
I69
sg21
I9
sg22
I0
sasg62
(lp875
(lp876
I2
aI1
aI3
aI4
aa(lp877
I2
aI1
aI7
aI4
aassVhttp://www.skyracing.com.au/index.php?component=racing&task=race&id=107652591&meetingid=104171729&Itemid=89
p878
(dp879
g3
(lp880
(lp881
I4
aI5
aI3
aI8
aa(lp882
I9
aI1
aI8
aI7
aa(lp883
I8
aI2
aI4
aI3
aa(lp884
I1
aI9
aI8
aI5
aa(lp885
I5
aI8
aI4
aI10
aa(lp886
I4
aI3
aI5
aI1
aa(lp887
I3
aI5
aI4
aI1
aa(lp888
I8
aI4
aI5
aI1
aasg13
(lp889
(dp890
g16
VDREAMS ARE MADE OF
p891
sg18
V7x58x
p892
sg20
I92
sg21
I1
sg22
I89
sa(dp893
g16
VEQUUS D'ORO
p894
sg18
V24552
p895
sg20
I89
sg21
I2
sg22
I85
sa(dp896
g16
VLA TESORA
p897
sg18
V7x852
p898
sg20
I100
sg21
I3
sg22
I94
sa(dp899
g16
VMATHEW'S HONOUR
p900
sg18
V44021
p901
sg20
I94
sg21
I4
sg22
I100
sa(dp902
g16
VSPIRIT OF PHOENIX
p903
sg18
V2070x
p904
sg20
I99
sg21
I5
sg22
I97
sa(dp905
g16
VBIAN LATE
p906
sg18
V6x70x
p907
sg20
I78
sg21
I6
sg22
I76
sa(dp908
g16
VATOMIC CHARGE
p909
sg18
Vx9690
p910
sg20
I73
sg21
I7
sg22
I73
sa(dp911
g16
VFULLFORWARD
p912
sg18
V70x42
p913
sg20
I84
sg21
I8
sg22
I92
sa(dp914
g16
VGALILEO'S JOURNEY
p915
sg18
V700x7
p916
sg20
I82
sg21
I9
sg22
I83
sa(dp917
g16
VLYONESSE
p918
sg18
V77x68
p919
sg20
I77
sg21
I10
sg22
I78
sa(dp920
g16
VSTORMUS
p921
sg18
V0x405
p922
sg20
I70
sg21
I11
sg22
I72
sasg62
(lp923
(lp924
I2
aI3
aI8
aI1
aassVhttp://www.skyracing.com.au/index.php?component=racing&task=race&id=107652517&meetingid=104171857&Itemid=89
p925
(dp926
g3
(lp927
(lp928
I2
aI6
aI8
aI1
aa(lp929
I1
aI14
aI13
aI2
aa(lp930
I2
aI1
aI6
aI3
aa(lp931
I13
aI4
aI1
aI2
aa(lp932
I2
aI1
aI4
aI13
aa(lp933
I1
aI2
aI6
aI8
aa(lp934
I2
aI4
aI8
aI13
aa(lp935
I2
aI1
aI6
aI13
aasg13
(lp936
(dp937
g16
VZAKYNTHOS
p938
sg18
V86x88
p939
sg20
I85
sg21
I1
sg22
I93
sa(dp940
g16
VCONCLUSION
p941
sg18
V1x492
p942
sg20
I100
sg21
I2
sg22
I100
sa(dp943
g16
VACEKINGSUITED
p944
sg18
Vx6x43
p945
sg20
I82
sg21
I3
sg22
I75
sa(dp946
g16
VOUR FOREMAN
p947
sg18
V214x5
p948
sg20
I94
sg21
I4
sg22
I90
sa(dp949
g16
VWHY ME
p950
sg18
V970x8
p951
sg20
I60
sg21
I5
sg22
I0
sa(dp952
g16
VESBEEDEE
p953
sg18
V60x22
p954
sg20
I86
sg21
I6
sg22
I99
sa(dp955
g16
VCARSON RIVER
p956
sg18
V6666x
p957
sg20
I61
sg21
I7
sg22
I78
sa(dp958
g16
VCLARA
p959
sg18
V63331
p960
sg20
I92
sg21
I8
sg22
I95
sa(dp961
g16
VSTELLA DAZE
p962
sg18
V37x71
p963
sg20
I79
sg21
I9
sg22
I0
sa(dp964
g16
VTORRE DEL GRECO
p965
sg18
V22x57
p966
sg20
I71
sg21
I10
sg22
I85
sa(dp967
g16
VANZAC COUP
p968
sg18
V3190x
p969
sg20
I75
sg21
I11
sg22
I77
sa(dp970
g16
VMAGIC NOTE
p971
sg18
V0195x
p972
sg20
I68
sg21
I12
sg22
I0
sa(dp973
g16
VNON BLONDE
p974
sg18
V313x0
p975
sg20
I88
sg21
I13
sg22
I88
sa(dp976
g16
VPARVINA
p977
sg18
Vx0346
p978
sg20
I77
sg21
I14
sg22
I80
sa(dp979
g16
VSMOKE HOUSE BAY
p980
sg18
Vx0724
p981
sg20
I59
sg21
I15
sg22
I0
sa(dp982
g16
VLADY BYRON
p983
sg18
V551x0
p984
sg20
I57
sg21
I16
sg22
I0
sa(dp985
g16
VMIROSLAVA
p986
sg18
V20x97
p987
sg20
I70
sg21
I17
sg22
I0
sasg62
(lp988
ssVhttp://www.skyracing.com.au/index.php?component=racing&task=race&id=107652534&meetingid=104171873&Itemid=89
p989
(dp990
g3
(lp991
(lp992
I3
aI14
aI4
aI6
aa(lp993
I10
aI5
aI3
aI4
aa(lp994
I3
aI4
aI6
aI15
aa(lp995
I1
aI10
aI5
aI3
aa(lp996
I10
aI3
aI14
aI5
aa(lp997
I4
aI3
aI14
aI6
aa(lp998
I14
aI3
aI4
aI6
aa(lp999
I3
aI10
aI4
aI14
aasg13
(lp1000
(dp1001
g16
VFIONESAY
p1002
sg18
V7726x
p1003
sg20
I73
sg21
I1
sg22
I72
sa(dp1004
g16
VHAMMER KING
p1005
sg18
V10x85
p1006
sg20
I64
sg21
I2
sg22
I0
sa(dp1007
g16
VCOMEBACK
p1008
sg18
V53x21
p1009
sg20
I97
sg21
I3
sg22
I100
sa(dp1010
g16
VTELLYAWHAT
p1011
sg18
V51x24
p1012
sg20
I93
sg21
I4
sg22
I89
sa(dp1013
g16
VFLORENCE JEAN
p1014
sg18
V6x5x7
p1015
sg20
I69
sg21
I5
sg22
I68
sa(dp1016
g16
VGRAND MAYSON
p1017
sg18
Vx2211
p1018
sg20
I81
sg21
I6
sg22
I80
sa(dp1019
g16
VMERLINI
p1020
sg18
V23x3x
p1021
sg20
I87
sg21
I7
sg22
I0
sa(dp1022
g16
VWHO DAT SINGA
p1023
sg18
V5770x
p1024
sg20
I62
sg21
I8
sg22
I0
sa(dp1025
g16
VPACIFIC COAST
p1026
sg18
V7x417
p1027
sg20
I76
sg21
I9
sg22
I63
sa(dp1028
g16
VSHORT FUSE
p1029
sg18
V822x1
p1030
sg20
I70
sg21
I10
sg22
I69
sa(dp1031
g16
VAMASTAR
p1032
sg18
V30x03
p1033
sg20
I79
sg21
I11
sg22
I79
sa(dp1034
g16
VITS DESTINYS CHILD
p1035
sg18
V6x19x
p1036
sg20
I86
sg21
I12
sg22
I74
sa(dp1037
g16
VSAVETTE
p1038
sg18
V214x1
p1039
sg20
I90
sg21
I13
sg22
I0
sa(dp1040
g16
VMETEORIC LASS
p1041
sg18
V1x1
p1042
sg20
I100
sg21
I14
sg22
I98
sa(dp1043
g16
VTIFFANY'S TIME
p1044
sg18
V20x40
p1045
sg20
I61
sg21
I15
sg22
I57
sasg62
(lp1046
ssVhttp://www.skyracing.com.au/index.php?component=racing&task=race&id=107652610&meetingid=104171745&Itemid=89
p1047
(dp1048
g3
(lp1049
(lp1050
I8
aI2
aI9
aI5
aa(lp1051
I1
aI2
aI7
aI5
aa(lp1052
I2
aI7
aI6
aI8
aa(lp1053
I2
aI1
aI5
aI14
aa(lp1054
I5
aI2
aI7
aI19
aa(lp1055
I8
aI2
aI9
aI7
aa(lp1056
I8
aI2
aI9
aI6
aa(lp1057
I2
aI8
aI7
aI5
aasg13
(lp1058
(dp1059
g16
VIRON GEORGE
p1060
sg18
V140x7
p1061
sg20
I75
sg21
I1
sg22
I77
sa(dp1062
g16
VSNITCH
p1063
sg18
V22111
p1064
sg20
I98
sg21
I2
sg22
I97
sa(dp1065
g16
VDRUMBEAT'S CHOICE
p1066
sg18
V63442
p1067
sg20
I63
sg21
I3
sg22
I0
sa(dp1068
g16
VAANVOERDER
p1069
sg18
V2119x
p1070
sg20
I82
sg21
I4
sg22
I81
sa(dp1071
g16
VCOOL SEQUENCE
p1072
sg18
V4223x
p1073
sg20
I85
sg21
I5
sg22
I89
sa(dp1074
g16
VORADONNA
p1075
sg18
V86234
p1076
sg20
I88
sg21
I6
sg22
I85
sa(dp1077
g16
VANNATIME
p1078
sg18
Vx6473
p1079
sg20
I71
sg21
I7
sg22
I82
sa(dp1080
g16
VSTANLEY PARK
p1081
sg18
V11x11
p1082
sg20
I100
sg21
I8
sg22
I100
sa(dp1083
g16
VALL IMPORTANT
p1084
sg18
V24x11
p1085
sg20
I94
sg21
I9
sg22
I93
sa(dp1086
g16
VCONQUERING LASS
p1087
sg18
V04011
p1088
sg20
I90
sg21
I10
sg22
I0
sa(dp1089
g16
VSKY LAKE
p1090
sg18
Vx1713
p1091
sg20
I86
sg21
I11
sg22
I0
sa(dp1092
g16
VSAILOR GERRI
p1093
sg18
Vx4062
p1094
sg20
I78
sg21
I12
sg22
I67
sa(dp1095
g16
VSCORCHA
p1096
sg18
V57x29
p1097
sg20
I69
sg21
I13
sg22
I62
sa(dp1098
g16
VSO INVINCIBLE
p1099
sg18
V1873x
p1100
sg20
I66
sg21
I14
sg22
I70
sa(dp1101
g16
VWINTER PASSAGE
p1102
sg18
V231x1
p1103
sg20
I96
sg21
I15
sg22
I0
sa(dp1104
g16
VZOFF 'N' OFF
p1105
sg18
V01611
p1106
sg20
I65
sg21
I16
sg22
I0
sa(dp1107
g16
VNOBLE BILLY
p1108
sg18
V1125x
p1109
sg20
I81
sg21
I17
sg22
I0
sa(dp1110
g16
VDREAM MASTER
p1111
sg18
V247x0
p1112
sg20
I77
sg21
I18
sg22
I0
sa(dp1113
g16
VIL RICCIO
p1114
sg18
Vx2836
p1115
sg20
I70
sg21
I19
sg22
I74
sa(dp1116
g16
VMAC'S GAL
p1117
sg18
V21121
p1118
sg20
I67
sg21
I20
sg22
I0
sa(dp1119
g16
VROTHABYE
p1120
sg18
V57538
p1121
sg20
I61
sg21
I21
sg22
I0
sasg62
(lp1122
(lp1123
I8
aI2
aI12
aI7
aa(lp1124
I8
aI2
aI6
aI12
aa(lp1125
I8
aI2
aI7
aI4
aassVhttp://www.skyracing.com.au/index.php?component=racing&task=race&id=107652574&meetingid=104171713&Itemid=89
p1126
(dp1127
g3
(lp1128
(lp1129
I4
aI6
aI12
aI9
aa(lp1130
I4
aI5
aI6
aI14
aa(lp1131
I4
aI6
aI14
aI7
aa(lp1132
I5
aI4
aI10
aI8
aa(lp1133
I4
aI8
aI2
aI6
aa(lp1134
I12
aI4
aI6
aI9
aa(lp1135
I4
aI8
aI6
aI9
aa(lp1136
I4
aI6
aI5
aI12
aasg13
(lp1137
(dp1138
g16
VLONG LEAF
p1139
sg18
Vx2836
p1140
sg20
I87
sg21
I1
sg22
I0
sa(dp1141
g16
VENBIHAAR
p1142
sg18
V8x604
p1143
sg20
I78
sg21
I2
sg22
I83
sa(dp1144
g16
VSUNSET WATCH
p1145
sg18
V15x12
p1146
sg20
I98
sg21
I3
sg22
I0
sa(dp1147
g16
VYULONG JANUARY
p1148
sg18
V1112
p1149
sg20
I100
sg21
I4
sg22
I100
sa(dp1150
g16
VRAGGED RASCAL
p1151
sg18
Vx1907
p1152
sg20
I70
sg21
I5
sg22
I64
sa(dp1153
g16
VRINGERDINGDING
p1154
sg18
V92183
p1155
sg20
I93
sg21
I6
sg22
I99
sa(dp1156
g16
VSIGNORE FOX
p1157
sg18
V10119
p1158
sg20
I80
sg21
I7
sg22
I77
sa(dp1159
g16
VSCOTTISH ROGUE
p1160
sg18
V332x8
p1161
sg20
I92
sg21
I8
sg22
I80
sa(dp1162
g16
VWAGNER
p1163
sg18
Vx1175
p1164
sg20
I89
sg21
I9
sg22
I85
sa(dp1165
g16
VMORE THAN EXCEED
p1166
sg18
Vx1840
p1167
sg20
I69
sg21
I10
sg22
I61
sa(dp1168
g16
VBRICKTOP
p1169
sg18
V3x160
p1170
sg20
I65
sg21
I11
sg22
I63
sa(dp1171
g16
VNO EMOTION
p1172
sg18
V2511
p1173
sg20
I95
sg21
I12
sg22
I88
sa(dp1174
g16
VSECRET VEGA
p1175
sg18
Vx3151
p1176
sg20
I77
sg21
I13
sg22
I71
sa(dp1177
g16
VBIG NIGHT OUT
p1178
sg18
V1058
p1179
sg20
I67
sg21
I14
sg22
I58
sa(dp1180
g16
VSTILL INVINCIBLE
p1181
sg18
V612
p1182
sg20
I85
sg21
I15
sg22
I73
sa(dp1183
g16
VIGNITER
p1184
sg18
V40x81
p1185
sg20
I75
sg21
I16
sg22
I68
sasg62
(lp1186
(lp1187
I6
aI4
aI2
aI14
aa(lp1188
I6
aI4
aI12
aI13
aa(lp1189
I6
aI4
aI15
aI11
aassVhttp://www.skyracing.com.au/index.php?component=racing&task=race&id=107652799&meetingid=104171777&Itemid=89
p1190
(dp1191
g3
(lp1192
(lp1193
I1
aI2
aI3
aI9
aa(lp1194
I1
aI2
aI9
aI6
aa(lp1195
I2
aI3
aI1
aI5
aa(lp1196
I1
aI2
aI3
aI5
aa(lp1197
I5
aI1
aI3
aI2
aa(lp1198
I1
aI2
aI3
aI5
aa(lp1199
I1
aI2
aI3
aI5
aa(lp1200
I1
aI2
aI3
aI5
aasg13
(lp1201
(dp1202
g16
VBEQUEATHED
p1203
sg18
V63x14
p1204
sg20
I100
sg21
I1
sg22
I100
sa(dp1205
g16
VTHE BARRACUDA
p1206
sg18
V12252
p1207
sg20
I99
sg21
I2
sg22
I93
sa(dp1208
g16
VWESTBROOK WARRIOR
p1209
sg18
Vx7514
p1210
sg20
I85
sg21
I3
sg22
I88
sa(dp1211
g16
VWICCAN REDE
p1212
sg18
Vx3213
p1213
sg20
I94
sg21
I4
sg22
I0
sa(dp1214
g16
VTOORAK COMEDY
p1215
sg18
V6x941
p1216
sg20
I81
sg21
I5
sg22
I79
sa(dp1217
g16
VTEMUJIN'S RULE
p1218
sg18
V36870
p1219
sg20
I75
sg21
I6
sg22
I69
sa(dp1220
g16
VSILK TOPPER
p1221
sg18
V21077
p1222
sg20
I69
sg21
I7
sg22
I61
sa(dp1223
g16
VCROSSING THE TEE
p1224
sg18
Vx0378
p1225
sg20
I62
sg21
I8
sg22
I67
sa(dp1226
g16
VBONSEA
p1227
sg18
V583x3
p1228
sg20
I80
sg21
I9
sg22
I81
sa(dp1229
g16
VCASINO GOLD
p1230
sg18
V85794
p1231
sg20
I66
sg21
I10
sg22
I74
sasg62
(lp1232
(lp1233
I1
aI2
aI3
aI5
aassVhttp://www.skyracing.com.au/index.php?component=racing&task=race&id=107652797&meetingid=104171777&Itemid=89
p1234
(dp1235
g3
(lp1236
(lp1237
I4
aI7
aI6
aI5
aa(lp1238
I1
aI4
aI6
aI9
aa(lp1239
I6
aI1
aI8
aI5
aa(lp1240
I1
aI4
aI5
aI3
aa(lp1241
I1
aI4
aI6
aI9
aa(lp1242
I4
aI7
aI6
aI5
aa(lp1243
I7
aI4
aI6
aI3
aa(lp1244
I4
aI1
aI6
aI7
aasg13
(lp1245
(dp1246
g16
VGO GET SUM
p1247
sg18
V15643
p1248
sg20
I73
sg21
I1
sg22
I78
sa(dp1249
g16
VMISHANI RAINMAN
p1250
sg18
V72x21
p1251
sg20
I100
sg21
I2
sg22
I0
sa(dp1252
g16
VTAHOE CITY
p1253
sg18
V0076x
p1254
sg20
I80
sg21
I3
sg22
I81
sa(dp1255
g16
VMISHANI SHIRAZ
p1256
sg18
V23225
p1257
sg20
I92
sg21
I4
sg22
I100
sa(dp1258
g16
VOKANAGAN MISS
p1259
sg18
V100x5
p1260
sg20
I82
sg21
I5
sg22
I87
sa(dp1261
g16
VMAC'S GAL
p1262
sg18
V21121
p1263
sg20
I86
sg21
I6
sg22
I90
sa(dp1264
g16
VMEZCAL
p1265
sg18
Vx611x
p1266
sg20
I97
sg21
I7
sg22
I97
sa(dp1267
g16
VLAYLA'S LAD
p1268
sg18
V44x75
p1269
sg20
I72
sg21
I8
sg22
I75
sa(dp1270
g16
VBRUMBY JACK
p1271
sg18
V1995x
p1272
sg20
I63
sg21
I9
sg22
I68
sasg62
(lp1273
(lp1274
I4
aI5
aI7
aI3
aassVhttp://www.skyracing.com.au/index.php?component=racing&task=race&id=107652557&meetingid=104171665&Itemid=89
p1275
(dp1276
g3
(lp1277
(lp1278
I1
aI2
aI5
aI3
aa(lp1279
I1
aI2
aI5
aI3
aa(lp1280
I1
aI2
aI5
aI3
aa(lp1281
I1
aI5
aI2
aI3
aa(lp1282
I1
aI2
aI5
aI3
aa(lp1283
I1
aI2
aI5
aI3
aa(lp1284
I1
aI3
aI2
aI4
aa(lp1285
I1
aI2
aI5
aI3
aasg13
(lp1286
(dp1287
g16
VSEBRAKATE
p1288
sg18
V11
p1289
sg20
I100
sg21
I1
sg22
I100
sa(dp1290
g16
VCHIA
p1291
sg18
V3
p1292
sg20
I90
sg21
I2
sg22
I99
sa(dp1293
g16
VEXHILARATES
p1294
sg18
g37
sg20
I95
sg21
I3
sg22
I0
sa(dp1295
g16
VKIAMICHI
p1296
sg18
g37
sg20
I89
sg21
I4
sg22
I0
sa(dp1297
g16
VOH SO HOT
p1298
sg18
V44
p1299
sg20
I83
sg21
I5
sg22
I90
sasg62
(lp1300
(lp1301
I3
aI1
aI2
aI4
aa(lp1302
I3
aI1
aI4
aI2
aa(lp1303
I3
aI1
aI2
aI4
aa(lp1304
I3
aI1
aI4
aI2
aassVhttp://www.skyracing.com.au/index.php?component=racing&task=race&id=107652652&meetingid=104171809&Itemid=89
p1305
(dp1306
g3
(lp1307
(lp1308
I5
aI7
aI4
aI1
aa(lp1309
I6
aI5
aI3
aI4
aa(lp1310
I7
aI5
aI1
aI9
aa(lp1311
I6
aI3
aI1
aI7
aa(lp1312
I7
aI5
aI6
aI3
aa(lp1313
I5
aI7
aI4
aI1
aa(lp1314
I7
aI5
aI4
aI6
aa(lp1315
I5
aI7
aI6
aI1
aasg13
(lp1316
(dp1317
g16
VECLAIR CHOICE
p1318
sg18
V530x5
p1319
sg20
I75
sg21
I1
sg22
I81
sa(dp1320
g16
VBAROOD
p1321
sg18
V16024
p1322
sg20
I85
sg21
I2
sg22
I0
sa(dp1323
g16
VBULLET KID
p1324
sg18
V3180x
p1325
sg20
I78
sg21
I3
sg22
I74
sa(dp1326
g16
VTHIS KID ROCKS
p1327
sg18
V2976x
p1328
sg20
I92
sg21
I4
sg22
I87
sa(dp1329
g16
VMYSTIFIED
p1330
sg18
V102x2
p1331
sg20
I99
sg21
I5
sg22
I100
sa(dp1332
g16
VASCENDANCE
p1333
sg18
V4133x
p1334
sg20
I84
sg21
I6
sg22
I80
sa(dp1335
g16
VREWARDING LAUGHTER
p1336
sg18
V12171
p1337
sg20
I100
sg21
I7
sg22
I98
sa(dp1338
g16
VWING SNIPPER
p1339
sg18
V6x67x
p1340
sg20
I70
sg21
I8
sg22
I71
sa(dp1341
g16
VRED DAZZLE
p1342
sg18
V83620
p1343
sg20
I66
sg21
I9
sg22
I65
sasg62
(lp1344
(lp1345
I4
aI5
aI7
aI6
aa(lp1346
I4
aI7
aI5
aI6
aassVhttp://www.skyracing.com.au/index.php?component=racing&task=race&id=107652647&meetingid=104171809&Itemid=89
p1347
(dp1348
g3
(lp1349
(lp1350
I5
aI1
aI2
aI3
aa(lp1351
I5
aI1
aI2
aI3
aa(lp1352
I5
aI1
aI2
aI3
aa(lp1353
I5
aI1
aI2
aI3
aa(lp1354
I5
aI1
aI2
aI3
aa(lp1355
I5
aI1
aI2
aI3
aa(lp1356
I6
aI5
aI3
aI1
aa(lp1357
I5
aI4
aI2
aI1
aasg13
(lp1358
(dp1359
g16
VSOUTH STREET BOSS
p1360
sg18
g37
sg20
I85
sg21
I1
sg22
I0
sa(dp1361
g16
VSTAR QUEST
p1362
sg18
g37
sg20
I80
sg21
I2
sg22
I0
sa(dp1363
g16
VYULONG ROCKSTAR
p1364
sg18
g37
sg20
I94
sg21
I3
sg22
I0
sa(dp1365
g16
VCHOKITA
p1366
sg18
g37
sg20
I82
sg21
I4
sg22
I0
sa(dp1367
g16
VEMCONI STAR
p1368
sg18
V2
p1369
sg20
I96
sg21
I5
sg22
I100
sa(dp1370
g16
VPELICAN
p1371
sg18
g37
sg20
I100
sg21
I6
sg22
I0
sasg62
(lp1372
(lp1373
I5
aI6
aI3
aI4
aa(lp1374
I6
aI3
aI5
aI1
aassVhttp://www.skyracing.com.au/index.php?component=racing&task=race&id=107652579&meetingid=104171713&Itemid=89
p1375
(dp1376
g3
(lp1377
(lp1378
I3
aI7
aI4
aI8
aa(lp1379
I4
aI3
aI2
aI1
aa(lp1380
I4
aI3
aI1
aI2
aa(lp1381
I3
aI4
aI1
aI2
aa(lp1382
I4
aI3
aI2
aI9
aa(lp1383
I4
aI3
aI7
aI8
aa(lp1384
I9
aI5
aI3
aI7
aa(lp1385
I4
aI3
aI2
aI1
aasg13
(lp1386
(dp1387
g16
VIT'S SOMEWHAT
p1388
sg18
V75256
p1389
sg20
I73
sg21
I1
sg22
I75
sa(dp1390
g16
VPRIZED ICON
p1391
sg18
V35542
p1392
sg20
I72
sg21
I2
sg22
I70
sa(dp1393
g16
VBLAIR HOUSE
p1394
sg18
V10x42
p1395
sg20
I99
sg21
I3
sg22
I100
sa(dp1396
g16
VTRAP FOR FOOLS
p1397
sg18
V11752
p1398
sg20
I79
sg21
I4
sg22
I90
sa(dp1399
g16
VDOUBT DEFYING
p1400
sg18
V15x11
p1401
sg20
I88
sg21
I5
sg22
I78
sa(dp1402
g16
VOCTABELLO
p1403
sg18
V15315
p1404
sg20
I63
sg21
I6
sg22
I65
sa(dp1405
g16
VLATROBE
p1406
sg18
V21172
p1407
sg20
I91
sg21
I7
sg22
I99
sa(dp1408
g16
VSHILLELAGH
p1409
sg18
Vx4441
p1410
sg20
I81
sg21
I8
sg22
I85
sa(dp1411
g16
VEXTRA BRUT
p1412
sg18
V11161
p1413
sg20
I100
sg21
I9
sg22
I84
sa(dp1414
g16
VMICKEY BLUE EYES
p1415
sg18
V11550
p1416
sg20
I61
sg21
I10
sg22
I62
sasg62
(lp1417
(lp1418
I3
aI8
aI7
aI4
aa(lp1419
I3
aI9
aI7
aI8
aa(lp1420
I3
aI7
aI8
aI4
aassVhttp://www.skyracing.com.au/index.php?component=racing&task=race&id=107652520&meetingid=104171857&Itemid=89
p1421
(dp1422
g3
(lp1423
(lp1424
I7
aI4
aI5
aI12
aa(lp1425
I5
aI1
aI4
aI2
aa(lp1426
I5
aI1
aI4
aI2
aa(lp1427
I5
aI1
aI2
aI4
aa(lp1428
I5
aI10
aI4
aI9
aa(lp1429
I5
aI4
aI7
aI8
aa(lp1430
I5
aI4
aI7
aI1
aa(lp1431
I5
aI4
aI1
aI7
aasg13
(lp1432
(dp1433
g16
VBEE TEE JUNIOR
p1434
sg18
V72253
p1435
sg20
I87
sg21
I1
sg22
I80
sa(dp1436
g16
VSHAKTI
p1437
sg18
V40334
p1438
sg20
I79
sg21
I2
sg22
I76
sa(dp1439
g16
VSHANTAV
p1440
sg18
V44671
p1441
sg20
I58
sg21
I3
sg22
I66
sa(dp1442
g16
VSWING NOTE
p1443
sg18
Vx1151
p1444
sg20
I97
sg21
I4
sg22
I98
sa(dp1445
g16
VZENTESSA
p1446
sg18
V21122
p1447
sg20
I100
sg21
I5
sg22
I94
sa(dp1448
g16
VDUPLICITY
p1449
sg18
V1x079
p1450
sg20
I68
sg21
I6
sg22
I79
sa(dp1451
g16
VMENTAL TELEPATHY
p1452
sg18
Vx0351
p1453
sg20
I95
sg21
I7
sg22
I100
sa(dp1454
g16
VDUELLICIOUS
p1455
sg18
Vx3271
p1456
sg20
I86
sg21
I8
sg22
I85
sa(dp1457
g16
VDEE AND GEE
p1458
sg18
V8x868
p1459
sg20
I53
sg21
I9
sg22
I63
sa(dp1460
g16
VRICHARD OF YORKE
p1461
sg18
V4x530
p1462
sg20
I80
sg21
I10
sg22
I89
sa(dp1463
g16
VOLIGARCH
p1464
sg18
V0x452
p1465
sg20
I55
sg21
I11
sg22
I0
sa(dp1466
g16
VFELAAR
p1467
sg18
V2x847
p1468
sg20
I81
sg21
I12
sg22
I92
sa(dp1469
g16
VLARRIKIN
p1470
sg18
Vx4844
p1471
sg20
I50
sg21
I13
sg22
I60
sa(dp1472
g16
VTIPPING POINT
p1473
sg18
V4x242
p1474
sg20
I64
sg21
I14
sg22
I73
sa(dp1475
g16
VPICKUP
p1476
sg18
Vx4254
p1477
sg20
I62
sg21
I15
sg22
I70
sasg62
(lp1478
ssVhttp://www.skyracing.com.au/index.php?component=racing&task=race&id=107652639&meetingid=104171761&Itemid=89
p1479
(dp1480
g3
(lp1481
(lp1482
I6
aI7
aI14
aI11
aa(lp1483
I6
aI7
aI14
aI3
aa(lp1484
I6
aI7
aI14
aI3
aa(lp1485
I6
aI9
aI3
aI7
aa(lp1486
I9
aI7
aI6
aI14
aa(lp1487
I6
aI7
aI11
aI14
aa(lp1488
I6
aI7
aI9
aI14
aa(lp1489
I6
aI7
aI14
aI9
aasg13
(lp1490
(dp1491
g16
VBLACKLOG
p1492
sg18
g37
sg20
I69
sg21
I1
sg22
I0
sa(dp1493
g16
VFAEAQUA
p1494
sg18
g37
sg20
I62
sg21
I2
sg22
I0
sa(dp1495
g16
VTHE DEMTEL MAN
p1496
sg18
V5
p1497
sg20
I85
sg21
I3
sg22
I84
sa(dp1498
g16
VGABE THE BABE
p1499
sg18
V8x
p1500
sg20
I66
sg21
I4
sg22
I70
sa(dp1501
g16
VLUTECE
p1502
sg18
g37
sg20
I79
sg21
I5
sg22
I0
sa(dp1503
g16
VTHE PALMS
p1504
sg18
V3x82
p1505
sg20
I100
sg21
I6
sg22
I100
sa(dp1506
g16
VBOOM ROCKER
p1507
sg18
V08x2
p1508
sg20
I96
sg21
I7
sg22
I99
sa(dp1509
g16
VLOVES A LOTTERY
p1510
sg18
V5
p1511
sg20
I80
sg21
I8
sg22
I80
sa(dp1512
g16
VPOWERFUL LASS
p1513
sg18
V36
p1514
sg20
I95
sg21
I9
sg22
I89
sa(dp1515
g16
VLADY RINGO
p1516
sg18
V0x
p1517
sg20
I75
sg21
I10
sg22
I76
sa(dp1518
g16
VLUVACTION
p1519
sg18
V0x5
p1520
sg20
I87
sg21
I11
sg22
I92
sa(dp1521
g16
VMYSTAGONAL
p1522
sg18
V7
p1523
sg20
I74
sg21
I12
sg22
I0
sa(dp1524
g16
VMISHANI PALOMA
p1525
sg18
V5x66
p1526
sg20
I70
sg21
I13
sg22
I73
sa(dp1527
g16
VREALLY SPLENDID
p1528
sg18
V99x3
p1529
sg20
I90
sg21
I14
sg22
I94
sasg62
(lp1530
(lp1531
I9
aI6
aI7
aI8
aassVhttp://www.skyracing.com.au/index.php?component=racing&task=race&id=107652560&meetingid=104171665&Itemid=89
p1532
(dp1533
g3
(lp1534
(lp1535
I2
aI1
aI3
aI4
aa(lp1536
I1
aI2
aI4
aI5
aa(lp1537
I2
aI4
aI3
aI7
aa(lp1538
I1
aI2
aI4
aI3
aa(lp1539
I2
aI4
aI5
aI3
aa(lp1540
I2
aI1
aI4
aI3
aa(lp1541
I2
aI3
aI1
aI4
aa(lp1542
I2
aI1
aI4
aI3
aasg13
(lp1543
(dp1544
g16
VKARAVALI
p1545
sg18
V719x8
p1546
sg20
I86
sg21
I1
sg22
I97
sa(dp1547
g16
VSEXY EYES
p1548
sg18
V2x221
p1549
sg20
I100
sg21
I2
sg22
I100
sa(dp1550
g16
VI LIKE IT EASY
p1551
sg18
V10x14
p1552
sg20
I95
sg21
I3
sg22
I91
sa(dp1553
g16
VVELOCITA
p1554
sg18
Vx6614
p1555
sg20
I90
sg21
I4
sg22
I87
sa(dp1556
g16
VAURORA ROSE
p1557
sg18
V00x9x
p1558
sg20
I83
sg21
I5
sg22
I82
sa(dp1559
g16
VO'LORDY
p1560
sg18
V90327
p1561
sg20
I76
sg21
I6
sg22
I76
sa(dp1562
g16
VARRONDISSEMENT
p1563
sg18
V86016
p1564
sg20
I79
sg21
I7
sg22
I80
sasg62
(lp1565
(lp1566
I2
aI6
aI4
aI1
aa(lp1567
I2
aI4
aI3
aI1
aa(lp1568
I2
aI4
aI3
aI1
aa(lp1569
I2
aI1
aI5
aI3
aassVhttp://www.skyracing.com.au/index.php?component=racing&task=race&id=107652640&meetingid=104171761&Itemid=89
p1570
(dp1571
g3
(lp1572
(lp1573
I3
aI7
aI1
aI11
aa(lp1574
I1
aI5
aI8
aI2
aa(lp1575
I5
aI8
aI7
aI11
aa(lp1576
I1
aI3
aI5
aI6
aa(lp1577
I8
aI11
aI7
aI9
aa(lp1578
I3
aI7
aI11
aI9
aa(lp1579
I7
aI1
aI3
aI11
aa(lp1580
I3
aI7
aI1
aI8
aasg13
(lp1581
(dp1582
g16
VCABIN FEVER
p1583
sg18
V7549x
p1584
sg20
I90
sg21
I1
sg22
I93
sa(dp1585
g16
VFULL DIAMOND
p1586
sg18
V3410x
p1587
sg20
I81
sg21
I2
sg22
I81
sa(dp1588
g16
VWASHINGTON STREET
p1589
sg18
V6221x
p1590
sg20
I94
sg21
I3
sg22
I100
sa(dp1591
g16
VFIELDS OF GLORY
p1592
sg18
V6810x
p1593
sg20
I77
sg21
I4
sg22
I77
sa(dp1594
g16
VTHE WARDSMEN
p1595
sg18
V1x468
p1596
sg20
I70
sg21
I5
sg22
I73
sa(dp1597
g16
VCHARMING PRINCE
p1598
sg18
V4839x
p1599
sg20
I74
sg21
I6
sg22
I79
sa(dp1600
g16
VMISS AMANDA
p1601
sg18
V92x1
p1602
sg20
I99
sg21
I7
sg22
I98
sa(dp1603
g16
VGREYNOMAD
p1604
sg18
V149x3
p1605
sg20
I79
sg21
I8
sg22
I86
sa(dp1606
g16
VDON'T DOUBT LARA
p1607
sg18
V109x9
p1608
sg20
I85
sg21
I9
sg22
I89
sa(dp1609
g16
VSEENTOOMANY
p1610
sg18
V87x1
p1611
sg20
I100
sg21
I10
sg22
I0
sa(dp1612
g16
VWINERIES
p1613
sg18
Vx3331
p1614
sg20
I89
sg21
I11
sg22
I90
sa(dp1615
g16
VPROSSIMITA
p1616
sg18
V60x97
p1617
sg20
I68
sg21
I12
sg22
I73
sasg62
(lp1618
(lp1619
I1
aI7
aI3
aI11
aassVhttp://www.skyracing.com.au/index.php?component=racing&task=race&id=107652546&meetingid=104171697&Itemid=89
p1620
(dp1621
g3
(lp1622
(lp1623
I2
aI3
aI1
aI6
aa(lp1624
I5
aI1
aI7
aI4
aa(lp1625
I1
aI4
aI2
aI3
aa(lp1626
I1
aI4
aI2
aI6
aa(lp1627
I1
aI6
aI5
aI8
aa(lp1628
I2
aI1
aI3
aI8
aa(lp1629
I3
aI1
aI2
aI6
aa(lp1630
I1
aI2
aI4
aI3
aasg13
(lp1631
(dp1632
g16
VELLE A WALKING
p1633
sg18
V85139
p1634
sg20
I93
sg21
I1
sg22
I94
sa(dp1635
g16
VXAARFOXYLADY
p1636
sg18
V5x341
p1637
sg20
I100
sg21
I2
sg22
I100
sa(dp1638
g16
VHELLO CHINA
p1639
sg18
Vx4x61
p1640
sg20
I96
sg21
I3
sg22
I96
sa(dp1641
g16
VVEE EIGHT
p1642
sg18
V67470
p1643
sg20
I78
sg21
I4
sg22
I63
sa(dp1644
g16
VHALBERD
p1645
sg18
V98545
p1646
sg20
I67
sg21
I5
sg22
I76
sa(dp1647
g16
VGOING PURPLE
p1648
sg18
Vx5841
p1649
sg20
I89
sg21
I6
sg22
I89
sa(dp1650
g16
VDOOGAN'S DESTINY
p1651
sg18
V50676
p1652
sg20
I75
sg21
I7
sg22
I69
sa(dp1653
g16
VKEEP ME POSTED
p1654
sg18
V07153
p1655
sg20
I81
sg21
I8
sg22
I84
sa(dp1656
g16
VSAARIM
p1657
sg18
V0x032
p1658
sg20
I71
sg21
I9
sg22
I80
sasg62
(lp1659
(lp1660
I9
aI2
aI8
aI1
aassVhttp://www.skyracing.com.au/index.php?component=racing&task=race&id=107652547&meetingid=104171697&Itemid=89
p1661
(dp1662
g3
(lp1663
(lp1664
I1
aI8
aI3
aI7
aa(lp1665
I3
aI4
aI1
aI5
aa(lp1666
I1
aI5
aI3
aI10
aa(lp1667
I1
aI5
aI4
aI7
aa(lp1668
I3
aI1
aI4
aI7
aa(lp1669
I3
aI1
aI8
aI4
aa(lp1670
I1
aI8
aI3
aI7
aa(lp1671
I1
aI3
aI4
aI5
aasg13
(lp1672
(dp1673
g16
VORIGINAL PRANKSTER
p1674
sg18
V01991
p1675
sg20
I100
sg21
I1
sg22
I100
sa(dp1676
g16
VLA RENARDE
p1677
sg18
V22655
p1678
sg20
I97
sg21
I2
sg22
I0
sa(dp1679
g16
VHALLIDAY ROAD
p1680
sg18
V55808
p1681
sg20
I84
sg21
I3
sg22
I85
sa(dp1682
g16
VTAPAVINO
p1683
sg18
V40x68
p1684
sg20
I78
sg21
I4
sg22
I77
sa(dp1685
g16
VZARIZ NO OTHER
p1686
sg18
V28919
p1687
sg20
I76
sg21
I5
sg22
I68
sa(dp1688
g16
VTHIRTY KNOTS
p1689
sg18
V5960x
p1690
sg20
I66
sg21
I6
sg22
I0
sa(dp1691
g16
VFLEETING PRINCESS
p1692
sg18
V2159x
p1693
sg20
I85
sg21
I7
sg22
I81
sa(dp1694
g16
VSHEZA DANZA
p1695
sg18
Vx051x
p1696
sg20
I93
sg21
I8
sg22
I91
sa(dp1697
g16
VEXCITABLE
p1698
sg18
V71606
p1699
sg20
I62
sg21
I9
sg22
I58
sa(dp1700
g16
VTIME OF HER LIFE
p1701
sg18
V144x2
p1702
sg20
I69
sg21
I10
sg22
I74
sasg62
(lp1703
(lp1704
I4
aI7
aI8
aI5
aassVhttp://www.skyracing.com.au/index.php?component=racing&task=race&id=107652565&meetingid=104171665&Itemid=89
p1705
(dp1706
g3
(lp1707
(lp1708
I13
aI7
aI10
aI6
aa(lp1709
I1
aI3
aI2
aI6
aa(lp1710
I3
aI6
aI7
aI2
aa(lp1711
I2
aI1
aI6
aI9
aa(lp1712
I6
aI11
aI9
aI13
aa(lp1713
I7
aI13
aI10
aI1
aa(lp1714
I13
aI6
aI10
aI2
aa(lp1715
I6
aI7
aI1
aI13
aasg13
(lp1716
(dp1717
g16
VSMART AMELIA
p1718
sg18
V1387x
p1719
sg20
I78
sg21
I1
sg22
I84
sa(dp1720
g16
VBROOK MAGIC
p1721
sg18
V742x4
p1722
sg20
I84
sg21
I2
sg22
I89
sa(dp1723
g16
VGOLDFINCH
p1724
sg18
V6x135
p1725
sg20
I82
sg21
I3
sg22
I77
sa(dp1726
g16
VSTROME
p1727
sg18
V7115x
p1728
sg20
I71
sg21
I4
sg22
I82
sa(dp1729
g16
VKAWAIKINI
p1730
sg18
V313x6
p1731
sg20
I64
sg21
I5
sg22
I68
sa(dp1732
g16
VELLIE'S ENCORE
p1733
sg18
V85221
p1734
sg20
I90
sg21
I6
sg22
I91
sa(dp1735
g16
VREGIMEN
p1736
sg18
V047x4
p1737
sg20
I87
sg21
I7
sg22
I98
sa(dp1738
g16
VSEASONS
p1739
sg18
Vx211x
p1740
sg20
I100
sg21
I8
sg22
I0
sa(dp1741
g16
VABSOLUTE RIPPER
p1742
sg18
V8x261
p1743
sg20
I70
sg21
I9
sg22
I73
sa(dp1744
g16
VMONTRACHET
p1745
sg18
V2x14x
p1746
sg20
I95
sg21
I10
sg22
I95
sa(dp1747
g16
VCAN'T FIND SNIPPY
p1748
sg18
V235x2
p1749
sg20
I75
sg21
I11
sg22
I73
sa(dp1750
g16
VSEBRING EXPRESS
p1751
sg18
V9x116
p1752
sg20
I74
sg21
I12
sg22
I78
sa(dp1753
g16
VFALERINA
p1754
sg18
V1x5x1
p1755
sg20
I98
sg21
I13
sg22
I100
sa(dp1756
g16
VROUND MOUNTAIN GAL
p1757
sg18
V0x750
p1758
sg20
I62
sg21
I14
sg22
I65
sasg62
(lp1759
(lp1760
I10
aI1
aI7
aI13
aa(lp1761
I10
aI13
aI4
aI7
aa(lp1762
I10
aI13
aI1
aI7
aa(lp1763
I1
aI10
aI11
aI12
aassVhttp://www.skyracing.com.au/index.php?component=racing&task=race&id=107652559&meetingid=104171665&Itemid=89
p1764
(dp1765
g3
(lp1766
(lp1767
I5
aI1
aI3
aI6
aa(lp1768
I2
aI4
aI5
aI3
aa(lp1769
I2
aI5
aI4
aI3
aa(lp1770
I2
aI5
aI4
aI3
aa(lp1771
I6
aI5
aI2
aI4
aa(lp1772
I5
aI1
aI7
aI4
aa(lp1773
I5
aI4
aI7
aI6
aa(lp1774
I5
aI2
aI4
aI1
aasg13
(lp1775
(dp1776
g16
VPOTENT FORCE
p1777
sg18
V1x44x
p1778
sg20
I90
sg21
I1
sg22
I99
sa(dp1779
g16
VLAWAN
p1780
sg18
V8x452
p1781
sg20
I78
sg21
I2
sg22
I75
sa(dp1782
g16
VSEEBLUME
p1783
sg18
V69x51
p1784
sg20
I84
sg21
I3
sg22
I94
sa(dp1785
g16
VSUGAR DANCE
p1786
sg18
V197x2
p1787
sg20
I99
sg21
I4
sg22
I84
sa(dp1788
g16
VTRISTAN DE ANGEL
p1789
sg18
V3x931
p1790
sg20
I100
sg21
I5
sg22
I100
sa(dp1791
g16
VAVE
p1792
sg18
V1x382
p1793
sg20
I89
sg21
I6
sg22
I91
sa(dp1794
g16
VCARILLON
p1795
sg18
V8x411
p1796
sg20
I94
sg21
I7
sg22
I88
sa(dp1797
g16
VONYA ROSIE
p1798
sg18
V56911
p1799
sg20
I70
sg21
I8
sg22
I74
sa(dp1800
g16
VBLUE COLLAR BOY
p1801
sg18
V152x7
p1802
sg20
I76
sg21
I9
sg22
I72
sa(dp1803
g16
VLUCCIOLA BELLE
p1804
sg18
V23022
p1805
sg20
I80
sg21
I10
sg22
I79
sa(dp1806
g16
VTHE DEBATER
p1807
sg18
Vx8121
p1808
sg20
I73
sg21
I11
sg22
I83
sasg62
(lp1809
(lp1810
I1
aI3
aI5
aI4
aa(lp1811
I4
aI5
aI7
aI1
aa(lp1812
I1
aI4
aI5
aI2
aa(lp1813
I1
aI3
aI5
aI4
aassVhttp://www.skyracing.com.au/index.php?component=racing&task=race&id=107652532&meetingid=104171873&Itemid=89
p1814
(dp1815
g3
(lp1816
(lp1817
I2
aI9
aI13
aI1
aa(lp1818
I14
aI6
aI4
aI1
aa(lp1819
I2
aI5
aI8
aI12
aa(lp1820
I14
aI5
aI6
aI1
aa(lp1821
I5
aI2
aI8
aI13
aa(lp1822
I2
aI9
aI13
aI1
aa(lp1823
I2
aI13
aI9
aI1
aa(lp1824
I2
aI5
aI14
aI9
aasg13
(lp1825
(dp1826
g16
VKEELY BE
p1827
sg18
V351x0
p1828
sg20
I89
sg21
I1
sg22
I88
sa(dp1829
g16
VMARS BARS
p1830
sg18
V35x12
p1831
sg20
I100
sg21
I2
sg22
I100
sa(dp1832
g16
VPATTERN
p1833
sg18
Vx3x0x
p1834
sg20
I93
sg21
I3
sg22
I0
sa(dp1835
g16
VSKY KING
p1836
sg18
V0x80x
p1837
sg20
I73
sg21
I4
sg22
I75
sa(dp1838
g16
VIFFINDOUBT
p1839
sg18
V469x3
p1840
sg20
I78
sg21
I5
sg22
I83
sa(dp1841
g16
VMANHATTAN FLAME
p1842
sg18
V02907
p1843
sg20
I62
sg21
I6
sg22
I63
sa(dp1844
g16
VPOLZEATH
p1845
sg18
V0150x
p1846
sg20
I70
sg21
I7
sg22
I70
sa(dp1847
g16
VRUBY LOVE
p1848
sg18
V10x53
p1849
sg20
I83
sg21
I8
sg22
I86
sa(dp1850
g16
VBLUE ON BLACK
p1851
sg18
V9x194
p1852
sg20
I91
sg21
I9
sg22
I97
sa(dp1853
g16
VBELLE FASCINO
p1854
sg18
V8x618
p1855
sg20
I75
sg21
I10
sg22
I79
sa(dp1856
g16
VENDEAN EXPRESS
p1857
sg18
V6x555
p1858
sg20
I70
sg21
I11
sg22
I0
sa(dp1859
g16
VHATTON GARDEN
p1860
sg18
V28x68
p1861
sg20
I86
sg21
I12
sg22
I73
sa(dp1862
g16
VRITANI
p1863
sg18
V165x1
p1864
sg20
I99
sg21
I13
sg22
I95
sa(dp1865
g16
VELUSIVE METEOR
p1866
sg18
V690x7
p1867
sg20
I64
sg21
I14
sg22
I64
sasg62
(lp1868
ssVhttp://www.skyracing.com.au/index.php?component=racing&task=race&id=107652562&meetingid=104171665&Itemid=89
p1869
(dp1870
g3
(lp1871
(lp1872
I1
aI11
aI12
aI6
aa(lp1873
I10
aI1
aI3
aI2
aa(lp1874
I1
aI10
aI3
aI11
aa(lp1875
I1
aI5
aI2
aI10
aa(lp1876
I11
aI10
aI1
aI12
aa(lp1877
I11
aI12
aI1
aI6
aa(lp1878
I1
aI10
aI11
aI12
aa(lp1879
I1
aI11
aI10
aI12
aasg13
(lp1880
(dp1881
g16
VSKY BOY
p1882
sg18
Vx3311
p1883
sg20
I100
sg21
I1
sg22
I100
sa(dp1884
g16
VSOLO MISSION
p1885
sg18
V23x36
p1886
sg20
I74
sg21
I2
sg22
I71
sa(dp1887
g16
VSPUNLAGO
p1888
sg18
Vx5441
p1889
sg20
I76
sg21
I3
sg22
I69
sa(dp1890
g16
VMEROVEE
p1891
sg18
Vx8164
p1892
sg20
I94
sg21
I4
sg22
I0
sa(dp1893
g16
VMARK TWO
p1894
sg18
V25x19
p1895
sg20
I71
sg21
I5
sg22
I67
sa(dp1896
g16
VMAZAZ
p1897
sg18
V55x25
p1898
sg20
I78
sg21
I6
sg22
I85
sa(dp1899
g16
VTEZLAH
p1900
sg18
V05275
p1901
sg20
I92
sg21
I7
sg22
I0
sa(dp1902
g16
VGAMBLESTOWN
p1903
sg18
V50463
p1904
sg20
I63
sg21
I8
sg22
I0
sa(dp1905
g16
VEQUIPPED
p1906
sg18
V12x58
p1907
sg20
I61
sg21
I9
sg22
I60
sa(dp1908
g16
VRED KNOT
p1909
sg18
V26311
p1910
sg20
I84
sg21
I10
sg22
I75
sa(dp1911
g16
VMISS SHANTI
p1912
sg18
V45231
p1913
sg20
I96
sg21
I11
sg22
I96
sa(dp1914
g16
VNICOCHET
p1915
sg18
V3x442
p1916
sg20
I89
sg21
I12
sg22
I92
sa(dp1917
g16
VHIGHWAY
p1918
sg18
V0x025
p1919
sg20
I65
sg21
I13
sg22
I58
sa(dp1920
g16
VSMOKIN' PIERRO
p1921
sg18
V32x12
p1922
sg20
I81
sg21
I14
sg22
I78
sa(dp1923
g16
VVERTEX
p1924
sg18
Vx2323
p1925
sg20
I70
sg21
I15
sg22
I76
sasg62
(lp1926
(lp1927
I1
aI12
aI13
aI11
aa(lp1928
I1
aI11
aI12
aI6
aa(lp1929
I1
aI11
aI13
aI6
aa(lp1930
I1
aI13
aI6
aI11
aassVhttp://www.skyracing.com.au/index.php?component=racing&task=race&id=107652619&meetingid=104171681&Itemid=89
p1931
(dp1932
g3
(lp1933
(lp1934
I7
aI4
aI5
aI2
aa(lp1935
I4
aI7
aI2
aI1
aa(lp1936
I7
aI2
aI1
aI5
aa(lp1937
I7
aI4
aI2
aI5
aa(lp1938
I7
aI4
aI1
aI5
aa(lp1939
I7
aI4
aI5
aI8
aa(lp1940
I7
aI3
aI4
aI9
aa(lp1941
I7
aI4
aI2
aI5
aasg13
(lp1942
(dp1943
g16
VHAVE A GO JOE
p1944
sg18
V407x4
p1945
sg20
I82
sg21
I1
sg22
I82
sa(dp1946
g16
VGOT THE GIGGLES
p1947
sg18
V80
p1948
sg20
I74
sg21
I2
sg22
I87
sa(dp1949
g16
VLONG ISLAND
p1950
sg18
g37
sg20
I94
sg21
I3
sg22
I0
sa(dp1951
g16
VSPIRITED BELLE
p1952
sg18
V4843x
p1953
sg20
I95
sg21
I4
sg22
I95
sa(dp1954
g16
VCAN I ROCK
p1955
sg18
V6x5
p1956
sg20
I80
sg21
I5
sg22
I92
sa(dp1957
g16
VMONTALIS
p1958
sg18
g37
sg20
I70
sg21
I6
sg22
I0
sa(dp1959
g16
VNIVALIS
p1960
sg18
V4x8x2
p1961
sg20
I100
sg21
I7
sg22
I100
sa(dp1962
g16
VSHE JUST SAID IT
p1963
sg18
V0679x
p1964
sg20
I65
sg21
I8
sg22
I78
sa(dp1965
g16
VSNIP 'N' STARE
p1966
sg18
g37
sg20
I85
sg21
I9
sg22
I0
sa(dp1967
g16
VWHEN YOU WISH
p1968
sg18
V0x
p1969
sg20
I60
sg21
I10
sg22
I74
sasg62
(lp1970
(lp1971
I7
aI6
aI9
aI4
aa(lp1972
I7
aI6
aI9
aI4
aassVhttp://www.skyracing.com.au/index.php?component=racing&task=race&id=107652620&meetingid=104171681&Itemid=89
p1973
(dp1974
g3
(lp1975
(lp1976
I6
aI1
aI2
aI4
aa(lp1977
I1
aI6
aI8
aI2
aa(lp1978
I2
aI8
aI1
aI7
aa(lp1979
I1
aI6
aI2
aI7
aa(lp1980
I6
aI4
aI9
aI7
aa(lp1981
I6
aI2
aI4
aI1
aa(lp1982
I6
aI1
aI8
aI9
aa(lp1983
I6
aI1
aI2
aI4
aasg13
(lp1984
(dp1985
g16
VJUST A JOKE
p1986
sg18
V107x8
p1987
sg20
I99
sg21
I1
sg22
I96
sa(dp1988
g16
VLUTREOLA
p1989
sg18
V35281
p1990
sg20
I81
sg21
I2
sg22
I90
sa(dp1991
g16
VWARRUMBUNGLE
p1992
sg18
V6x050
p1993
sg20
I71
sg21
I3
sg22
I71
sa(dp1994
g16
VLIGHTS OF COMO
p1995
sg18
Vx5461
p1996
sg20
I80
sg21
I4
sg22
I86
sa(dp1997
g16
VLUCKY STARLET
p1998
sg18
V08476
p1999
sg20
I63
sg21
I5
sg22
I64
sa(dp2000
g16
VSAINT KATARINA
p2001
sg18
V20x43
p2002
sg20
I100
sg21
I6
sg22
I100
sa(dp2003
g16
VCAPTAIN'S LEGEND
p2004
sg18
Vx6952
p2005
sg20
I73
sg21
I7
sg22
I73
sa(dp2006
g16
VFRONT VIEW
p2007
sg18
Vx2x38
p2008
sg20
I90
sg21
I8
sg22
I78
sa(dp2009
g16
VBRING IT BACK
p2010
sg18
V53
p2011
sg20
I85
sg21
I9
sg22
I84
sasg62
(lp2012
(lp2013
I6
aI9
aI7
aI2
aa(lp2014
I9
aI6
aI8
aI2
aassVhttp://www.skyracing.com.au/index.php?component=racing&task=race&id=107652803&meetingid=104171777&Itemid=89
p2015
(dp2016
g3
(lp2017
(lp2018
I6
aI4
aI2
aI3
aa(lp2019
I2
aI1
aI4
aI6
aa(lp2020
I2
aI4
aI1
aI3
aa(lp2021
I6
aI4
aI1
aI2
aa(lp2022
I9
aI7
aI6
aI3
aa(lp2023
I6
aI4
aI2
aI3
aa(lp2024
I6
aI4
aI2
aI3
aa(lp2025
I6
aI4
aI2
aI1
aasg13
(lp2026
(dp2027
g16
VBENICSTRESS
p2028
sg18
V75002
p2029
sg20
I75
sg21
I1
sg22
I72
sa(dp2030
g16
VVELITES
p2031
sg18
V660x2
p2032
sg20
I93
sg21
I2
sg22
I92
sa(dp2033
g16
VCORKONIAN
p2034
sg18
V9x244
p2035
sg20
I87
sg21
I3
sg22
I88
sa(dp2036
g16
VGRATSIE
p2037
sg18
V33944
p2038
sg20
I99
sg21
I4
sg22
I99
sa(dp2039
g16
VEVENING
p2040
sg18
V66735
p2041
sg20
I65
sg21
I5
sg22
I64
sa(dp2042
g16
VFAKE NEWS
p2043
sg18
V6x532
p2044
sg20
I100
sg21
I6
sg22
I100
sa(dp2045
g16
VHONEST NATALIE
p2046
sg18
V03730
p2047
sg20
I80
sg21
I7
sg22
I80
sa(dp2048
g16
VMORE OF MARY
p2049
sg18
V906x6
p2050
sg20
I69
sg21
I8
sg22
I75
sa(dp2051
g16
VRUBY RED SLIPPERS
p2052
sg18
V40x95
p2053
sg20
I83
sg21
I9
sg22
I84
sa(dp2054
g16
VTELFORD
p2055
sg18
V77x05
p2056
sg20
I60
sg21
I10
sg22
I0
sasg62
(lp2057
(lp2058
I2
aI3
aI4
aI6
aassVhttp://www.skyracing.com.au/index.php?component=racing&task=race&id=107652609&meetingid=104171745&Itemid=89
p2059
(dp2060
g3
(lp2061
(lp2062
I4
aI5
aI7
aI6
aa(lp2063
I1
aI5
aI2
aI6
aa(lp2064
I5
aI2
aI3
aI17
aa(lp2065
I2
aI1
aI9
aI3
aa(lp2066
I2
aI6
aI8
aI5
aa(lp2067
I4
aI5
aI7
aI6
aa(lp2068
I5
aI7
aI4
aI17
aa(lp2069
I5
aI2
aI4
aI1
aasg13
(lp2070
(dp2071
g16
VSOARING HEART
p2072
sg18
V2215x
p2073
sg20
I77
sg21
I1
sg22
I76
sa(dp2074
g16
VSHAMURT
p2075
sg18
V56x93
p2076
sg20
I88
sg21
I2
sg22
I89
sa(dp2077
g16
VMAGIC FOX
p2078
sg18
V16x14
p2079
sg20
I84
sg21
I3
sg22
I82
sa(dp2080
g16
VHOLD THE LINE
p2081
sg18
V11x
p2082
sg20
I100
sg21
I4
sg22
I100
sa(dp2083
g16
VWINTER PASSAGE
p2084
sg18
V231x1
p2085
sg20
I96
sg21
I5
sg22
I99
sa(dp2086
g16
VTIPPING
p2087
sg18
V246x1
p2088
sg20
I78
sg21
I6
sg22
I93
sa(dp2089
g16
VUSMANOV
p2090
sg18
V1
p2091
sg20
I98
sg21
I7
sg22
I95
sa(dp2092
g16
VRED DOULTON
p2093
sg18
V32244
p2094
sg20
I75
sg21
I8
sg22
I79
sa(dp2095
g16
VAXELLA
p2096
sg18
Vx072x
p2097
sg20
I86
sg21
I9
sg22
I83
sa(dp2098
g16
VTAKOTSUBO
p2099
sg18
V5x101
p2100
sg20
I69
sg21
I10
sg22
I62
sa(dp2101
g16
VCOASTAL BOY
p2102
sg18
Vx9031
p2103
sg20
I72
sg21
I11
sg22
I0
sa(dp2104
g16
VRED CHASE
p2105
sg18
V17x34
p2106
sg20
I64
sg21
I12
sg22
I66
sa(dp2107
g16
VIMA TEAMBOY
p2108
sg18
V1620
p2109
sg20
I63
sg21
I13
sg22
I64
sa(dp2110
g16
VKITTIE KINS
p2111
sg18
V31
p2112
sg20
I93
sg21
I14
sg22
I92
sa(dp2113
g16
VSEENTOOMANY
p2114
sg18
V87x1
p2115
sg20
I67
sg21
I15
sg22
I0
sa(dp2116
g16
VCRAFTY SPIRIT
p2117
sg18
V0x1
p2118
sg20
I80
sg21
I16
sg22
I75
sa(dp2119
g16
VOTHERSIDE
p2120
sg18
V5x11
p2121
sg20
I90
sg21
I17
sg22
I86
sa(dp2122
g16
VQUANYIN
p2123
sg18
Vx2307
p2124
sg20
I60
sg21
I18
sg22
I60
sasg62
(lp2125
(lp2126
I4
aI7
aI5
aI9
aa(lp2127
I4
aI7
aI6
aI3
aa(lp2128
I4
aI7
aI9
aI3
aassVhttp://www.skyracing.com.au/index.php?component=racing&task=race&id=107652641&meetingid=104171761&Itemid=89
p2129
(dp2130
g3
(lp2131
(lp2132
I9
aI7
aI5
aI1
aa(lp2133
I4
aI3
aI9
aI12
aa(lp2134
I3
aI4
aI9
aI10
aa(lp2135
I3
aI1
aI7
aI8
aa(lp2136
I9
aI10
aI12
aI1
aa(lp2137
I9
aI7
aI5
aI1
aa(lp2138
I7
aI1
aI9
aI10
aa(lp2139
I9
aI3
aI7
aI4
aasg13
(lp2140
(dp2141
g16
VALL GIFTS
p2142
sg18
Vx210x
p2143
sg20
I95
sg21
I1
sg22
I89
sa(dp2144
g16
VFLAME OF LIBERTY
p2145
sg18
V2x717
p2146
sg20
I90
sg21
I2
sg22
I0
sa(dp2147
g16
VMIGHTY MITTERE
p2148
sg18
V3x726
p2149
sg20
I79
sg21
I3
sg22
I78
sa(dp2150
g16
VWINE BARREL
p2151
sg18
V67x42
p2152
sg20
I71
sg21
I4
sg22
I73
sa(dp2153
g16
VNEVER IN DOUBT
p2154
sg18
V4214x
p2155
sg20
I85
sg21
I5
sg22
I90
sa(dp2156
g16
VBOSS'S BOY
p2157
sg18
V55x16
p2158
sg20
I76
sg21
I6
sg22
I0
sa(dp2159
g16
VJACKPOT JAY
p2160
sg18
V5215x
p2161
sg20
I100
sg21
I7
sg22
I98
sa(dp2162
g16
VTOLAI MERI
p2163
sg18
V483x8
p2164
sg20
I74
sg21
I8
sg22
I77
sa(dp2165
g16
VGLITTER TOP
p2166
sg18
V31x23
p2167
sg20
I97
sg21
I9
sg22
I100
sa(dp2168
g16
VROSELLA GIRL
p2169
sg18
V2x826
p2170
sg20
I82
sg21
I10
sg22
I83
sa(dp2171
g16
VTHAT'S MADNESS
p2172
sg18
V2712x
p2173
sg20
I89
sg21
I11
sg22
I0
sa(dp2174
g16
VKIJITO
p2175
sg18
V9379x
p2176
sg20
I68
sg21
I12
sg22
I69
sasg62
(lp2177
(lp2178
I1
aI7
aI2
aI10
aassVhttp://www.skyracing.com.au/index.php?component=racing&task=race&id=107652548&meetingid=104171697&Itemid=89
p2179
(dp2180
g3
(lp2181
(lp2182
I3
aI1
aI4
aI13
aa(lp2183
I12
aI13
aI10
aI14
aa(lp2184
I13
aI10
aI14
aI9
aa(lp2185
I14
aI13
aI9
aI1
aa(lp2186
I3
aI7
aI10
aI4
aa(lp2187
I4
aI3
aI13
aI1
aa(lp2188
I3
aI1
aI4
aI13
aa(lp2189
I13
aI3
aI4
aI10
aasg13
(lp2190
(dp2191
g16
VCONFIDENT LAD
p2192
sg18
V53
p2193
sg20
I96
sg21
I1
sg22
I98
sa(dp2194
g16
VGRAVY TRAIN
p2195
sg18
V0
p2196
sg20
I64
sg21
I2
sg22
I60
sa(dp2197
g16
VELYSIA
p2198
sg18
V8x34
p2199
sg20
I100
sg21
I3
sg22
I100
sa(dp2200
g16
VELLIE BEACH
p2201
sg18
V4x334
p2202
sg20
I93
sg21
I4
sg22
I92
sa(dp2203
g16
VONE CHANCE FANCY
p2204
sg18
V653x0
p2205
sg20
I70
sg21
I5
sg22
I68
sa(dp2206
g16
VCRETE
p2207
sg18
V75
p2208
sg20
I89
sg21
I6
sg22
I87
sa(dp2209
g16
VSTREET POLL
p2210
sg18
Vx0792
p2211
sg20
I81
sg21
I7
sg22
I79
sa(dp2212
g16
VADVENTURE QUEEN
p2213
sg18
V8x95
p2214
sg20
I75
sg21
I8
sg22
I75
sa(dp2215
g16
VCAPRICE
p2216
sg18
Vx6854
p2217
sg20
I86
sg21
I9
sg22
I83
sa(dp2218
g16
VKAFFKA
p2219
sg18
V7x520
p2220
sg20
I79
sg21
I10
sg22
I76
sa(dp2221
g16
VKING AMADEUS
p2222
sg18
Vx90x0
p2223
sg20
I72
sg21
I11
sg22
I68
sa(dp2224
g16
VROTOITI
p2225
sg18
V70779
p2226
sg20
I63
sg21
I12
sg22
I63
sa(dp2227
g16
VTIME TO RETHINK
p2228
sg18
V87x47
p2229
sg20
I91
sg21
I13
sg22
I90
sa(dp2230
g16
VTREASURE THE LOVE
p2231
sg18
V83452
p2232
sg20
I74
sg21
I14
sg22
I71
sasg62
(lp2233
(lp2234
I9
aI4
aI5
aI1
aassVhttp://www.skyracing.com.au/index.php?component=racing&task=race&id=107652590&meetingid=104171729&Itemid=89
p2235
(dp2236
g3
(lp2237
(lp2238
I1
aI3
aI4
aI8
aa(lp2239
I1
aI2
aI5
aI4
aa(lp2240
I1
aI4
aI3
aI6
aa(lp2241
I1
aI2
aI3
aI6
aa(lp2242
I3
aI8
aI4
aI1
aa(lp2243
I3
aI1
aI4
aI2
aa(lp2244
I6
aI3
aI1
aI2
aa(lp2245
I1
aI3
aI4
aI2
aasg13
(lp2246
(dp2247
g16
VHARDERN
p2248
sg18
V00417
p2249
sg20
I91
sg21
I1
sg22
I100
sa(dp2250
g16
VWEAVE
p2251
sg18
V48x76
p2252
sg20
I79
sg21
I2
sg22
I82
sa(dp2253
g16
VALL HARD WOOD
p2254
sg18
V7x241
p2255
sg20
I100
sg21
I3
sg22
I95
sa(dp2256
g16
VJUNIOR BURGER
p2257
sg18
Vx4216
p2258
sg20
I86
sg21
I4
sg22
I94
sa(dp2259
g16
VPEDRO XIMENEZ
p2260
sg18
V45x08
p2261
sg20
I75
sg21
I5
sg22
I80
sa(dp2262
g16
VTAVONIAN
p2263
sg18
V09819
p2264
sg20
I99
sg21
I6
sg22
I75
sa(dp2265
g16
VONE FOR LATER
p2266
sg18
V88x66
p2267
sg20
I72
sg21
I7
sg22
I71
sa(dp2268
g16
VPRINCE ZIGGY
p2269
sg18
V85112
p2270
sg20
I81
sg21
I8
sg22
I89
sa(dp2271
g16
VMANHATTAN MENAGE
p2272
sg18
V05854
p2273
sg20
I66
sg21
I9
sg22
I0
sasg62
(lp2274
(lp2275
I3
aI6
aI4
aI1
aassVhttp://www.skyracing.com.au/index.php?component=racing&task=race&id=107652542&meetingid=104171697&Itemid=89
p2276
(dp2277
g3
(lp2278
(lp2279
I2
aI1
aI5
aI6
aa(lp2280
I1
aI7
aI2
aI4
aa(lp2281
I1
aI2
aI7
aI4
aa(lp2282
I6
aI1
aI2
aI7
aa(lp2283
I2
aI5
aI1
aI7
aa(lp2284
I5
aI2
aI6
aI1
aa(lp2285
I5
aI2
aI1
aI6
aa(lp2286
I2
aI1
aI5
aI7
aasg13
(lp2287
(dp2288
g16
VBRIDYN MAY
p2289
sg18
Vx4242
p2290
sg20
I94
sg21
I1
sg22
I96
sa(dp2291
g16
VNOBLE BOY
p2292
sg18
V1
p2293
sg20
I100
sg21
I2
sg22
I100
sa(dp2294
g16
VWE COULD BE HEROES
p2295
sg18
V467x1
p2296
sg20
I81
sg21
I3
sg22
I0
sa(dp2297
g16
VDAMIT
p2298
sg18
V00219
p2299
sg20
I69
sg21
I4
sg22
I66
sa(dp2300
g16
VFOXIE LA BELLE
p2301
sg18
V1
p2302
sg20
I98
sg21
I5
sg22
I86
sa(dp2303
g16
VDIXIE
p2304
sg18
V4x71x
p2305
sg20
I85
sg21
I6
sg22
I83
sa(dp2306
g16
VROYAL CASINO
p2307
sg18
Vx7732
p2308
sg20
I77
sg21
I7
sg22
I70
sa(dp2309
g16
VTHE COSTA DREAMS
p2310
sg18
V96x1
p2311
sg20
I78
sg21
I8
sg22
I0
sasg62
(lp2312
(lp2313
I2
aI5
aI1
aI7
aassVhttp://www.skyracing.com.au/index.php?component=racing&task=race&id=107652592&meetingid=104171729&Itemid=89
p2314
(dp2315
g3
(lp2316
(lp2317
I1
aI3
aI5
aI10
aa(lp2318
I3
aI7
aI2
aI1
aa(lp2319
I3
aI9
aI10
aI2
aa(lp2320
I2
aI3
aI8
aI9
aa(lp2321
I3
aI5
aI13
aI10
aa(lp2322
I1
aI3
aI5
aI8
aa(lp2323
I1
aI3
aI10
aI9
aa(lp2324
I3
aI1
aI5
aI2
aasg13
(lp2325
(dp2326
g16
VELTIZAAM
p2327
sg18
V7215x
p2328
sg20
I100
sg21
I1
sg22
I100
sa(dp2329
g16
VCAPTAIN SMOOTH
p2330
sg18
V15755
p2331
sg20
I82
sg21
I2
sg22
I79
sa(dp2332
g16
VHEZA MAGIC MAN
p2333
sg18
V25733
p2334
sg20
I99
sg21
I3
sg22
I96
sa(dp2335
g16
VMAGIC THOR
p2336
sg18
V8396x
p2337
sg20
I74
sg21
I4
sg22
I74
sa(dp2338
g16
VLATEST BENTLEY
p2339
sg18
V153x5
p2340
sg20
I86
sg21
I5
sg22
I95
sa(dp2341
g16
VQUEUE FOR QUALITY
p2342
sg18
V250x0
p2343
sg20
I76
sg21
I6
sg22
I0
sa(dp2344
g16
VTHEE JENNER
p2345
sg18
V12579
p2346
sg20
I89
sg21
I7
sg22
I80
sa(dp2347
g16
VDANGEROUS SPIN
p2348
sg18
V4494x
p2349
sg20
I79
sg21
I8
sg22
I89
sa(dp2350
g16
VLADY LOUISE
p2351
sg18
V35x04
p2352
sg20
I90
sg21
I9
sg22
I86
sa(dp2353
g16
VBELLBOY EXPRESS
p2354
sg18
V47030
p2355
sg20
I95
sg21
I10
sg22
I91
sa(dp2356
g16
VROYAL BUTTERFLY
p2357
sg18
V4x80x
p2358
sg20
I70
sg21
I11
sg22
I0
sa(dp2359
g16
VSCALLOP
p2360
sg18
V81000
p2361
sg20
I63
sg21
I12
sg22
I0
sa(dp2362
g16
VPATERANGI
p2363
sg18
V300x6
p2364
sg20
I70
sg21
I13
sg22
I75
sa(dp2365
g16
VHONEY TRAP
p2366
sg18
V27x98
p2367
sg20
I66
sg21
I14
sg22
I70
sasg62
(lp2368
(lp2369
I1
aI3
aI9
aI7
aassVhttp://www.skyracing.com.au/index.php?component=racing&task=race&id=107652665&meetingid=104171793&Itemid=89
p2370
(dp2371
g3
(lp2372
(lp2373
I1
aI2
aI6
aI4
aa(lp2374
I4
aI1
aI7
aI3
aa(lp2375
I1
aI7
aI3
aI8
aa(lp2376
I1
aI2
aI3
aI8
aa(lp2377
I4
aI8
aI1
aI7
aa(lp2378
I1
aI6
aI2
aI4
aa(lp2379
I1
aI2
aI4
aI3
aa(lp2380
I1
aI4
aI2
aI7
aasg13
(lp2381
(dp2382
g16
VMEAZZA
p2383
sg18
V449x1
p2384
sg20
I100
sg21
I1
sg22
I100
sa(dp2385
g16
VBIG BLOWS
p2386
sg18
Vx317x
p2387
sg20
I98
sg21
I2
sg22
I99
sa(dp2388
g16
VWISEN UP
p2389
sg18
V650x6
p2390
sg20
I88
sg21
I3
sg22
I82
sa(dp2391
g16
VMIGHTY TAX
p2392
sg18
V91880
p2393
sg20
I90
sg21
I4
sg22
I89
sa(dp2394
g16
VVANZETTA
p2395
sg18
V589x7
p2396
sg20
I79
sg21
I5
sg22
I79
sa(dp2397
g16
VFOXY LULU
p2398
sg18
V76044
p2399
sg20
I82
sg21
I6
sg22
I94
sa(dp2400
g16
VROCKMEARTIE
p2401
sg18
V086x3
p2402
sg20
I75
sg21
I7
sg22
I70
sa(dp2403
g16
VMISS MOSSY MCLAREN
p2404
sg18
V6x804
p2405
sg20
I71
sg21
I8
sg22
I73
sasg62
(lp2406
(lp2407
I2
aI1
aI7
aI3
aassVhttp://www.skyracing.com.au/index.php?component=racing&task=race&id=107652545&meetingid=104171697&Itemid=89
p2408
(dp2409
g3
(lp2410
(lp2411
I8
aI5
aI10
aI4
aa(lp2412
I5
aI8
aI10
aI4
aa(lp2413
I5
aI8
aI10
aI4
aa(lp2414
I8
aI5
aI4
aI10
aa(lp2415
I8
aI5
aI10
aI4
aa(lp2416
I5
aI8
aI10
aI4
aa(lp2417
I8
aI5
aI10
aI4
aa(lp2418
I8
aI5
aI10
aI4
aasg13
(lp2419
(dp2420
g16
VAMERICAN ENEMY
p2421
sg18
V6880x
p2422
sg20
I77
sg21
I1
sg22
I78
sa(dp2423
g16
VBORROMEO
p2424
sg18
V0
p2425
sg20
I81
sg21
I2
sg22
I82
sa(dp2426
g16
VBRIX
p2427
sg18
V3x36x
p2428
sg20
I91
sg21
I3
sg22
I0
sa(dp2429
g16
VCHOUXTORIAL
p2430
sg18
V756x4
p2431
sg20
I89
sg21
I4
sg22
I89
sa(dp2432
g16
VLADIES' GEM
p2433
sg18
V35823
p2434
sg20
I97
sg21
I5
sg22
I96
sa(dp2435
g16
VSCALPER TIM
p2436
sg18
g37
sg20
I78
sg21
I6
sg22
I0
sa(dp2437
g16
VTHE TOWERS
p2438
sg18
V96x
p2439
sg20
I84
sg21
I7
sg22
I0
sa(dp2440
g16
VZEPPELIN
p2441
sg18
V323x3
p2442
sg20
I100
sg21
I8
sg22
I100
sa(dp2443
g16
VBLING ALERT
p2444
sg18
V964x7
p2445
sg20
I71
sg21
I9
sg22
I73
sa(dp2446
g16
VGRATERRA
p2447
sg18
V25
p2448
sg20
I95
sg21
I10
sg22
I94
sa(dp2449
g16
VHAMISH THE SWIFT
p2450
sg18
V7
p2451
sg20
I71
sg21
I11
sg22
I72
sa(dp2452
g16
VNEWSTEAD
p2453
sg18
V0
p2454
sg20
I74
sg21
I12
sg22
I0
sasg62
(lp2455
(lp2456
I8
aI5
aI4
aI10
aassVhttp://www.skyracing.com.au/index.php?component=racing&task=race&id=107652530&meetingid=104171873&Itemid=89
p2457
(dp2458
g3
(lp2459
(lp2460
I3
aI2
aI5
aI1
aa(lp2461
I1
aI10
aI3
aI2
aa(lp2462
I2
aI3
aI10
aI5
aa(lp2463
I1
aI2
aI3
aI5
aa(lp2464
I2
aI3
aI10
aI5
aa(lp2465
I3
aI2
aI5
aI10
aa(lp2466
I3
aI2
aI5
aI1
aa(lp2467
I3
aI2
aI1
aI10
aasg13
(lp2468
(dp2469
g16
VOUR BEESKEES
p2470
sg18
V4x734
p2471
sg20
I89
sg21
I1
sg22
I89
sa(dp2472
g16
VSAHAR
p2473
sg18
V0x922
p2474
sg20
I98
sg21
I2
sg22
I98
sa(dp2475
g16
VHEAVENLY EMPEROR
p2476
sg18
V2x3
p2477
sg20
I100
sg21
I3
sg22
I100
sa(dp2478
g16
VARROGANT
p2479
sg18
V529
p2480
sg20
I91
sg21
I4
sg22
I0
sa(dp2481
g16
VCROWN PROSECUTOR
p2482
sg18
V63
p2483
sg20
I94
sg21
I5
sg22
I93
sa(dp2484
g16
VTOUCH THE CLOUDS
p2485
sg18
V635
p2486
sg20
I79
sg21
I6
sg22
I79
sa(dp2487
g16
VKING OF COOL
p2488
sg18
V40
p2489
sg20
I74
sg21
I7
sg22
I74
sa(dp2490
g16
VMAKABAR
p2491
sg18
V6x795
p2492
sg20
I82
sg21
I8
sg22
I80
sa(dp2493
g16
VMANRICO
p2494
sg18
V5x79
p2495
sg20
I71
sg21
I9
sg22
I72
sa(dp2496
g16
VFLAUNT IT GIRL
p2497
sg18
V7x837
p2498
sg20
I86
sg21
I10
sg22
I85
sa(dp2499
g16
VMORE JOOLS
p2500
sg18
V04
p2501
sg20
I69
sg21
I11
sg22
I69
sa(dp2502
g16
VFRIDAY WOOLFE
p2503
sg18
V87
p2504
sg20
I67
sg21
I12
sg22
I0
sa(dp2505
g16
VHI I'M NIKKITA
p2506
sg18
V07
p2507
sg20
I77
sg21
I13
sg22
I75
sa(dp2508
g16
VPLEADINGGUILTY
p2509
sg18
g37
sg20
I63
sg21
I14
sg22
I0
sasg62
(lp2510
ssVhttp://www.skyracing.com.au/index.php?component=racing&task=race&id=107652679&meetingid=104171825&Itemid=89
p2511
(dp2512
g3
(lp2513
(lp2514
I1
aI4
aI3
aI2
aa(lp2515
I5
aI2
aI1
aI6
aa(lp2516
I2
aI1
aI6
aI3
aa(lp2517
I2
aI1
aI6
aI5
aa(lp2518
I6
aI3
aI1
aI2
aa(lp2519
I3
aI1
aI4
aI2
aa(lp2520
I1
aI3
aI4
aI2
aa(lp2521
I1
aI2
aI3
aI6
aasg13
(lp2522
(dp2523
g16
VSALON DU CHEVAL
p2524
sg18
V11x11
p2525
sg20
I99
sg21
I1
sg22
I100
sa(dp2526
g16
VDARK PROSPECT
p2527
sg18
V15143
p2528
sg20
I84
sg21
I2
sg22
I88
sa(dp2529
g16
VMISSISSIPPI DELTA
p2530
sg18
V11x61
p2531
sg20
I100
sg21
I3
sg22
I94
sa(dp2532
g16
VFIVE DEGREES
p2533
sg18
V10112
p2534
sg20
I93
sg21
I4
sg22
I98
sa(dp2535
g16
VPUSH TO PASS
p2536
sg18
V77474
p2537
sg20
I69
sg21
I5
sg22
I72
sa(dp2538
g16
VBROTHER'S KEEPER
p2539
sg18
V09211
p2540
sg20
I80
sg21
I6
sg22
I79
sa(dp2541
g16
VGOLD ARTISAN
p2542
sg18
V33922
p2543
sg20
I73
sg21
I7
sg22
I73
sa(dp2544
g16
VQUEEN BEY
p2545
sg18
V25123
p2546
sg20
I89
sg21
I8
sg22
I82
sa(dp2547
g16
VTHUNDERCLAP NEWMAN
p2548
sg18
V70758
p2549
sg20
I63
sg21
I9
sg22
I66
sasg62
(lp2550
(lp2551
I4
aI3
aI1
aI5
aa(lp2552
I3
aI1
aI2
aI4
aassVhttp://www.skyracing.com.au/index.php?component=racing&task=race&id=107652544&meetingid=104171697&Itemid=89
p2553
(dp2554
g3
(lp2555
(lp2556
I2
aI8
aI3
aI4
aa(lp2557
I3
aI7
aI8
aI4
aa(lp2558
I3
aI8
aI7
aI6
aa(lp2559
I6
aI3
aI5
aI8
aa(lp2560
I7
aI8
aI5
aI3
aa(lp2561
I8
aI2
aI3
aI4
aa(lp2562
I2
aI8
aI3
aI5
aa(lp2563
I8
aI3
aI7
aI2
aasg13
(lp2564
(dp2565
g16
VO'LORDY
p2566
sg18
V90327
p2567
sg20
I97
sg21
I1
sg22
I0
sa(dp2568
g16
VTHE MIST
p2569
sg18
Vx517x
p2570
sg20
I100
sg21
I2
sg22
I100
sa(dp2571
g16
VFLY FORWARD
p2572
sg18
V36279
p2573
sg20
I85
sg21
I3
sg22
I93
sa(dp2574
g16
VUH OH
p2575
sg18
V247x6
p2576
sg20
I79
sg21
I4
sg22
I88
sa(dp2577
g16
VDEXLUTHER
p2578
sg18
V410x0
p2579
sg20
I82
sg21
I5
sg22
I85
sa(dp2580
g16
VLOUIS' CHOICE
p2581
sg18
V07499
p2582
sg20
I70
sg21
I6
sg22
I73
sa(dp2583
g16
VREADY SET SING
p2584
sg18
Vx8729
p2585
sg20
I74
sg21
I7
sg22
I79
sa(dp2586
g16
VMONTEREY MAGIC
p2587
sg18
V0x416
p2588
sg20
I93
sg21
I8
sg22
I96
sa(dp2589
g16
VHOLLYWOOD ROSE
p2590
sg18
V30797
p2591
sg20
I65
sg21
I9
sg22
I77
sasg62
(lp2592
(lp2593
I3
aI7
aI6
aI9
aassVhttp://www.skyracing.com.au/index.php?component=racing&task=race&id=107652543&meetingid=104171697&Itemid=89
p2594
(dp2595
g3
(lp2596
(lp2597
I1
aI8
aI5
aI2
aa(lp2598
I8
aI1
aI3
aI5
aa(lp2599
I1
aI8
aI3
aI5
aa(lp2600
I8
aI1
aI5
aI6
aa(lp2601
I8
aI5
aI1
aI6
aa(lp2602
I5
aI1
aI8
aI2
aa(lp2603
I1
aI8
aI4
aI5
aa(lp2604
I8
aI1
aI5
aI3
aasg13
(lp2605
(dp2606
g16
VBARDOR
p2607
sg18
V5
p2608
sg20
I100
sg21
I1
sg22
I100
sa(dp2609
g16
VPRINCESS TABITHA
p2610
sg18
V09x97
p2611
sg20
I83
sg21
I2
sg22
I89
sa(dp2612
g16
VAUSBRED NACRE
p2613
sg18
V0x08
p2614
sg20
I73
sg21
I3
sg22
I79
sa(dp2615
g16
VFRESH HOPE
p2616
sg18
g37
sg20
I90
sg21
I4
sg22
I0
sa(dp2617
g16
VKITTY KARINE
p2618
sg18
V00843
p2619
sg20
I85
sg21
I5
sg22
I90
sa(dp2620
g16
VMUSUME
p2621
sg18
V57x6
p2622
sg20
I79
sg21
I6
sg22
I81
sa(dp2623
g16
VQADIRA
p2624
sg18
g37
sg20
I71
sg21
I7
sg22
I0
sa(dp2625
g16
VROSADIBLU
p2626
sg18
V3x647
p2627
sg20
I99
sg21
I8
sg22
I97
sa(dp2628
g16
VTOCOKOE
p2629
sg18
V6
p2630
sg20
I64
sg21
I9
sg22
I76
sasg62
(lp2631
(lp2632
I8
aI4
aI5
aI1
aassVhttp://www.skyracing.com.au/index.php?component=racing&task=race&id=107652684&meetingid=104171825&Itemid=89
p2633
(dp2634
g3
(lp2635
(lp2636
I4
aI8
aI2
aI5
aa(lp2637
I3
aI2
aI5
aI1
aa(lp2638
I2
aI1
aI5
aI3
aa(lp2639
I1
aI4
aI2
aI3
aa(lp2640
I2
aI4
aI8
aI1
aa(lp2641
I8
aI4
aI2
aI5
aa(lp2642
I4
aI8
aI2
aI7
aa(lp2643
I2
aI4
aI1
aI8
aasg13
(lp2644
(dp2645
g16
VHONORFIC
p2646
sg18
V71127
p2647
sg20
I90
sg21
I1
sg22
I88
sa(dp2648
g16
VOUQBA JACK
p2649
sg18
V5x742
p2650
sg20
I93
sg21
I2
sg22
I94
sa(dp2651
g16
VRARE COIN
p2652
sg18
V2x889
p2653
sg20
I74
sg21
I3
sg22
I83
sa(dp2654
g16
VSENTIMENTAL FRIEND
p2655
sg18
V4625x
p2656
sg20
I100
sg21
I4
sg22
I100
sa(dp2657
g16
VSIGIL
p2658
sg18
V34224
p2659
sg20
I85
sg21
I5
sg22
I90
sa(dp2660
g16
VJASPARA
p2661
sg18
V0x056
p2662
sg20
I70
sg21
I6
sg22
I74
sa(dp2663
g16
VADMIRAL PROMO
p2664
sg18
V13x54
p2665
sg20
I88
sg21
I7
sg22
I84
sa(dp2666
g16
VBLACKWOOD RIVER
p2667
sg18
V5x222
p2668
sg20
I98
sg21
I8
sg22
I96
sa(dp2669
g16
VMASTER PEARL
p2670
sg18
V01x85
p2671
sg20
I82
sg21
I9
sg22
I68
sa(dp2672
g16
VPRUE
p2673
sg18
V01x50
p2674
sg20
I78
sg21
I10
sg22
I77
sa(dp2675
g16
VROGAN SCENT
p2676
sg18
Vx0577
p2677
sg20
I71
sg21
I11
sg22
I78
sa(dp2678
g16
VTHE ENCHANTRESS
p2679
sg18
V11306
p2680
sg20
I76
sg21
I12
sg22
I0
sasg62
(lp2681
(lp2682
I4
aI2
aI5
aI1
aa(lp2683
I5
aI2
aI4
aI7
aassVhttp://www.skyracing.com.au/index.php?component=racing&task=race&id=107652558&meetingid=104171665&Itemid=89
p2684
(dp2685
g3
(lp2686
(lp2687
I1
aI8
aI7
aI3
aa(lp2688
I1
aI3
aI8
aI4
aa(lp2689
I1
aI3
aI8
aI4
aa(lp2690
I1
aI8
aI3
aI7
aa(lp2691
I8
aI1
aI3
aI4
aa(lp2692
I1
aI8
aI7
aI5
aa(lp2693
I1
aI7
aI3
aI8
aa(lp2694
I1
aI8
aI3
aI7
aasg13
(lp2695
(dp2696
g16
VROYAL CELEBRATION
p2697
sg18
V2x221
p2698
sg20
I100
sg21
I1
sg22
I100
sa(dp2699
g16
VWAGNER
p2700
sg18
Vx1175
p2701
sg20
I81
sg21
I2
sg22
I0
sa(dp2702
g16
VCOTERIE
p2703
sg18
V46x11
p2704
sg20
I90
sg21
I3
sg22
I79
sa(dp2705
g16
VSINGING SAND
p2706
sg18
V437x1
p2707
sg20
I75
sg21
I4
sg22
I76
sa(dp2708
g16
VDUCALE
p2709
sg18
Vx7009
p2710
sg20
I70
sg21
I5
sg22
I70
sa(dp2711
g16
VETANA
p2712
sg18
V1
p2713
sg20
I85
sg21
I6
sg22
I0
sa(dp2714
g16
VBALLER
p2715
sg18
V1
p2716
sg20
I97
sg21
I7
sg22
I87
sa(dp2717
g16
VPHONEME
p2718
sg18
V9x7x1
p2719
sg20
I80
sg21
I8
sg22
I93
sasg62
(lp2720
(lp2721
I3
aI1
aI7
aI8
aa(lp2722
I1
aI3
aI4
aI8
aa(lp2723
I1
aI8
aI7
aI3
aa(lp2724
I7
aI1
aI8
aI5
aassVhttp://www.skyracing.com.au/index.php?component=racing&task=race&id=107652666&meetingid=104171793&Itemid=89
p2725
(dp2726
g3
(lp2727
(lp2728
I7
aI3
aI6
aI10
aa(lp2729
I3
aI7
aI6
aI10
aa(lp2730
I7
aI2
aI10
aI3
aa(lp2731
I7
aI3
aI10
aI6
aa(lp2732
I7
aI3
aI10
aI4
aa(lp2733
I3
aI7
aI6
aI10
aa(lp2734
I7
aI3
aI6
aI10
aa(lp2735
I7
aI3
aI10
aI6
aasg13
(lp2736
(dp2737
g16
VBIG SHAFT
p2738
sg18
g37
sg20
I87
sg21
I1
sg22
I0
sa(dp2739
g16
VBORLUNG
p2740
sg18
V36732
p2741
sg20
I78
sg21
I2
sg22
I73
sa(dp2742
g16
VLIBERTY'S TORCH
p2743
sg18
V32x38
p2744
sg20
I96
sg21
I3
sg22
I96
sa(dp2745
g16
VMCINTYRE
p2746
sg18
V42x
p2747
sg20
I86
sg21
I4
sg22
I80
sa(dp2748
g16
VPOWERSTRETCHER
p2749
sg18
V9878x
p2750
sg20
I72
sg21
I5
sg22
I61
sa(dp2751
g16
VROCK 'N' RHYTHM
p2752
sg18
V856x
p2753
sg20
I95
sg21
I6
sg22
I90
sa(dp2754
g16
VPAGHMAN
p2755
sg18
V211x2
p2756
sg20
I100
sg21
I7
sg22
I100
sa(dp2757
g16
VASHSTAR
p2758
sg18
V7478x
p2759
sg20
I80
sg21
I8
sg22
I76
sa(dp2760
g16
VFIZZY ONE
p2761
sg18
V5
p2762
sg20
I73
sg21
I9
sg22
I66
sa(dp2763
g16
VHELL OFA GOOD SORT
p2764
sg18
Vx6578
p2765
sg20
I90
sg21
I10
sg22
I84
sa(dp2766
g16
VFINALISE
p2767
sg18
g37
sg20
I77
sg21
I11
sg22
I0
sasg62
(lp2768
(lp2769
I7
aI4
aI2
aI3
aassVhttp://www.skyracing.com.au/index.php?component=racing&task=race&id=107652650&meetingid=104171809&Itemid=89
p2770
(dp2771
g3
(lp2772
(lp2773
I3
aI2
aI6
aI5
aa(lp2774
I4
aI2
aI5
aI7
aa(lp2775
I2
aI3
aI5
aI8
aa(lp2776
I4
aI3
aI2
aI6
aa(lp2777
I4
aI8
aI2
aI5
aa(lp2778
I2
aI3
aI6
aI4
aa(lp2779
I6
aI3
aI5
aI2
aa(lp2780
I2
aI3
aI4
aI5
aasg13
(lp2781
(dp2782
g16
VFLORID
p2783
sg18
Vx256x
p2784
sg20
I82
sg21
I1
sg22
I0
sa(dp2785
g16
VHE IS GOLDEN
p2786
sg18
Vx7531
p2787
sg20
I90
sg21
I2
sg22
I95
sa(dp2788
g16
VTHOMPSON'S REWARD
p2789
sg18
V444x4
p2790
sg20
I100
sg21
I3
sg22
I100
sa(dp2791
g16
VFRANCE'S BOY
p2792
sg18
V9646x
p2793
sg20
I74
sg21
I4
sg22
I76
sa(dp2794
g16
VGOLDEN LUSTRE
p2795
sg18
Vx5414
p2796
sg20
I89
sg21
I5
sg22
I81
sa(dp2797
g16
VINSTITUTION
p2798
sg18
V2217x
p2799
sg20
I98
sg21
I6
sg22
I88
sa(dp2800
g16
VPRETIOSA
p2801
sg18
V1069x
p2802
sg20
I79
sg21
I7
sg22
I74
sa(dp2803
g16
VAMATIVE
p2804
sg18
V9x247
p2805
sg20
I70
sg21
I8
sg22
I69
sa(dp2806
g16
VMINTRICE
p2807
sg18
V0x490
p2808
sg20
I65
sg21
I9
sg22
I65
sasg62
(lp2809
(lp2810
I2
aI6
aI3
aI5
aa(lp2811
I6
aI2
aI3
aI4
aassVhttp://www.skyracing.com.au/index.php?component=racing&task=race&id=107652623&meetingid=104171681&Itemid=89
p2812
(dp2813
g3
(lp2814
(lp2815
I7
aI4
aI3
aI9
aa(lp2816
I2
aI4
aI7
aI1
aa(lp2817
I2
aI7
aI3
aI4
aa(lp2818
I2
aI7
aI1
aI3
aa(lp2819
I7
aI2
aI4
aI3
aa(lp2820
I7
aI4
aI3
aI2
aa(lp2821
I7
aI3
aI4
aI2
aa(lp2822
I7
aI2
aI4
aI3
aasg13
(lp2823
(dp2824
g16
VPOET'S ADVOCATE
p2825
sg18
V069x6
p2826
sg20
I80
sg21
I1
sg22
I79
sa(dp2827
g16
VKOTINOS
p2828
sg18
V17014
p2829
sg20
I89
sg21
I2
sg22
I82
sa(dp2830
g16
VTABROBANE
p2831
sg18
V25168
p2832
sg20
I92
sg21
I3
sg22
I91
sa(dp2833
g16
VART D'AMOUR
p2834
sg18
Vx2602
p2835
sg20
I97
sg21
I4
sg22
I95
sa(dp2836
g16
VPRIMA STELLA
p2837
sg18
V90948
p2838
sg20
I77
sg21
I5
sg22
I69
sa(dp2839
g16
VJACK THE RINGER
p2840
sg18
V60847
p2841
sg20
I71
sg21
I6
sg22
I75
sa(dp2842
g16
VSUPER TONIC
p2843
sg18
V11x55
p2844
sg20
I100
sg21
I7
sg22
I100
sa(dp2845
g16
VSTILETTOED VIXEN
p2846
sg18
V889x8
p2847
sg20
I62
sg21
I8
sg22
I0
sa(dp2848
g16
VVIHARI
p2849
sg18
V341x9
p2850
sg20
I81
sg21
I9
sg22
I89
sa(dp2851
g16
VGRONKY
p2852
sg18
V80097
p2853
sg20
I65
sg21
I10
sg22
I0
sasg62
(lp2854
(lp2855
I2
aI1
aI3
aI7
aa(lp2856
I3
aI2
aI7
aI1
aassVhttp://www.skyracing.com.au/index.php?component=racing&task=race&id=107652624&meetingid=104171681&Itemid=89
p2857
(dp2858
g3
(lp2859
(lp2860
I1
aI5
aI6
aI2
aa(lp2861
I2
aI1
aI9
aI5
aa(lp2862
I5
aI4
aI7
aI10
aa(lp2863
I2
aI1
aI5
aI4
aa(lp2864
I5
aI1
aI2
aI10
aa(lp2865
I5
aI1
aI2
aI6
aa(lp2866
I5
aI1
aI6
aI7
aa(lp2867
I5
aI1
aI2
aI4
aasg13
(lp2868
(dp2869
g16
VTORYJOY
p2870
sg18
V2152x
p2871
sg20
I95
sg21
I1
sg22
I100
sa(dp2872
g16
VGRAND CASINO
p2873
sg18
Vx050x
p2874
sg20
I89
sg21
I2
sg22
I88
sa(dp2875
g16
VWILD KINGDOM
p2876
sg18
V9x1
p2877
sg20
I100
sg21
I3
sg22
I0
sa(dp2878
g16
VMANDALONG EMPEROR
p2879
sg18
V61762
p2880
sg20
I79
sg21
I4
sg22
I77
sa(dp2881
g16
VSTOCK UP
p2882
sg18
V452x1
p2883
sg20
I92
sg21
I5
sg22
I94
sa(dp2884
g16
VGRAND BOUQUET
p2885
sg18
V4x10
p2886
sg20
I97
sg21
I6
sg22
I90
sa(dp2887
g16
VDONALD KRUPT
p2888
sg18
V651x6
p2889
sg20
I86
sg21
I7
sg22
I85
sa(dp2890
g16
VRAZIEL
p2891
sg18
V410x0
p2892
sg20
I73
sg21
I8
sg22
I0
sa(dp2893
g16
VSOMETHING SHOCKING
p2894
sg18
V26x08
p2895
sg20
I76
sg21
I9
sg22
I83
sa(dp2896
g16
VTIMION
p2897
sg18
V94512
p2898
sg20
I80
sg21
I10
sg22
I78
sa(dp2899
g16
VALL DAY
p2900
sg18
V68x80
p2901
sg20
I70
sg21
I11
sg22
I71
sa(dp2902
g16
VEXIT ONLY
p2903
sg18
V848x0
p2904
sg20
I69
sg21
I12
sg22
I70
sasg62
(lp2905
(lp2906
I1
aI5
aI6
aI4
aa(lp2907
I1
aI5
aI2
aI6
aassVhttp://www.skyracing.com.au/index.php?component=racing&task=race&id=107652633&meetingid=104171761&Itemid=89
p2908
(dp2909
g3
(lp2910
(lp2911
I4
aI5
aI2
aI1
aa(lp2912
I2
aI1
aI4
aI5
aa(lp2913
I4
aI2
aI5
aI1
aa(lp2914
I2
aI4
aI1
aI5
aa(lp2915
I4
aI2
aI1
aI5
aa(lp2916
I4
aI5
aI2
aI1
aa(lp2917
I4
aI5
aI1
aI2
aa(lp2918
I4
aI2
aI5
aI1
aasg13
(lp2919
(dp2920
g16
VTOAN THANG
p2921
sg18
V1586x
p2922
sg20
I84
sg21
I1
sg22
I81
sa(dp2923
g16
VWACK'EM
p2924
sg18
V39855
p2925
sg20
I85
sg21
I2
sg22
I93
sa(dp2926
g16
VSAVVY ROCK
p2927
sg18
V1148x
p2928
sg20
I97
sg21
I3
sg22
I0
sa(dp2929
g16
VTIME TO PLAY
p2930
sg18
V30313
p2931
sg20
I100
sg21
I4
sg22
I100
sa(dp2932
g16
VBEL CLASSICO
p2933
sg18
V246x5
p2934
sg20
I91
sg21
I5
sg22
I95
sasg62
(lp2935
(lp2936
I4
aI2
aI1
aI5
aassVhttp://www.skyracing.com.au/index.php?component=racing&task=race&id=107652602&meetingid=104171745&Itemid=89
p2937
(dp2938
g3
(lp2939
(lp2940
I3
aI4
aI1
aI2
aa(lp2941
I1
aI2
aI4
aI3
aa(lp2942
I1
aI3
aI2
aI5
aa(lp2943
I1
aI2
aI3
aI5
aa(lp2944
I3
aI4
aI2
aI1
aa(lp2945
I3
aI1
aI4
aI5
aa(lp2946
I3
aI1
aI4
aI2
aa(lp2947
I3
aI1
aI2
aI4
aasg13
(lp2948
(dp2949
g16
VISIS MAGIC
p2950
sg18
V22715
p2951
sg20
I97
sg21
I1
sg22
I92
sa(dp2952
g16
VAIMALAC MILLIE
p2953
sg18
V25619
p2954
sg20
I85
sg21
I2
sg22
I87
sa(dp2955
g16
VPRUE'S ANGEL
p2956
sg18
V17371
p2957
sg20
I100
sg21
I3
sg22
I100
sa(dp2958
g16
VFOXY HOUSEWIFE
p2959
sg18
V1243x
p2960
sg20
I94
sg21
I4
sg22
I96
sa(dp2961
g16
VMACHU PICCHU
p2962
sg18
V04446
p2963
sg20
I83
sg21
I5
sg22
I81
sasg62
(lp2964
(lp2965
I4
aI3
aI1
aI2
aa(lp2966
I3
aI4
aI1
aI2
aa(lp2967
I3
aI4
aI2
aI1
aassVhttp://www.skyracing.com.au/index.php?component=racing&task=race&id=107652798&meetingid=104171777&Itemid=89
p2968
(dp2969
g3
(lp2970
(lp2971
I2
aI11
aI4
aI6
aa(lp2972
I11
aI2
aI6
aI7
aa(lp2973
I6
aI4
aI8
aI9
aa(lp2974
I4
aI11
aI7
aI2
aa(lp2975
I11
aI4
aI6
aI2
aa(lp2976
I4
aI2
aI11
aI6
aa(lp2977
I11
aI4
aI2
aI7
aa(lp2978
I4
aI11
aI2
aI6
aasg13
(lp2979
(dp2980
g16
VRED DEVIL
p2981
sg18
V22321
p2982
sg20
I100
sg21
I1
sg22
I0
sa(dp2983
g16
VUMAWINNER
p2984
sg18
V4924x
p2985
sg20
I91
sg21
I2
sg22
I100
sa(dp2986
g16
VBEL BEAU
p2987
sg18
V15543
p2988
sg20
I84
sg21
I3
sg22
I0
sa(dp2989
g16
VMESSAGE TO MARTHA
p2990
sg18
V55x33
p2991
sg20
I95
sg21
I4
sg22
I84
sa(dp2992
g16
VWINERIES
p2993
sg18
Vx3331
p2994
sg20
I89
sg21
I5
sg22
I0
sa(dp2995
g16
VFIRST WITNESS
p2996
sg18
V82126
p2997
sg20
I76
sg21
I6
sg22
I73
sa(dp2998
g16
VNANITA
p2999
sg18
V8x998
p3000
sg20
I83
sg21
I7
sg22
I72
sa(dp3001
g16
VROSEXCEL
p3002
sg18
V41658
p3003
sg20
I78
sg21
I8
sg22
I69
sa(dp3004
g16
VMJOLNIR
p3005
sg18
Vx7458
p3006
sg20
I73
sg21
I9
sg22
I64
sa(dp3007
g16
VSHE'S WILD
p3008
sg18
V64550
p3009
sg20
I71
sg21
I10
sg22
I67
sa(dp3010
g16
VMISHANI RULER
p3011
sg18
V215x9
p3012
sg20
I96
sg21
I11
sg22
I96
sasg62
(lp3013
(lp3014
I11
aI2
aI4
aI6
aassVhttp://www.skyracing.com.au/index.php?component=racing&task=race&id=107652617&meetingid=104171681&Itemid=89
p3015
(dp3016
g3
(lp3017
(lp3018
I1
aI2
aI3
aI4
aa(lp3019
I1
aI2
aI3
aI4
aa(lp3020
I1
aI2
aI3
aI4
aa(lp3021
I1
aI2
aI3
aI4
aa(lp3022
I1
aI2
aI3
aI4
aa(lp3023
I1
aI2
aI3
aI4
aa(lp3024
I1
aI5
aI2
aI6
aa(lp3025
I7
aI9
aI4
aI3
aasg13
(lp3026
(dp3027
g16
VANETHOLE
p3028
sg18
g37
sg20
I100
sg21
I1
sg22
I0
sa(dp3029
g16
VCOSMIC FORCE
p3030
sg18
g37
sg20
I85
sg21
I2
sg22
I0
sa(dp3031
g16
VDODECANESE
p3032
sg18
g37
sg20
I72
sg21
I3
sg22
I0
sa(dp3033
g16
VFOXY ROCKET
p3034
sg18
g37
sg20
I63
sg21
I4
sg22
I0
sa(dp3035
g16
VBLAZING MISS
p3036
sg18
g37
sg20
I91
sg21
I5
sg22
I0
sa(dp3037
g16
VFOWZ
p3038
sg18
g37
sg20
I81
sg21
I6
sg22
I0
sa(dp3039
g16
VHOW HARD IS IT
p3040
sg18
g37
sg20
I73
sg21
I7
sg22
I0
sa(dp3041
g16
VKIAMICHI
p3042
sg18
g37
sg20
I96
sg21
I8
sg22
I0
sa(dp3043
g16
VSTRALEX
p3044
sg18
g37
sg20
I78
sg21
I9
sg22
I0
sasg62
(lp3045
(lp3046
I2
aI5
aI9
aI1
aa(lp3047
I5
aI2
aI9
aI6
aassVhttp://www.skyracing.com.au/index.php?component=racing&task=race&id=107652653&meetingid=104171809&Itemid=89
p3048
(dp3049
g3
(lp3050
(lp3051
I3
aI16
aI5
aI2
aa(lp3052
I1
aI3
aI2
aI4
aa(lp3053
I1
aI3
aI2
aI4
aa(lp3054
I16
aI1
aI3
aI2
aa(lp3055
I16
aI12
aI13
aI10
aa(lp3056
I3
aI5
aI2
aI16
aa(lp3057
I3
aI16
aI8
aI5
aa(lp3058
I3
aI16
aI1
aI2
aasg13
(lp3059
(dp3060
g16
VLIFE OF WALDO
p3061
sg18
V61111
p3062
sg20
I90
sg21
I1
sg22
I92
sa(dp3063
g16
VLIKE TO THINK SO
p3064
sg18
V38261
p3065
sg20
I93
sg21
I2
sg22
I93
sa(dp3066
g16
VDEBT COLLECTOR
p3067
sg18
Vx1391
p3068
sg20
I100
sg21
I3
sg22
I100
sa(dp3069
g16
VMIDNIGHT STORM
p3070
sg18
V61414
p3071
sg20
I82
sg21
I4
sg22
I87
sa(dp3072
g16
VGOING GAGA
p3073
sg18
V21x32
p3074
sg20
I96
sg21
I5
sg22
I96
sa(dp3075
g16
VCOOL MAVERICK
p3076
sg18
V41218
p3077
sg20
I71
sg21
I6
sg22
I0
sa(dp3078
g16
VTRIPLE DEEZ
p3079
sg18
Vx2141
p3080
sg20
I67
sg21
I7
sg22
I0
sa(dp3081
g16
VPAMELA JOY
p3082
sg18
V17531
p3083
sg20
I89
sg21
I8
sg22
I89
sa(dp3084
g16
VTAHNEE TIARA
p3085
sg18
V21x32
p3086
sg20
I84
sg21
I9
sg22
I84
sa(dp3087
g16
VIMPULSE DIAVOLO
p3088
sg18
V3x261
p3089
sg20
I76
sg21
I10
sg22
I77
sa(dp3090
g16
VIRON MAX
p3091
sg18
V75101
p3092
sg20
I87
sg21
I11
sg22
I68
sa(dp3093
g16
VPALE ALE
p3094
sg18
V10x28
p3095
sg20
I69
sg21
I12
sg22
I64
sa(dp3096
g16
VANGEL'S WISH
p3097
sg18
V84116
p3098
sg20
I65
sg21
I13
sg22
I75
sa(dp3099
g16
VBROTHER DARKNESS
p3100
sg18
Vx0211
p3101
sg20
I74
sg21
I14
sg22
I80
sa(dp3102
g16
VSEE ME ROLLIN'
p3103
sg18
V84543
p3104
sg20
I62
sg21
I15
sg22
I0
sa(dp3105
g16
VMISS WAHOO
p3106
sg18
V113x2
p3107
sg20
I98
sg21
I16
sg22
I99
sa(dp3108
g16
VJACKTHEGIANTSLAYER
p3109
sg18
V52449
p3110
sg20
I61
sg21
I17
sg22
I0
sa(dp3111
g16
VWALTZING WODKA
p3112
sg18
V100x5
p3113
sg20
I78
sg21
I18
sg22
I0
sasg62
(lp3114
(lp3115
I3
aI2
aI16
aI5
aa(lp3116
I3
aI16
aI2
aI5
aassVhttp://www.skyracing.com.au/index.php?component=racing&task=race&id=107652683&meetingid=104171825&Itemid=89
p3117
(dp3118
g3
(lp3119
(lp3120
I4
aI8
aI5
aI10
aa(lp3121
I2
aI1
aI4
aI3
aa(lp3122
I2
aI1
aI3
aI7
aa(lp3123
I1
aI7
aI4
aI3
aa(lp3124
I7
aI2
aI4
aI8
aa(lp3125
I8
aI5
aI10
aI4
aa(lp3126
I5
aI4
aI8
aI14
aa(lp3127
I2
aI4
aI1
aI8
aasg13
(lp3128
(dp3129
g16
VLORDHELPMERUN
p3130
sg18
V31x20
p3131
sg20
I73
sg21
I1
sg22
I79
sa(dp3132
g16
VCHIX PIC
p3133
sg18
V15x12
p3134
sg20
I85
sg21
I2
sg22
I83
sa(dp3135
g16
VBLACK SABBATH
p3136
sg18
V11x27
p3137
sg20
I75
sg21
I3
sg22
I68
sa(dp3138
g16
VTHE VELVET KING
p3139
sg18
V131x
p3140
sg20
I94
sg21
I4
sg22
I100
sa(dp3141
g16
VTRUE DEFENDER
p3142
sg18
V2x11x
p3143
sg20
I98
sg21
I5
sg22
I92
sa(dp3144
g16
VTRUE ATTRACTION
p3145
sg18
V131
p3146
sg20
I83
sg21
I6
sg22
I86
sa(dp3147
g16
VPLATOON
p3148
sg18
V63x12
p3149
sg20
I70
sg21
I7
sg22
I73
sa(dp3150
g16
VUNIKAT
p3151
sg18
V111
p3152
sg20
I100
sg21
I8
sg22
I93
sa(dp3153
g16
VREGAL COUNSEL
p3154
sg18
V364x1
p3155
sg20
I69
sg21
I9
sg22
I68
sa(dp3156
g16
VFINAL HEARING
p3157
sg18
V131
p3158
sg20
I89
sg21
I10
sg22
I87
sa(dp3159
g16
VZETORIO
p3160
sg18
V61136
p3161
sg20
I64
sg21
I11
sg22
I63
sa(dp3162
g16
VGREAT CHARADE
p3163
sg18
V3x452
p3164
sg20
I63
sg21
I12
sg22
I59
sa(dp3165
g16
VREGAL POWER
p3166
sg18
V61x8
p3167
sg20
I78
sg21
I13
sg22
I71
sa(dp3168
g16
VCOCKY DODD
p3169
sg18
V1
p3170
sg20
I92
sg21
I14
sg22
I75
sasg62
(lp3171
(lp3172
I2
aI3
aI11
aI6
aa(lp3173
I4
aI2
aI13
aI3
aassVhttp://www.skyracing.com.au/index.php?component=racing&task=race&id=107652607&meetingid=104171745&Itemid=89
p3174
(dp3175
g3
(lp3176
(lp3177
I1
aI7
aI10
aI2
aa(lp3178
I3
aI4
aI2
aI5
aa(lp3179
I6
aI1
aI3
aI10
aa(lp3180
I2
aI6
aI5
aI3
aa(lp3181
I2
aI8
aI1
aI6
aa(lp3182
I1
aI10
aI7
aI2
aa(lp3183
I1
aI7
aI2
aI6
aa(lp3184
I1
aI2
aI6
aI3
aasg13
(lp3185
(dp3186
g16
VBELFLYER
p3187
sg18
V02431
p3188
sg20
I100
sg21
I1
sg22
I100
sa(dp3189
g16
VDREAMS APLENTY
p3190
sg18
V3100x
p3191
sg20
I97
sg21
I2
sg22
I91
sa(dp3192
g16
VFRESPANOL
p3193
sg18
V7x568
p3194
sg20
I73
sg21
I3
sg22
I73
sa(dp3195
g16
VPETROLOGY
p3196
sg18
V6x950
p3197
sg20
I77
sg21
I4
sg22
I79
sa(dp3198
g16
VSOLD FOR SONG
p3199
sg18
Vx2889
p3200
sg20
I81
sg21
I5
sg22
I83
sa(dp3201
g16
VBEL BURGESS
p3202
sg18
V61571
p3203
sg20
I90
sg21
I6
sg22
I88
sa(dp3204
g16
VAPOLOBOOM
p3205
sg18
V71434
p3206
sg20
I94
sg21
I7
sg22
I98
sa(dp3207
g16
VFORTENSKY
p3208
sg18
V44448
p3209
sg20
I79
sg21
I8
sg22
I77
sa(dp3210
g16
VNIKITAS
p3211
sg18
V144x5
p3212
sg20
I87
sg21
I9
sg22
I85
sa(dp3213
g16
VSPUR LE JOUER
p3214
sg18
Vx8922
p3215
sg20
I85
sg21
I10
sg22
I93
sa(dp3216
g16
VELJETEM
p3217
sg18
V0x316
p3218
sg20
I72
sg21
I11
sg22
I0
sa(dp3219
g16
VSHAKOPEE
p3220
sg18
V800x8
p3221
sg20
I70
sg21
I12
sg22
I71
sasg62
(lp3222
(lp3223
I1
aI7
aI9
aI6
aa(lp3224
I1
aI6
aI8
aI2
aa(lp3225
I2
aI5
aI1
aI4
aassVhttp://www.skyracing.com.au/index.php?component=racing&task=race&id=107652533&meetingid=104171873&Itemid=89
p3226
(dp3227
g3
(lp3228
(lp3229
I4
aI8
aI2
aI9
aa(lp3230
I7
aI8
aI2
aI9
aa(lp3231
I2
aI9
aI3
aI16
aa(lp3232
I16
aI7
aI2
aI8
aa(lp3233
I3
aI16
aI9
aI11
aa(lp3234
I4
aI2
aI8
aI12
aa(lp3235
I4
aI2
aI8
aI3
aa(lp3236
I2
aI8
aI16
aI4
aasg13
(lp3237
(dp3238
g16
VKIRKINTILLOCH
p3239
sg18
V00149
p3240
sg20
I67
sg21
I1
sg22
I0
sa(dp3241
g16
VRICKY BAKER
p3242
sg18
V04225
p3243
sg20
I96
sg21
I2
sg22
I95
sa(dp3244
g16
VMATUZALEM
p3245
sg18
V17732
p3246
sg20
I86
sg21
I3
sg22
I92
sa(dp3247
g16
VMR TRUMP
p3248
sg18
V21x
p3249
sg20
I100
sg21
I4
sg22
I100
sa(dp3250
g16
VTHE MAGNATE
p3251
sg18
Vx8x31
p3252
sg20
I80
sg21
I5
sg22
I77
sa(dp3253
g16
VEL COOLIO
p3254
sg18
V06510
p3255
sg20
I70
sg21
I6
sg22
I70
sa(dp3256
g16
VHOIST
p3257
sg18
V6330x
p3258
sg20
I76
sg21
I7
sg22
I79
sa(dp3259
g16
VRONDINELLA
p3260
sg18
V3104x
p3261
sg20
I99
sg21
I8
sg22
I98
sa(dp3262
g16
VHONESTY
p3263
sg18
V18x32
p3264
sg20
I90
sg21
I9
sg22
I93
sa(dp3265
g16
VPAINT THE TOWN
p3266
sg18
Vx21x6
p3267
sg20
I79
sg21
I10
sg22
I0
sa(dp3268
g16
VMARISSA
p3269
sg18
Vx3202
p3270
sg20
I62
sg21
I11
sg22
I64
sa(dp3271
g16
VTOKYO LIL
p3272
sg18
V104x3
p3273
sg20
I88
sg21
I12
sg22
I89
sa(dp3274
g16
VNO FINER PINS
p3275
sg18
V60x24
p3276
sg20
I60
sg21
I13
sg22
I63
sa(dp3277
g16
VPERROQUET
p3278
sg18
V139x8
p3279
sg20
I68
sg21
I14
sg22
I60
sa(dp3280
g16
VLADY LIRA
p3281
sg18
V413x5
p3282
sg20
I84
sg21
I15
sg22
I0
sa(dp3283
g16
VPATSYS LASS
p3284
sg18
V7x148
p3285
sg20
I75
sg21
I16
sg22
I73
sa(dp3286
g16
VALVINS DREAM
p3287
sg18
V732x7
p3288
sg20
I65
sg21
I17
sg22
I67
sa(dp3289
g16
VSHE'S NOT BAD
p3290
sg18
V1x6
p3291
sg20
I93
sg21
I18
sg22
I0
sasg62
(lp3292
ssVhttp://www.skyracing.com.au/index.php?component=racing&task=race&id=107652594&meetingid=104171729&Itemid=89
p3293
(dp3294
g3
(lp3295
(lp3296
I7
aI2
aI3
aI4
aa(lp3297
I2
aI5
aI3
aI4
aa(lp3298
I3
aI2
aI4
aI7
aa(lp3299
I5
aI2
aI3
aI4
aa(lp3300
I2
aI10
aI12
aI4
aa(lp3301
I2
aI7
aI3
aI10
aa(lp3302
I2
aI3
aI10
aI7
aa(lp3303
I2
aI3
aI7
aI5
aasg13
(lp3304
(dp3305
g16
VDR JAMESON
p3306
sg18
V50270
p3307
sg20
I93
sg21
I1
sg22
I0
sa(dp3308
g16
VPRAY FOR US
p3309
sg18
V47564
p3310
sg20
I100
sg21
I2
sg22
I95
sa(dp3311
g16
VWALLOON REGION
p3312
sg18
V45520
p3313
sg20
I99
sg21
I3
sg22
I92
sa(dp3314
g16
VRIVERLEA HONOURS
p3315
sg18
V90x56
p3316
sg20
I87
sg21
I4
sg22
I88
sa(dp3317
g16
VATLANTIC EXPRESS
p3318
sg18
Vx5809
p3319
sg20
I78
sg21
I5
sg22
I73
sa(dp3320
g16
VKAMINDU
p3321
sg18
Vx0880
p3322
sg20
I75
sg21
I6
sg22
I75
sa(dp3323
g16
VI AIN'T THE ONE
p3324
sg18
V02654
p3325
sg20
I90
sg21
I7
sg22
I100
sa(dp3326
g16
VIL MANNARO
p3327
sg18
V08877
p3328
sg20
I69
sg21
I8
sg22
I70
sa(dp3329
g16
VTOSS THE BOUQUET
p3330
sg18
V7x000
p3331
sg20
I80
sg21
I9
sg22
I62
sa(dp3332
g16
VBETTY'S THRILLS
p3333
sg18
V60063
p3334
sg20
I86
sg21
I10
sg22
I79
sa(dp3335
g16
VTRIMOUILLE
p3336
sg18
V74574
p3337
sg20
I71
sg21
I11
sg22
I67
sa(dp3338
g16
VSHE'S A HEADTURNER
p3339
sg18
Vx8804
p3340
sg20
I64
sg21
I12
sg22
I67
sa(dp3341
g16
VLUCK'S A TURNING
p3342
sg18
Vx0868
p3343
sg20
I63
sg21
I13
sg22
I60
sa(dp3344
g16
VMEDICINE BALL
p3345
sg18
V430x2
p3346
sg20
I74
sg21
I14
sg22
I81
sasg62
(lp3347
(lp3348
I2
aI7
aI3
aI11
aassVhttp://www.skyracing.com.au/index.php?component=racing&task=race&id=107652575&meetingid=104171713&Itemid=89
p3349
(dp3350
g3
(lp3351
(lp3352
I4
aI1
aI8
aI10
aa(lp3353
I1
aI7
aI4
aI3
aa(lp3354
I10
aI3
aI7
aI1
aa(lp3355
I4
aI1
aI5
aI7
aa(lp3356
I1
aI10
aI4
aI11
aa(lp3357
I4
aI8
aI10
aI1
aa(lp3358
I1
aI3
aI11
aI4
aa(lp3359
I1
aI4
aI10
aI7
aasg13
(lp3360
(dp3361
g16
VWIDGEE TURF
p3362
sg18
V12322
p3363
sg20
I100
sg21
I1
sg22
I98
sa(dp3364
g16
VCLASSIC UNIFORM
p3365
sg18
Vx0000
p3366
sg20
I67
sg21
I2
sg22
I66
sa(dp3367
g16
VDOLLAR FOR DOLLAR
p3368
sg18
V10220
p3369
sg20
I96
sg21
I3
sg22
I88
sa(dp3370
g16
VDREAMFORCE
p3371
sg18
V21x62
p3372
sg20
I98
sg21
I4
sg22
I100
sa(dp3373
g16
VULMANN
p3374
sg18
V260x7
p3375
sg20
I73
sg21
I5
sg22
I73
sa(dp3376
g16
VGOOD PROJECT
p3377
sg18
V909x8
p3378
sg20
I81
sg21
I6
sg22
I87
sa(dp3379
g16
VMR SNEAKY
p3380
sg18
Vx3467
p3381
sg20
I92
sg21
I7
sg22
I81
sa(dp3382
g16
VAGE OF FIRE
p3383
sg18
V300x0
p3384
sg20
I89
sg21
I8
sg22
I95
sa(dp3385
g16
VPERAST
p3386
sg18
V5x730
p3387
sg20
I83
sg21
I9
sg22
I78
sa(dp3388
g16
VSPECTROSCOPE
p3389
sg18
V343x3
p3390
sg20
I77
sg21
I10
sg22
I94
sa(dp3391
g16
VTORGERSEN
p3392
sg18
V13x51
p3393
sg20
I93
sg21
I11
sg22
I91
sa(dp3394
g16
VINTERLOCUTER
p3395
sg18
V7x404
p3396
sg20
I79
sg21
I12
sg22
I0
sa(dp3397
g16
VSO SI BON
p3398
sg18
V3x538
p3399
sg20
I69
sg21
I13
sg22
I68
sa(dp3400
g16
VLOPE DE CAPIO
p3401
sg18
Vx5760
p3402
sg20
I64
sg21
I14
sg22
I64
sa(dp3403
g16
VKING'S COMMAND
p3404
sg18
V0x445
p3405
sg20
I71
sg21
I15
sg22
I0
sa(dp3406
g16
VWARRANTY
p3407
sg18
V0x424
p3408
sg20
I87
sg21
I16
sg22
I76
sasg62
(lp3409
(lp3410
I1
aI10
aI4
aI13
aa(lp3411
I1
aI8
aI3
aI4
aa(lp3412
I7
aI1
aI3
aI8
aassVhttp://www.skyracing.com.au/index.php?component=racing&task=race&id=107652512&meetingid=104171857&Itemid=89
p3413
(dp3414
g3
(lp3415
(lp3416
I4
aI2
aI1
aI3
aa(lp3417
I2
aI4
aI1
aI3
aa(lp3418
I2
aI5
aI4
aI7
aa(lp3419
I1
aI5
aI4
aI3
aa(lp3420
I7
aI6
aI4
aI1
aa(lp3421
I4
aI2
aI1
aI3
aa(lp3422
I3
aI4
aI2
aI7
aa(lp3423
I4
aI2
aI1
aI5
aasg13
(lp3424
(dp3425
g16
VSANASAR
p3426
sg18
V252x3
p3427
sg20
I87
sg21
I1
sg22
I90
sa(dp3428
g16
VIRISH CALL
p3429
sg18
V88x02
p3430
sg20
I98
sg21
I2
sg22
I96
sa(dp3431
g16
VSHADOW KING
p3432
sg18
V526x0
p3433
sg20
I100
sg21
I3
sg22
I86
sa(dp3434
g16
VRESIDENTIAL
p3435
sg18
V27x23
p3436
sg20
I99
sg21
I4
sg22
I100
sa(dp3437
g16
VFORGED
p3438
sg18
Vx5964
p3439
sg20
I88
sg21
I5
sg22
I78
sa(dp3440
g16
VCHIC
p3441
sg18
V247x2
p3442
sg20
I70
sg21
I6
sg22
I75
sa(dp3443
g16
VGALWAY GARRY
p3444
sg18
V56224
p3445
sg20
I92
sg21
I7
sg22
I82
sa(dp3446
g16
VEASTERN WARRIOR
p3447
sg18
V53045
p3448
sg20
I77
sg21
I8
sg22
I71
sa(dp3449
g16
VAHYUM
p3450
sg18
V30658
p3451
sg20
I65
sg21
I9
sg22
I66
sasg62
(lp3452
ssVhttp://www.skyracing.com.au/index.php?component=racing&task=race&id=107652516&meetingid=104171857&Itemid=89
p3453
(dp3454
g3
(lp3455
(lp3456
I3
aI1
aI2
aI6
aa(lp3457
I1
aI2
aI3
aI6
aa(lp3458
I3
aI6
aI1
aI2
aa(lp3459
I2
aI1
aI6
aI3
aa(lp3460
I3
aI2
aI1
aI6
aa(lp3461
I2
aI3
aI1
aI7
aa(lp3462
I3
aI1
aI2
aI7
aa(lp3463
I3
aI2
aI1
aI6
aasg13
(lp3464
(dp3465
g16
VPASSING SHOT
p3466
sg18
V6461x
p3467
sg20
I91
sg21
I1
sg22
I98
sa(dp3468
g16
VMORSE CODE
p3469
sg18
V50x1x
p3470
sg20
I87
sg21
I2
sg22
I89
sa(dp3471
g16
VLIVIN' ON A PRAYER
p3472
sg18
V6x212
p3473
sg20
I98
sg21
I3
sg22
I100
sa(dp3474
g16
VMR TYPHON
p3475
sg18
V3375x
p3476
sg20
I81
sg21
I4
sg22
I0
sa(dp3477
g16
VSENSEI
p3478
sg18
V180x2
p3479
sg20
I100
sg21
I5
sg22
I0
sa(dp3480
g16
VSELFIE
p3481
sg18
V308x6
p3482
sg20
I79
sg21
I6
sg22
I83
sa(dp3483
g16
VCASAQUINMAN
p3484
sg18
V9115x
p3485
sg20
I83
sg21
I7
sg22
I81
sasg62
(lp3486
ssVhttp://www.skyracing.com.au/index.php?component=racing&task=race&id=107652578&meetingid=104171713&Itemid=89
p3487
(dp3488
g3
(lp3489
(lp3490
I1
aI4
aI6
aI2
aa(lp3491
I4
aI5
aI9
aI1
aa(lp3492
I5
aI1
aI8
aI3
aa(lp3493
I4
aI1
aI8
aI10
aa(lp3494
I2
aI1
aI6
aI8
aa(lp3495
I1
aI7
aI2
aI4
aa(lp3496
I1
aI6
aI7
aI4
aa(lp3497
I1
aI4
aI2
aI5
aasg13
(lp3498
(dp3499
g16
VREDZEL
p3500
sg18
V4x151
p3501
sg20
I100
sg21
I1
sg22
I100
sa(dp3502
g16
VBRAVE SMASH
p3503
sg18
V33281
p3504
sg20
I88
sg21
I2
sg22
I90
sa(dp3505
g16
VSANTA ANA LANE
p3506
sg18
V1x516
p3507
sg20
I79
sg21
I3
sg22
I75
sa(dp3508
g16
VREDKIRK WARRIOR
p3509
sg18
V1x00x
p3510
sg20
I94
sg21
I4
sg22
I97
sa(dp3511
g16
VJUNGLE CAT
p3512
sg18
V11x10
p3513
sg20
I74
sg21
I5
sg22
I79
sa(dp3514
g16
VPIERATA
p3515
sg18
Vx1291
p3516
sg20
I97
sg21
I6
sg22
I94
sa(dp3517
g16
VKEMENTARI
p3518
sg18
V24243
p3519
sg20
I92
sg21
I7
sg22
I88
sa(dp3520
g16
VSPIRIT OF VALOR
p3521
sg18
V86322
p3522
sg20
I85
sg21
I8
sg22
I85
sa(dp3523
g16
VINTELLIGENCE CROSS
p3524
sg18
V00x00
p3525
sg20
I64
sg21
I9
sg22
I67
sa(dp3526
g16
VU S NAVY FLAG
p3527
sg18
V91x90
p3528
sg20
I76
sg21
I10
sg22
I70
sa(dp3529
g16
VFLEET REVIEW
p3530
sg18
V30x99
p3531
sg20
I63
sg21
I11
sg22
I62
sa(dp3532
g16
VIN HER TIME
p3533
sg18
V39x37
p3534
sg20
I80
sg21
I12
sg22
I74
sa(dp3535
g16
VSPRIGHT
p3536
sg18
V61x34
p3537
sg20
I71
sg21
I13
sg22
I82
sa(dp3538
g16
VINVINCIBLE STAR
p3539
sg18
Vx3275
p3540
sg20
I69
sg21
I14
sg22
I70
sasg62
(lp3541
(lp3542
I7
aI1
aI2
aI13
aa(lp3543
I6
aI1
aI4
aI13
aa(lp3544
I3
aI7
aI1
aI6
aassVhttp://www.skyracing.com.au/index.php?component=racing&task=race&id=107652621&meetingid=104171681&Itemid=89
p3545
(dp3546
g3
(lp3547
(lp3548
I5
aI1
aI2
aI7
aa(lp3549
I5
aI2
aI9
aI1
aa(lp3550
I5
aI2
aI9
aI1
aa(lp3551
I5
aI9
aI1
aI6
aa(lp3552
I5
aI1
aI6
aI2
aa(lp3553
I1
aI5
aI2
aI6
aa(lp3554
I5
aI1
aI2
aI6
aa(lp3555
I5
aI1
aI2
aI9
aasg13
(lp3556
(dp3557
g16
VLOVED ONE
p3558
sg18
V5x2
p3559
sg20
I97
sg21
I1
sg22
I95
sa(dp3560
g16
VCERCA TROVA
p3561
sg18
V3402
p3562
sg20
I91
sg21
I2
sg22
I87
sa(dp3563
g16
VNATANYA
p3564
sg18
V0
p3565
sg20
I71
sg21
I3
sg22
I64
sa(dp3566
g16
VALANTON'S TREATY
p3567
sg18
V45
p3568
sg20
I74
sg21
I4
sg22
I76
sa(dp3569
g16
VCANDY GIRL
p3570
sg18
V24332
p3571
sg20
I100
sg21
I5
sg22
I100
sa(dp3572
g16
VDAISY PLUCK
p3573
sg18
Vx7746
p3574
sg20
I88
sg21
I6
sg22
I78
sa(dp3575
g16
VLEGIT
p3576
sg18
V7858
p3577
sg20
I83
sg21
I7
sg22
I82
sa(dp3578
g16
VOAKFIELD CHAPARRAL
p3579
sg18
V609x
p3580
sg20
I63
sg21
I8
sg22
I69
sa(dp3581
g16
VWANCHAI
p3582
sg18
V03554
p3583
sg20
I80
sg21
I9
sg22
I73
sasg62
(lp3584
(lp3585
I1
aI5
aI9
aI6
aa(lp3586
I1
aI5
aI9
aI2
aassVhttp://www.skyracing.com.au/index.php?component=racing&task=race&id=107652632&meetingid=104171761&Itemid=89
p3587
(dp3588
g3
(lp3589
(lp3590
I8
aI7
aI2
aI4
aa(lp3591
I7
aI8
aI2
aI4
aa(lp3592
I7
aI8
aI2
aI4
aa(lp3593
I7
aI8
aI2
aI4
aa(lp3594
I7
aI2
aI4
aI5
aa(lp3595
I7
aI8
aI2
aI4
aa(lp3596
I6
aI8
aI2
aI7
aa(lp3597
I7
aI8
aI5
aI4
aasg13
(lp3598
(dp3599
g16
VNEPTUNE'S SPEAR
p3600
sg18
g37
sg20
I85
sg21
I1
sg22
I0
sa(dp3601
g16
VPICTON
p3602
sg18
g37
sg20
I83
sg21
I2
sg22
I0
sa(dp3603
g16
VCHAMPAGNE JET
p3604
sg18
g37
sg20
I100
sg21
I3
sg22
I0
sa(dp3605
g16
VKALLIE
p3606
sg18
g37
sg20
I75
sg21
I4
sg22
I0
sa(dp3607
g16
VLUANA
p3608
sg18
g37
sg20
I69
sg21
I5
sg22
I0
sa(dp3609
g16
VMISHANI DESIRE
p3610
sg18
g37
sg20
I95
sg21
I6
sg22
I0
sa(dp3611
g16
VPERFECT SAGA
p3612
sg18
V5
p3613
sg20
I79
sg21
I7
sg22
I96
sa(dp3614
g16
VRAPID ASCENT
p3615
sg18
V3
p3616
sg20
I92
sg21
I8
sg22
I100
sasg62
(lp3617
(lp3618
I2
aI7
aI4
aI6
aassVhttp://www.skyracing.com.au/index.php?component=racing&task=race&id=107652561&meetingid=104171665&Itemid=89
p3619
(dp3620
g3
(lp3621
(lp3622
I7
aI9
aI12
aI4
aa(lp3623
I2
aI1
aI12
aI13
aa(lp3624
I2
aI13
aI7
aI11
aa(lp3625
I2
aI12
aI4
aI13
aa(lp3626
I12
aI9
aI1
aI13
aa(lp3627
I9
aI7
aI12
aI4
aa(lp3628
I7
aI9
aI4
aI12
aa(lp3629
I12
aI2
aI9
aI7
aasg13
(lp3630
(dp3631
g16
VGAMBLER'S BLUES
p3632
sg18
V2215x
p3633
sg20
I81
sg21
I1
sg22
I80
sa(dp3634
g16
VCONARCHIE
p3635
sg18
V81157
p3636
sg20
I65
sg21
I2
sg22
I67
sa(dp3637
g16
VGENERALISSIMO
p3638
sg18
V480x3
p3639
sg20
I78
sg21
I3
sg22
I0
sa(dp3640
g16
VREFLECTIVITY
p3641
sg18
V0144x
p3642
sg20
I98
sg21
I4
sg22
I81
sa(dp3643
g16
VSO YOU WIN
p3644
sg18
V0604x
p3645
sg20
I77
sg21
I5
sg22
I71
sa(dp3646
g16
VNOTIO
p3647
sg18
V135x5
p3648
sg20
I73
sg21
I6
sg22
I0
sa(dp3649
g16
VCHAUSSURE
p3650
sg18
Vx11x4
p3651
sg20
I100
sg21
I7
sg22
I100
sa(dp3652
g16
VOMBUDSMAN
p3653
sg18
V2413x
p3654
sg20
I89
sg21
I8
sg22
I75
sa(dp3655
g16
VGITAN
p3656
sg18
V12561
p3657
sg20
I92
sg21
I9
sg22
I95
sa(dp3658
g16
VTURNBERRY
p3659
sg18
V2401x
p3660
sg20
I94
sg21
I10
sg22
I72
sa(dp3661
g16
VFUEL
p3662
sg18
V4x410
p3663
sg20
I72
sg21
I11
sg22
I61
sa(dp3664
g16
VMAN OF PEACE
p3665
sg18
V33312
p3666
sg20
I84
sg21
I12
sg22
I87
sa(dp3667
g16
VBUDDEROO KNIGHT
p3668
sg18
V14125
p3669
sg20
I68
sg21
I13
sg22
I68
sasg62
(lp3670
(lp3671
I10
aI1
aI7
aI12
aa(lp3672
I7
aI4
aI12
aI10
aa(lp3673
I4
aI7
aI12
aI1
aa(lp3674
I10
aI7
aI1
aI12
aassVhttp://www.skyracing.com.au/index.php?component=racing&task=race&id=107652514&meetingid=104171857&Itemid=89
p3675
(dp3676
g3
(lp3677
(lp3678
I1
aI8
aI7
aI3
aa(lp3679
I4
aI5
aI3
aI1
aa(lp3680
I4
aI3
aI1
aI7
aa(lp3681
I1
aI5
aI7
aI11
aa(lp3682
I7
aI4
aI14
aI3
aa(lp3683
I1
aI8
aI7
aI13
aa(lp3684
I8
aI1
aI3
aI7
aa(lp3685
I1
aI7
aI4
aI3
aasg13
(lp3686
(dp3687
g16
VHUNTER VILLAIN
p3688
sg18
V24x32
p3689
sg20
I98
sg21
I1
sg22
I100
sa(dp3690
g16
VBY MAGIC
p3691
sg18
V20473
p3692
sg20
I69
sg21
I2
sg22
I71
sa(dp3693
g16
VREDFORD
p3694
sg18
V66x32
p3695
sg20
I90
sg21
I3
sg22
I88
sa(dp3696
g16
VROTHACKER
p3697
sg18
V9x3
p3698
sg20
I81
sg21
I4
sg22
I82
sa(dp3699
g16
VTAIMANU
p3700
sg18
V33474
p3701
sg20
I67
sg21
I5
sg22
I68
sa(dp3702
g16
VBROTHER WILL
p3703
sg18
V444x
p3704
sg20
I75
sg21
I6
sg22
I79
sa(dp3705
g16
VHIGHLY UNLIKELY
p3706
sg18
V56x82
p3707
sg20
I89
sg21
I7
sg22
I92
sa(dp3708
g16
VARISTOTLE
p3709
sg18
V4459
p3710
sg20
I100
sg21
I8
sg22
I94
sa(dp3711
g16
VOCEAN OF CHAMPAGNE
p3712
sg18
V0x94
p3713
sg20
I71
sg21
I9
sg22
I0
sa(dp3714
g16
VDU'BLUES
p3715
sg18
V265x3
p3716
sg20
I85
sg21
I10
sg22
I87
sa(dp3717
g16
VKALIPER
p3718
sg18
V600x0
p3719
sg20
I58
sg21
I11
sg22
I62
sa(dp3720
g16
VSUPER GIRL
p3721
sg18
Vx3202
p3722
sg20
I94
sg21
I12
sg22
I0
sa(dp3723
g16
VPLATINUM RAIDER
p3724
sg18
V3855x
p3725
sg20
I77
sg21
I13
sg22
I83
sa(dp3726
g16
VSPACE CADET
p3727
sg18
V93
p3728
sg20
I76
sg21
I14
sg22
I76
sa(dp3729
g16
VTOO PRECIOUS
p3730
sg18
V09x6
p3731
sg20
I66
sg21
I15
sg22
I0
sa(dp3732
g16
VQUATTRO KATIE
p3733
sg18
Vx5353
p3734
sg20
I93
sg21
I16
sg22
I0
sa(dp3735
g16
VLARUNDEL
p3736
sg18
V4709x
p3737
sg20
I64
sg21
I17
sg22
I64
sasg62
(lp3738
ssVhttp://www.skyracing.com.au/index.php?component=racing&task=race&id=107652680&meetingid=104171825&Itemid=89
p3739
(dp3740
g3
(lp3741
(lp3742
I5
aI8
aI4
aI7
aa(lp3743
I2
aI3
aI6
aI4
aa(lp3744
I4
aI6
aI9
aI5
aa(lp3745
I3
aI4
aI6
aI2
aa(lp3746
I8
aI7
aI6
aI4
aa(lp3747
I8
aI5
aI4
aI7
aa(lp3748
I4
aI8
aI5
aI7
aa(lp3749
I4
aI8
aI6
aI5
aasg13
(lp3750
(dp3751
g16
VSTOCKS
p3752
sg18
Vx7x8x
p3753
sg20
I69
sg21
I1
sg22
I72
sa(dp3754
g16
VMY GREEK BOY
p3755
sg18
V6180x
p3756
sg20
I79
sg21
I2
sg22
I75
sa(dp3757
g16
VTHE CELT
p3758
sg18
V24077
p3759
sg20
I63
sg21
I3
sg22
I61
sa(dp3760
g16
VMISTY METAL
p3761
sg18
V111x3
p3762
sg20
I97
sg21
I4
sg22
I89
sa(dp3763
g16
VHOW TO FLY
p3764
sg18
V42155
p3765
sg20
I91
sg21
I5
sg22
I100
sa(dp3766
g16
VJINGTANG
p3767
sg18
V124x2
p3768
sg20
I84
sg21
I6
sg22
I80
sa(dp3769
g16
VSHOWCASE
p3770
sg18
V598x1
p3771
sg20
I85
sg21
I7
sg22
I82
sa(dp3772
g16
VSTAGEMAN
p3773
sg18
V12x71
p3774
sg20
I100
sg21
I8
sg22
I96
sa(dp3775
g16
VVIKING FORREST
p3776
sg18
Vx5626
p3777
sg20
I62
sg21
I9
sg22
I68
sa(dp3778
g16
VGET THE VIBE
p3779
sg18
V769x9
p3780
sg20
I74
sg21
I10
sg22
I58
sasg62
(lp3781
(lp3782
I8
aI6
aI4
aI5
aa(lp3783
I8
aI7
aI6
aI4
aassVhttp://www.skyracing.com.au/index.php?component=racing&task=race&id=107652801&meetingid=104171777&Itemid=89
p3784
(dp3785
g3
(lp3786
(lp3787
I5
aI8
aI7
aI6
aa(lp3788
I8
aI5
aI7
aI6
aa(lp3789
I8
aI6
aI1
aI3
aa(lp3790
I8
aI5
aI7
aI6
aa(lp3791
I8
aI5
aI1
aI4
aa(lp3792
I5
aI6
aI8
aI7
aa(lp3793
I5
aI3
aI8
aI4
aa(lp3794
I8
aI5
aI6
aI7
aasg13
(lp3795
(dp3796
g16
VJACKO'S A NATURAL
p3797
sg18
g37
sg20
I75
sg21
I1
sg22
I0
sa(dp3798
g16
VMARK OF THE CLASS
p3799
sg18
g37
sg20
I70
sg21
I2
sg22
I0
sa(dp3800
g16
VROCK BEAT
p3801
sg18
g37
sg20
I90
sg21
I3
sg22
I0
sa(dp3802
g16
VSCARAMOUCHE
p3803
sg18
g37
sg20
I80
sg21
I4
sg22
I0
sa(dp3804
g16
VDIARIST
p3805
sg18
V52x
p3806
sg20
I100
sg21
I5
sg22
I100
sa(dp3807
g16
VGOLDEN STREET
p3808
sg18
V0
p3809
sg20
I60
sg21
I6
sg22
I79
sa(dp3810
g16
VZALIBRI
p3811
sg18
V9x
p3812
sg20
I64
sg21
I7
sg22
I81
sa(dp3813
g16
VSPIRIT'S FIRST
p3814
sg18
V98x38
p3815
sg20
I81
sg21
I8
sg22
I90
sa(dp3816
g16
VSHADYVALE STAR
p3817
sg18
V4246x
p3818
sg20
I88
sg21
I9
sg22
I0
sa(dp3819
g16
VPAPA JO
p3820
sg18
V6x
p3821
sg20
I96
sg21
I10
sg22
I0
sasg62
(lp3822
(lp3823
I5
aI8
aI3
aI4
aassVhttp://www.skyracing.com.au/index.php?component=racing&task=race&id=107652664&meetingid=104171793&Itemid=89
p3824
(dp3825
g3
(lp3826
(lp3827
I3
aI5
aI6
aI2
aa(lp3828
I4
aI1
aI3
aI2
aa(lp3829
I3
aI2
aI5
aI6
aa(lp3830
I4
aI3
aI1
aI6
aa(lp3831
I3
aI5
aI4
aI6
aa(lp3832
I5
aI3
aI6
aI2
aa(lp3833
I3
aI5
aI2
aI6
aa(lp3834
I3
aI5
aI4
aI6
aasg13
(lp3835
(dp3836
g16
VLOUPPY BEND
p3837
sg18
V6347x
p3838
sg20
I79
sg21
I1
sg22
I76
sa(dp3839
g16
VEMJYE
p3840
sg18
V64875
p3841
sg20
I88
sg21
I2
sg22
I81
sa(dp3842
g16
VLET'S CELEBRATE
p3843
sg18
V48112
p3844
sg20
I100
sg21
I3
sg22
I100
sa(dp3845
g16
VMOORE ALPHA
p3846
sg18
V747x3
p3847
sg20
I81
sg21
I4
sg22
I77
sa(dp3848
g16
VTAIPEI DANCER
p3849
sg18
V13132
p3850
sg20
I96
sg21
I5
sg22
I94
sa(dp3851
g16
VPERPETUAL BLISS
p3852
sg18
V219x3
p3853
sg20
I91
sg21
I6
sg22
I90
sasg62
(lp3854
(lp3855
I3
aI6
aI5
aI4
aassVhttp://www.skyracing.com.au/index.php?component=racing&task=race&id=107652515&meetingid=104171857&Itemid=89
p3856
(dp3857
g3
(lp3858
(lp3859
I3
aI2
aI5
aI4
aa(lp3860
I3
aI2
aI5
aI9
aa(lp3861
I3
aI4
aI11
aI9
aa(lp3862
I3
aI2
aI5
aI4
aa(lp3863
I2
aI3
aI8
aI11
aa(lp3864
I2
aI3
aI5
aI4
aa(lp3865
I5
aI3
aI11
aI2
aa(lp3866
I3
aI2
aI5
aI4
aasg13
(lp3867
(dp3868
g16
VPIPPI REA
p3869
sg18
V217x4
p3870
sg20
I84
sg21
I1
sg22
I0
sa(dp3871
g16
VBARABAS
p3872
sg18
V4646x
p3873
sg20
I85
sg21
I2
sg22
I94
sa(dp3874
g16
VOTTAVIO
p3875
sg18
V51415
p3876
sg20
I99
sg21
I3
sg22
I100
sa(dp3877
g16
VWHATWEDO
p3878
sg18
V4x8x4
p3879
sg20
I77
sg21
I4
sg22
I81
sa(dp3880
g16
VISHINKTAATLEDO
p3881
sg18
V1213x
p3882
sg20
I100
sg21
I5
sg22
I90
sa(dp3883
g16
VMILK IT
p3884
sg18
V5409x
p3885
sg20
I60
sg21
I6
sg22
I63
sa(dp3886
g16
VSTROWAN
p3887
sg18
V2x001
p3888
sg20
I78
sg21
I7
sg22
I0
sa(dp3889
g16
VDOCKET
p3890
sg18
V0424x
p3891
sg20
I63
sg21
I8
sg22
I70
sa(dp3892
g16
VFLYTIME
p3893
sg18
V20x79
p3894
sg20
I72
sg21
I9
sg22
I64
sa(dp3895
g16
VXCUSES XCUSES
p3896
sg18
V5x048
p3897
sg20
I64
sg21
I10
sg22
I0
sa(dp3898
g16
VATTIMO
p3899
sg18
V39x61
p3900
sg20
I88
sg21
I11
sg22
I71
sa(dp3901
g16
VMAGIC NOTE
p3902
sg18
V0195x
p3903
sg20
I76
sg21
I12
sg22
I0
sa(dp3904
g16
VMIROSLAVA
p3905
sg18
V20x97
p3906
sg20
I71
sg21
I13
sg22
I0
sasg62
(lp3907
ssVhttp://www.skyracing.com.au/index.php?component=racing&task=race&id=107652608&meetingid=104171745&Itemid=89
p3908
(dp3909
g3
(lp3910
(lp3911
I6
aI2
aI4
aI3
aa(lp3912
I2
aI3
aI1
aI5
aa(lp3913
I2
aI3
aI4
aI5
aa(lp3914
I2
aI1
aI3
aI4
aa(lp3915
I12
aI18
aI3
aI2
aa(lp3916
I2
aI4
aI6
aI5
aa(lp3917
I6
aI2
aI11
aI4
aa(lp3918
I2
aI3
aI4
aI6
aasg13
(lp3919
(dp3920
g16
VELJETEM
p3921
sg18
V0x316
p3922
sg20
I73
sg21
I1
sg22
I62
sa(dp3923
g16
VMR BELLAGIO
p3924
sg18
Vx3031
p3925
sg20
I96
sg21
I2
sg22
I91
sa(dp3926
g16
VBRAX
p3927
sg18
V24413
p3928
sg20
I89
sg21
I3
sg22
I86
sa(dp3929
g16
VGREYWOLF
p3930
sg18
V14421
p3931
sg20
I87
sg21
I4
sg22
I89
sa(dp3932
g16
VMASTERATI
p3933
sg18
V06932
p3934
sg20
I92
sg21
I5
sg22
I81
sa(dp3935
g16
VREMARKABLE SON
p3936
sg18
V1212x
p3937
sg20
I97
sg21
I6
sg22
I100
sa(dp3938
g16
VSTANLEY PARK
p3939
sg18
V11x11
p3940
sg20
I100
sg21
I7
sg22
I0
sa(dp3941
g16
VLUCKY JACKSON
p3942
sg18
V190x1
p3943
sg20
I85
sg21
I8
sg22
I84
sa(dp3944
g16
VOPTION
p3945
sg18
V04625
p3946
sg20
I62
sg21
I9
sg22
I57
sa(dp3947
g16
VSO SKILLED
p3948
sg18
V6x254
p3949
sg20
I69
sg21
I10
sg22
I0
sa(dp3950
g16
VMISS MIAO
p3951
sg18
V27316
p3952
sg20
I93
sg21
I11
sg22
I77
sa(dp3953
g16
VBOILING
p3954
sg18
V22713
p3955
sg20
I76
sg21
I12
sg22
I79
sa(dp3956
g16
VHIDDEN GOLD
p3957
sg18
V10x50
p3958
sg20
I58
sg21
I13
sg22
I0
sa(dp3959
g16
VPRINCESS ROULETTE
p3960
sg18
V111x7
p3961
sg20
I79
sg21
I14
sg22
I0
sa(dp3962
g16
VBLOOMING TYCOON
p3963
sg18
V0x106
p3964
sg20
I60
sg21
I15
sg22
I54
sa(dp3965
g16
VWHODUNNIT
p3966
sg18
V36044
p3967
sg20
I65
sg21
I16
sg22
I60
sa(dp3968
g16
VTHE PERPETRATOR
p3969
sg18
V30x15
p3970
sg20
I67
sg21
I17
sg22
I0
sa(dp3971
g16
VLE DRAMA
p3972
sg18
V18814
p3973
sg20
I72
sg21
I18
sg22
I71
sa(dp3974
g16
VBEAT THE BEAST
p3975
sg18
V14x15
p3976
sg20
I81
sg21
I19
sg22
I73
sasg62
(lp3977
(lp3978
I6
aI5
aI11
aI2
aa(lp3979
I5
aI6
aI11
aI3
aa(lp3980
I2
aI11
aI6
aI5
aassVhttp://www.skyracing.com.au/index.php?component=racing&task=race&id=107652604&meetingid=104171745&Itemid=89
p3981
(dp3982
g3
(lp3983
(lp3984
I1
aI3
aI5
aI4
aa(lp3985
I1
aI8
aI2
aI3
aa(lp3986
I1
aI8
aI2
aI3
aa(lp3987
I1
aI2
aI7
aI3
aa(lp3988
I4
aI6
aI1
aI7
aa(lp3989
I3
aI5
aI1
aI2
aa(lp3990
I4
aI3
aI5
aI1
aa(lp3991
I1
aI3
aI2
aI8
aasg13
(lp3992
(dp3993
g16
VA MAN TO MATCH
p3994
sg18
V3x632
p3995
sg20
I91
sg21
I1
sg22
I100
sa(dp3996
g16
VMYWIFESAIDNO
p3997
sg18
V25241
p3998
sg20
I82
sg21
I2
sg22
I78
sa(dp3999
g16
VTHE BIG HOUSE
p4000
sg18
V2141
p4001
sg20
I100
sg21
I3
sg22
I92
sa(dp4002
g16
VLOPE FOR JOYA
p4003
sg18
V3x731
p4004
sg20
I93
sg21
I4
sg22
I84
sa(dp4005
g16
VCOASTAL PRINCE
p4006
sg18
V4261
p4007
sg20
I98
sg21
I5
sg22
I89
sa(dp4008
g16
VMISHANI ROMAN
p4009
sg18
V36x16
p4010
sg20
I86
sg21
I6
sg22
I69
sa(dp4011
g16
VRUMBERELLA
p4012
sg18
V222
p4013
sg20
I89
sg21
I7
sg22
I83
sa(dp4014
g16
VOUR TOP SHELF
p4015
sg18
V11327
p4016
sg20
I75
sg21
I8
sg22
I68
sa(dp4017
g16
VCEOL NA MARA
p4018
sg18
V03x12
p4019
sg20
I79
sg21
I9
sg22
I72
sa(dp4020
g16
VTOO HOT TO HOLD
p4021
sg18
V36621
p4022
sg20
I73
sg21
I10
sg22
I76
sa(dp4023
g16
VFOOZLE
p4024
sg18
V00
p4025
sg20
I72
sg21
I11
sg22
I65
sasg62
(lp4026
(lp4027
I1
aI5
aI7
aI6
aa(lp4028
I1
aI5
aI3
aI7
aa(lp4029
I4
aI1
aI3
aI5
aassVhttp://www.skyracing.com.au/index.php?component=racing&task=race&id=107652682&meetingid=104171825&Itemid=89
p4030
(dp4031
g3
(lp4032
(lp4033
I8
aI3
aI7
aI2
aa(lp4034
I2
aI3
aI5
aI1
aa(lp4035
I2
aI3
aI7
aI6
aa(lp4036
I2
aI1
aI3
aI4
aa(lp4037
I2
aI3
aI8
aI6
aa(lp4038
I3
aI8
aI2
aI7
aa(lp4039
I8
aI3
aI7
aI1
aa(lp4040
I2
aI3
aI8
aI7
aasg13
(lp4041
(dp4042
g16
VSCALES OF JUSTICE
p4043
sg18
V2730x
p4044
sg20
I86
sg21
I1
sg22
I80
sa(dp4045
g16
VGREAT SHOT
p4046
sg18
V22x23
p4047
sg20
I82
sg21
I2
sg22
I84
sa(dp4048
g16
VMAN BOOKER
p4049
sg18
V9x211
p4050
sg20
I98
sg21
I3
sg22
I96
sa(dp4051
g16
VSTAR EXHIBIT
p4052
sg18
V954x7
p4053
sg20
I74
sg21
I4
sg22
I71
sa(dp4054
g16
VGATTING
p4055
sg18
V4431x
p4056
sg20
I69
sg21
I5
sg22
I73
sa(dp4057
g16
VACHERNAR STAR
p4058
sg18
V70x13
p4059
sg20
I80
sg21
I6
sg22
I79
sa(dp4060
g16
VPERFECT JEWEL
p4061
sg18
V414x6
p4062
sg20
I93
sg21
I7
sg22
I89
sa(dp4063
g16
VENTICING STAR
p4064
sg18
V111x1
p4065
sg20
I100
sg21
I8
sg22
I100
sasg62
(lp4066
(lp4067
I8
aI6
aI3
aI2
aa(lp4068
I8
aI3
aI2
aI1
aassVhttp://www.skyracing.com.au/index.php?component=racing&task=race&id=107652605&meetingid=104171745&Itemid=89
p4069
(dp4070
g3
(lp4071
(lp4072
I1
aI4
aI12
aI13
aa(lp4073
I1
aI6
aI2
aI3
aa(lp4074
I1
aI2
aI3
aI4
aa(lp4075
I1
aI6
aI2
aI4
aa(lp4076
I10
aI1
aI3
aI9
aa(lp4077
I1
aI13
aI4
aI12
aa(lp4078
I1
aI4
aI7
aI13
aa(lp4079
I1
aI4
aI2
aI6
aasg13
(lp4080
(dp4081
g16
VSTANLEY
p4082
sg18
Vx1832
p4083
sg20
I99
sg21
I1
sg22
I100
sa(dp4084
g16
VCALYPSO BAY
p4085
sg18
V03424
p4086
sg20
I71
sg21
I2
sg22
I67
sa(dp4087
g16
VBACKHOUSE BILLY
p4088
sg18
V78536
p4089
sg20
I83
sg21
I3
sg22
I83
sa(dp4090
g16
VSTRAIGHT HOME
p4091
sg18
V2x162
p4092
sg20
I94
sg21
I4
sg22
I91
sa(dp4093
g16
VSO YOU WISH
p4094
sg18
V26131
p4095
sg20
I100
sg21
I5
sg22
I0
sa(dp4096
g16
VBENICO'S PRINCE
p4097
sg18
V04495
p4098
sg20
I66
sg21
I6
sg22
I66
sa(dp4099
g16
VALCAZAR
p4100
sg18
V72123
p4101
sg20
I86
sg21
I7
sg22
I76
sa(dp4102
g16
VLADY NO MORE
p4103
sg18
V39x71
p4104
sg20
I78
sg21
I8
sg22
I77
sa(dp4105
g16
VRUBY GURU
p4106
sg18
V75341
p4107
sg20
I73
sg21
I9
sg22
I71
sa(dp4108
g16
VIOWA
p4109
sg18
V85821
p4110
sg20
I77
sg21
I10
sg22
I74
sa(dp4111
g16
VQUEEN GORGO
p4112
sg18
V70x01
p4113
sg20
I68
sg21
I11
sg22
I0
sa(dp4114
g16
VSHE'S RELIABLE
p4115
sg18
V9x245
p4116
sg20
I90
sg21
I12
sg22
I88
sa(dp4117
g16
VIT AIN'T ALL HONEY
p4118
sg18
V0x412
p4119
sg20
I88
sg21
I13
sg22
I84
sasg62
(lp4120
(lp4121
I12
aI1
aI7
aI4
aa(lp4122
I12
aI1
aI4
aI13
aa(lp4123
I12
aI1
aI13
aI4
aassVhttp://www.skyracing.com.au/index.php?component=racing&task=race&id=107652529&meetingid=104171873&Itemid=89
p4124
(dp4125
g3
(lp4126
(lp4127
I2
aI1
aI6
aI7
aa(lp4128
I5
aI6
aI2
aI1
aa(lp4129
I6
aI2
aI1
aI5
aa(lp4130
I1
aI6
aI10
aI2
aa(lp4131
I2
aI6
aI1
aI10
aa(lp4132
I2
aI1
aI6
aI7
aa(lp4133
I2
aI1
aI6
aI7
aa(lp4134
I2
aI6
aI1
aI5
aasg13
(lp4135
(dp4136
g16
VMADURO
p4137
sg18
V46x22
p4138
sg20
I98
sg21
I1
sg22
I96
sa(dp4139
g16
VFABULOUS FLIGHT
p4140
sg18
V3x42
p4141
sg20
I100
sg21
I2
sg22
I100
sa(dp4142
g16
VSPANCILHILL
p4143
sg18
V0x28
p4144
sg20
I75
sg21
I3
sg22
I0
sa(dp4145
g16
VHINCHIN POWER
p4146
sg18
V4
p4147
sg20
I87
sg21
I4
sg22
I0
sa(dp4148
g16
VAMEN CORNER
p4149
sg18
V05399
p4150
sg20
I67
sg21
I5
sg22
I65
sa(dp4151
g16
VSAGUNTO
p4152
sg18
Vx4385
p4153
sg20
I95
sg21
I6
sg22
I95
sa(dp4154
g16
VAMANO
p4155
sg18
V37
p4156
sg20
I91
sg21
I7
sg22
I91
sa(dp4157
g16
VSHOW DOWN
p4158
sg18
V4
p4159
sg20
I73
sg21
I8
sg22
I74
sa(dp4160
g16
VLIVVY LASS
p4161
sg18
V4
p4162
sg20
I85
sg21
I9
sg22
I80
sa(dp4163
g16
VCHIQUITITA
p4164
sg18
V560x7
p4165
sg20
I78
sg21
I10
sg22
I79
sa(dp4166
g16
VFINE AND DANDEE
p4167
sg18
V4805x
p4168
sg20
I70
sg21
I11
sg22
I71
sa(dp4169
g16
VSODA
p4170
sg18
V440x0
p4171
sg20
I68
sg21
I12
sg22
I70
sa(dp4172
g16
VRED SENNA
p4173
sg18
V5x8
p4174
sg20
I80
sg21
I13
sg22
I85
sasg62
(lp4175
ssVhttp://www.skyracing.com.au/index.php?component=racing&task=race&id=107652564&meetingid=104171665&Itemid=89
p4176
(dp4177
g3
(lp4178
(lp4179
I3
aI8
aI7
aI5
aa(lp4180
I6
aI9
aI3
aI5
aa(lp4181
I9
aI5
aI12
aI13
aa(lp4182
I9
aI2
aI7
aI5
aa(lp4183
I5
aI13
aI12
aI8
aa(lp4184
I3
aI8
aI5
aI7
aa(lp4185
I3
aI7
aI5
aI8
aa(lp4186
I5
aI9
aI3
aI8
aasg13
(lp4187
(dp4188
g16
VREVENIRE
p4189
sg18
V32x22
p4190
sg20
I100
sg21
I1
sg22
I0
sa(dp4191
g16
VCHAUFFEUR
p4192
sg18
V7x00x
p4193
sg20
I79
sg21
I2
sg22
I86
sa(dp4194
g16
VBON AMIS
p4195
sg18
V2529x
p4196
sg20
I95
sg21
I3
sg22
I100
sa(dp4197
g16
VBEACON
p4198
sg18
V23x53
p4199
sg20
I90
sg21
I4
sg22
I0
sa(dp4200
g16
VI'VE GOTTA NEL
p4201
sg18
V34x21
p4202
sg20
I84
sg21
I5
sg22
I89
sa(dp4203
g16
VVIRGILIO
p4204
sg18
V4448x
p4205
sg20
I63
sg21
I6
sg22
I67
sa(dp4206
g16
VSIKHING GLORY
p4207
sg18
V2111x
p4208
sg20
I97
sg21
I7
sg22
I92
sa(dp4209
g16
VSEDITION
p4210
sg18
V215x2
p4211
sg20
I88
sg21
I8
sg22
I95
sa(dp4212
g16
VARGENT D'OR
p4213
sg18
V44776
p4214
sg20
I70
sg21
I9
sg22
I69
sa(dp4215
g16
VLEOGANG
p4216
sg18
V35x66
p4217
sg20
I80
sg21
I10
sg22
I77
sa(dp4218
g16
VROCKIN' RUGA
p4219
sg18
V4144x
p4220
sg20
I75
sg21
I11
sg22
I74
sa(dp4221
g16
VNICK ON THE RUN
p4222
sg18
V63623
p4223
sg20
I64
sg21
I12
sg22
I79
sa(dp4224
g16
VUNDER THE THUMB
p4225
sg18
V35723
p4226
sg20
I69
sg21
I13
sg22
I82
sa(dp4227
g16
VTHE LION
p4228
sg18
V20x61
p4229
sg20
I73
sg21
I14
sg22
I0
sasg62
(lp4230
(lp4231
I3
aI8
aI5
aI2
aa(lp4232
I3
aI11
aI8
aI9
aa(lp4233
I3
aI2
aI10
aI7
aa(lp4234
I10
aI8
aI3
aI11
aassVhttp://www.skyracing.com.au/index.php?component=racing&task=race&id=107652588&meetingid=104171729&Itemid=89
p4235
(dp4236
g3
(lp4237
(lp4238
I13
aI5
aI3
aI15
aa(lp4239
I5
aI3
aI4
aI6
aa(lp4240
I11
aI3
aI6
aI8
aa(lp4241
I16
aI4
aI8
aI6
aa(lp4242
I11
aI13
aI8
aI5
aa(lp4243
I13
aI5
aI3
aI8
aa(lp4244
I13
aI5
aI10
aI3
aa(lp4245
I5
aI13
aI3
aI11
aasg13
(lp4246
(dp4247
g16
VBRASADA
p4248
sg18
V2
p4249
sg20
I100
sg21
I1
sg22
I0
sa(dp4250
g16
VCARBONE
p4251
sg18
V44
p4252
sg20
I86
sg21
I2
sg22
I0
sa(dp4253
g16
VPHENOMENAL SPIRIT
p4254
sg18
Vx0763
p4255
sg20
I91
sg21
I3
sg22
I94
sa(dp4256
g16
VPOSTER MAN
p4257
sg18
V468x
p4258
sg20
I82
sg21
I4
sg22
I80
sa(dp4259
g16
VSOUTH BEND
p4260
sg18
V2265x
p4261
sg20
I94
sg21
I5
sg22
I99
sa(dp4262
g16
VSWANKY CAT
p4263
sg18
V89744
p4264
sg20
I79
sg21
I6
sg22
I78
sa(dp4265
g16
VTALK'EMAROUND
p4266
sg18
V923x3
p4267
sg20
I95
sg21
I7
sg22
I0
sa(dp4268
g16
VUNICC STAR
p4269
sg18
V73x79
p4270
sg20
I76
sg21
I8
sg22
I88
sa(dp4271
g16
VCASINO BEACH
p4272
sg18
g37
sg20
I68
sg21
I9
sg22
I0
sa(dp4273
g16
VSENSATIONAL EFFORT
p4274
sg18
g37
sg20
I89
sg21
I10
sg22
I0
sa(dp4275
g16
VOBELLA
p4276
sg18
V0x435
p4277
sg20
I73
sg21
I11
sg22
I86
sa(dp4278
g16
VSHE'S DEADLY
p4279
sg18
V0
p4280
sg20
I62
sg21
I12
sg22
I0
sa(dp4281
g16
VSOVEREIGN LOVE
p4282
sg18
V3x
p4283
sg20
I97
sg21
I13
sg22
I100
sa(dp4284
g16
VROMANI COUNTESS
p4285
sg18
g37
sg20
I71
sg21
I14
sg22
I0
sa(dp4286
g16
VQUEEN KHALEESI
p4287
sg18
V77x
p4288
sg20
I83
sg21
I15
sg22
I92
sa(dp4289
g16
VANGEL TOFF
p4290
sg18
V8854x
p4291
sg20
I65
sg21
I16
sg22
I71
sa(dp4292
g16
VDEMOLITION MAN
p4293
sg18
V6777x
p4294
sg20
I66
sg21
I17
sg22
I75
sa(dp4295
g16
VUP TO SOMETHING
p4296
sg18
V77
p4297
sg20
I61
sg21
I18
sg22
I0
sasg62
(lp4298
(lp4299
I13
aI4
aI10
aI5
aassVhttp://www.skyracing.com.au/index.php?component=racing&task=race&id=107652603&meetingid=104171745&Itemid=89
p4300
(dp4301
g3
(lp4302
(lp4303
I6
aI13
aI11
aI1
aa(lp4304
I6
aI13
aI11
aI1
aa(lp4305
I6
aI13
aI11
aI1
aa(lp4306
I6
aI13
aI11
aI1
aa(lp4307
I6
aI13
aI11
aI1
aa(lp4308
I6
aI13
aI11
aI1
aa(lp4309
I6
aI11
aI13
aI9
aa(lp4310
I6
aI13
aI11
aI5
aasg13
(lp4311
(dp4312
g16
VARJAYAR
p4313
sg18
g37
sg20
I70
sg21
I1
sg22
I0
sa(dp4314
g16
VBAY NOT GREY
p4315
sg18
g37
sg20
I68
sg21
I2
sg22
I0
sa(dp4316
g16
VCOULDN'T REFUSE
p4317
sg18
g37
sg20
I75
sg21
I3
sg22
I0
sa(dp4318
g16
VDESIGNATED
p4319
sg18
g37
sg20
I82
sg21
I4
sg22
I0
sa(dp4320
g16
VSOUTHERN SWING
p4321
sg18
g37
sg20
I67
sg21
I5
sg22
I0
sa(dp4322
g16
VBETAIMA
p4323
sg18
V41
p4324
sg20
I100
sg21
I6
sg22
I100
sa(dp4325
g16
VOKEECHOBEE
p4326
sg18
V3
p4327
sg20
I98
sg21
I7
sg22
I0
sa(dp4328
g16
VCHAMPAGNE JET
p4329
sg18
g37
sg20
I78
sg21
I8
sg22
I0
sa(dp4330
g16
VGOT NO DOUBT
p4331
sg18
g37
sg20
I89
sg21
I9
sg22
I0
sa(dp4332
g16
VLADY BRAHMOS
p4333
sg18
g37
sg20
I73
sg21
I10
sg22
I0
sa(dp4334
g16
VSO YOU BEAUTY
p4335
sg18
V2
p4336
sg20
I95
sg21
I11
sg22
I82
sa(dp4337
g16
VSTAGE PLAY
p4338
sg18
g37
sg20
I85
sg21
I12
sg22
I0
sa(dp4339
g16
VTARIRO
p4340
sg18
V2
p4341
sg20
I92
sg21
I13
sg22
I90
sasg62
(lp4342
(lp4343
I6
aI8
aI11
aI9
aa(lp4344
I6
aI12
aI4
aI9
aa(lp4345
I6
aI12
aI4
aI11
aassVhttp://www.skyracing.com.au/index.php?component=racing&task=race&id=107652563&meetingid=104171665&Itemid=89
p4346
(dp4347
g3
(lp4348
(lp4349
I4
aI1
aI3
aI6
aa(lp4350
I5
aI7
aI3
aI1
aa(lp4351
I7
aI3
aI4
aI9
aa(lp4352
I5
aI1
aI3
aI4
aa(lp4353
I4
aI9
aI3
aI5
aa(lp4354
I4
aI1
aI6
aI3
aa(lp4355
I1
aI4
aI3
aI5
aa(lp4356
I4
aI3
aI1
aI5
aasg13
(lp4357
(dp4358
g16
VGAULOIS
p4359
sg18
V1331x
p4360
sg20
I99
sg21
I1
sg22
I98
sa(dp4361
g16
VFORTENSKY
p4362
sg18
V44448
p4363
sg20
I77
sg21
I2
sg22
I0
sa(dp4364
g16
VTIP TOP
p4365
sg18
Vx4011
p4366
sg20
I86
sg21
I3
sg22
I89
sa(dp4367
g16
VCORUSCATE
p4368
sg18
Vx1171
p4369
sg20
I100
sg21
I4
sg22
I100
sa(dp4370
g16
VPELETHRONIUS
p4371
sg18
V970x5
p4372
sg20
I69
sg21
I5
sg22
I72
sa(dp4373
g16
VDYSLEXIC
p4374
sg18
V629x6
p4375
sg20
I84
sg21
I6
sg22
I84
sa(dp4376
g16
VPETROSSIAN
p4377
sg18
V75085
p4378
sg20
I63
sg21
I7
sg22
I68
sa(dp4379
g16
VBEACON
p4380
sg18
V23x53
p4381
sg20
I94
sg21
I8
sg22
I0
sa(dp4382
g16
VHELAROCITY
p4383
sg18
V02x63
p4384
sg20
I78
sg21
I9
sg22
I78
sa(dp4385
g16
VTHE PHAROAH
p4386
sg18
V48x68
p4387
sg20
I61
sg21
I10
sg22
I0
sasg62
(lp4388
(lp4389
I6
aI4
aI3
aI1
aa(lp4390
I3
aI4
aI6
aI1
aa(lp4391
I6
aI4
aI3
aI1
aa(lp4392
I6
aI3
aI4
aI1
aassVhttp://www.skyracing.com.au/index.php?component=racing&task=race&id=107652587&meetingid=104171729&Itemid=89
p4393
(dp4394
g3
(lp4395
(lp4396
I5
aI10
aI3
aI2
aa(lp4397
I2
aI3
aI10
aI16
aa(lp4398
I2
aI3
aI10
aI16
aa(lp4399
I5
aI2
aI3
aI10
aa(lp4400
I3
aI2
aI10
aI5
aa(lp4401
I5
aI3
aI2
aI10
aa(lp4402
I5
aI3
aI10
aI9
aa(lp4403
I3
aI2
aI5
aI10
aasg13
(lp4404
(dp4405
g16
VBETTER TOGETHER
p4406
sg18
g37
sg20
I77
sg21
I1
sg22
I0
sa(dp4407
g16
VCLARE DENISE
p4408
sg18
V902
p4409
sg20
I80
sg21
I2
sg22
I83
sa(dp4410
g16
VHAIRINI REWARD
p4411
sg18
V534x3
p4412
sg20
I93
sg21
I3
sg22
I88
sa(dp4413
g16
VMEAN TO ME
p4414
sg18
g37
sg20
I88
sg21
I4
sg22
I0
sa(dp4415
g16
VMISS STREET
p4416
sg18
V523x
p4417
sg20
I96
sg21
I5
sg22
I100
sa(dp4418
g16
VPOLYBOMB
p4419
sg18
g37
sg20
I73
sg21
I6
sg22
I0
sa(dp4420
g16
VREBOUND ROMANCE
p4421
sg18
g37
sg20
I79
sg21
I7
sg22
I0
sa(dp4422
g16
VBLOOMING LILY
p4423
sg18
V3
p4424
sg20
I86
sg21
I8
sg22
I0
sa(dp4425
g16
VBONITO
p4426
sg18
g37
sg20
I85
sg21
I9
sg22
I0
sa(dp4427
g16
VDENTARA
p4428
sg18
V7x3
p4429
sg20
I92
sg21
I10
sg22
I91
sa(dp4430
g16
VKOVELLO
p4431
sg18
V3
p4432
sg20
I97
sg21
I11
sg22
I0
sa(dp4433
g16
VTAHLAYLA
p4434
sg18
Vx2333
p4435
sg20
I100
sg21
I12
sg22
I0
sa(dp4436
g16
VAMAZING GRACE
p4437
sg18
V80x39
p4438
sg20
I70
sg21
I13
sg22
I0
sa(dp4439
g16
VSO WHAT ROCK
p4440
sg18
V0
p4441
sg20
I64
sg21
I14
sg22
I74
sa(dp4442
g16
VMALIBU STORM
p4443
sg18
V87x
p4444
sg20
I67
sg21
I15
sg22
I0
sa(dp4445
g16
VREINE RAPIDE
p4446
sg18
V877
p4447
sg20
I68
sg21
I16
sg22
I79
sasg62
(lp4448
(lp4449
I5
aI9
aI10
aI7
aassVhttp://www.skyracing.com.au/index.php?component=racing&task=race&id=107652651&meetingid=104171809&Itemid=89
p4450
(dp4451
g3
(lp4452
(lp4453
I1
aI3
aI2
aI4
aa(lp4454
I2
aI3
aI1
aI5
aa(lp4455
I1
aI5
aI3
aI4
aa(lp4456
I2
aI1
aI3
aI4
aa(lp4457
I3
aI1
aI2
aI4
aa(lp4458
I1
aI3
aI2
aI4
aa(lp4459
I3
aI1
aI4
aI2
aa(lp4460
I1
aI3
aI2
aI4
aasg13
(lp4461
(dp4462
g16
VZALMONA
p4463
sg18
V31416
p4464
sg20
I95
sg21
I1
sg22
I100
sa(dp4465
g16
VLORD TOPPER
p4466
sg18
V460x3
p4467
sg20
I93
sg21
I2
sg22
I94
sa(dp4468
g16
VEMBECEE LIL
p4469
sg18
V35958
p4470
sg20
I100
sg21
I3
sg22
I96
sa(dp4471
g16
VARROW LANE
p4472
sg18
Vx4623
p4473
sg20
I87
sg21
I4
sg22
I89
sa(dp4474
g16
VJUST A BIGGER DASH
p4475
sg18
V6x190
p4476
sg20
I84
sg21
I5
sg22
I80
sa(dp4477
g16
VTRUPT
p4478
sg18
Vx8809
p4479
sg20
I79
sg21
I6
sg22
I70
sa(dp4480
g16
VMYSTICANO
p4481
sg18
V51404
p4482
sg20
I69
sg21
I7
sg22
I81
sa(dp4483
g16
VBWUVA
p4484
sg18
V23464
p4485
sg20
I74
sg21
I8
sg22
I77
sasg62
(lp4486
(lp4487
I1
aI3
aI4
aI2
aa(lp4488
I2
aI1
aI4
aI3
aassVhttp://www.skyracing.com.au/index.php?component=racing&task=race&id=107652802&meetingid=104171777&Itemid=89
p4489
(dp4490
g3
(lp4491
(lp4492
I5
aI3
aI9
aI7
aa(lp4493
I5
aI7
aI9
aI12
aa(lp4494
I7
aI9
aI12
aI3
aa(lp4495
I5
aI9
aI7
aI12
aa(lp4496
I5
aI9
aI7
aI3
aa(lp4497
I5
aI3
aI9
aI12
aa(lp4498
I5
aI3
aI9
aI7
aa(lp4499
I5
aI9
aI7
aI3
aasg13
(lp4500
(dp4501
g16
VGETS SMOKIN'
p4502
sg18
g37
sg20
I73
sg21
I1
sg22
I0
sa(dp4503
g16
VI KNOW YVES
p4504
sg18
g37
sg20
I78
sg21
I2
sg22
I0
sa(dp4505
g16
VSWAGMAN
p4506
sg18
V7x2
p4507
sg20
I89
sg21
I3
sg22
I96
sa(dp4508
g16
VAIM TO WIN
p4509
sg18
V8x522
p4510
sg20
I100
sg21
I4
sg22
I0
sa(dp4511
g16
VTAPROCK
p4512
sg18
V2348x
p4513
sg20
I94
sg21
I5
sg22
I100
sa(dp4514
g16
VTHE RED CHIEF
p4515
sg18
V000x
p4516
sg20
I75
sg21
I6
sg22
I79
sa(dp4517
g16
VHOT CORONA
p4518
sg18
V45653
p4519
sg20
I84
sg21
I7
sg22
I88
sa(dp4520
g16
VCONFESSIONS
p4521
sg18
Vx6206
p4522
sg20
I98
sg21
I8
sg22
I0
sa(dp4523
g16
VCUPID'S AFFAIR
p4524
sg18
V35287
p4525
sg20
I90
sg21
I9
sg22
I92
sa(dp4526
g16
VSO HELP ME GOD
p4527
sg18
V8x0x9
p4528
sg20
I69
sg21
I10
sg22
I0
sa(dp4529
g16
VWEWANNAWINNA
p4530
sg18
V588x6
p4531
sg20
I71
sg21
I11
sg22
I73
sa(dp4532
g16
VLITTLE ALBERT
p4533
sg18
V75434
p4534
sg20
I81
sg21
I12
sg22
I84
sasg62
(lp4535
(lp4536
I12
aI5
aI9
aI7
aassVhttp://www.skyracing.com.au/index.php?component=racing&task=race&id=107652521&meetingid=104171857&Itemid=89
p4537
(dp4538
g3
(lp4539
(lp4540
I7
aI1
aI9
aI6
aa(lp4541
I7
aI1
aI2
aI11
aa(lp4542
I7
aI1
aI11
aI8
aa(lp4543
I1
aI7
aI4
aI11
aa(lp4544
I7
aI9
aI11
aI6
aa(lp4545
I1
aI7
aI9
aI6
aa(lp4546
I1
aI7
aI9
aI6
aa(lp4547
I7
aI1
aI9
aI11
aasg13
(lp4548
(dp4549
g16
VIRISH FLAME
p4550
sg18
Vx1202
p4551
sg20
I100
sg21
I1
sg22
I92
sa(dp4552
g16
VTAVIGARDE
p4553
sg18
V533x0
p4554
sg20
I63
sg21
I2
sg22
I64
sa(dp4555
g16
VTHOUGHT THAT
p4556
sg18
V4x462
p4557
sg20
I78
sg21
I3
sg22
I0
sa(dp4558
g16
VADMIRAL ROUS
p4559
sg18
Vx48x4
p4560
sg20
I69
sg21
I4
sg22
I62
sa(dp4561
g16
VHEE'S OUR SECRET
p4562
sg18
V5x035
p4563
sg20
I87
sg21
I5
sg22
I0
sa(dp4564
g16
VUNFAZED
p4565
sg18
V10x72
p4566
sg20
I82
sg21
I6
sg22
I74
sa(dp4567
g16
VSUMMER MONSOON
p4568
sg18
Vx1553
p4569
sg20
I97
sg21
I7
sg22
I100
sa(dp4570
g16
VSAVASON
p4571
sg18
V71654
p4572
sg20
I77
sg21
I8
sg22
I72
sa(dp4573
g16
VWORDOFMOUTH
p4574
sg18
V740x1
p4575
sg20
I90
sg21
I9
sg22
I85
sa(dp4576
g16
VBRUEGEL
p4577
sg18
V326x9
p4578
sg20
I57
sg21
I10
sg22
I57
sa(dp4579
g16
VCZARISTA
p4580
sg18
Vx3662
p4581
sg20
I66
sg21
I11
sg22
I70
sa(dp4582
g16
VPINSRAAD
p4583
sg18
Vx6020
p4584
sg20
I62
sg21
I12
sg22
I61
sa(dp4585
g16
VPINUP COUP
p4586
sg18
V54x03
p4587
sg20
I85
sg21
I13
sg22
I0
sa(dp4588
g16
VAKOYA PEARL
p4589
sg18
V15x91
p4590
sg20
I76
sg21
I14
sg22
I68
sa(dp4591
g16
VFLASH SUGGESTION
p4592
sg18
V66466
p4593
sg20
I51
sg21
I15
sg22
I54
sasg62
(lp4594
ssVhttp://www.skyracing.com.au/index.php?component=racing&task=race&id=107652649&meetingid=104171809&Itemid=89
p4595
(dp4596
g3
(lp4597
(lp4598
I8
aI7
aI12
aI2
aa(lp4599
I8
aI1
aI7
aI4
aa(lp4600
I8
aI7
aI4
aI1
aa(lp4601
I8
aI3
aI7
aI2
aa(lp4602
I8
aI7
aI10
aI5
aa(lp4603
I7
aI2
aI12
aI8
aa(lp4604
I8
aI7
aI12
aI1
aa(lp4605
I8
aI7
aI2
aI1
aasg13
(lp4606
(dp4607
g16
VBUSKER'S BALLAD
p4608
sg18
V538x4
p4609
sg20
I91
sg21
I1
sg22
I79
sa(dp4610
g16
VFOX BY ZERPRISE
p4611
sg18
V4430x
p4612
sg20
I79
sg21
I2
sg22
I88
sa(dp4613
g16
VJOHN'S LAST SONG
p4614
sg18
V554x8
p4615
sg20
I68
sg21
I3
sg22
I67
sa(dp4616
g16
VKARMIDALA
p4617
sg18
V55359
p4618
sg20
I84
sg21
I4
sg22
I85
sa(dp4619
g16
VSCOUT'S HONOUR
p4620
sg18
V66x6
p4621
sg20
I75
sg21
I5
sg22
I69
sa(dp4622
g16
VWOKIT
p4623
sg18
V53759
p4624
sg20
I73
sg21
I6
sg22
I0
sa(dp4625
g16
VIT'S MAGIC
p4626
sg18
V2635
p4627
sg20
I98
sg21
I7
sg22
I92
sa(dp4628
g16
VTONGSAI BOSS
p4629
sg18
V3x625
p4630
sg20
I100
sg21
I8
sg22
I100
sa(dp4631
g16
VVOSOTA
p4632
sg18
V00x6
p4633
sg20
I72
sg21
I9
sg22
I67
sa(dp4634
g16
VBIG TOP
p4635
sg18
V320x6
p4636
sg20
I89
sg21
I10
sg22
I82
sa(dp4637
g16
VLIBERTY LOVER
p4638
sg18
V5
p4639
sg20
I82
sg21
I11
sg22
I74
sa(dp4640
g16
VREBEL ROMANCE
p4641
sg18
V8
p4642
sg20
I93
sg21
I12
sg22
I90
sasg62
(lp4643
(lp4644
I7
aI8
aI1
aI12
aa(lp4645
I7
aI1
aI8
aI5
aassVhttp://www.skyracing.com.au/index.php?component=racing&task=race&id=107652580&meetingid=104171713&Itemid=89
p4646
(dp4647
g3
(lp4648
(lp4649
I11
aI9
aI2
aI6
aa(lp4650
I4
aI1
aI2
aI10
aa(lp4651
I4
aI1
aI2
aI6
aa(lp4652
I4
aI1
aI2
aI6
aa(lp4653
I9
aI6
aI4
aI12
aa(lp4654
I11
aI9
aI7
aI2
aa(lp4655
I9
aI4
aI2
aI11
aa(lp4656
I4
aI9
aI2
aI1
aasg13
(lp4657
(dp4658
g16
VSHERIFF JOHN STONE
p4659
sg18
V19015
p4660
sg20
I72
sg21
I1
sg22
I74
sa(dp4661
g16
VESPERANCE
p4662
sg18
V23114
p4663
sg20
I96
sg21
I2
sg22
I95
sa(dp4664
g16
VFAST CASH
p4665
sg18
V7508x
p4666
sg20
I62
sg21
I3
sg22
I0
sa(dp4667
g16
VREVENIRE
p4668
sg18
V32x22
p4669
sg20
I98
sg21
I4
sg22
I90
sa(dp4670
g16
VMR MONEY BAGS
p4671
sg18
V1514x
p4672
sg20
I82
sg21
I5
sg22
I81
sa(dp4673
g16
VSIRIUS SUSPECT
p4674
sg18
V02151
p4675
sg20
I93
sg21
I6
sg22
I94
sa(dp4676
g16
VLAGERFELD
p4677
sg18
V12211
p4678
sg20
I88
sg21
I7
sg22
I89
sa(dp4679
g16
VBEACON
p4680
sg18
V23x53
p4681
sg20
I84
sg21
I8
sg22
I79
sa(dp4682
g16
VEURACK
p4683
sg18
V11x1x
p4684
sg20
I100
sg21
I9
sg22
I99
sa(dp4685
g16
VASTRO CASTRO
p4686
sg18
V070x7
p4687
sg20
I52
sg21
I10
sg22
I53
sa(dp4688
g16
VORDER OF COMMAND
p4689
sg18
V1422x
p4690
sg20
I91
sg21
I11
sg22
I100
sa(dp4691
g16
VSISTER KITTY MAC
p4692
sg18
V75x81
p4693
sg20
I64
sg21
I12
sg22
I69
sa(dp4694
g16
VAS IT LIES
p4695
sg18
V102x1
p4696
sg20
I77
sg21
I13
sg22
I84
sa(dp4697
g16
VCAPTAIN'S SON
p4698
sg18
V6x619
p4699
sg20
I61
sg21
I14
sg22
I61
sa(dp4700
g16
VEL MAGNIFICENCE
p4701
sg18
V543x1
p4702
sg20
I68
sg21
I15
sg22
I76
sa(dp4703
g16
VDENNIS
p4704
sg18
V21321
p4705
sg20
I75
sg21
I16
sg22
I86
sa(dp4706
g16
VGIVE US A GO
p4707
sg18
Vx790x
p4708
sg20
I57
sg21
I17
sg22
I56
sa(dp4709
g16
VI DID IT AGAIN
p4710
sg18
V42832
p4711
sg20
I78
sg21
I18
sg22
I0
sa(dp4712
g16
VOCEAN DEEP
p4713
sg18
V1x05x
p4714
sg20
I86
sg21
I19
sg22
I0
sa(dp4715
g16
VMANIHI MISCHIEF
p4716
sg18
V70x12
p4717
sg20
I67
sg21
I20
sg22
I0
sasg62
(lp4718
(lp4719
I11
aI9
aI2
aI15
aa(lp4720
I13
aI11
aI2
aI7
aa(lp4721
I2
aI11
aI9
aI15
aassVhttp://www.skyracing.com.au/index.php?component=racing&task=race&id=107652678&meetingid=104171825&Itemid=89
p4722
(dp4723
g3
(lp4724
(lp4725
I2
aI1
aI3
aI4
aa(lp4726
I1
aI3
aI4
aI2
aa(lp4727
I2
aI9
aI7
aI1
aa(lp4728
I1
aI3
aI2
aI6
aa(lp4729
I2
aI7
aI9
aI4
aa(lp4730
I1
aI3
aI2
aI6
aa(lp4731
I2
aI4
aI1
aI9
aa(lp4732
I2
aI1
aI3
aI9
aasg13
(lp4733
(dp4734
g16
VHAPPY HARRY
p4735
sg18
Vx1130
p4736
sg20
I97
sg21
I1
sg22
I97
sa(dp4737
g16
VIN LOVE WITH PARIS
p4738
sg18
V132x2
p4739
sg20
I100
sg21
I2
sg22
I100
sa(dp4740
g16
VONE SHORT
p4741
sg18
V1826x
p4742
sg20
I88
sg21
I3
sg22
I93
sa(dp4743
g16
VSOVEREIGN TRADE
p4744
sg18
Vx114x
p4745
sg20
I94
sg21
I4
sg22
I92
sa(dp4746
g16
VTHUNDERSTRUT
p4747
sg18
V14610
p4748
sg20
I80
sg21
I5
sg22
I84
sa(dp4749
g16
VPEARL TRADE
p4750
sg18
V2444x
p4751
sg20
I78
sg21
I6
sg22
I87
sa(dp4752
g16
VREGAL MOON
p4753
sg18
Vx2173
p4754
sg20
I84
sg21
I7
sg22
I75
sa(dp4755
g16
VON THE TURPS
p4756
sg18
V88x89
p4757
sg20
I73
sg21
I8
sg22
I72
sa(dp4758
g16
VTHE NICCONIAN
p4759
sg18
V21234
p4760
sg20
I91
sg21
I9
sg22
I79
sa(dp4761
g16
VLUCKY ROAR
p4762
sg18
Vx866x
p4763
sg20
I76
sg21
I10
sg22
I83
sa(dp4764
g16
VSLIK SAM
p4765
sg18
V49743
p4766
sg20
I72
sg21
I11
sg22
I74
sa(dp4767
g16
VSTABLE SECRET
p4768
sg18
Vx9360
p4769
sg20
I70
sg21
I12
sg22
I69
sasg62
(lp4770
(lp4771
I2
aI9
aI7
aI4
aa(lp4772
I3
aI7
aI2
aI6
aassVhttp://www.skyracing.com.au/index.php?component=racing&task=race&id=107652528&meetingid=104171873&Itemid=89
p4773
(dp4774
g3
(lp4775
(lp4776
I4
aI7
aI8
aI1
aa(lp4777
I1
aI2
aI9
aI7
aa(lp4778
I1
aI2
aI7
aI5
aa(lp4779
I1
aI4
aI7
aI2
aa(lp4780
I7
aI1
aI8
aI4
aa(lp4781
I8
aI7
aI4
aI1
aa(lp4782
I4
aI8
aI7
aI1
aa(lp4783
I1
aI7
aI4
aI8
aasg13
(lp4784
(dp4785
g16
VSAVAPAK
p4786
sg18
V9x303
p4787
sg20
I85
sg21
I1
sg22
I88
sa(dp4788
g16
VREPO SUN
p4789
sg18
V72464
p4790
sg20
I79
sg21
I2
sg22
I79
sa(dp4791
g16
VGOLD SPICE
p4792
sg18
V9x608
p4793
sg20
I83
sg21
I3
sg22
I0
sa(dp4794
g16
VSTEVEN JAMES
p4795
sg18
Vx5x11
p4796
sg20
I100
sg21
I4
sg22
I100
sa(dp4797
g16
VRENE
p4798
sg18
V43014
p4799
sg20
I74
sg21
I5
sg22
I77
sa(dp4800
g16
VLADY SHABEEL
p4801
sg18
Vx1008
p4802
sg20
I71
sg21
I6
sg22
I66
sa(dp4803
g16
VJOE'S LEGACY
p4804
sg18
Vx2236
p4805
sg20
I92
sg21
I7
sg22
I95
sa(dp4806
g16
VKATIE PERRIE
p4807
sg18
V4x911
p4808
sg20
I97
sg21
I8
sg22
I91
sa(dp4809
g16
VMODEL AYE
p4810
sg18
V0x888
p4811
sg20
I68
sg21
I9
sg22
I72
sasg62
(lp4812
ssVhttp://www.skyracing.com.au/index.php?component=racing&task=race&id=107652635&meetingid=104171761&Itemid=89
p4813
(dp4814
g3
(lp4815
(lp4816
I2
aI1
aI3
aI4
aa(lp4817
I1
aI2
aI3
aI4
aa(lp4818
I2
aI1
aI4
aI7
aa(lp4819
I1
aI2
aI4
aI7
aa(lp4820
I7
aI4
aI2
aI3
aa(lp4821
I2
aI1
aI4
aI3
aa(lp4822
I2
aI3
aI1
aI7
aa(lp4823
I2
aI1
aI4
aI7
aasg13
(lp4824
(dp4825
g16
VTAIKO BOOM
p4826
sg18
V315x1
p4827
sg20
I93
sg21
I1
sg22
I96
sa(dp4828
g16
VZOFF 'N' OFF
p4829
sg18
V01611
p4830
sg20
I98
sg21
I2
sg22
I100
sa(dp4831
g16
VNOBLE BILLY
p4832
sg18
V1125x
p4833
sg20
I100
sg21
I3
sg22
I93
sa(dp4834
g16
VALL PLUCK
p4835
sg18
V4x846
p4836
sg20
I82
sg21
I4
sg22
I87
sa(dp4837
g16
VDAM WONDERFUL
p4838
sg18
V2x977
p4839
sg20
I76
sg21
I5
sg22
I0
sa(dp4840
g16
VSPANKS
p4841
sg18
V017x0
p4842
sg20
I85
sg21
I6
sg22
I80
sa(dp4843
g16
VSEND US A SIGN
p4844
sg18
V83641
p4845
sg20
I79
sg21
I7
sg22
I81
sa(dp4846
g16
VSAIL THE STARS
p4847
sg18
V1624x
p4848
sg20
I70
sg21
I8
sg22
I71
sasg62
(lp4849
(lp4850
I1
aI2
aI7
aI3
aassVhttp://www.skyracing.com.au/index.php?component=racing&task=race&id=107652572&meetingid=104171713&Itemid=89
p4851
(dp4852
g3
(lp4853
(lp4854
I2
aI1
aI3
aI6
aa(lp4855
I3
aI2
aI4
aI6
aa(lp4856
I3
aI2
aI6
aI1
aa(lp4857
I2
aI1
aI3
aI6
aa(lp4858
I3
aI2
aI6
aI5
aa(lp4859
I3
aI2
aI1
aI6
aa(lp4860
I3
aI2
aI6
aI4
aa(lp4861
I2
aI3
aI1
aI6
aasg13
(lp4862
(dp4863
g16
VLOYALTY MAN
p4864
sg18
V56x56
p4865
sg20
I81
sg21
I1
sg22
I99
sa(dp4866
g16
VAL PASSEM
p4867
sg18
V13303
p4868
sg20
I95
sg21
I2
sg22
I100
sa(dp4869
g16
VMANUEL
p4870
sg18
Vx3612
p4871
sg20
I100
sg21
I3
sg22
I90
sa(dp4872
g16
VONCIDIUM RULER
p4873
sg18
Vx348x
p4874
sg20
I77
sg21
I4
sg22
I75
sa(dp4875
g16
VBALCAZAR
p4876
sg18
V31x00
p4877
sg20
I78
sg21
I5
sg22
I78
sa(dp4878
g16
VCALL IT A DAY
p4879
sg18
V11272
p4880
sg20
I93
sg21
I6
sg22
I85
sa(dp4881
g16
VESHTIRAAK
p4882
sg18
V9x321
p4883
sg20
I88
sg21
I7
sg22
I0
sa(dp4884
g16
VBIANAJEUNEY
p4885
sg18
V22x69
p4886
sg20
I70
sg21
I8
sg22
I0
sasg62
(lp4887
(lp4888
I7
aI3
aI2
aI1
aa(lp4889
I2
aI1
aI7
aI3
aa(lp4890
I7
aI2
aI3
aI6
aassVhttp://www.skyracing.com.au/index.php?component=racing&task=race&id=107652577&meetingid=104171713&Itemid=89
p4891
(dp4892
g3
(lp4893
(lp4894
I12
aI14
aI1
aI13
aa(lp4895
I2
aI6
aI5
aI9
aa(lp4896
I2
aI6
aI1
aI3
aa(lp4897
I2
aI6
aI9
aI3
aa(lp4898
I9
aI12
aI10
aI6
aa(lp4899
I14
aI12
aI1
aI13
aa(lp4900
I12
aI14
aI13
aI7
aa(lp4901
I2
aI6
aI12
aI9
aasg13
(lp4902
(dp4903
g16
VALOISIA
p4904
sg18
V8x830
p4905
sg20
I78
sg21
I1
sg22
I92
sa(dp4906
g16
VSAVVY COUP
p4907
sg18
Vx5217
p4908
sg20
I94
sg21
I2
sg22
I86
sa(dp4909
g16
VLUVALUVA
p4910
sg18
Vx4850
p4911
sg20
I70
sg21
I3
sg22
I65
sa(dp4912
g16
VQUILATE
p4913
sg18
V0x709
p4914
sg20
I63
sg21
I4
sg22
I59
sa(dp4915
g16
VWHEAL LEISURE
p4916
sg18
Vx4060
p4917
sg20
I60
sg21
I5
sg22
I61
sa(dp4918
g16
VECKSTEIN
p4919
sg18
V95139
p4920
sg20
I76
sg21
I6
sg22
I81
sa(dp4921
g16
VKENEDNA
p4922
sg18
Vx0420
p4923
sg20
I85
sg21
I7
sg22
I83
sa(dp4924
g16
VSHEEZDASHING
p4925
sg18
V3x365
p4926
sg20
I83
sg21
I8
sg22
I70
sa(dp4927
g16
VNETTOYER
p4928
sg18
V39001
p4929
sg20
I70
sg21
I9
sg22
I74
sa(dp4930
g16
VALL TOO SOON
p4931
sg18
V18562
p4932
sg20
I73
sg21
I10
sg22
I77
sa(dp4933
g16
VTEMPLE OF BEL
p4934
sg18
V2x647
p4935
sg20
I90
sg21
I11
sg22
I70
sa(dp4936
g16
VAQUA D'IVINA
p4937
sg18
V1x211
p4938
sg20
I96
sg21
I12
sg22
I100
sa(dp4939
g16
VMISS SISKA
p4940
sg18
V21053
p4941
sg20
I88
sg21
I13
sg22
I89
sa(dp4942
g16
VOUR LIBRETTO
p4943
sg18
Vx1111
p4944
sg20
I100
sg21
I14
sg22
I96
sa(dp4945
g16
VSILENT ROAR
p4946
sg18
V0x215
p4947
sg20
I66
sg21
I15
sg22
I72
sasg62
(lp4948
(lp4949
I11
aI14
aI8
aI1
aa(lp4950
I14
aI8
aI11
aI9
aa(lp4951
I8
aI11
aI13
aI1
aassVhttp://www.skyracing.com.au/index.php?component=racing&task=race&id=107652589&meetingid=104171729&Itemid=89
p4952
(dp4953
g3
(lp4954
(lp4955
I3
aI5
aI2
aI1
aa(lp4956
I1
aI2
aI3
aI5
aa(lp4957
I3
aI1
aI5
aI2
aa(lp4958
I1
aI3
aI2
aI5
aa(lp4959
I3
aI1
aI5
aI2
aa(lp4960
I3
aI5
aI2
aI1
aa(lp4961
I3
aI5
aI2
aI1
aa(lp4962
I3
aI1
aI5
aI2
aasg13
(lp4963
(dp4964
g16
VHELLAVA BABE
p4965
sg18
V19375
p4966
sg20
I85
sg21
I1
sg22
I84
sa(dp4967
g16
VRONDALAGO
p4968
sg18
V3119x
p4969
sg20
I83
sg21
I2
sg22
I89
sa(dp4970
g16
VTARDIS
p4971
sg18
Vx4023
p4972
sg20
I100
sg21
I3
sg22
I100
sa(dp4973
g16
VRUBY SEA
p4974
sg18
V4200x
p4975
sg20
I93
sg21
I4
sg22
I0
sa(dp4976
g16
VGETTIN' THERE
p4977
sg18
V341
p4978
sg20
I95
sg21
I5
sg22
I90
sasg62
(lp4979
(lp4980
I1
aI3
aI5
aI2
aassVhttp://www.skyracing.com.au/index.php?component=racing&task=race&id=107652638&meetingid=104171761&Itemid=89
p4981
(dp4982
g3
(lp4983
(lp4984
I4
aI13
aI8
aI9
aa(lp4985
I9
aI13
aI4
aI2
aa(lp4986
I13
aI4
aI2
aI10
aa(lp4987
I9
aI4
aI13
aI2
aa(lp4988
I13
aI8
aI9
aI4
aa(lp4989
I4
aI13
aI8
aI9
aa(lp4990
I4
aI13
aI8
aI7
aa(lp4991
I13
aI4
aI9
aI8
aasg13
(lp4992
(dp4993
g16
VCOLD POWER
p4994
sg18
g37
sg20
I75
sg21
I1
sg22
I0
sa(dp4995
g16
VLISTEN MATE
p4996
sg18
V7
p4997
sg20
I83
sg21
I2
sg22
I85
sa(dp4998
g16
VRICHEST
p4999
sg18
V0x
p5000
sg20
I70
sg21
I3
sg22
I75
sa(dp5001
g16
VSECRET SPIRIT
p5002
sg18
V744x3
p5003
sg20
I100
sg21
I4
sg22
I100
sa(dp5004
g16
VCLOCHE
p5005
sg18
g37
sg20
I69
sg21
I5
sg22
I0
sa(dp5006
g16
VL'AMOUR TRIOMPHE
p5007
sg18
V8
p5008
sg20
I74
sg21
I6
sg22
I0
sa(dp5009
g16
VSTARLIGHTER
p5010
sg18
g37
sg20
I87
sg21
I7
sg22
I0
sa(dp5011
g16
VVICTORY LINER
p5012
sg18
V28x4
p5013
sg20
I90
sg21
I8
sg22
I91
sa(dp5014
g16
VDREAM SERENADE
p5015
sg18
V540x
p5016
sg20
I86
sg21
I9
sg22
I87
sa(dp5017
g16
VMISS SIZZ
p5018
sg18
V8
p5019
sg20
I65
sg21
I10
sg22
I74
sa(dp5020
g16
VOURLASTPENNY
p5021
sg18
V9
p5022
sg20
I62
sg21
I11
sg22
I0
sa(dp5023
g16
VSHE ZA BOSS
p5024
sg18
V7023
p5025
sg20
I96
sg21
I12
sg22
I0
sa(dp5026
g16
VSOWHAT IMAROCKSTAR
p5027
sg18
V34x34
p5028
sg20
I95
sg21
I13
sg22
I95
sa(dp5029
g16
VALTO HARMONY
p5030
sg18
V8883
p5031
sg20
I79
sg21
I14
sg22
I83
sasg62
(lp5032
(lp5033
I4
aI2
aI9
aI1
aassVhttp://www.skyracing.com.au/index.php?component=racing&task=race&id=107652513&meetingid=104171857&Itemid=89
p5034
(dp5035
g3
(lp5036
(lp5037
I6
aI10
aI4
aI1
aa(lp5038
I1
aI3
aI4
aI5
aa(lp5039
I6
aI4
aI3
aI10
aa(lp5040
I6
aI4
aI1
aI2
aa(lp5041
I6
aI4
aI10
aI5
aa(lp5042
I10
aI6
aI4
aI1
aa(lp5043
I6
aI4
aI10
aI1
aa(lp5044
I6
aI4
aI10
aI1
aasg13
(lp5045
(dp5046
g16
VDUFFERS CREEK
p5047
sg18
V13560
p5048
sg20
I84
sg21
I1
sg22
I78
sa(dp5049
g16
VSOUTHERN SAV
p5050
sg18
V6x988
p5051
sg20
I66
sg21
I2
sg22
I75
sa(dp5052
g16
VLOCHAN ORA
p5053
sg18
V00048
p5054
sg20
I63
sg21
I3
sg22
I68
sa(dp5055
g16
VBLUE LAGOON
p5056
sg18
V51730
p5057
sg20
I94
sg21
I4
sg22
I81
sa(dp5058
g16
VLOCALLY SAUCED
p5059
sg18
V87865
p5060
sg20
I72
sg21
I5
sg22
I61
sa(dp5061
g16
VWIDE AWAKE
p5062
sg18
V9x441
p5063
sg20
I99
sg21
I6
sg22
I100
sa(dp5064
g16
VRICHARD OF YORKE
p5065
sg18
V4x530
p5066
sg20
I100
sg21
I7
sg22
I0
sa(dp5067
g16
VLONGFORD
p5068
sg18
Vx4072
p5069
sg20
I77
sg21
I8
sg22
I0
sa(dp5070
g16
VSHEZATOUCHA
p5071
sg18
V470x3
p5072
sg20
I80
sg21
I9
sg22
I72
sa(dp5073
g16
VSMILING ASSASSIN
p5074
sg18
V73326
p5075
sg20
I87
sg21
I10
sg22
I92
sasg62
(lp5076
ssVhttp://www.skyracing.com.au/index.php?component=racing&task=race&id=107652606&meetingid=104171745&Itemid=89
p5077
(dp5078
g3
(lp5079
(lp5080
I7
aI16
aI11
aI5
aa(lp5081
I7
aI3
aI6
aI10
aa(lp5082
I7
aI10
aI5
aI1
aa(lp5083
I7
aI10
aI11
aI5
aa(lp5084
I11
aI7
aI10
aI6
aa(lp5085
I11
aI7
aI16
aI5
aa(lp5086
I7
aI11
aI8
aI5
aa(lp5087
I7
aI11
aI10
aI5
aasg13
(lp5088
(dp5089
g16
VANOTHER SLIPPER
p5090
sg18
V4x125
p5091
sg20
I75
sg21
I1
sg22
I83
sa(dp5092
g16
VDREAM MASTER
p5093
sg18
V247x0
p5094
sg20
I78
sg21
I2
sg22
I77
sa(dp5095
g16
VMISTOFFELEES
p5096
sg18
V366x9
p5097
sg20
I61
sg21
I3
sg22
I59
sa(dp5098
g16
VVIENNA POWER
p5099
sg18
V51x15
p5100
sg20
I95
sg21
I4
sg22
I0
sa(dp5101
g16
VVOULAIT
p5102
sg18
V076x1
p5103
sg20
I88
sg21
I5
sg22
I92
sa(dp5104
g16
VAJANI
p5105
sg18
Vx276x
p5106
sg20
I72
sg21
I6
sg22
I75
sa(dp5107
g16
VAWESOME PLUCK
p5108
sg18
V412x3
p5109
sg20
I100
sg21
I7
sg22
I100
sa(dp5110
g16
VCHAPTER AND VERSE
p5111
sg18
V1222x
p5112
sg20
I90
sg21
I8
sg22
I91
sa(dp5113
g16
VEIGHT OVER
p5114
sg18
V3x112
p5115
sg20
I84
sg21
I9
sg22
I88
sa(dp5116
g16
VGOOD TIME CHARLIE
p5117
sg18
Vx2336
p5118
sg20
I77
sg21
I10
sg22
I72
sa(dp5119
g16
VBASARA
p5120
sg18
V2325x
p5121
sg20
I99
sg21
I11
sg22
I95
sa(dp5122
g16
VJUSTIFY
p5123
sg18
V4x429
p5124
sg20
I69
sg21
I12
sg22
I0
sa(dp5125
g16
VSUPERSONIC BOOM
p5126
sg18
V110x5
p5127
sg20
I87
sg21
I13
sg22
I69
sa(dp5128
g16
VTREVELLO
p5129
sg18
V40x1
p5130
sg20
I82
sg21
I14
sg22
I0
sa(dp5131
g16
VELLA DIVINE
p5132
sg18
V1440x
p5133
sg20
I66
sg21
I15
sg22
I0
sa(dp5134
g16
VSEENTOOMANY
p5135
sg18
V87x1
p5136
sg20
I93
sg21
I16
sg22
I97
sa(dp5137
g16
VMAKE HER OWN WHEY
p5138
sg18
V9379x
p5139
sg20
I63
sg21
I17
sg22
I63
sa(dp5140
g16
VEXCEEDINGLY KOOL
p5141
sg18
Vx8223
p5142
sg20
I64
sg21
I18
sg22
I67
sasg62
(lp5143
(lp5144
I7
aI16
aI11
aI2
aa(lp5145
I16
aI7
aI8
aI5
aa(lp5146
I11
aI7
aI8
aI2
aass.