(dp0
I1544102400
(dp1
S'skyracing_url'
p2
Vhttp://www.skyracing.com.au/index.php?component=racing&task=race&id=108538432&meetingid=107746539&Itemid=89
p3
sS'betfair_raceid'
p4
V29038327.1320
p5
sS'dat2'
p6
(dp7
S'ratings_auto'
p8
(lp9
(lp10
I4
aI5
aI6
aI8
aa(lp11
I3
aI1
aI2
aI5
aa(lp12
I3
aI9
aI7
aI8
aa(lp13
I3
aI2
aI9
aI8
aa(lp14
I3
aI2
aI9
aI7
aa(lp15
I4
aI5
aI6
aI3
aa(lp16
I4
aI2
aI5
aI6
aa(lp17
I3
aI4
aI2
aI5
aasS'horse_details'
p18
(lp19
(dp20
S'horse_name'
p21
VSHOWEM SILVER
p22
sS'horse_form'
p23
V00087
p24
sS'rating_2'
p25
I69
sS'horse_number'
p26
I1
sS'rating_1'
p27
I70
sa(dp28
g21
VROYAL ACT
p29
sg23
V110x0
p30
sg25
I91
sg26
I2
sg27
I76
sa(dp31
g21
VFOUNDATION MAN
p32
sg23
V97488
p33
sg25
I79
sg26
I3
sg27
I84
sa(dp34
g21
VQUANTUM OF SOLACE
p35
sg23
V014x4
p36
sg25
I100
sg26
I4
sg27
I100
sa(dp37
g21
VHELIUM
p38
sg23
V5x73x
p39
sg25
I96
sg26
I5
sg27
I97
sa(dp40
g21
VHOPE FOR GLORY
p41
sg23
V5x1x7
p42
sg25
I85
sg26
I6
sg27
I92
sa(dp43
g21
VL'ES FREMANTLE
p44
sg23
V48014
p45
sg25
I66
sg26
I7
sg27
I66
sa(dp46
g21
VGIN COBBLER
p47
sg23
V53x64
p48
sg25
I82
sg26
I8
sg27
I86
sa(dp49
g21
VDUHALLOWCOUNTRY
p50
sg23
V46x42
p51
sg25
I77
sg26
I9
sg27
I78
sasS'ratings_manual'
p52
(lp53
sssI1544097900
(dp54
g2
Vhttp://www.skyracing.com.au/index.php?component=racing&task=race&id=108538400&meetingid=107753133&Itemid=89
p55
sg4
V29038293.1205
p56
sg6
(dp57
g8
(lp58
(lp59
I6
aI4
aI2
aI11
aa(lp60
I7
aI6
aI4
aI10
aa(lp61
I13
aI5
aI11
aI4
aa(lp62
I7
aI4
aI8
aI6
aa(lp63
I7
aI2
aI6
aI1
aa(lp64
I6
aI4
aI2
aI11
aa(lp65
I4
aI6
aI2
aI11
aa(lp66
I6
aI4
aI7
aI2
aasg18
(lp67
(dp68
g21
VDIX DE DER
p69
sg23
Vx1x00
p70
sg25
I85
sg26
I1
sg27
I70
sa(dp71
g21
VGETADAY
p72
sg23
V4x0x5
p73
sg25
I93
sg26
I2
sg27
I95
sa(dp74
g21
VGOLAN CLOUD
p75
sg23
V509x
p76
sg25
I70
sg26
I3
sg27
I73
sa(dp77
g21
VMAKKA PAKKA
p78
sg23
Vx99x5
p79
sg25
I99
sg26
I4
sg27
I99
sa(dp80
g21
VPOPCORN SUTTON
p81
sg23
V80x45
p82
sg25
I73
sg26
I5
sg27
I76
sa(dp83
g21
VSMOKING GUN
p84
sg23
V449x
p85
sg25
I100
sg26
I6
sg27
I100
sa(dp86
g21
VWATCHING BRIEF
p87
sg23
V4750x
p88
sg25
I75
sg26
I7
sg27
I78
sa(dp89
g21
VA DOS NO BUENO
p90
sg23
V00x4
p91
sg25
I88
sg26
I8
sg27
I89
sa(dp92
g21
VLESSSAIDTHEBETTER
p93
sg23
V490x8
p94
sg25
I71
sg26
I9
sg27
I71
sa(dp95
g21
VDYNAMIC ALLEN
p96
sg23
V5408x
p97
sg25
I78
sg26
I10
sg27
I81
sa(dp98
g21
VKISS ME KAYF
p99
sg23
V6x90
p100
sg25
I90
sg26
I11
sg27
I91
sa(dp101
g21
VBRAZEN BAY
p102
sg23
V7x89
p103
sg25
I64
sg26
I12
sg27
I66
sa(dp104
g21
VLONGTIMESINCEJASPR
p105
sg23
V05076
p106
sg25
I82
sg26
I13
sg27
I85
sasg52
(lp107
sssI1544105100
(dp108
g2
Vhttp://www.skyracing.com.au/index.php?component=racing&task=race&id=108538448&meetingid=107746555&Itemid=89
p109
sg4
V29038328.1405
p110
sg6
(dp111
g8
(lp112
(lp113
I8
aI7
aI4
aI11
aa(lp114
I5
aI1
aI6
aI4
aa(lp115
I6
aI2
aI4
aI8
aa(lp116
I6
aI12
aI5
aI1
aa(lp117
I8
aI12
aI6
aI4
aa(lp118
I11
aI8
aI7
aI4
aa(lp119
I1
aI8
aI2
aI4
aa(lp120
I8
aI6
aI4
aI12
aasg18
(lp121
(dp122
g21
VLORD NAPIER
p123
sg23
V1616x
p124
sg25
I89
sg26
I1
sg27
I82
sa(dp125
g21
VARTHINGTON
p126
sg23
V03x50
p127
sg25
I94
sg26
I2
sg27
I76
sa(dp128
g21
VDINO VELVET
p129
sg23
Vx194x
p130
sg25
I78
sg26
I3
sg27
I80
sa(dp131
g21
VSNAPDRAGON FIRE
p132
sg23
V4x101
p133
sg25
I96
sg26
I4
sg27
I93
sa(dp134
g21
VMINELLAFORLEISURE
p135
sg23
V5x893
p136
sg25
I70
sg26
I5
sg27
I68
sa(dp137
g21
VOUR MERLIN
p138
sg23
V35x03
p139
sg25
I81
sg26
I6
sg27
I66
sa(dp140
g21
VJABOTICABA
p141
sg23
V635x2
p142
sg25
I91
sg26
I7
sg27
I96
sa(dp143
g21
VDARLING MALTAIX
p144
sg23
V23x42
p145
sg25
I100
sg26
I8
sg27
I100
sa(dp146
g21
VTHE PREMIER CELTIC
p147
sg23
V160x8
p148
sg25
I69
sg26
I9
sg27
I64
sa(dp149
g21
VSHILLINGSWORTH
p150
sg23
V7x30x
p151
sg25
I77
sg26
I10
sg27
I73
sa(dp152
g21
VBORAK
p153
sg23
V36x12
p154
sg25
I86
sg26
I11
sg27
I87
sa(dp155
g21
VUN BEAU ROMAN
p156
sg23
V84x3x
p157
sg25
I73
sg26
I12
sg27
I72
sasg52
(lp158
sssI1544106000
(dp159
g2
Vhttp://www.skyracing.com.au/index.php?component=racing&task=race&id=108538404&meetingid=107753133&Itemid=89
p160
sg4
V29038293.1420
p161
sg6
(dp162
g8
(lp163
(lp164
I9
aI15
aI1
aI11
aa(lp165
I9
aI18
aI5
aI2
aa(lp166
I9
aI18
aI2
aI11
aa(lp167
I9
aI1
aI2
aI18
aa(lp168
I9
aI18
aI15
aI3
aa(lp169
I15
aI9
aI1
aI11
aa(lp170
I15
aI1
aI13
aI9
aa(lp171
I9
aI18
aI15
aI1
aasg18
(lp172
(dp173
g21
VAHERLOW
p174
sg23
V2x51x
p175
sg25
I99
sg26
I1
sg27
I93
sa(dp176
g21
VBABY JAKE
p177
sg23
V0x405
p178
sg25
I75
sg26
I2
sg27
I73
sa(dp179
g21
VBITSANDPIECES
p180
sg23
V300x1
p181
sg25
I89
sg26
I3
sg27
I86
sa(dp182
g21
VCAPPACON
p183
sg23
V11233
p184
sg25
I86
sg26
I4
sg27
I89
sa(dp185
g21
VCHATEAUNEUF DU PAP
p186
sg23
V16x07
p187
sg25
I68
sg26
I5
sg27
I67
sa(dp188
g21
VDUNDEEDY LAD
p189
sg23
Vx0190
p190
sg25
I61
sg26
I6
sg27
I57
sa(dp191
g21
VLOUPGAROU
p192
sg23
V2058x
p193
sg25
I78
sg26
I7
sg27
I78
sa(dp194
g21
VMAEVE'S CHOICE
p195
sg23
V680x0
p196
sg25
I63
sg26
I8
sg27
I59
sa(dp197
g21
VMONATOMIC
p198
sg23
V41x62
p199
sg25
I96
sg26
I9
sg27
I100
sa(dp200
g21
VMUROOR
p201
sg23
V16516
p202
sg25
I67
sg26
I10
sg27
I62
sa(dp203
g21
VPOKER PARTY
p204
sg23
V0x560
p205
sg25
I90
sg26
I11
sg27
I91
sa(dp206
g21
VR'EVELYN PLEASURE
p207
sg23
V429x0
p208
sg25
I72
sg26
I12
sg27
I72
sa(dp209
g21
VTHE JAM MAN
p210
sg23
V21x67
p211
sg25
I94
sg26
I13
sg27
I84
sa(dp212
g21
VBIG ROBIN
p213
sg23
V4x0x0
p214
sg25
I85
sg26
I14
sg27
I64
sa(dp215
g21
VCASTAFIORE PARK
p216
sg23
V101x5
p217
sg25
I100
sg26
I15
sg27
I96
sa(dp218
g21
VBILLY'S ANGEL
p219
sg23
V02045
p220
sg25
I65
sg26
I16
sg27
I65
sa(dp221
g21
VONE FIRST CUT
p222
sg23
V4523x
p223
sg25
I82
sg26
I17
sg27
I80
sa(dp224
g21
VFRANKIEFIVEANGELS
p225
sg23
V56x43
p226
sg25
I76
sg26
I18
sg27
I75
sasg52
(lp227
sssI1544106900
(dp228
g2
Vhttp://www.skyracing.com.au/index.php?component=racing&task=race&id=108538449&meetingid=107746555&Itemid=89
p229
sg4
V29038328.1435
p230
sg6
(dp231
g8
(lp232
(lp233
I4
aI1
aI6
aI2
aa(lp234
I5
aI1
aI9
aI4
aa(lp235
I1
aI4
aI6
aI9
aa(lp236
I1
aI2
aI4
aI9
aa(lp237
I1
aI5
aI9
aI7
aa(lp238
I1
aI4
aI2
aI6
aa(lp239
I5
aI4
aI1
aI7
aa(lp240
I1
aI4
aI5
aI2
aasg18
(lp241
(dp242
g21
VBERMEO
p243
sg23
V31112
p244
sg25
I99
sg26
I1
sg27
I95
sa(dp245
g21
VTIKKAPICK
p246
sg23
V3294x
p247
sg25
I80
sg26
I2
sg27
I86
sa(dp248
g21
VLOUGH DERG MYSTERY
p249
sg23
V5x6x7
p250
sg25
I72
sg26
I3
sg27
I74
sa(dp251
g21
VKOVERA
p252
sg23
V55211
p253
sg25
I100
sg26
I4
sg27
I100
sa(dp254
g21
VGORING ONE
p255
sg23
V593x6
p256
sg25
I94
sg26
I5
sg27
I79
sa(dp257
g21
VLIZZIE LANGTON
p258
sg23
V070x3
p259
sg25
I86
sg26
I6
sg27
I93
sa(dp260
g21
VSHANANN STAR
p261
sg23
V3426x
p262
sg25
I83
sg26
I7
sg27
I82
sa(dp263
g21
VHOW'S VIENNA
p264
sg23
V316x0
p265
sg25
I74
sg26
I8
sg27
I66
sa(dp266
g21
VALANJOU
p267
sg23
V29488
p268
sg25
I68
sg26
I9
sg27
I69
sasg52
(lp269
sssI1544107800
(dp270
g2
Vhttp://www.skyracing.com.au/index.php?component=racing&task=race&id=108538405&meetingid=107753133&Itemid=89
p271
sg4
V29038293.1450
p272
sg6
(dp273
g8
(lp274
(lp275
I1
aI3
aI6
aI7
aa(lp276
I2
aI1
aI3
aI6
aa(lp277
I1
aI3
aI8
aI5
aa(lp278
I1
aI4
aI3
aI6
aa(lp279
I1
aI3
aI2
aI6
aa(lp280
I1
aI3
aI6
aI7
aa(lp281
I1
aI3
aI6
aI4
aa(lp282
I1
aI3
aI6
aI2
aasg18
(lp283
(dp284
g21
VPEACOCKS SECRET
p285
sg23
V30611
p286
sg25
I100
sg26
I1
sg27
I100
sa(dp287
g21
VCAPTURE THE DRAMA
p288
sg23
V06700
p289
sg25
I79
sg26
I2
sg27
I77
sa(dp290
g21
VLACKEN BRIDGE
p291
sg23
V815x1
p292
sg25
I95
sg26
I3
sg27
I96
sa(dp293
g21
VLETTERMACAWARD
p294
sg23
V0x95x
p295
sg25
I88
sg26
I4
sg27
I83
sa(dp296
g21
VMAIGHNEALTA
p297
sg23
V03060
p298
sg25
I74
sg26
I5
sg27
I80
sa(dp299
g21
VMILANESQUE
p300
sg23
V5727x
p301
sg25
I90
sg26
I6
sg27
I92
sa(dp302
g21
VBECTIVE CAVE
p303
sg23
V28005
p304
sg25
I81
sg26
I7
sg27
I89
sa(dp305
g21
VBURNING ISSUES
p306
sg23
V62789
p307
sg25
I71
sg26
I8
sg27
I69
sasg52
(lp308
sssI1544099100
(dp309
g2
Vhttp://www.skyracing.com.au/index.php?component=racing&task=race&id=108538445&meetingid=107746555&Itemid=89
p310
sg4
V29038328.1225
p311
sg6
(dp312
g8
(lp313
(lp314
I2
aI3
aI1
aI6
aa(lp315
I1
aI6
aI2
aI3
aa(lp316
I3
aI6
aI2
aI8
aa(lp317
I4
aI1
aI3
aI9
aa(lp318
I6
aI9
aI2
aI3
aa(lp319
I2
aI1
aI3
aI5
aa(lp320
I1
aI2
aI3
aI5
aa(lp321
I2
aI3
aI1
aI6
aasg18
(lp322
(dp323
g21
VMYPLACEATMIDNIGHT
p324
sg23
Vx323x
p325
sg25
I99
sg26
I1
sg27
I94
sa(dp326
g21
VRHYTHM IS A DANCER
p327
sg23
V41x21
p328
sg25
I100
sg26
I2
sg27
I100
sa(dp329
g21
VSTYLISH MOMENT
p330
sg23
Vx3x35
p331
sg25
I91
sg26
I3
sg27
I96
sa(dp332
g21
VGULSHANIGANS
p333
sg23
V2239x
p334
sg25
I79
sg26
I4
sg27
I74
sa(dp335
g21
VAPTLY PUT
p336
sg23
Vx635x
p337
sg25
I83
sg26
I5
sg27
I81
sa(dp338
g21
VTHE BROTHERS
p339
sg23
Vx4x04
p340
sg25
I85
sg26
I6
sg27
I88
sa(dp341
g21
VTHE MIGHTY ASH
p342
sg23
V3x2x0
p343
sg25
I72
sg26
I7
sg27
I68
sa(dp344
g21
VMIDNIGHT MIDGE
p345
sg23
V69x34
p346
sg25
I77
sg26
I8
sg27
I80
sa(dp347
g21
VCHLOE'S COURT
p348
sg23
V542x7
p349
sg25
I67
sg26
I9
sg27
I72
sasg52
(lp350
sssI1544109600
(dp351
g2
Vhttp://www.skyracing.com.au/index.php?component=racing&task=race&id=108538375&meetingid=107746523&Itemid=89
p352
sg4
V29038329.1520
p353
sg6
(dp354
g8
(lp355
(lp356
I4
aI6
aI2
aI7
aa(lp357
I2
aI6
aI10
aI7
aa(lp358
I6
aI1
aI8
aI2
aa(lp359
I2
aI6
aI3
aI8
aa(lp360
I6
aI2
aI4
aI7
aa(lp361
I6
aI4
aI2
aI1
aa(lp362
I2
aI4
aI6
aI1
aa(lp363
I6
aI2
aI4
aI1
aasg18
(lp364
(dp365
g21
VDYLIEV
p366
sg23
V53x84
p367
sg25
I87
sg26
I1
sg27
I82
sa(dp368
g21
VHOPE'S WISHES
p369
sg23
Vx4x26
p370
sg25
I100
sg26
I2
sg27
I90
sa(dp371
g21
VNO NO JOLIE
p372
sg23
Vx7x49
p373
sg25
I71
sg26
I3
sg27
I67
sa(dp374
g21
VCHILLI ROMANCE
p375
sg23
V8x433
p376
sg25
I96
sg26
I4
sg27
I100
sa(dp377
g21
VHOPONANDSEE
p378
sg23
V12387
p379
sg25
I79
sg26
I5
sg27
I77
sa(dp380
g21
VTOP ROCK TALULA
p381
sg23
V82x40
p382
sg25
I91
sg26
I6
sg27
I96
sa(dp383
g21
VCAMILE
p384
sg23
V42x0x
p385
sg25
I84
sg26
I7
sg27
I87
sa(dp386
g21
VREMEMBER NERJA
p387
sg23
V0x668
p388
sg25
I60
sg26
I8
sg27
I60
sa(dp389
g21
VRIGHT ROYALS DAY
p390
sg23
Vx9x34
p391
sg25
I68
sg26
I9
sg27
I64
sa(dp392
g21
VSHADOW'S GIRL
p393
sg23
V83515
p394
sg25
I73
sg26
I10
sg27
I74
sasg52
(lp395
sssI1544101800
(dp396
g2
Vhttp://www.skyracing.com.au/index.php?component=racing&task=race&id=108538371&meetingid=107746523&Itemid=89
p397
sg4
V29038329.1310
p398
sg6
(dp399
g8
(lp400
(lp401
I7
aI1
aI2
aI3
aa(lp402
I4
aI1
aI2
aI3
aa(lp403
I1
aI4
aI6
aI5
aa(lp404
I7
aI4
aI3
aI1
aa(lp405
I4
aI3
aI7
aI2
aa(lp406
I3
aI7
aI1
aI2
aa(lp407
I7
aI2
aI1
aI3
aa(lp408
I4
aI7
aI1
aI3
aasg18
(lp409
(dp410
g21
VKING'S SONG
p411
sg23
V14669
p412
sg25
I95
sg26
I1
sg27
I96
sa(dp413
g21
VNEVER EQUALLED
p414
sg23
V314x7
p415
sg25
I92
sg26
I2
sg27
I92
sa(dp416
g21
VREGULATION
p417
sg23
V4425x
p418
sg25
I89
sg26
I3
sg27
I76
sa(dp419
g21
VRIGHTDOWNTHEMIDDLE
p420
sg23
V87200
p421
sg25
I80
sg26
I4
sg27
I67
sa(dp422
g21
VSHADOW'S BOY
p423
sg23
V8x608
p424
sg25
I76
sg26
I5
sg27
I62
sa(dp425
g21
VELYSIAN PRINCE
p426
sg23
V36424
p427
sg25
I84
sg26
I6
sg27
I71
sa(dp428
g21
VOSCAR HOOF
p429
sg23
V20x2x
p430
sg25
I100
sg26
I7
sg27
I100
sasg52
(lp431
sssI1544103600
(dp432
g2
Vhttp://www.skyracing.com.au/index.php?component=racing&task=race&id=108538372&meetingid=107746523&Itemid=89
p433
sg4
V29038329.1340
p434
sg6
(dp435
g8
(lp436
(lp437
I7
aI5
aI1
aI3
aa(lp438
I1
aI3
aI5
aI6
aa(lp439
I1
aI4
aI5
aI6
aa(lp440
I1
aI5
aI2
aI7
aa(lp441
I1
aI5
aI6
aI2
aa(lp442
I1
aI7
aI5
aI3
aa(lp443
I7
aI5
aI6
aI1
aa(lp444
I1
aI5
aI7
aI3
aasg18
(lp445
(dp446
g21
VBALLYFARSOON
p447
sg23
Vx2202
p448
sg25
I89
sg26
I1
sg27
I93
sa(dp449
g21
VCHEZ HANS
p450
sg23
V7x5
p451
sg25
I78
sg26
I2
sg27
I83
sa(dp452
g21
VGENERAL ALLENBY
p453
sg23
V69x8x
p454
sg25
I81
sg26
I3
sg27
I84
sa(dp455
g21
VHERESTHETHING
p456
sg23
V9
p457
sg25
I75
sg26
I4
sg27
I72
sa(dp458
g21
VREVE
p459
sg23
V31x72
p460
sg25
I96
sg26
I5
sg27
I99
sa(dp461
g21
VTREASURE DILLON
p462
sg23
V1x84
p463
sg25
I91
sg26
I6
sg27
I79
sa(dp464
g21
VLOVEHERANDLEAVEHER
p465
sg23
Vx1x0x
p466
sg25
I100
sg26
I7
sg27
I100
sa(dp467
g21
VPOMME DE NUIT
p468
sg23
V8x0x8
p469
sg25
I72
sg26
I8
sg27
I71
sasg52
(lp470
sssI1544104500
(dp471
g2
Vhttp://www.skyracing.com.au/index.php?component=racing&task=race&id=108538433&meetingid=107746539&Itemid=89
p472
sg4
V29038327.1355
p473
sg6
(dp474
g8
(lp475
(lp476
I2
aI1
aI4
aI3
aa(lp477
I1
aI2
aI3
aI4
aa(lp478
I1
aI2
aI4
aI6
aa(lp479
I3
aI4
aI1
aI6
aa(lp480
I3
aI2
aI4
aI6
aa(lp481
I1
aI2
aI4
aI3
aa(lp482
I2
aI1
aI4
aI5
aa(lp483
I1
aI2
aI4
aI3
aasg18
(lp484
(dp485
g21
VPOOKIE PEKAN
p486
sg23
V16x71
p487
sg25
I100
sg26
I1
sg27
I95
sa(dp488
g21
VBLAKERIGG
p489
sg23
V270x1
p490
sg25
I99
sg26
I2
sg27
I100
sa(dp491
g21
VAPACHE PILOT
p492
sg23
V34x69
p493
sg25
I84
sg26
I3
sg27
I87
sa(dp494
g21
VMAHLERDRAMATIC
p495
sg23
V20x73
p496
sg25
I94
sg26
I4
sg27
I94
sa(dp497
g21
VHOUNDSCOURT
p498
sg23
V46x00
p499
sg25
I89
sg26
I5
sg27
I81
sa(dp500
g21
VACCESSALLAREAS
p501
sg23
V74x63
p502
sg25
I78
sg26
I6
sg27
I80
sasg52
(lp503
sssI1544106300
(dp504
g2
Vhttp://www.skyracing.com.au/index.php?component=racing&task=race&id=108538434&meetingid=107746539&Itemid=89
p505
sg4
V29038327.1425
p506
sg6
(dp507
g8
(lp508
(lp509
I4
aI5
aI2
aI3
aa(lp510
I1
aI4
aI5
aI2
aa(lp511
I4
aI1
aI5
aI3
aa(lp512
I4
aI1
aI5
aI3
aa(lp513
I4
aI5
aI2
aI1
aa(lp514
I4
aI5
aI2
aI1
aa(lp515
I4
aI5
aI2
aI1
aa(lp516
I4
aI5
aI1
aI2
aasg18
(lp517
(dp518
g21
VSTEEL WAVE
p519
sg23
V46327
p520
sg25
I83
sg26
I1
sg27
I83
sa(dp521
g21
VIMADA
p522
sg23
V3x72x
p523
sg25
I93
sg26
I2
sg27
I92
sa(dp524
g21
VCHASE END CHARLIE
p525
sg23
Vx78x4
p526
sg25
I85
sg26
I3
sg27
I86
sa(dp527
g21
VRENWICK
p528
sg23
V6x2x1
p529
sg25
I100
sg26
I4
sg27
I100
sa(dp530
g21
VJAM SESSION
p531
sg23
V0x151
p532
sg25
I95
sg26
I5
sg27
I96
sasg52
(lp533
sssI1544100000
(dp534
g2
Vhttp://www.skyracing.com.au/index.php?component=racing&task=race&id=108538401&meetingid=107753133&Itemid=89
p535
sg4
V29038293.1240
p536
sg6
(dp537
g8
(lp538
(lp539
I2
aI4
aI10
aI5
aa(lp540
I2
aI7
aI6
aI1
aa(lp541
I2
aI11
aI5
aI1
aa(lp542
I2
aI6
aI4
aI16
aa(lp543
I2
aI7
aI10
aI19
aa(lp544
I2
aI4
aI10
aI5
aa(lp545
I2
aI17
aI8
aI4
aa(lp546
I2
aI4
aI10
aI7
aasg18
(lp547
(dp548
g21
VLITTLESTICKARUBARB
p549
sg23
V57254
p550
sg25
I72
sg26
I1
sg27
I78
sa(dp551
g21
VWHATSINTHECORNER
p552
sg23
V22122
p553
sg25
I100
sg26
I2
sg27
I100
sa(dp554
g21
VHOWLUCKYCANWEBE
p555
sg23
Vx79x6
p556
sg25
I69
sg26
I3
sg27
I71
sa(dp557
g21
VMAG BRADY
p558
sg23
Vx832x
p559
sg25
I92
sg26
I4
sg27
I97
sa(dp560
g21
VDONTDOODDSON
p561
sg23
V37521
p562
sg25
I95
sg26
I5
sg27
I92
sa(dp563
g21
VGLENABO BRIDGE
p564
sg23
V2436x
p565
sg25
I86
sg26
I6
sg27
I86
sa(dp566
g21
VALL THE CHIMNEYS
p567
sg23
V256x0
p568
sg25
I80
sg26
I7
sg27
I77
sa(dp569
g21
VOWL CREEK BRIDGE
p570
sg23
V2x900
p571
sg25
I90
sg26
I8
sg27
I82
sa(dp572
g21
VTIME AND TIMES
p573
sg23
V2x950
p574
sg25
I64
sg26
I9
sg27
I66
sa(dp575
g21
VJUST A BOY
p576
sg23
V20089
p577
sg25
I89
sg26
I10
sg27
I96
sa(dp578
g21
VSLIPPERY SLOPE
p579
sg23
V0098
p580
sg25
I70
sg26
I11
sg27
I74
sa(dp581
g21
VWALKERS POINT
p582
sg23
V99x23
p583
sg25
I82
sg26
I12
sg27
I91
sa(dp584
g21
VANALYSE THAT
p585
sg23
V4133x
p586
sg25
I79
sg26
I13
sg27
I89
sa(dp587
g21
VBRITISH ART
p588
sg23
V0x50x
p589
sg25
I76
sg26
I14
sg27
I84
sa(dp590
g21
VUNO MOMENTO
p591
sg23
Vx0989
p592
sg25
I74
sg26
I15
sg27
I81
sa(dp593
g21
VLETS HIGH FIVE IT
p594
sg23
V5289x
p595
sg25
I66
sg26
I16
sg27
I68
sa(dp596
g21
VCUSTOMER
p597
sg23
Vx0008
p598
sg25
I98
sg26
I17
sg27
I69
sa(dp599
g21
VTAGGLE OG
p600
sg23
V5976x
p601
sg25
I84
sg26
I18
sg27
I63
sa(dp602
g21
VKLASSY KAY
p603
sg23
V0x658
p604
sg25
I67
sg26
I19
sg27
I70
sa(dp605
g21
VGIMLI'S OSCAR
p606
sg23
V0x09x
p607
sg25
I62
sg26
I20
sg27
I64
sa(dp608
g21
VTSARINA SOPHIA
p609
sg23
V78000
p610
sg25
I60
sg26
I21
sg27
I60
sasg52
(lp611
sssI1544098500
(dp612
g2
Vhttp://www.skyracing.com.au/index.php?component=racing&task=race&id=108538430&meetingid=107746539&Itemid=89
p613
sg4
V29038327.1215
p614
sg6
(dp615
g8
(lp616
(lp617
I1
aI2
aI7
aI3
aa(lp618
I2
aI7
aI1
aI3
aa(lp619
I2
aI7
aI5
aI4
aa(lp620
I2
aI7
aI1
aI3
aa(lp621
I1
aI3
aI2
aI7
aa(lp622
I2
aI1
aI7
aI3
aa(lp623
I1
aI2
aI7
aI3
aa(lp624
I2
aI1
aI7
aI3
aasg18
(lp625
(dp626
g21
VADJALI
p627
sg23
V213x
p628
sg25
I100
sg26
I1
sg27
I100
sa(dp629
g21
VKING D'ARGENT
p630
sg23
V03x13
p631
sg25
I97
sg26
I2
sg27
I93
sa(dp632
g21
VAL KHERB
p633
sg23
V1145x
p634
sg25
I85
sg26
I3
sg27
I80
sa(dp635
g21
VENVIRONMENT ALLY
p636
sg23
V65
p637
sg25
I77
sg26
I4
sg27
I68
sa(dp638
g21
VKEYNOTE
p639
sg23
V0x994
p640
sg25
I80
sg26
I5
sg27
I74
sa(dp641
g21
VLIFEBOAT
p642
sg23
V57350
p643
sg25
I81
sg26
I6
sg27
I76
sa(dp644
g21
VSEABOROUGH
p645
sg23
V416x2
p646
sg25
I91
sg26
I7
sg27
I85
sasg52
(lp647
sssI1544109000
(dp648
g2
Vhttp://www.skyracing.com.au/index.php?component=racing&task=race&id=108538450&meetingid=107746555&Itemid=89
p649
sg4
V29038328.1510
p650
sg6
(dp651
g8
(lp652
(lp653
I1
aI3
aI4
aI2
aa(lp654
I3
aI1
aI5
aI4
aa(lp655
I1
aI4
aI2
aI5
aa(lp656
I3
aI1
aI5
aI4
aa(lp657
I3
aI1
aI2
aI4
aa(lp658
I1
aI3
aI4
aI2
aa(lp659
I3
aI4
aI1
aI2
aa(lp660
I1
aI3
aI4
aI2
aasg18
(lp661
(dp662
g21
VBOY IN A BENTLEY
p663
sg23
V25222
p664
sg25
I100
sg26
I1
sg27
I100
sa(dp665
g21
VTURBAN
p666
sg23
V14714
p667
sg25
I88
sg26
I2
sg27
I89
sa(dp668
g21
VALF 'N' DOR
p669
sg23
V326x2
p670
sg25
I95
sg26
I3
sg27
I99
sa(dp671
g21
VCERNUNNOS
p672
sg23
V86233
p673
sg25
I93
sg26
I4
sg27
I90
sa(dp674
g21
VBARON DU PLESSIS
p675
sg23
Vx7x34
p676
sg25
I81
sg26
I5
sg27
I83
sa(dp677
g21
VJUST SPOT
p678
sg23
V036x0
p679
sg25
I74
sg26
I6
sg27
I80
sa(dp680
g21
VPOLO THE MUMM
p681
sg23
V4x064
p682
sg25
I79
sg26
I7
sg27
I77
sasg52
(lp683
sssI1544109900
(dp684
g2
Vhttp://www.skyracing.com.au/index.php?component=racing&task=race&id=108538406&meetingid=107753133&Itemid=89
p685
sg4
V29038293.1525
p686
sg6
(dp687
g8
(lp688
(lp689
I1
aI13
aI4
aI8
aa(lp690
I1
aI6
aI5
aI4
aa(lp691
I6
aI5
aI13
aI4
aa(lp692
I8
aI3
aI1
aI6
aa(lp693
I1
aI5
aI4
aI6
aa(lp694
I1
aI13
aI4
aI19
aa(lp695
I1
aI4
aI2
aI13
aa(lp696
I1
aI6
aI13
aI4
aasg18
(lp697
(dp698
g21
VCASTLEBAWN WEST
p699
sg23
V4x1x
p700
sg25
I100
sg26
I1
sg27
I100
sa(dp701
g21
VDOS GARDENIAS
p702
sg23
V3x12x
p703
sg25
I95
sg26
I2
sg27
I92
sa(dp704
g21
VJAMES ECLIPSE
p705
sg23
V4x506
p706
sg25
I78
sg26
I3
sg27
I66
sa(dp707
g21
VFEELIN' GROOVY
p708
sg23
V331x4
p709
sg25
I93
sg26
I4
sg27
I96
sa(dp710
g21
VAN FEARCHAN
p711
sg23
Vx4662
p712
sg25
I77
sg26
I5
sg27
I77
sa(dp713
g21
VKILCHREEST MOON
p714
sg23
V733
p715
sg25
I86
sg26
I6
sg27
I89
sa(dp716
g21
VPADDYMACLOVIN
p717
sg23
V
p718
sg25
I65
sg26
I7
sg27
I0
sa(dp719
g21
VRIVERDENE
p720
sg23
Vx352x
p721
sg25
I89
sg26
I8
sg27
I94
sa(dp722
g21
VSALSOMAJORY
p723
sg23
g718
sg25
I70
sg26
I9
sg27
I0
sa(dp724
g21
VSPYGLASS HILL
p725
sg23
V2x5x3
p726
sg25
I85
sg26
I10
sg27
I87
sa(dp727
g21
VTHE LONGEST TIME
p728
sg23
V0x
p729
sg25
I81
sg26
I11
sg27
I78
sa(dp730
g21
VWEST IS BEST
p731
sg23
V343x0
p732
sg25
I63
sg26
I12
sg27
I61
sa(dp733
g21
VWESTERN HONOUR
p734
sg23
Vx4x22
p735
sg25
I99
sg26
I13
sg27
I97
sa(dp736
g21
VWHYDAH
p737
sg23
V5
p738
sg25
I72
sg26
I14
sg27
I71
sa(dp739
g21
VARAUKAN
p740
sg23
V00x
p741
sg25
I66
sg26
I15
sg27
I64
sa(dp742
g21
VEXIT TO THE WEST
p743
sg23
V05x0
p744
sg25
I61
sg26
I16
sg27
I62
sa(dp745
g21
VJOHNNYS GIRL
p746
sg23
V1337x
p747
sg25
I91
sg26
I17
sg27
I82
sa(dp748
g21
VTHREE QUEENS
p749
sg23
V93x
p750
sg25
I69
sg26
I18
sg27
I68
sa(dp751
g21
VTHEGOAHEADMAN
p752
sg23
V7042x
p753
sg25
I83
sg26
I19
sg27
I84
sa(dp754
g21
VKATE O C B
p755
sg23
g718
sg25
I67
sg26
I20
sg27
I0
sa(dp756
g21
VALL THE WAY WEST
p757
sg23
V2x332
p758
sg25
I75
sg26
I21
sg27
I73
sasg52
(lp759
sssI1544101200
(dp760
g2
Vhttp://www.skyracing.com.au/index.php?component=racing&task=race&id=108538446&meetingid=107746555&Itemid=89
p761
sg4
V29038328.1300
p762
sg6
(dp763
g8
(lp764
(lp765
I5
aI9
aI4
aI10
aa(lp766
I9
aI4
aI5
aI10
aa(lp767
I9
aI4
aI5
aI6
aa(lp768
I4
aI10
aI5
aI9
aa(lp769
I4
aI10
aI9
aI5
aa(lp770
I5
aI9
aI4
aI1
aa(lp771
I5
aI9
aI4
aI10
aa(lp772
I4
aI9
aI5
aI10
aasg18
(lp773
(dp774
g21
VBALLYBOUGH NORA
p775
sg23
V41x3
p776
sg25
I91
sg26
I1
sg27
I89
sa(dp777
g21
VBASTANTE
p778
sg23
Vx41x9
p779
sg25
I76
sg26
I2
sg27
I73
sa(dp780
g21
VCALL SIGN CHARLIE
p781
sg23
V956x
p782
sg25
I70
sg26
I3
sg27
I71
sa(dp783
g21
VCEDAR VALLEY
p784
sg23
V19x35
p785
sg25
I93
sg26
I4
sg27
I94
sa(dp786
g21
VDANSE IDOL
p787
sg23
V12x6
p788
sg25
I100
sg26
I5
sg27
I100
sa(dp789
g21
VGET AN OSCAR
p790
sg23
Vx6490
p791
sg25
I80
sg26
I6
sg27
I82
sa(dp792
g21
VHOT RYAN
p793
sg23
V17x67
p794
sg25
I79
sg26
I7
sg27
I78
sa(dp795
g21
VMY DIXIE
p796
sg23
V4x4
p797
sg25
I85
sg26
I8
sg27
I84
sa(dp798
g21
VPRINTING DOLLARS
p799
sg23
V1x1
p800
sg25
I99
sg26
I9
sg27
I98
sa(dp801
g21
VSPARKLING DAWN
p802
sg23
Vx1x8x
p803
sg25
I88
sg26
I10
sg27
I91
sa(dp804
g21
VWINGSOFREDEMPTION
p805
sg23
V002x8
p806
sg25
I74
sg26
I11
sg27
I76
sasg52
(lp807
sssI1544110200
(dp808
g2
Vhttp://www.skyracing.com.au/index.php?component=racing&task=race&id=108538436&meetingid=107746539&Itemid=89
p809
sg4
V29038327.1530
p810
sg6
(dp811
g8
(lp812
(lp813
I2
aI5
aI3
aI4
aa(lp814
I3
aI6
aI5
aI7
aa(lp815
I3
aI7
aI1
aI2
aa(lp816
I3
aI7
aI8
aI2
aa(lp817
I5
aI3
aI6
aI8
aa(lp818
I3
aI2
aI5
aI4
aa(lp819
I5
aI3
aI2
aI6
aa(lp820
I3
aI5
aI2
aI7
aasg18
(lp821
(dp822
g21
VLOVE LANE
p823
sg23
V415x6
p824
sg25
I83
sg26
I1
sg27
I81
sa(dp825
g21
VLILY OF LEYSBOURNE
p826
sg23
V522x2
p827
sg25
I96
sg26
I2
sg27
I100
sa(dp828
g21
VKEEL OVER
p829
sg23
Vx4x23
p830
sg25
I92
sg26
I3
sg27
I92
sa(dp831
g21
VFIRST QUEST
p832
sg23
V86x1x
p833
sg25
I88
sg26
I4
sg27
I87
sa(dp834
g21
VTOBOGGAN'S FIRE
p835
sg23
V4x433
p836
sg25
I100
sg26
I5
sg27
I97
sa(dp837
g21
VCOMBER MILL
p838
sg23
V25079
p839
sg25
I80
sg26
I6
sg27
I75
sa(dp840
g21
VWOT A SHOT
p841
sg23
V534x6
p842
sg25
I73
sg26
I7
sg27
I78
sa(dp843
g21
VMAROC
p844
sg23
V22106
p845
sg25
I69
sg26
I8
sg27
I69
sasg52
(lp846
sssI1544102100
(dp847
g2
Vhttp://www.skyracing.com.au/index.php?component=racing&task=race&id=108538402&meetingid=107753133&Itemid=89
p848
sg4
V29038293.1315
p849
sg6
(dp850
g8
(lp851
(lp852
I5
aI4
aI6
aI1
aa(lp853
I6
aI1
aI2
aI5
aa(lp854
I1
aI2
aI6
aI7
aa(lp855
I6
aI3
aI5
aI4
aa(lp856
I6
aI7
aI2
aI5
aa(lp857
I5
aI4
aI1
aI3
aa(lp858
I5
aI4
aI6
aI1
aa(lp859
I6
aI5
aI1
aI4
aasg18
(lp860
(dp861
g21
VCHATEAU CONTI
p862
sg23
V0x449
p863
sg25
I90
sg26
I1
sg27
I86
sa(dp864
g21
VPRINCE GARYANTLE
p865
sg23
V033x6
p866
sg25
I75
sg26
I2
sg27
I80
sa(dp867
g21
VWESTLAND ROW
p868
sg23
V010x0
p869
sg25
I83
sg26
I3
sg27
I84
sa(dp870
g21
VROBBIN'HANNON
p871
sg23
V1204x
p872
sg25
I97
sg26
I4
sg27
I96
sa(dp873
g21
VSCARPETA
p874
sg23
V4394x
p875
sg25
I100
sg26
I5
sg27
I100
sa(dp876
g21
VVAL DE FERBET
p877
sg23
V8x420
p878
sg25
I89
sg26
I6
sg27
I90
sa(dp879
g21
VASK MARY
p880
sg23
V10x56
p881
sg25
I79
sg26
I7
sg27
I74
sasg52
(lp882
sssI1544103000
(dp883
g2
Vhttp://www.skyracing.com.au/index.php?component=racing&task=race&id=108538447&meetingid=107746555&Itemid=89
p884
sg4
V29038328.1330
p885
sg6
(dp886
g8
(lp887
(lp888
I4
aI6
aI2
aI1
aa(lp889
I1
aI4
aI6
aI7
aa(lp890
I1
aI4
aI6
aI5
aa(lp891
I1
aI3
aI8
aI4
aa(lp892
I4
aI6
aI1
aI7
aa(lp893
I2
aI4
aI6
aI3
aa(lp894
I2
aI4
aI6
aI1
aa(lp895
I4
aI1
aI6
aI2
aasg18
(lp896
(dp897
g21
VMERCERS COURT
p898
sg23
V11122
p899
sg25
I85
sg26
I1
sg27
I87
sa(dp900
g21
VREIKERS ISLAND
p901
sg23
V015x3
p902
sg25
I98
sg26
I2
sg27
I89
sa(dp903
g21
VCOBOLOBO
p904
sg23
V807x2
p905
sg25
I79
sg26
I3
sg27
I82
sa(dp906
g21
VSOME CHAOS
p907
sg23
V94x11
p908
sg25
I100
sg26
I4
sg27
I100
sa(dp909
g21
VFLAMING CHARMER
p910
sg23
V45x51
p911
sg25
I72
sg26
I5
sg27
I78
sa(dp912
g21
VCAPTAIN BUCK'S
p913
sg23
V34x36
p914
sg25
I93
sg26
I6
sg27
I95
sa(dp915
g21
VWIZARDS BRIDGE
p916
sg23
V16x43
p917
sg25
I77
sg26
I7
sg27
I58
sa(dp918
g21
VROYAL PALLADIUM
p919
sg23
V9x6x7
p920
sg25
I61
sg26
I8
sg27
I63
sa(dp921
g21
VCANYOURINGMEBACK
p922
sg23
V1x177
p923
sg25
I84
sg26
I9
sg27
I68
sa(dp924
g21
VRUPERRA TOM
p925
sg23
Vx0x32
p926
sg25
I65
sg26
I10
sg27
I72
sasg52
(lp927
sssI1544103900
(dp928
g2
Vhttp://www.skyracing.com.au/index.php?component=racing&task=race&id=108538403&meetingid=107753133&Itemid=89
p929
sg4
V29038293.1345
p930
sg6
(dp931
g8
(lp932
(lp933
I2
aI6
aI5
aI4
aa(lp934
I2
aI18
aI6
aI8
aa(lp935
I18
aI2
aI19
aI4
aa(lp936
I13
aI8
aI18
aI6
aa(lp937
I2
aI18
aI6
aI19
aa(lp938
I2
aI6
aI3
aI5
aa(lp939
I1
aI2
aI5
aI6
aa(lp940
I2
aI18
aI6
aI13
aasg18
(lp941
(dp942
g21
VFATHER JED
p943
sg23
V658x0
p944
sg25
I95
sg26
I1
sg27
I81
sa(dp945
g21
VSHE'S MADE IT
p946
sg23
V23x22
p947
sg25
I100
sg26
I2
sg27
I100
sa(dp948
g21
VMARINO MARVEL
p949
sg23
V9x099
p950
sg25
I83
sg26
I3
sg27
I91
sa(dp951
g21
VCAILEAN'S ANGEL
p952
sg23
V4x0x4
p953
sg25
I88
sg26
I4
sg27
I94
sa(dp954
g21
VALL ABOUT ALFIE
p955
sg23
V147x8
p956
sg25
I97
sg26
I5
sg27
I95
sa(dp957
g21
VPUMP ROAD
p958
sg23
Vx073x
p959
sg25
I94
sg26
I6
sg27
I98
sa(dp960
g21
VNANCY MAHER
p961
sg23
V8x800
p962
sg25
I68
sg26
I7
sg27
I70
sa(dp963
g21
VSHANTELLE
p964
sg23
V30x99
p965
sg25
I62
sg26
I8
sg27
I62
sa(dp966
g21
VSHANTOU SISU
p967
sg23
V0857x
p968
sg25
I80
sg26
I9
sg27
I89
sa(dp969
g21
VCOURTIN BB
p970
sg23
V48495
p971
sg25
I75
sg26
I10
sg27
I82
sa(dp972
g21
VCRACK ON CORRIE
p973
sg23
V368x0
p974
sg25
I71
sg26
I11
sg27
I78
sa(dp975
g21
VSTEELYEYED
p976
sg23
V69708
p977
sg25
I77
sg26
I12
sg27
I85
sa(dp978
g21
VDAIGREEN
p979
sg23
V0x00x
p980
sg25
I91
sg26
I13
sg27
I72
sa(dp981
g21
VMISS MCILROY
p982
sg23
Vx0976
p983
sg25
I69
sg26
I14
sg27
I74
sa(dp984
g21
VNORTHERN EMPEROR
p985
sg23
V8x600
p986
sg25
I61
sg26
I15
sg27
I61
sa(dp987
g21
VOUTOFCOLOGNE
p988
sg23
V0x07x
p989
sg25
I84
sg26
I16
sg27
I65
sa(dp990
g21
VPRESENTING THEWEST
p991
sg23
V0x80x
p992
sg25
I70
sg26
I17
sg27
I77
sa(dp993
g21
VREDWOOD BOY
p994
sg23
V05408
p995
sg25
I79
sg26
I18
sg27
I86
sa(dp996
g21
VCAPTAIN LEO
p997
sg23
V0x406
p998
sg25
I87
sg26
I19
sg27
I66
sa(dp999
g21
VSHIPWRECK
p1000
sg23
V74488
p1001
sg25
I66
sg26
I20
sg27
I68
sa(dp1002
g21
VRUSSELLSTOWN
p1003
sg23
V05909
p1004
sg25
I65
sg26
I21
sg27
I69
sasg52
(lp1005
sssI1544110800
(dp1006
g2
Vhttp://www.skyracing.com.au/index.php?component=racing&task=race&id=108538451&meetingid=107746555&Itemid=89
p1007
sg4
V29038328.1540
p1008
sg6
(dp1009
g8
(lp1010
(lp1011
I14
aI3
aI8
aI1
aa(lp1012
I3
aI8
aI14
aI1
aa(lp1013
I3
aI8
aI1
aI2
aa(lp1014
I3
aI8
aI14
aI1
aa(lp1015
I3
aI8
aI12
aI13
aa(lp1016
I3
aI14
aI8
aI1
aa(lp1017
I14
aI10
aI4
aI3
aa(lp1018
I3
aI8
aI14
aI12
aasg18
(lp1019
(dp1020
g21
VBORN AT MIDNIGHT
p1021
sg23
g718
sg25
I62
sg26
I1
sg27
I0
sa(dp1022
g21
VCHANCE A TUNE
p1023
sg23
g718
sg25
I81
sg26
I2
sg27
I0
sa(dp1024
g21
VCOTSWOLD PRINCE
p1025
sg23
V6
p1026
sg25
I91
sg26
I3
sg27
I94
sa(dp1027
g21
VDIMMESDALE
p1028
sg23
g718
sg25
I95
sg26
I4
sg27
I0
sa(dp1029
g21
VFEARLESS
p1030
sg23
g718
sg25
I75
sg26
I5
sg27
I0
sa(dp1031
g21
VGRANGE WALK
p1032
sg23
g718
sg25
I69
sg26
I6
sg27
I0
sa(dp1033
g21
VHANDSOME SAMSON
p1034
sg23
g718
sg25
I89
sg26
I7
sg27
I0
sa(dp1035
g21
VNOBLE SAFFRON
p1036
sg23
V7
p1037
sg25
I78
sg26
I8
sg27
I88
sa(dp1038
g21
VONE HANDSOME DUDE
p1039
sg23
g718
sg25
I70
sg26
I9
sg27
I0
sa(dp1040
g21
VPERFECT PREDATOR
p1041
sg23
g718
sg25
I97
sg26
I10
sg27
I0
sa(dp1042
g21
VPRUDHOMME
p1043
sg23
g718
sg25
I74
sg26
I11
sg27
I0
sa(dp1044
g21
VSHESHOON SONNY
p1045
sg23
g718
sg25
I86
sg26
I12
sg27
I0
sa(dp1046
g21
VAUNTIE NEILA
p1047
sg23
g718
sg25
I64
sg26
I13
sg27
I0
sa(dp1048
g21
VFURIA D'OUDAIRIES
p1049
sg23
V3x
p1050
sg25
I100
sg26
I14
sg27
I100
sasg52
(lp1051
sssI1544105700
(dp1052
g2
Vhttp://www.skyracing.com.au/index.php?component=racing&task=race&id=108538373&meetingid=107746523&Itemid=89
p1053
sg4
V29038329.1415
p1054
sg6
(dp1055
g8
(lp1056
(lp1057
I2
aI3
aI4
aI1
aa(lp1058
I3
aI2
aI5
aI7
aa(lp1059
I2
aI3
aI5
aI6
aa(lp1060
I1
aI2
aI8
aI5
aa(lp1061
I3
aI6
aI4
aI9
aa(lp1062
I2
aI4
aI3
aI6
aa(lp1063
I2
aI3
aI4
aI5
aa(lp1064
I2
aI3
aI4
aI1
aasg18
(lp1065
(dp1066
g21
VSARPECH
p1067
sg23
V5745x
p1068
sg25
I84
sg26
I1
sg27
I86
sa(dp1069
g21
VST JOHN'S
p1070
sg23
V34444
p1071
sg25
I100
sg26
I2
sg27
I100
sa(dp1072
g21
VPRIMOGENITURE
p1073
sg23
V08956
p1074
sg25
I95
sg26
I3
sg27
I97
sa(dp1075
g21
VFLANAGANS FIELD
p1076
sg23
V4430x
p1077
sg25
I94
sg26
I4
sg27
I94
sa(dp1078
g21
VAZA RUN
p1079
sg23
V549x7
p1080
sg25
I85
sg26
I5
sg27
I78
sa(dp1081
g21
VTORRENT DES MOTTES
p1082
sg23
V68965
p1083
sg25
I76
sg26
I6
sg27
I83
sa(dp1084
g21
VMICRAS
p1085
sg23
V05907
p1086
sg25
I64
sg26
I7
sg27
I73
sa(dp1087
g21
VMURCHISON RIVER
p1088
sg23
V4x070
p1089
sg25
I80
sg26
I8
sg27
I64
sa(dp1090
g21
VANTON DOLIN
p1091
sg23
V72070
p1092
sg25
I70
sg26
I9
sg27
I71
sasg52
(lp1093
sssI1544107500
(dp1094
g2
Vhttp://www.skyracing.com.au/index.php?component=racing&task=race&id=108538374&meetingid=107746523&Itemid=89
p1095
sg4
V29038329.1445
p1096
sg6
(dp1097
g8
(lp1098
(lp1099
I6
aI4
aI3
aI1
aa(lp1100
I5
aI6
aI4
aI1
aa(lp1101
I4
aI1
aI3
aI5
aa(lp1102
I4
aI5
aI6
aI1
aa(lp1103
I5
aI4
aI6
aI1
aa(lp1104
I4
aI6
aI3
aI1
aa(lp1105
I4
aI6
aI3
aI1
aa(lp1106
I4
aI6
aI5
aI1
aasg18
(lp1107
(dp1108
g21
VTHE GO TOU MAN
p1109
sg23
V4x027
p1110
sg25
I86
sg26
I1
sg27
I84
sa(dp1111
g21
VLARCH HILL
p1112
sg23
V0x360
p1113
sg25
I79
sg26
I2
sg27
I77
sa(dp1114
g21
VMIRO
p1115
sg23
V30304
p1116
sg25
I92
sg26
I3
sg27
I88
sa(dp1117
g21
VBARDD
p1118
sg23
V04x45
p1119
sg25
I97
sg26
I4
sg27
I96
sa(dp1120
g21
VLORD MARMADUKE
p1121
sg23
V348x9
p1122
sg25
I82
sg26
I5
sg27
I82
sa(dp1123
g21
VKLOUD GATE
p1124
sg23
V725x0
p1125
sg25
I100
sg26
I6
sg27
I100
sasg52
(lp1126
sssI1544108400
(dp1127
g2
Vhttp://www.skyracing.com.au/index.php?component=racing&task=race&id=108538435&meetingid=107746539&Itemid=89
p1128
sg4
V29038327.1500
p1129
sg6
(dp1130
g8
(lp1131
(lp1132
I1
aI3
aI2
aI10
aa(lp1133
I8
aI2
aI5
aI10
aa(lp1134
I5
aI2
aI4
aI8
aa(lp1135
I9
aI8
aI7
aI5
aa(lp1136
I8
aI10
aI2
aI5
aa(lp1137
I1
aI3
aI2
aI10
aa(lp1138
I1
aI3
aI4
aI10
aa(lp1139
I2
aI8
aI1
aI5
aasg18
(lp1140
(dp1141
g21
VPOINT N SHOOT
p1142
sg23
V2321x
p1143
sg25
I100
sg26
I1
sg27
I100
sa(dp1144
g21
VWALTZ DARLING
p1145
sg23
V48096
p1146
sg25
I90
sg26
I2
sg27
I93
sa(dp1147
g21
VTHE MANUSCRIPT
p1148
sg23
V90x65
p1149
sg25
I95
sg26
I3
sg27
I97
sa(dp1150
g21
VSIMPLY LUCKY
p1151
sg23
V35503
p1152
sg25
I97
sg26
I4
sg27
I88
sa(dp1153
g21
VDEE STAR
p1154
sg23
V50449
p1155
sg25
I76
sg26
I5
sg27
I77
sa(dp1156
g21
VLAMMTURNER
p1157
sg23
V586x0
p1158
sg25
I71
sg26
I6
sg27
I71
sa(dp1159
g21
VOLIVER'S ISLAND
p1160
sg23
V455x0
p1161
sg25
I74
sg26
I7
sg27
I74
sa(dp1162
g21
VINDIAN REEL
p1163
sg23
V40606
p1164
sg25
I86
sg26
I8
sg27
I80
sa(dp1165
g21
VROCKU
p1166
sg23
V6836x
p1167
sg25
I83
sg26
I9
sg27
I86
sa(dp1168
g21
VDOLLY'S DOT
p1169
sg23
V120x9
p1170
sg25
I89
sg26
I10
sg27
I90
sa(dp1171
g21
VFROSTY DAWN
p1172
sg23
Vx207x
p1173
sg25
I78
sg26
I11
sg27
I79
sasg52
(lp1174
sssI1544099700
(dp1175
g2
Vhttp://www.skyracing.com.au/index.php?component=racing&task=race&id=108538370&meetingid=107746523&Itemid=89
p1176
sg4
V29038329.1235
p1177
sg6
(dp1178
g8
(lp1179
(lp1180
I2
aI4
aI5
aI3
aa(lp1181
I4
aI3
aI2
aI5
aa(lp1182
I3
aI2
aI4
aI1
aa(lp1183
I4
aI3
aI2
aI5
aa(lp1184
I4
aI3
aI2
aI5
aa(lp1185
I4
aI2
aI5
aI3
aa(lp1186
I2
aI4
aI5
aI3
aa(lp1187
I4
aI2
aI3
aI5
aasg18
(lp1188
(dp1189
g21
VBURNING BRIGHT
p1190
sg23
V9x0
p1191
sg25
I84
sg26
I1
sg27
I80
sa(dp1192
g21
VEKAYBURG
p1193
sg23
Vx11x4
p1194
sg25
I100
sg26
I2
sg27
I100
sa(dp1195
g21
VEYRESHILL
p1196
sg23
V8x3
p1197
sg25
I87
sg26
I3
sg27
I87
sa(dp1198
g21
VLAUGHING LUIS
p1199
sg23
Vx1147
p1200
sg25
I96
sg26
I4
sg27
I95
sa(dp1201
g21
VEARLY LEARNER
p1202
sg23
V1x0x
p1203
sg25
I90
sg26
I5
sg27
I89
sasg52
(lp1204
sssI1544100600
(dp1205
g2
Vhttp://www.skyracing.com.au/index.php?component=racing&task=race&id=108538431&meetingid=107746539&Itemid=89
p1206
sg4
V29038327.1250
p1207
sg6
(dp1208
g8
(lp1209
(lp1210
I1
aI4
aI3
aI6
aa(lp1211
I4
aI1
aI3
aI6
aa(lp1212
I4
aI1
aI6
aI2
aa(lp1213
I4
aI1
aI6
aI2
aa(lp1214
I4
aI1
aI6
aI3
aa(lp1215
I1
aI4
aI3
aI6
aa(lp1216
I1
aI4
aI6
aI3
aa(lp1217
I4
aI1
aI6
aI3
aasg18
(lp1218
(dp1219
g21
VGENERAL CUSTARD
p1220
sg23
V9x123
p1221
sg25
I100
sg26
I1
sg27
I100
sa(dp1222
g21
VALMONTASER
p1223
sg23
V40650
p1224
sg25
I78
sg26
I2
sg27
I79
sa(dp1225
g21
VOSCAR NOMINATION
p1226
sg23
V4x22x
p1227
sg25
I81
sg26
I3
sg27
I87
sa(dp1228
g21
VSOLDIER OF LOVE
p1229
sg23
V2x7x3
p1230
sg25
I96
sg26
I4
sg27
I97
sa(dp1231
g21
VTHREE COUNTY'S
p1232
sg23
V0x4
p1233
sg25
I86
sg26
I5
sg27
I94
sa(dp1234
g21
VWAR BRIGADE
p1235
sg23
V4x613
p1236
sg25
I92
sg26
I6
sg27
I82
sa(dp1237
g21
VQUIZZACLE NOMAD
p1238
sg23
V13x97
p1239
sg25
I76
sg26
I7
sg27
I75
sasg52
(lp1240
sss.