(dp0
I1544275200
(dp1
S'skyracing_url'
p2
Vhttp://www.skyracing.com.au/index.php?component=racing&task=race&id=108668390&meetingid=107748151&Itemid=89
p3
sS'betfair_raceid'
p4
V29039654.1320
p5
sS'dat2'
p6
(dp7
S'ratings_auto'
p8
(lp9
(lp10
I4
aI8
aI5
aI6
aa(lp11
I5
aI2
aI3
aI4
aa(lp12
I5
aI7
aI2
aI6
aa(lp13
I5
aI2
aI4
aI10
aa(lp14
I5
aI2
aI4
aI6
aa(lp15
I4
aI8
aI5
aI3
aa(lp16
I4
aI3
aI2
aI8
aa(lp17
I5
aI4
aI2
aI8
aasS'horse_details'
p18
(lp19
(dp20
S'horse_name'
p21
VLIEUTENANT COLONEL
p22
sS'horse_form'
p23
V4076x
p24
sS'rating_2'
p25
I72
sS'horse_number'
p26
I1
sS'rating_1'
p27
I70
sa(dp28
g21
VHOLLY BUSH HENRY
p29
sg23
V256x9
p30
sg25
I88
sg26
I2
sg27
I68
sa(dp31
g21
VEMINENT POET
p32
sg23
V7619x
p33
sg25
I92
sg26
I3
sg27
I82
sa(dp34
g21
VICE COOL CHAMPS
p35
sg23
V5x23x
p36
sg25
I100
sg26
I4
sg27
I100
sa(dp37
g21
VLOOSE CHIPS
p38
sg23
V56x51
p39
sg25
I82
sg26
I5
sg27
I91
sa(dp40
g21
VFORTUNATE GEORGE
p41
sg23
V310x0
p42
sg25
I79
sg26
I6
sg27
I86
sa(dp43
g21
VMELLOW BEN
p44
sg23
Vx1684
p45
sg25
I77
sg26
I7
sg27
I80
sa(dp46
g21
VANOTHER EMOTION
p47
sg23
V2x21x
p48
sg25
I98
sg26
I8
sg27
I95
sa(dp49
g21
VVOLT FACE
p50
sg23
V053x0
p51
sg25
I62
sg26
I9
sg27
I60
sa(dp52
g21
VLITTLE BOY BORU
p53
sg23
V73x2x
p54
sg25
I65
sg26
I10
sg27
I75
sasS'ratings_manual'
p55
(lp56
sssI1544280000
(dp57
g2
Vhttp://www.skyracing.com.au/index.php?component=racing&task=race&id=108668348&meetingid=107748135&Itemid=89
p58
sg4
V29039652.1440
p59
sg6
(dp60
g8
(lp61
(lp62
I3
aI1
aI7
aI2
aa(lp63
I3
aI7
aI1
aI8
aa(lp64
I3
aI1
aI8
aI2
aa(lp65
I3
aI7
aI1
aI2
aa(lp66
I3
aI1
aI6
aI7
aa(lp67
I1
aI3
aI7
aI2
aa(lp68
I3
aI1
aI7
aI8
aa(lp69
I3
aI1
aI7
aI2
aasg18
(lp70
(dp71
g21
VCHICA BUENA
p72
sg23
V62111
p73
sg25
I97
sg26
I1
sg27
I96
sa(dp74
g21
VDANCE TO PARIS
p75
sg23
Vx4231
p76
sg25
I84
sg26
I2
sg27
I86
sa(dp77
g21
VGIVING GLANCES
p78
sg23
V11251
p79
sg25
I100
sg26
I3
sg27
I100
sa(dp80
g21
VLADY CAMELOT
p81
sg23
V42296
p82
sg25
I71
sg26
I4
sg27
I73
sa(dp83
g21
VLIFFEYDALE DREAMER
p84
sg23
V64x06
p85
sg25
I75
sg26
I5
sg27
I68
sa(dp86
g21
VMISS MUMTAZ
p87
sg23
V51672
p88
sg25
I78
sg26
I6
sg27
I78
sa(dp89
g21
VSMILING ELIZA
p90
sg23
V21210
p91
sg25
I94
sg26
I7
sg27
I88
sa(dp92
g21
VTRAVEL LIGHTLY
p93
sg23
V46541
p94
sg25
I89
sg26
I8
sg27
I77
sasg55
(lp95
sssI1544276100
(dp96
g2
Vhttp://www.skyracing.com.au/index.php?component=racing&task=race&id=108668361&meetingid=107753929&Itemid=89
p97
sg4
V29040852.1335
p98
sg6
(dp99
g8
(lp100
(lp101
I3
aI5
aI1
aI2
aa(lp102
I3
aI1
aI5
aI2
aa(lp103
I3
aI1
aI5
aI2
aa(lp104
I3
aI5
aI4
aI2
aa(lp105
I3
aI1
aI5
aI2
aa(lp106
I2
aI5
aI3
aI1
aa(lp107
I3
aI5
aI2
aI1
aa(lp108
I3
aI5
aI1
aI2
aasg18
(lp109
(dp110
g21
VBEN DUNDEE
p111
sg23
V00x31
p112
sg25
I94
sg26
I1
sg27
I92
sa(dp113
g21
VDR MIKEY
p114
sg23
V74661
p115
sg25
I85
sg26
I2
sg27
I78
sa(dp116
g21
VHARDLINE
p117
sg23
V38x12
p118
sg25
I100
sg26
I3
sg27
I100
sa(dp119
g21
VOR JAUNE DE SOMOZA
p120
sg23
V150x3
p121
sg25
I81
sg26
I4
sg27
I75
sa(dp122
g21
VUS AND THEM
p123
sg23
Vx0x41
p124
sg25
I97
sg26
I5
sg27
I95
sasg55
(lp125
sssI1544277000
(dp126
g2
Vhttp://www.skyracing.com.au/index.php?component=racing&task=race&id=108668391&meetingid=107748151&Itemid=89
p127
sg4
V29039654.1350
p128
sg6
(dp129
g8
(lp130
(lp131
I4
aI1
aI2
aI3
aa(lp132
I4
aI1
aI2
aI3
aa(lp133
I4
aI2
aI1
aI3
aa(lp134
I1
aI4
aI2
aI3
aa(lp135
I3
aI2
aI1
aI5
aa(lp136
I4
aI1
aI2
aI3
aa(lp137
I1
aI4
aI3
aI2
aa(lp138
I4
aI1
aI2
aI3
aasg18
(lp139
(dp140
g21
VDIAKALI
p141
sg23
V611x1
p142
sg25
I96
sg26
I1
sg27
I97
sa(dp143
g21
VDYNAMITE DOLLARS
p144
sg23
V54x12
p145
sg25
I87
sg26
I2
sg27
I92
sa(dp146
g21
VHIGHWAY ONE O ONE
p147
sg23
V2x121
p148
sg25
I91
sg26
I3
sg27
I86
sa(dp149
g21
VLALOR
p150
sg23
V201x1
p151
sg25
I100
sg26
I4
sg27
I100
sa(dp152
g21
VORNUA
p153
sg23
V11212
p154
sg25
I81
sg26
I5
sg27
I82
sa(dp155
g21
VPINGSHOU
p156
sg23
V013x4
p157
sg25
I80
sg26
I6
sg27
I78
sasg55
(lp158
sssI1544270700
(dp159
g2
Vhttp://www.skyracing.com.au/index.php?component=racing&task=race&id=108668373&meetingid=107748167&Itemid=89
p160
sg4
V29040858.1205
p161
sg6
(dp162
g8
(lp163
(lp164
I11
aI10
aI9
aI3
aa(lp165
I10
aI11
aI3
aI2
aa(lp166
I3
aI2
aI11
aI9
aa(lp167
I10
aI11
aI3
aI7
aa(lp168
I10
aI11
aI9
aI3
aa(lp169
I10
aI9
aI11
aI1
aa(lp170
I10
aI11
aI9
aI5
aa(lp171
I10
aI11
aI3
aI9
aasg18
(lp172
(dp173
g21
VBURDIGALA
p174
sg23
V8952x
p175
sg25
I84
sg26
I1
sg27
I80
sa(dp176
g21
VDR TIME
p177
sg23
V7
p178
sg25
I75
sg26
I2
sg27
I68
sa(dp179
g21
VFIFTH SYMPHONY
p180
sg23
V8
p181
sg25
I87
sg26
I3
sg27
I84
sa(dp182
g21
VICE GALLEY
p183
sg23
V4x190
p184
sg25
I82
sg26
I4
sg27
I71
sa(dp185
g21
VIWASTHEFUTUREONCE
p186
sg23
Vx01x9
p187
sg25
I90
sg26
I5
sg27
I78
sa(dp188
g21
VJACK RIDDELL
p189
sg23
V0
p190
sg25
I70
sg26
I6
sg27
I64
sa(dp191
g21
VMOUNTAIN HAWK
p192
sg23
V4x4
p193
sg25
I78
sg26
I7
sg27
I73
sa(dp194
g21
VMY TURGEON
p195
sg23
V4x5
p196
sg25
I74
sg26
I8
sg27
I66
sa(dp197
g21
VTHELONGWAYAROUND
p198
sg23
V01x25
p199
sg25
I94
sg26
I9
sg27
I86
sa(dp200
g21
VTIME TO MOVE ON
p201
sg23
V1x1x
p202
sg25
I100
sg26
I10
sg27
I92
sa(dp203
g21
VTWO FOR GOLD
p204
sg23
V161x4
p205
sg25
I98
sg26
I11
sg27
I100
sasg55
(lp206
sssI1544277900
(dp207
g2
Vhttp://www.skyracing.com.au/index.php?component=racing&task=race&id=108668347&meetingid=107748135&Itemid=89
p208
sg4
V29039652.1405
p209
sg6
(dp210
g8
(lp211
(lp212
I1
aI3
aI4
aI2
aa(lp213
I1
aI3
aI2
aI4
aa(lp214
I1
aI2
aI3
aI4
aa(lp215
I1
aI3
aI4
aI2
aa(lp216
I1
aI3
aI2
aI4
aa(lp217
I1
aI3
aI4
aI2
aa(lp218
I1
aI4
aI2
aI3
aa(lp219
I1
aI3
aI2
aI4
aasg18
(lp220
(dp221
g21
VDEFINITLY RED
p222
sg23
V168x1
p223
sg25
I100
sg26
I1
sg27
I100
sa(dp224
g21
VACDC
p225
sg23
V13x14
p226
sg25
I88
sg26
I2
sg27
I88
sa(dp227
g21
VDOUBLE SHUFFLE
p228
sg23
Vx74x4
p229
sg25
I99
sg26
I3
sg27
I98
sa(dp230
g21
VONE FOR ARTHUR
p231
sg23
V51x1x
p232
sg25
I91
sg26
I4
sg27
I94
sasg55
(lp233
sssI1544270100
(dp234
g2
Vhttp://www.skyracing.com.au/index.php?component=racing&task=race&id=108668343&meetingid=107748135&Itemid=89
p235
sg4
V29039652.1155
p236
sg6
(dp237
g8
(lp238
(lp239
I1
aI4
aI2
aI3
aa(lp240
I2
aI5
aI4
aI1
aa(lp241
I2
aI5
aI4
aI1
aa(lp242
I2
aI5
aI4
aI1
aa(lp243
I5
aI4
aI1
aI2
aa(lp244
I4
aI1
aI2
aI3
aa(lp245
I2
aI4
aI1
aI3
aa(lp246
I2
aI4
aI5
aI1
aasg18
(lp247
(dp248
g21
VCAUSE TOUJOURS
p249
sg23
V1x422
p250
sg25
I92
sg26
I1
sg27
I100
sa(dp251
g21
VELDORADO ALLEN
p252
sg23
V23x1
p253
sg25
I100
sg26
I2
sg27
I91
sa(dp254
g21
VCHAMPAGNE MYSTERY
p255
sg23
V52x
p256
sg25
I85
sg26
I3
sg27
I87
sa(dp257
g21
VTHE GRAND VISIR
p258
sg23
V010x1
p259
sg25
I99
sg26
I4
sg27
I94
sa(dp260
g21
VWEST TO THE BRIDGE
p261
sg23
V5x560
p262
sg25
I83
sg26
I5
sg27
I80
sa(dp263
g21
VBONBONNIERE
p264
sg23
V0
p265
sg25
I80
sg26
I6
sg27
I77
sasg55
(lp266
sssI1544280600
(dp267
g2
Vhttp://www.skyracing.com.au/index.php?component=racing&task=race&id=108668378&meetingid=107748167&Itemid=89
p268
sg4
V29040858.1450
p269
sg6
(dp270
g8
(lp271
(lp272
I6
aI3
aI4
aI1
aa(lp273
I1
aI3
aI5
aI6
aa(lp274
I3
aI6
aI4
aI1
aa(lp275
I1
aI3
aI5
aI6
aa(lp276
I6
aI3
aI1
aI5
aa(lp277
I3
aI6
aI4
aI1
aa(lp278
I3
aI1
aI4
aI6
aa(lp279
I3
aI6
aI1
aI4
aasg18
(lp280
(dp281
g21
VJUST CAMERON
p282
sg23
Vx20x6
p283
sg25
I88
sg26
I1
sg27
I86
sa(dp284
g21
VBOUVREUIL
p285
sg23
V6x00x
p286
sg25
I84
sg26
I2
sg27
I83
sa(dp287
g21
VRAISE A SPARK
p288
sg23
V11231
p289
sg25
I100
sg26
I3
sg27
I96
sa(dp290
g21
VSOME REIGN
p291
sg23
V33x42
p292
sg25
I93
sg26
I4
sg27
I94
sa(dp293
g21
VOLIVER'S GOLD
p294
sg23
V0435x
p295
sg25
I78
sg26
I5
sg27
I80
sa(dp296
g21
VMOVIE LEGEND
p297
sg23
V75x12
p298
sg25
I96
sg26
I6
sg27
I100
sa(dp299
g21
VFAIR LOCH
p300
sg23
V637x7
p301
sg25
I73
sg26
I7
sg27
I77
sasg55
(lp302
sssI1544271900
(dp303
g2
Vhttp://www.skyracing.com.au/index.php?component=racing&task=race&id=108668344&meetingid=107748135&Itemid=89
p304
sg4
V29039652.1225
p305
sg6
(dp306
g8
(lp307
(lp308
I1
aI7
aI3
aI6
aa(lp309
I8
aI3
aI1
aI4
aa(lp310
I1
aI8
aI5
aI10
aa(lp311
I3
aI1
aI4
aI7
aa(lp312
I1
aI9
aI7
aI8
aa(lp313
I3
aI7
aI1
aI8
aa(lp314
I3
aI7
aI8
aI1
aa(lp315
I1
aI3
aI7
aI8
aasg18
(lp316
(dp317
g21
VCHEF D'EQUIPE
p318
sg23
V517x2
p319
sg25
I86
sg26
I1
sg27
I100
sa(dp320
g21
VBALLYHILL
p321
sg23
V90x82
p322
sg25
I66
sg26
I2
sg27
I75
sa(dp323
g21
VGRANVILLE ISLAND
p324
sg23
V3111x
p325
sg25
I100
sg26
I3
sg27
I90
sa(dp326
g21
VCREEP DESBOIS
p327
sg23
V126x0
p328
sg25
I83
sg26
I4
sg27
I63
sa(dp329
g21
VCAVE TOP
p330
sg23
V582x9
p331
sg25
I77
sg26
I5
sg27
I74
sa(dp332
g21
VCALTEX
p333
sg23
V4215x
p334
sg25
I79
sg26
I6
sg27
I83
sa(dp335
g21
VLORD BRYAN
p336
sg23
V3113x
p337
sg25
I98
sg26
I7
sg27
I95
sa(dp338
g21
VKATACHENKO
p339
sg23
V04x46
p340
sg25
I90
sg26
I8
sg27
I79
sa(dp341
g21
VBESTWORK
p342
sg23
V12005
p343
sg25
I70
sg26
I9
sg27
I59
sa(dp344
g21
VA PLACE APART
p345
sg23
V21144
p346
sg25
I62
sg26
I10
sg27
I66
sasg55
(lp347
sssI1544272800
(dp348
g2
Vhttp://www.skyracing.com.au/index.php?component=racing&task=race&id=108668374&meetingid=107748167&Itemid=89
p349
sg4
V29040858.1240
p350
sg6
(dp351
g8
(lp352
(lp353
I1
aI4
aI8
aI5
aa(lp354
I1
aI4
aI8
aI3
aa(lp355
I1
aI4
aI8
aI2
aa(lp356
I1
aI4
aI6
aI2
aa(lp357
I4
aI1
aI8
aI3
aa(lp358
I1
aI8
aI4
aI5
aa(lp359
I4
aI1
aI8
aI5
aa(lp360
I1
aI4
aI8
aI5
aasg18
(lp361
(dp362
g21
VBENNY'S SECRET
p363
sg23
V080x3
p364
sg25
I99
sg26
I1
sg27
I100
sa(dp365
g21
VANOTHER DAY DONE
p366
sg23
V0x760
p367
sg25
I75
sg26
I2
sg27
I75
sa(dp368
g21
VDULCE PANEM
p369
sg23
V60x09
p370
sg25
I84
sg26
I3
sg27
I84
sa(dp371
g21
VOVERAWED
p372
sg23
Vx55x2
p373
sg25
I100
sg26
I4
sg27
I95
sa(dp374
g21
VLADY MASTER
p375
sg23
V864x0
p376
sg25
I88
sg26
I5
sg27
I86
sa(dp377
g21
VRUBY WHO
p378
sg23
V97x0x
p379
sg25
I70
sg26
I6
sg27
I71
sa(dp380
g21
VYOUNOSO
p381
sg23
V9777x
p382
sg25
I79
sg26
I7
sg27
I79
sa(dp383
g21
VEARLY BOY
p384
sg23
Vx6424
p385
sg25
I90
sg26
I8
sg27
I93
sasg55
(lp386
sssI1544271600
(dp387
g2
Vhttp://www.skyracing.com.au/index.php?component=racing&task=race&id=108668403&meetingid=107748119&Itemid=89
p388
sg4
V29040854.1220
p389
sg6
(dp390
g8
(lp391
(lp392
I2
aI3
aI1
aI6
aa(lp393
I7
aI2
aI6
aI12
aa(lp394
I2
aI6
aI3
aI5
aa(lp395
I3
aI1
aI6
aI7
aa(lp396
I11
aI6
aI12
aI3
aa(lp397
I2
aI3
aI1
aI6
aa(lp398
I2
aI3
aI6
aI11
aa(lp399
I2
aI3
aI6
aI1
aasg18
(lp400
(dp401
g21
VBENNYS KING
p402
sg23
Vx4x0x
p403
sg25
I88
sg26
I1
sg27
I94
sa(dp404
g21
VOXWICH BAY
p405
sg23
V04x40
p406
sg25
I100
sg26
I2
sg27
I100
sa(dp407
g21
VATIRELARIGO
p408
sg23
V913x4
p409
sg25
I99
sg26
I3
sg27
I99
sa(dp410
g21
VPOP ROCKSTAR
p411
sg23
V76x57
p412
sg25
I75
sg26
I4
sg27
I74
sa(dp413
g21
VLLANCILLO LORD
p414
sg23
Vx39x7
p415
sg25
I60
sg26
I5
sg27
I70
sa(dp416
g21
VWEST WIZARD
p417
sg23
V0x102
p418
sg25
I95
sg26
I6
sg27
I90
sa(dp419
g21
VMAGUIRE'S GLEN
p420
sg23
V144x0
p421
sg25
I76
sg26
I7
sg27
I65
sa(dp422
g21
VKERISPER
p423
sg23
Vx7x7x
p424
sg25
I84
sg26
I8
sg27
I80
sa(dp425
g21
VCONAS TAOI
p426
sg23
V853x9
p427
sg25
I89
sg26
I9
sg27
I78
sa(dp428
g21
VSANDHURST LAD
p429
sg23
V240x4
p430
sg25
I66
sg26
I10
sg27
I77
sa(dp431
g21
VBEALLANDENDALL
p432
sg23
V222x2
p433
sg25
I90
sg26
I11
sg27
I89
sa(dp434
g21
VIT'S OBVIOUS
p435
sg23
V6x70x
p436
sg25
I55
sg26
I12
sg27
I70
sa(dp437
g21
VTOP AND DROP
p438
sg23
Vx75x4
p439
sg25
I73
sg26
I13
sg27
I86
sasg55
(lp440
sssI1544283300
(dp441
g2
Vhttp://www.skyracing.com.au/index.php?component=racing&task=race&id=108668394&meetingid=107748151&Itemid=89
p442
sg4
V29039654.1535
p443
sg6
(dp444
g8
(lp445
(lp446
I2
aI6
aI3
aI7
aa(lp447
I2
aI5
aI3
aI4
aa(lp448
I2
aI3
aI7
aI6
aa(lp449
I2
aI7
aI3
aI6
aa(lp450
I7
aI6
aI2
aI8
aa(lp451
I3
aI6
aI2
aI7
aa(lp452
I2
aI6
aI5
aI7
aa(lp453
I2
aI3
aI6
aI7
aasg18
(lp454
(dp455
g21
VCHASE THE SPUD
p456
sg23
V1000x
p457
sg25
I74
sg26
I1
sg27
I69
sa(dp458
g21
VROYAL VACATION
p459
sg23
Vx00x2
p460
sg25
I100
sg26
I2
sg27
I100
sa(dp461
g21
VEXITAS
p462
sg23
V12212
p463
sg25
I83
sg26
I3
sg27
I93
sa(dp464
g21
VMILANSBAR
p465
sg23
V1525x
p466
sg25
I79
sg26
I4
sg27
I76
sa(dp467
g21
VACTINPIECES
p468
sg23
V59x64
p469
sg25
I89
sg26
I5
sg27
I80
sa(dp470
g21
VRED INFANTRY
p471
sg23
V10x91
p472
sg25
I99
sg26
I6
sg27
I96
sa(dp473
g21
VSHANROE SANTOS
p474
sg23
V76x41
p475
sg25
I90
sg26
I7
sg27
I87
sa(dp476
g21
VMORNEY WING
p477
sg23
V6x132
p478
sg25
I70
sg26
I8
sg27
I83
sasg55
(lp479
sssI1544274600
(dp480
g2
Vhttp://www.skyracing.com.au/index.php?component=racing&task=race&id=108668375&meetingid=107748167&Itemid=89
p481
sg4
V29040858.1310
p482
sg6
(dp483
g8
(lp484
(lp485
I1
aI8
aI4
aI9
aa(lp486
I6
aI4
aI2
aI1
aa(lp487
I2
aI1
aI6
aI5
aa(lp488
I1
aI8
aI7
aI4
aa(lp489
I1
aI3
aI5
aI4
aa(lp490
I4
aI8
aI1
aI9
aa(lp491
I8
aI1
aI9
aI4
aa(lp492
I1
aI4
aI8
aI6
aasg18
(lp493
(dp494
g21
VALIANDY
p495
sg23
V4x0x3
p496
sg25
I97
sg26
I1
sg27
I100
sa(dp497
g21
VTOMKEVI
p498
sg23
V315x6
p499
sg25
I79
sg26
I2
sg27
I72
sa(dp500
g21
VPRESENCE FELT
p501
sg23
Vx1x06
p502
sg25
I70
sg26
I3
sg27
I69
sa(dp503
g21
VDEDIGOUT
p504
sg23
V2254x
p505
sg25
I100
sg26
I4
sg27
I91
sa(dp506
g21
VHOWTH SUMMIT
p507
sg23
V9154
p508
sg25
I91
sg26
I5
sg27
I82
sa(dp509
g21
VQUIDS IN
p510
sg23
V43x53
p511
sg25
I77
sg26
I6
sg27
I79
sa(dp512
g21
VSEVENBALLS OF FIRE
p513
sg23
V33x5x
p514
sg25
I67
sg26
I7
sg27
I63
sa(dp515
g21
VMARLEE MASSIE
p516
sg23
V3128x
p517
sg25
I82
sg26
I8
sg27
I96
sa(dp518
g21
VWIG WAM WIGGLE
p519
sg23
V7x91x
p520
sg25
I89
sg26
I9
sg27
I87
sasg55
(lp521
sssI1544281500
(dp522
g2
Vhttp://www.skyracing.com.au/index.php?component=racing&task=race&id=108668408&meetingid=107748119&Itemid=89
p523
sg4
V29040854.1505
p524
sg6
(dp525
g8
(lp526
(lp527
I5
aI2
aI4
aI1
aa(lp528
I4
aI2
aI7
aI5
aa(lp529
I2
aI1
aI5
aI7
aa(lp530
I2
aI7
aI6
aI1
aa(lp531
I4
aI7
aI2
aI5
aa(lp532
I2
aI5
aI4
aI1
aa(lp533
I6
aI5
aI2
aI4
aa(lp534
I2
aI4
aI5
aI7
aasg18
(lp535
(dp536
g21
VANTEROS
p537
sg23
V6x340
p538
sg25
I91
sg26
I1
sg27
I81
sa(dp539
g21
VPOKER PLAY
p540
sg23
V033x3
p541
sg25
I96
sg26
I2
sg27
I92
sa(dp542
g21
VMERCENAIRE
p543
sg23
V20x75
p544
sg25
I79
sg26
I3
sg27
I73
sa(dp545
g21
VDIABLO DE ROUHET
p546
sg23
V1220x
p547
sg25
I81
sg26
I4
sg27
I90
sa(dp548
g21
VTRUCKERS LODGE
p549
sg23
Vx1x44
p550
sg25
I100
sg26
I5
sg27
I100
sa(dp551
g21
VON THE ROAD
p552
sg23
V2005x
p553
sg25
I88
sg26
I6
sg27
I77
sa(dp554
g21
VBRAVENTARA
p555
sg23
V320x5
p556
sg25
I72
sg26
I7
sg27
I67
sa(dp557
g21
VFALCONS FALL
p558
sg23
V0967x
p559
sg25
I64
sg26
I8
sg27
I60
sa(dp560
g21
VZEPHYROS BLEU
p561
sg23
V96x64
p562
sg25
I76
sg26
I9
sg27
I75
sasg55
(lp563
sssI1544275500
(dp564
g2
Vhttp://www.skyracing.com.au/index.php?component=racing&task=race&id=108668405&meetingid=107748119&Itemid=89
p565
sg4
V29040854.1325
p566
sg6
(dp567
g8
(lp568
(lp569
I9
aI2
aI6
aI10
aa(lp570
I14
aI9
aI2
aI4
aa(lp571
I9
aI2
aI10
aI8
aa(lp572
I2
aI14
aI9
aI10
aa(lp573
I9
aI14
aI2
aI16
aa(lp574
I9
aI2
aI6
aI15
aa(lp575
I9
aI2
aI15
aI6
aa(lp576
I9
aI2
aI14
aI6
aasg18
(lp577
(dp578
g21
VBIG MAN CLARENCE
p579
sg23
Vx12x0
p580
sg25
I74
sg26
I1
sg27
I68
sa(dp581
g21
VDOMINATEUR
p582
sg23
V2x3x2
p583
sg25
I98
sg26
I2
sg27
I98
sa(dp584
g21
VGAME IN THE PARK
p585
sg23
V675x6
p586
sg25
I66
sg26
I3
sg27
I67
sa(dp587
g21
VIWILLDOIT
p588
sg23
Vx53x8
p589
sg25
I70
sg26
I4
sg27
I72
sa(dp590
g21
VJ'AI FROID
p591
sg23
V52x9
p592
sg25
I68
sg26
I5
sg27
I75
sa(dp593
g21
VPEEPING TOM
p594
sg23
V981x3
p595
sg25
I94
sg26
I6
sg27
I96
sa(dp596
g21
VRUFFLING FEATHERS
p597
sg23
V848x5
p598
sg25
I81
sg26
I7
sg27
I85
sa(dp599
g21
VSECRET REPRIEVE
p600
sg23
V5
p601
sg25
I84
sg26
I8
sg27
I86
sa(dp602
g21
VSMITHS CROSS
p603
sg23
V112x2
p604
sg25
I100
sg26
I9
sg27
I100
sa(dp605
g21
VSTORM ARISING
p606
sg23
V3x6
p607
sg25
I91
sg26
I10
sg27
I93
sa(dp608
g21
VSTORM WIZARD
p609
sg23
V0
p610
sg25
I79
sg26
I11
sg27
I81
sa(dp611
g21
VSUMMIT LIKE HERBIE
p612
sg23
V156x6
p613
sg25
I87
sg26
I12
sg27
I77
sa(dp614
g21
VTELSON BARLEY
p615
sg23
V0x5x0
p616
sg25
I65
sg26
I13
sg27
I65
sa(dp617
g21
VWOULDUADAMANDEVEIT
p618
sg23
V302x8
p619
sg25
I89
sg26
I14
sg27
I88
sa(dp620
g21
VCAVOK
p621
sg23
V1x3x3
p622
sg25
I95
sg26
I15
sg27
I91
sa(dp623
g21
VSAVE THE PENNIES
p624
sg23
Vx2x3x
p625
sg25
I76
sg26
I16
sg27
I78
sasg55
(lp626
sssI1544276400
(dp627
g2
Vhttp://www.skyracing.com.au/index.php?component=racing&task=race&id=108668376&meetingid=107748167&Itemid=89
p628
sg4
V29040858.1340
p629
sg6
(dp630
g8
(lp631
(lp632
I4
aI6
aI1
aI12
aa(lp633
I6
aI1
aI5
aI2
aa(lp634
I6
aI5
aI2
aI10
aa(lp635
I6
aI1
aI5
aI2
aa(lp636
I6
aI5
aI12
aI2
aa(lp637
I4
aI6
aI1
aI5
aa(lp638
I4
aI1
aI2
aI5
aa(lp639
I6
aI5
aI1
aI4
aasg18
(lp640
(dp641
g21
VCREST
p642
sg23
Vx421x
p643
sg25
I97
sg26
I1
sg27
I94
sa(dp644
g21
VBLOTTOS
p645
sg23
V67x03
p646
sg25
I85
sg26
I2
sg27
I79
sa(dp647
g21
VFAWSLEY SPIRIT
p648
sg23
V337x0
p649
sg25
I79
sg26
I3
sg27
I80
sa(dp650
g21
VLITTLE BRUCE
p651
sg23
V14x18
p652
sg25
I100
sg26
I4
sg27
I100
sa(dp653
g21
VMON PALOIS
p654
sg23
V0x5x3
p655
sg25
I94
sg26
I5
sg27
I84
sa(dp656
g21
VBAKO DE LA SAULAIE
p657
sg23
V24x32
p658
sg25
I91
sg26
I6
sg27
I99
sa(dp659
g21
VSKIPTHESCALES
p660
sg23
V413x0
p661
sg25
I88
sg26
I7
sg27
I87
sa(dp662
g21
VFRANKLY SPEAKING
p663
sg23
V422x7
p664
sg25
I76
sg26
I8
sg27
I76
sa(dp665
g21
VNOBUTTABOY
p666
sg23
Vx7x0x
p667
sg25
I73
sg26
I9
sg27
I71
sa(dp668
g21
VLOUGH SALT
p669
sg23
V26444
p670
sg25
I71
sg26
I10
sg27
I74
sa(dp671
g21
VGARDE FORESTIER
p672
sg23
V09x87
p673
sg25
I68
sg26
I11
sg27
I71
sa(dp674
g21
VBAFANA BLUE
p675
sg23
V4x152
p676
sg25
I80
sg26
I12
sg27
I90
sasg55
(lp677
sssI1544277300
(dp678
g2
Vhttp://www.skyracing.com.au/index.php?component=racing&task=race&id=108668406&meetingid=107748119&Itemid=89
p679
sg4
V29040854.1355
p680
sg6
(dp681
g8
(lp682
(lp683
I4
aI1
aI3
aI6
aa(lp684
I5
aI3
aI1
aI9
aa(lp685
I1
aI5
aI10
aI9
aa(lp686
I1
aI5
aI9
aI11
aa(lp687
I5
aI3
aI1
aI9
aa(lp688
I4
aI1
aI3
aI6
aa(lp689
I4
aI3
aI1
aI8
aa(lp690
I1
aI5
aI3
aI4
aasg18
(lp691
(dp692
g21
VSTEELY ADDITION
p693
sg23
V1x8x3
p694
sg25
I93
sg26
I1
sg27
I97
sa(dp695
g21
VFLEMCARA
p696
sg23
V190x8
p697
sg25
I81
sg26
I2
sg27
I86
sa(dp698
g21
VNOBLE ROBIN
p699
sg23
Vx110x
p700
sg25
I99
sg26
I3
sg27
I94
sa(dp701
g21
VYALLTARI
p702
sg23
Vx111x
p703
sg25
I100
sg26
I4
sg27
I100
sa(dp704
g21
VKAYF BLANCO
p705
sg23
V226x3
p706
sg25
I74
sg26
I5
sg27
I78
sa(dp707
g21
VVODKA ALL THE WAY
p708
sg23
V221x6
p709
sg25
I92
sg26
I6
sg27
I90
sa(dp710
g21
VMERRY MILAN
p711
sg23
V612x0
p712
sg25
I75
sg26
I7
sg27
I71
sa(dp713
g21
VLOUSE TALK
p714
sg23
V110x0
p715
sg25
I86
sg26
I8
sg27
I77
sa(dp716
g21
VMOUNT RUSHMOORE
p717
sg23
V224x7
p718
sg25
I87
sg26
I9
sg27
I89
sa(dp719
g21
VBOOK OF GOLD
p720
sg23
V396x5
p721
sg25
I70
sg26
I10
sg27
I73
sa(dp722
g21
VHOLDBACKTHERIVER
p723
sg23
V261x5
p724
sg25
I78
sg26
I11
sg27
I80
sasg55
(lp725
sssI1544278200
(dp726
g2
Vhttp://www.skyracing.com.au/index.php?component=racing&task=race&id=108668362&meetingid=107753929&Itemid=89
p727
sg4
V29040852.1410
p728
sg6
(dp729
g8
(lp730
(lp731
I1
aI8
aI3
aI4
aa(lp732
I3
aI4
aI6
aI5
aa(lp733
I3
aI6
aI7
aI10
aa(lp734
I3
aI4
aI8
aI6
aa(lp735
I4
aI3
aI1
aI8
aa(lp736
I8
aI3
aI4
aI1
aa(lp737
I8
aI1
aI4
aI3
aa(lp738
I3
aI4
aI8
aI1
aasg18
(lp739
(dp740
g21
VCHRIS'S DREAM
p741
sg23
V1x19x
p742
sg25
I98
sg26
I1
sg27
I100
sa(dp743
g21
VDISCO MUSIK
p744
sg23
V00x79
p745
sg25
I71
sg26
I2
sg27
I65
sa(dp746
g21
VGUN DIGGER
p747
sg23
V250x3
p748
sg25
I90
sg26
I3
sg27
I89
sa(dp749
g21
VKAGNEY
p750
sg23
V21x2x
p751
sg25
I94
sg26
I4
sg27
I86
sa(dp752
g21
VKING'S WAR
p753
sg23
V62305
p754
sg25
I75
sg26
I5
sg27
I68
sa(dp755
g21
VLAST MAN STANDING
p756
sg23
V140x2
p757
sg25
I82
sg26
I6
sg27
I77
sa(dp758
g21
VSCHOOL LANE
p759
sg23
V34225
p760
sg25
I79
sg26
I7
sg27
I73
sa(dp761
g21
VSHADY OPERATOR
p762
sg23
V12x2x
p763
sg25
I100
sg26
I8
sg27
I92
sa(dp764
g21
VSTEER CLEAR
p765
sg23
V0662x
p766
sg25
I85
sg26
I9
sg27
I79
sa(dp767
g21
VTHE BRIG
p768
sg23
V0x905
p769
sg25
I70
sg26
I10
sg27
I65
sa(dp770
g21
VTHE CONDITIONAL
p771
sg23
V1402x
p772
sg25
I88
sg26
I11
sg27
I83
sa(dp773
g21
VTARA MIA
p774
sg23
V80077
p775
sg25
I73
sg26
I12
sg27
I70
sasg55
(lp776
sssI1544279100
(dp777
g2
Vhttp://www.skyracing.com.au/index.php?component=racing&task=race&id=108668392&meetingid=107748151&Itemid=89
p778
sg4
V29039654.1425
p779
sg6
(dp780
g8
(lp781
(lp782
I1
aI3
aI4
aI2
aa(lp783
I2
aI3
aI4
aI7
aa(lp784
I2
aI4
aI3
aI7
aa(lp785
I2
aI7
aI10
aI3
aa(lp786
I3
aI4
aI7
aI2
aa(lp787
I1
aI3
aI2
aI4
aa(lp788
I1
aI4
aI3
aI9
aa(lp789
I3
aI2
aI4
aI1
aasg18
(lp790
(dp791
g21
VAPPLE'S SHAKIRA
p792
sg23
V1143x
p793
sg25
I100
sg26
I1
sg27
I100
sa(dp794
g21
VTOTTERDOWN
p795
sg23
V9x131
p796
sg25
I83
sg26
I2
sg27
I88
sa(dp797
g21
VI'M A GAME CHANGER
p798
sg23
V92x22
p799
sg25
I97
sg26
I3
sg27
I97
sa(dp800
g21
VERAGON DE CHANAY
p801
sg23
V2x613
p802
sg25
I92
sg26
I4
sg27
I91
sa(dp803
g21
VTIMOTEO
p804
sg23
V5242x
p805
sg25
I71
sg26
I5
sg27
I77
sa(dp806
g21
VFRIDAY NIGHT LIGHT
p807
sg23
V2006x
p808
sg25
I67
sg26
I6
sg27
I68
sa(dp809
g21
VNELSON'S TOUCH
p810
sg23
V131x2
p811
sg25
I75
sg26
I7
sg27
I80
sa(dp812
g21
VMAN OF PLENTY
p813
sg23
Vx6504
p814
sg25
I60
sg26
I8
sg27
I62
sa(dp815
g21
VARDMAYLE
p816
sg23
V7131x
p817
sg25
I79
sg26
I9
sg27
I71
sa(dp818
g21
VTHOUNDER
p819
sg23
Vx114x
p820
sg25
I89
sg26
I10
sg27
I84
sasg55
(lp821
sssI1544270400
(dp822
g2
Vhttp://www.skyracing.com.au/index.php?component=racing&task=race&id=108668358&meetingid=107753929&Itemid=89
p823
sg4
V29040852.1200
p824
sg6
(dp825
g8
(lp826
(lp827
I8
aI26
aI25
aI11
aa(lp828
I11
aI25
aI26
aI6
aa(lp829
I11
aI6
aI8
aI9
aa(lp830
I25
aI11
aI26
aI6
aa(lp831
I25
aI11
aI26
aI8
aa(lp832
I8
aI26
aI25
aI11
aa(lp833
I25
aI8
aI26
aI11
aa(lp834
I11
aI25
aI26
aI8
aasg18
(lp835
(dp836
g21
VAPOCALYPSE
p837
sg23
V6
p838
sg25
I71
sg26
I1
sg27
I85
sa(dp839
g21
VBAILY GORSE
p840
sg23
V0
p841
sg25
I68
sg26
I2
sg27
I71
sa(dp842
g21
VCITY HALL
p843
sg23
V5x
p844
sg25
I88
sg26
I3
sg27
I89
sa(dp845
g21
VDANCING ON MY OWN
p846
sg23
V5x
p847
sg25
I86
sg26
I4
sg27
I91
sa(dp848
g21
VDAWSON'S COTTAGE
p849
sg23
V
p850
sg25
I69
sg26
I5
sg27
I0
sa(dp851
g21
VDE MAZZARO
p852
sg23
V80056
p853
sg25
I66
sg26
I6
sg27
I74
sa(dp854
g21
VEASY CASH D'ALEX
p855
sg23
V000
p856
sg25
I42
sg26
I7
sg27
I49
sa(dp857
g21
VECLAIR DE BEAUFEU
p858
sg23
V1x323
p859
sg25
I100
sg26
I8
sg27
I100
sa(dp860
g21
VECLAT DU LARGE
p861
sg23
V0x57
p862
sg25
I56
sg26
I9
sg27
I53
sa(dp863
g21
VEMAIL ROSE
p864
sg23
V0
p865
sg25
I91
sg26
I10
sg27
I70
sa(dp866
g21
VENVIOUS EDITOR
p867
sg23
V1x5x2
p868
sg25
I93
sg26
I11
sg27
I93
sa(dp869
g21
VGLEN OF AHERLOW
p870
sg23
V0
p871
sg25
I76
sg26
I12
sg27
I64
sa(dp872
g21
VI'M CHARLIE
p873
sg23
V8
p874
sg25
I55
sg26
I13
sg27
I54
sa(dp875
g21
VJACKDAWS LANE
p876
sg23
V0
p877
sg25
I53
sg26
I14
sg27
I56
sa(dp878
g21
VMCGILL
p879
sg23
g850
sg25
I58
sg26
I15
sg27
I0
sa(dp880
g21
VNAM
p881
sg23
V66180
p882
sg25
I82
sg26
I16
sg27
I77
sa(dp883
g21
VOSTAIOCHT
p884
sg23
Vx0x05
p885
sg25
I52
sg26
I17
sg27
I58
sa(dp886
g21
VPERCY B SHELLEY
p887
sg23
V77x40
p888
sg25
I64
sg26
I18
sg27
I78
sa(dp889
g21
VROCCO'S DREAM
p890
sg23
V08x6x
p891
sg25
I73
sg26
I19
sg27
I83
sa(dp892
g21
VROMAN ROCK
p893
sg23
V33x6
p894
sg25
I85
sg26
I20
sg27
I87
sa(dp895
g21
VTHE MCGREGORNATOR
p896
sg23
V500x0
p897
sg25
I79
sg26
I21
sg27
I51
sa(dp898
g21
VTORMUND
p899
sg23
g850
sg25
I70
sg26
I22
sg27
I0
sa(dp900
g21
VTROGIR
p901
sg23
V0
p902
sg25
I50
sg26
I23
sg27
I61
sa(dp903
g21
VWRITE IT DOWN
p904
sg23
g850
sg25
I80
sg26
I24
sg27
I0
sa(dp905
g21
VYOUNG TED
p906
sg23
V216x
p907
sg25
I99
sg26
I25
sg27
I96
sa(dp908
g21
VBUILDMEUPBUTTERCUP
p909
sg23
V45x9x
p910
sg25
I96
sg26
I26
sg27
I98
sa(dp911
g21
VCOSTALITA
p912
sg23
g850
sg25
I61
sg26
I27
sg27
I0
sa(dp913
g21
VGALBOYSTOWN ROSE
p914
sg23
V7
p915
sg25
I49
sg26
I28
sg27
I62
sa(dp916
g21
VMISS CASSY
p917
sg23
V00x08
p918
sg25
I39
sg26
I29
sg27
I52
sa(dp919
g21
VUPGRADED
p920
sg23
Vx6006
p921
sg25
I63
sg26
I30
sg27
I81
sa(dp922
g21
VPIN POINT PARITY
p923
sg23
V77
p924
sg25
I48
sg26
I31
sg27
I66
sa(dp925
g21
VLOVELY CARRIG
p926
sg23
V0
p927
sg25
I45
sg26
I32
sg27
I68
sa(dp928
g21
VPRESENTING POINT
p929
sg23
V7x0
p930
sg25
I43
sg26
I33
sg27
I69
sasg55
(lp931
sssI1544282400
(dp932
g2
Vhttp://www.skyracing.com.au/index.php?component=racing&task=race&id=108668364&meetingid=107753929&Itemid=89
p933
sg4
V29040852.1520
p934
sg6
(dp935
g8
(lp936
(lp937
I5
aI6
aI4
aI3
aa(lp938
I5
aI6
aI8
aI1
aa(lp939
I8
aI1
aI2
aI3
aa(lp940
I5
aI6
aI4
aI3
aa(lp941
I5
aI6
aI9
aI4
aa(lp942
I5
aI6
aI4
aI3
aa(lp943
I6
aI4
aI5
aI3
aa(lp944
I5
aI6
aI4
aI8
aasg18
(lp945
(dp946
g21
VDIONYSIS
p947
sg23
g850
sg25
I82
sg26
I1
sg27
I0
sa(dp948
g21
VI'MSTILLYOURBABY
p949
sg23
g850
sg25
I77
sg26
I2
sg27
I0
sa(dp950
g21
VSOI COWBOY
p951
sg23
V1x
p952
sg25
I87
sg26
I3
sg27
I87
sa(dp953
g21
VSUPER FOLLO
p954
sg23
V31x
p955
sg25
I97
sg26
I4
sg27
I94
sa(dp956
g21
VNEPTUNE
p957
sg23
V32x
p958
sg25
I92
sg26
I5
sg27
I100
sa(dp959
g21
VTHE VERY MAN
p960
sg23
V01x
p961
sg25
I100
sg26
I6
sg27
I98
sa(dp962
g21
VBALLYSHANNON ROSE
p963
sg23
g850
sg25
I69
sg26
I7
sg27
I0
sa(dp964
g21
VMAMA TRIED
p965
sg23
V750x9
p966
sg25
I64
sg26
I8
sg27
I81
sa(dp967
g21
VBIGBADANDBEAUTIFUL
p968
sg23
g850
sg25
I79
sg26
I9
sg27
I0
sasg55
(lp969
sssI1544271300
(dp970
g2
Vhttp://www.skyracing.com.au/index.php?component=racing&task=race&id=108668388&meetingid=107748151&Itemid=89
p971
sg4
V29039654.1215
p972
sg6
(dp973
g8
(lp974
(lp975
I1
aI6
aI8
aI10
aa(lp976
I2
aI9
aI7
aI5
aa(lp977
I2
aI7
aI9
aI10
aa(lp978
I6
aI2
aI7
aI9
aa(lp979
I9
aI2
aI5
aI7
aa(lp980
I1
aI6
aI8
aI2
aa(lp981
I1
aI8
aI10
aI7
aa(lp982
I2
aI6
aI9
aI1
aasg18
(lp983
(dp984
g21
VZANZA
p985
sg23
V61
p986
sg25
I100
sg26
I1
sg27
I100
sa(dp987
g21
VBADDESLEY KNIGHT
p988
sg23
V2x1x4
p989
sg25
I80
sg26
I2
sg27
I82
sa(dp990
g21
VCHAIN SMOKER
p991
sg23
V9344x
p992
sg25
I63
sg26
I3
sg27
I67
sa(dp993
g21
VCRACKER JAK
p994
sg23
V4x4x5
p995
sg25
I60
sg26
I4
sg27
I61
sa(dp996
g21
VGLENO
p997
sg23
Vx5x1x
p998
sg25
I73
sg26
I5
sg27
I72
sa(dp999
g21
VGREANETEEN
p1000
sg23
V3x
p1001
sg25
I86
sg26
I6
sg27
I95
sa(dp1002
g21
VHOLD THE NOTE
p1003
sg23
V14
p1004
sg25
I83
sg26
I7
sg27
I79
sa(dp1005
g21
VI CAN'T EXPLAIN
p1006
sg23
V1x
p1007
sg25
I95
sg26
I8
sg27
I90
sa(dp1008
g21
VJAMMY GEORGE
p1009
sg23
V194x2
p1010
sg25
I72
sg26
I9
sg27
I74
sa(dp1011
g21
VPHOENIX WAY
p1012
sg23
V1x5
p1013
sg25
I93
sg26
I10
sg27
I87
sasg55
(lp1014
sssI1544272200
(dp1015
g2
Vhttp://www.skyracing.com.au/index.php?component=racing&task=race&id=108668359&meetingid=107753929&Itemid=89
p1016
sg4
V29040852.1230
p1017
sg6
(dp1018
g8
(lp1019
(lp1020
I7
aI11
aI17
aI21
aa(lp1021
I10
aI11
aI13
aI2
aa(lp1022
I21
aI20
aI22
aI9
aa(lp1023
I10
aI11
aI13
aI21
aa(lp1024
I11
aI21
aI10
aI4
aa(lp1025
I17
aI7
aI11
aI9
aa(lp1026
I11
aI17
aI21
aI3
aa(lp1027
I11
aI10
aI21
aI7
aasg18
(lp1028
(dp1029
g21
VANGELIC MOON
p1030
sg23
V870x1
p1031
sg25
I82
sg26
I1
sg27
I61
sa(dp1032
g21
VASKANN
p1033
sg23
V83x3x
p1034
sg25
I70
sg26
I2
sg27
I70
sa(dp1035
g21
VBEEVERSTOWN BEAUTY
p1036
sg23
V2x16x
p1037
sg25
I93
sg26
I3
sg27
I78
sa(dp1038
g21
VCONDARCIA
p1039
sg23
Vx599x
p1040
sg25
I73
sg26
I4
sg27
I75
sa(dp1041
g21
VCORNAKILL ROSE
p1042
sg23
Vx0x6x
p1043
sg25
I78
sg26
I5
sg27
I79
sa(dp1044
g21
VFIANCHETTO
p1045
sg23
V00860
p1046
sg25
I59
sg26
I6
sg27
I55
sa(dp1047
g21
VFIZZLESTICK
p1048
sg23
V3x3
p1049
sg25
I91
sg26
I7
sg27
I100
sa(dp1050
g21
VHOWAYA AOIFE
p1051
sg23
V05x0x
p1052
sg25
I81
sg26
I8
sg27
I56
sa(dp1053
g21
VIAMASTARTOO
p1054
sg23
V08x84
p1055
sg25
I84
sg26
I9
sg27
I86
sa(dp1056
g21
VKINGSTON GIRL
p1057
sg23
V0146x
p1058
sg25
I89
sg26
I10
sg27
I85
sa(dp1059
g21
VMADERA EXPRESS
p1060
sg23
V1381x
p1061
sg25
I100
sg26
I11
sg27
I98
sa(dp1062
g21
VMOLLYELLA
p1063
sg23
g850
sg25
I63
sg26
I12
sg27
I0
sa(dp1064
g21
VMOSKOVITE
p1065
sg23
V6x552
p1066
sg25
I87
sg26
I13
sg27
I83
sa(dp1067
g21
VSABICHI
p1068
sg23
V86
p1069
sg25
I69
sg26
I14
sg27
I62
sa(dp1070
g21
VARTIZARRA
p1071
sg23
g850
sg25
I64
sg26
I15
sg27
I0
sa(dp1072
g21
VFLORENCE BAY
p1073
sg23
V0x
p1074
sg25
I72
sg26
I16
sg27
I72
sa(dp1075
g21
VLITTLE LIGHT
p1076
sg23
V72x
p1077
sg25
I99
sg26
I17
sg27
I92
sa(dp1078
g21
VRAPID RESPONSE
p1079
sg23
g850
sg25
I77
sg26
I18
sg27
I0
sa(dp1080
g21
VRETRACE
p1081
sg23
V80x76
p1082
sg25
I61
sg26
I19
sg27
I58
sa(dp1083
g21
VRHYTHM DIVINE
p1084
sg23
V64x55
p1085
sg25
I68
sg26
I20
sg27
I64
sa(dp1086
g21
VTHE CADDY ROSE
p1087
sg23
V223x4
p1088
sg25
I96
sg26
I21
sg27
I90
sa(dp1089
g21
VWALKING IN MEMPHIS
p1090
sg23
V4x089
p1091
sg25
I66
sg26
I22
sg27
I68
sasg55
(lp1092
sssI1544282700
(dp1093
g2
Vhttp://www.skyracing.com.au/index.php?component=racing&task=race&id=108668379&meetingid=107748167&Itemid=89
p1094
sg4
V29040858.1525
p1095
sg6
(dp1096
g8
(lp1097
(lp1098
I8
aI3
aI6
aI9
aa(lp1099
I8
aI3
aI9
aI6
aa(lp1100
I8
aI3
aI9
aI6
aa(lp1101
I8
aI3
aI9
aI6
aa(lp1102
I3
aI8
aI9
aI6
aa(lp1103
I3
aI8
aI9
aI10
aa(lp1104
I5
aI8
aI2
aI3
aa(lp1105
I8
aI3
aI9
aI6
aasg18
(lp1106
(dp1107
g21
VABSOLUTE JAFFA
p1108
sg23
g850
sg25
I61
sg26
I1
sg27
I0
sa(dp1109
g21
VARTICHOKE HEART
p1110
sg23
g850
sg25
I94
sg26
I2
sg27
I0
sa(dp1111
g21
VCONCHITA
p1112
sg23
V36
p1113
sg25
I88
sg26
I3
sg27
I96
sa(dp1114
g21
VFEETRONIE DE KERVI
p1115
sg23
g850
sg25
I69
sg26
I4
sg27
I0
sa(dp1116
g21
VMERGEELA
p1117
sg23
g850
sg25
I100
sg26
I5
sg27
I0
sa(dp1118
g21
VMONTELIMAR
p1119
sg23
V8
p1120
sg25
I66
sg26
I6
sg27
I90
sa(dp1121
g21
VSHE'S BLORENGE
p1122
sg23
g850
sg25
I78
sg26
I7
sg27
I0
sa(dp1123
g21
VSORBET
p1124
sg23
V5
p1125
sg25
I95
sg26
I8
sg27
I100
sa(dp1126
g21
VVILLIERSDORP
p1127
sg23
V8
p1128
sg25
I75
sg26
I9
sg27
I86
sa(dp1129
g21
VWHAT ABOUT BARB
p1130
sg23
V9
p1131
sg25
I83
sg26
I10
sg27
I84
sasg55
(lp1132
sssI1544274000
(dp1133
g2
Vhttp://www.skyracing.com.au/index.php?component=racing&task=race&id=108668345&meetingid=107748135&Itemid=89
p1134
sg4
V29039652.1300
p1135
sg6
(dp1136
g8
(lp1137
(lp1138
I5
aI3
aI2
aI7
aa(lp1139
I6
aI1
aI4
aI8
aa(lp1140
I1
aI2
aI5
aI10
aa(lp1141
I6
aI10
aI5
aI4
aa(lp1142
I6
aI11
aI8
aI2
aa(lp1143
I3
aI5
aI7
aI2
aa(lp1144
I2
aI6
aI5
aI8
aa(lp1145
I6
aI5
aI3
aI2
aasg18
(lp1146
(dp1147
g21
VCH'TIBELLO
p1148
sg23
V0x569
p1149
sg25
I81
sg26
I1
sg27
I85
sa(dp1150
g21
VMIDNIGHT SHADOW
p1151
sg23
V71x20
p1152
sg25
I99
sg26
I2
sg27
I94
sa(dp1153
g21
VTAWSEEF
p1154
sg23
V4121x
p1155
sg25
I88
sg26
I3
sg27
I96
sa(dp1156
g21
VJETSTREAM JACK
p1157
sg23
Vx005x
p1158
sg25
I78
sg26
I4
sg27
I73
sa(dp1159
g21
VNOTWHATIAM
p1160
sg23
V0x101
p1161
sg25
I100
sg26
I5
sg27
I100
sa(dp1162
g21
VDUBAI ANGEL
p1163
sg23
V3x2x9
p1164
sg25
I92
sg26
I6
sg27
I80
sa(dp1165
g21
VRAINBOW DREAMER
p1166
sg23
V0314x
p1167
sg25
I86
sg26
I7
sg27
I91
sa(dp1168
g21
VJET SET
p1169
sg23
V901x5
p1170
sg25
I95
sg26
I8
sg27
I88
sa(dp1171
g21
VUPTOWN FUNK
p1172
sg23
V3325x
p1173
sg25
I70
sg26
I9
sg27
I75
sa(dp1174
g21
VFAITHFUL MOUNT
p1175
sg23
Vx9313
p1176
sg25
I77
sg26
I10
sg27
I71
sa(dp1177
g21
VMAHLERVOUS
p1178
sg23
V720x2
p1179
sg25
I74
sg26
I11
sg27
I78
sasg55
(lp1180
sssI1544275800
(dp1181
g2
Vhttp://www.skyracing.com.au/index.php?component=racing&task=race&id=108668346&meetingid=107748135&Itemid=89
p1182
sg4
V29039652.1330
p1183
sg6
(dp1184
g8
(lp1185
(lp1186
I5
aI1
aI2
aI3
aa(lp1187
I2
aI3
aI5
aI7
aa(lp1188
I5
aI12
aI11
aI15
aa(lp1189
I2
aI1
aI4
aI3
aa(lp1190
I12
aI5
aI11
aI3
aa(lp1191
I2
aI5
aI1
aI4
aa(lp1192
I1
aI2
aI8
aI7
aa(lp1193
I5
aI2
aI1
aI12
aasg18
(lp1194
(dp1195
g21
VDON POLI
p1196
sg23
Vx723x
p1197
sg25
I100
sg26
I1
sg27
I98
sa(dp1198
g21
VBLAKLION
p1199
sg23
Vx200x
p1200
sg25
I97
sg26
I2
sg27
I88
sa(dp1201
g21
VBALLYOPTIC
p1202
sg23
V4142x
p1203
sg25
I92
sg26
I3
sg27
I85
sa(dp1204
g21
VNOBLE ENDEAVOR
p1205
sg23
V1x36x
p1206
sg25
I84
sg26
I4
sg27
I78
sa(dp1207
g21
VPRESENT MAN
p1208
sg23
V4x3x1
p1209
sg25
I96
sg26
I5
sg27
I100
sa(dp1210
g21
VULTRAGOLD
p1211
sg23
V001x4
p1212
sg25
I87
sg26
I6
sg27
I84
sa(dp1213
g21
VMISSED APPROACH
p1214
sg23
V3210x
p1215
sg25
I89
sg26
I7
sg27
I75
sa(dp1216
g21
VVIEUX LION ROUGE
p1217
sg23
V7x49x
p1218
sg25
I93
sg26
I8
sg27
I81
sa(dp1219
g21
VJUST A PAR
p1220
sg23
V0100x
p1221
sg25
I69
sg26
I9
sg27
I57
sa(dp1222
g21
VCROSSHUE BOY
p1223
sg23
V131x0
p1224
sg25
I79
sg26
I10
sg27
I70
sa(dp1225
g21
VREGAL FLOW
p1226
sg23
V10x06
p1227
sg25
I66
sg26
I11
sg27
I58
sa(dp1228
g21
VWALK IN THE MILL
p1229
sg23
V130x3
p1230
sg25
I65
sg26
I12
sg27
I60
sa(dp1231
g21
VCALL IT MAGIC
p1232
sg23
V7x70x
p1233
sg25
I71
sg26
I13
sg27
I62
sa(dp1234
g21
VHIGHLAND LODGE
p1235
sg23
V0x30x
p1236
sg25
I77
sg26
I14
sg27
I68
sa(dp1237
g21
VFINE THEATRE
p1238
sg23
V200x9
p1239
sg25
I75
sg26
I15
sg27
I66
sa(dp1240
g21
VMUSTMEETALADY
p1241
sg23
V10x0x
p1242
sg25
I61
sg26
I16
sg27
I53
sa(dp1243
g21
VFEDERICI
p1244
sg23
V5530x
p1245
sg25
I82
sg26
I17
sg27
I72
sa(dp1246
g21
VDARE TO ENDEAVOUR
p1247
sg23
V3x544
p1248
sg25
I63
sg26
I18
sg27
I55
sasg55
(lp1249
sssI1544273700
(dp1250
g2
Vhttp://www.skyracing.com.au/index.php?component=racing&task=race&id=108668404&meetingid=107748119&Itemid=89
p1251
sg4
V29040854.1255
p1252
sg6
(dp1253
g8
(lp1254
(lp1255
I4
aI1
aI6
aI5
aa(lp1256
I1
aI2
aI4
aI9
aa(lp1257
I4
aI1
aI9
aI8
aa(lp1258
I1
aI4
aI6
aI5
aa(lp1259
I4
aI1
aI6
aI5
aa(lp1260
I1
aI4
aI6
aI5
aa(lp1261
I4
aI5
aI1
aI6
aa(lp1262
I1
aI4
aI6
aI5
aasg18
(lp1263
(dp1264
g21
VTRIXSTER
p1265
sg23
Vx5x12
p1266
sg25
I95
sg26
I1
sg27
I95
sa(dp1267
g21
VBALLYART
p1268
sg23
V21x45
p1269
sg25
I82
sg26
I2
sg27
I80
sa(dp1270
g21
VCORSECOMBE
p1271
sg23
V69x
p1272
sg25
I70
sg26
I3
sg27
I69
sa(dp1273
g21
VEASYRUN DE VASSY
p1274
sg23
Vx11x5
p1275
sg25
I100
sg26
I4
sg27
I100
sa(dp1276
g21
VFULL TILT
p1277
sg23
V381x
p1278
sg25
I92
sg26
I5
sg27
I87
sa(dp1279
g21
VGOOD AND HARDY
p1280
sg23
V41x5x
p1281
sg25
I88
sg26
I6
sg27
I90
sa(dp1282
g21
VHENCHARD
p1283
sg23
V57x
p1284
sg25
I73
sg26
I7
sg27
I72
sa(dp1285
g21
VSHARP GETAWAY
p1286
sg23
V680x0
p1287
sg25
I65
sg26
I8
sg27
I63
sa(dp1288
g21
VTHE TOOJUMPA
p1289
sg23
V55x01
p1290
sg25
I80
sg26
I9
sg27
I78
sasg55
(lp1291
sssI1544283600
(dp1292
g2
Vhttp://www.skyracing.com.au/index.php?component=racing&task=race&id=108668409&meetingid=107748119&Itemid=89
p1293
sg4
V29040854.1540
p1294
sg6
(dp1295
g8
(lp1296
(lp1297
I5
aI2
aI7
aI4
aa(lp1298
I5
aI7
aI3
aI4
aa(lp1299
I5
aI7
aI3
aI1
aa(lp1300
I4
aI5
aI7
aI3
aa(lp1301
I4
aI5
aI7
aI2
aa(lp1302
I7
aI5
aI4
aI2
aa(lp1303
I2
aI5
aI7
aI4
aa(lp1304
I5
aI7
aI4
aI2
aasg18
(lp1305
(dp1306
g21
VASK HIMSELF
p1307
sg23
V3x
p1308
sg25
I82
sg26
I1
sg27
I74
sa(dp1309
g21
VBALLYBREEN
p1310
sg23
V41x
p1311
sg25
I100
sg26
I2
sg27
I95
sa(dp1312
g21
VEEZE A SAINT
p1313
sg23
V5
p1314
sg25
I78
sg26
I3
sg27
I70
sa(dp1315
g21
VENDLESS FLIGHT
p1316
sg23
V35x
p1317
sg25
I85
sg26
I4
sg27
I81
sa(dp1318
g21
VPOISON ARROW
p1319
sg23
V2
p1320
sg25
I97
sg26
I5
sg27
I100
sa(dp1321
g21
VSHARPE'S RIFLES
p1322
sg23
g850
sg25
I75
sg26
I6
sg27
I0
sa(dp1323
g21
VYOUNG BULL
p1324
sg23
V29x3
p1325
sg25
I91
sg26
I7
sg27
I83
sasg55
(lp1326
sssI1544278500
(dp1327
g2
Vhttp://www.skyracing.com.au/index.php?component=racing&task=race&id=108668377&meetingid=107748167&Itemid=89
p1328
sg4
V29040858.1415
p1329
sg6
(dp1330
g8
(lp1331
(lp1332
I5
aI2
aI3
aI1
aa(lp1333
I1
aI2
aI4
aI7
aa(lp1334
I2
aI7
aI3
aI5
aa(lp1335
I2
aI4
aI8
aI1
aa(lp1336
I1
aI2
aI5
aI7
aa(lp1337
I2
aI5
aI3
aI8
aa(lp1338
I5
aI2
aI1
aI8
aa(lp1339
I2
aI5
aI1
aI3
aasg18
(lp1340
(dp1341
g21
VWAKANDA
p1342
sg23
V2100x
p1343
sg25
I94
sg26
I1
sg27
I85
sa(dp1344
g21
VNUTS WELL
p1345
sg23
V21x16
p1346
sg25
I100
sg26
I2
sg27
I95
sa(dp1347
g21
VARISTO DU PLESSIS
p1348
sg23
V11x54
p1349
sg25
I85
sg26
I3
sg27
I92
sa(dp1350
g21
VSAKHEE'S CITY
p1351
sg23
V01x60
p1352
sg25
I70
sg26
I4
sg27
I69
sa(dp1353
g21
VCORNERSTONE LAD
p1354
sg23
V223x5
p1355
sg25
I99
sg26
I5
sg27
I100
sa(dp1356
g21
VONLY ORSENFOOLSIES
p1357
sg23
Vx2x88
p1358
sg25
I75
sg26
I6
sg27
I79
sa(dp1359
g21
VMELODY OF SCOTLAND
p1360
sg23
V32607
p1361
sg25
I79
sg26
I7
sg27
I75
sa(dp1362
g21
VMCGOWAN'S PASS
p1363
sg23
V1534x
p1364
sg25
I82
sg26
I8
sg27
I82
sasg55
(lp1365
sssI1544279400
(dp1366
g2
Vhttp://www.skyracing.com.au/index.php?component=racing&task=race&id=108668407&meetingid=107748119&Itemid=89
p1367
sg4
V29040854.1430
p1368
sg6
(dp1369
g8
(lp1370
(lp1371
I6
aI5
aI3
aI8
aa(lp1372
I3
aI1
aI2
aI4
aa(lp1373
I3
aI9
aI4
aI10
aa(lp1374
I1
aI2
aI3
aI8
aa(lp1375
I3
aI1
aI2
aI9
aa(lp1376
I3
aI6
aI5
aI8
aa(lp1377
I5
aI1
aI6
aI3
aa(lp1378
I3
aI1
aI6
aI2
aasg18
(lp1379
(dp1380
g21
VWILD WEST WIND
p1381
sg23
V0800x
p1382
sg25
I96
sg26
I1
sg27
I72
sa(dp1383
g21
VHOUBLON DES OBEAUX
p1384
sg23
V0309x
p1385
sg25
I58
sg26
I2
sg27
I75
sa(dp1386
g21
VRAMSES DE TEILLEE
p1387
sg23
V279x5
p1388
sg25
I89
sg26
I3
sg27
I90
sa(dp1389
g21
VPRIME VENTURE
p1390
sg23
V0x674
p1391
sg25
I73
sg26
I4
sg27
I79
sa(dp1392
g21
VDUKE DES CHAMPS
p1393
sg23
V6x23x
p1394
sg25
I100
sg26
I5
sg27
I96
sa(dp1395
g21
VANOTHER VENTURE
p1396
sg23
V1134x
p1397
sg25
I94
sg26
I6
sg27
I100
sa(dp1398
g21
VAMI DESBOIS
p1399
sg23
V156x0
p1400
sg25
I81
sg26
I7
sg27
I63
sa(dp1401
g21
VALFIE SPINNER
p1402
sg23
V2x52x
p1403
sg25
I69
sg26
I8
sg27
I89
sa(dp1404
g21
VBALLYCROSS
p1405
sg23
V12x43
p1406
sg25
I66
sg26
I9
sg27
I82
sa(dp1407
g21
VBACK TO THE THATCH
p1408
sg23
V100x7
p1409
sg25
I59
sg26
I10
sg27
I60
sasg55
(lp1410
sssI1544280300
(dp1411
g2
Vhttp://www.skyracing.com.au/index.php?component=racing&task=race&id=108668363&meetingid=107753929&Itemid=89
p1412
sg4
V29040852.1445
p1413
sg6
(dp1414
g8
(lp1415
(lp1416
I5
aI15
aI7
aI9
aa(lp1417
I1
aI2
aI15
aI3
aa(lp1418
I15
aI3
aI4
aI7
aa(lp1419
I1
aI13
aI15
aI4
aa(lp1420
I3
aI4
aI6
aI12
aa(lp1421
I5
aI15
aI7
aI11
aa(lp1422
I5
aI9
aI15
aI7
aa(lp1423
I15
aI5
aI1
aI3
aasg18
(lp1424
(dp1425
g21
VJETT
p1426
sg23
V124x3
p1427
sg25
I84
sg26
I1
sg27
I88
sa(dp1428
g21
VGOULANE CHOSEN
p1429
sg23
V1607x
p1430
sg25
I75
sg26
I2
sg27
I75
sa(dp1431
g21
VMR DIABLO
p1432
sg23
V04x02
p1433
sg25
I79
sg26
I3
sg27
I82
sa(dp1434
g21
VEIGHT TILL LATE
p1435
sg23
V13137
p1436
sg25
I77
sg26
I4
sg27
I76
sa(dp1437
g21
VGOOSE MAN
p1438
sg23
Vx211x
p1439
sg25
I100
sg26
I5
sg27
I100
sa(dp1440
g21
VDRUMCONNOR LAD
p1441
sg23
V70341
p1442
sg25
I82
sg26
I6
sg27
I79
sa(dp1443
g21
VBURREN LIFE
p1444
sg23
V0x234
p1445
sg25
I92
sg26
I7
sg27
I95
sa(dp1446
g21
VLANDOFHOPEANDGLORY
p1447
sg23
V00x0x
p1448
sg25
I94
sg26
I8
sg27
I87
sa(dp1449
g21
VWISHMOOR
p1450
sg23
V411x6
p1451
sg25
I95
sg26
I9
sg27
I94
sa(dp1452
g21
VSCOIR MEAR
p1453
sg23
V207x7
p1454
sg25
I69
sg26
I10
sg27
I67
sa(dp1455
g21
VSOLOMN GRUNDY
p1456
sg23
V2291x
p1457
sg25
I88
sg26
I11
sg27
I92
sa(dp1458
g21
VKYLECRUE
p1459
sg23
V23688
p1460
sg25
I70
sg26
I12
sg27
I70
sa(dp1461
g21
VLAMB OR COD
p1462
sg23
Vx270x
p1463
sg25
I87
sg26
I13
sg27
I85
sa(dp1464
g21
VGENTLEMAN DUKE
p1465
sg23
Vx3227
p1466
sg25
I67
sg26
I14
sg27
I68
sa(dp1467
g21
VDE NAME ESCAPES ME
p1468
sg23
Vx3x12
p1469
sg25
I98
sg26
I15
sg27
I99
sa(dp1470
g21
VAURORA BELL
p1471
sg23
Vx0x0x
p1472
sg25
I62
sg26
I16
sg27
I62
sa(dp1473
g21
VPRESENTING MAHLER
p1474
sg23
V50074
p1475
sg25
I65
sg26
I17
sg27
I64
sasg55
(lp1476
sssI1544281200
(dp1477
g2
Vhttp://www.skyracing.com.au/index.php?component=racing&task=race&id=108668393&meetingid=107748151&Itemid=89
p1478
sg4
V29039654.1500
p1479
sg6
(dp1480
g8
(lp1481
(lp1482
I1
aI3
aI4
aI2
aa(lp1483
I1
aI4
aI2
aI3
aa(lp1484
I2
aI3
aI1
aI4
aa(lp1485
I1
aI4
aI2
aI3
aa(lp1486
I4
aI2
aI1
aI3
aa(lp1487
I3
aI1
aI4
aI2
aa(lp1488
I4
aI1
aI2
aI3
aa(lp1489
I1
aI4
aI3
aI2
aasg18
(lp1490
(dp1491
g21
VALTIOR
p1492
sg23
Vx111x
p1493
sg25
I100
sg26
I1
sg27
I100
sa(dp1494
g21
VSAINT CALVADOS
p1495
sg23
V114x1
p1496
sg25
I87
sg26
I2
sg27
I84
sa(dp1497
g21
VSCEAU ROYAL
p1498
sg23
V111x1
p1499
sg25
I91
sg26
I3
sg27
I96
sa(dp1500
g21
VUN DE SCEAUX
p1501
sg23
V1211x
p1502
sg25
I98
sg26
I4
sg27
I93
sasg55
(lp1503
sssI1544282100
(dp1504
g2
Vhttp://www.skyracing.com.au/index.php?component=racing&task=race&id=108668349&meetingid=107748135&Itemid=89
p1505
sg4
V29039652.1515
p1506
sg6
(dp1507
g8
(lp1508
(lp1509
I5
aI2
aI7
aI4
aa(lp1510
I1
aI4
aI5
aI2
aa(lp1511
I4
aI5
aI7
aI9
aa(lp1512
I1
aI5
aI4
aI2
aa(lp1513
I9
aI4
aI5
aI11
aa(lp1514
I5
aI7
aI2
aI4
aa(lp1515
I9
aI5
aI4
aI2
aa(lp1516
I5
aI4
aI1
aI2
aasg18
(lp1517
(dp1518
g21
VWARRIORS TALE
p1519
sg23
V2x0x4
p1520
sg25
I86
sg26
I1
sg27
I87
sa(dp1521
g21
VCRIEVEHILL
p1522
sg23
V12x2x
p1523
sg25
I91
sg26
I2
sg27
I98
sa(dp1524
g21
VVOIX D'EAU
p1525
sg23
V131x7
p1526
sg25
I70
sg26
I3
sg27
I72
sa(dp1527
g21
VCAPTAIN REDBEARD
p1528
sg23
V10x33
p1529
sg25
I96
sg26
I4
sg27
I90
sa(dp1530
g21
VCATAMARAN DU SEUIL
p1531
sg23
V421x1
p1532
sg25
I100
sg26
I5
sg27
I100
sa(dp1533
g21
VMORE BUCK'S
p1534
sg23
V11x77
p1535
sg25
I79
sg26
I6
sg27
I73
sa(dp1536
g21
VSHANAHAN'S TURN
p1537
sg23
V20x37
p1538
sg25
I88
sg26
I7
sg27
I93
sa(dp1539
g21
VKILCREA VALE
p1540
sg23
V6254x
p1541
sg25
I81
sg26
I8
sg27
I84
sa(dp1542
g21
VFOREST DES AIGLES
p1543
sg23
V110x1
p1544
sg25
I95
sg26
I9
sg27
I82
sa(dp1545
g21
VBRANDON HILL
p1546
sg23
V204x5
p1547
sg25
I74
sg26
I10
sg27
I77
sa(dp1548
g21
VTIQUER
p1549
sg23
V7x14x
p1550
sg25
I76
sg26
I11
sg27
I79
sasg55
(lp1551
sssI1544273400
(dp1552
g2
Vhttp://www.skyracing.com.au/index.php?component=racing&task=race&id=108668389&meetingid=107748151&Itemid=89
p1553
sg4
V29039654.1250
p1554
sg6
(dp1555
g8
(lp1556
(lp1557
I4
aI6
aI2
aI8
aa(lp1558
I7
aI2
aI1
aI8
aa(lp1559
I8
aI9
aI7
aI6
aa(lp1560
I7
aI2
aI1
aI5
aa(lp1561
I7
aI4
aI1
aI5
aa(lp1562
I4
aI6
aI2
aI9
aa(lp1563
I4
aI6
aI2
aI5
aa(lp1564
I7
aI4
aI2
aI6
aasg18
(lp1565
(dp1566
g21
VTHE KINGS BABY
p1567
sg23
Vx020x
p1568
sg25
I63
sg26
I1
sg27
I74
sa(dp1569
g21
VJUBILYMPICS
p1570
sg23
V534x0
p1571
sg25
I86
sg26
I2
sg27
I86
sa(dp1572
g21
VQUEEN'S MAGIC
p1573
sg23
V342x2
p1574
sg25
I93
sg26
I3
sg27
I99
sa(dp1575
g21
VMAEBH
p1576
sg23
V30x31
p1577
sg25
I100
sg26
I4
sg27
I100
sa(dp1578
g21
VBIG PENNY
p1579
sg23
V0x0x6
p1580
sg25
I83
sg26
I5
sg27
I69
sa(dp1581
g21
VPAPAGANA
p1582
sg23
Vx51x4
p1583
sg25
I97
sg26
I6
sg27
I93
sa(dp1584
g21
VMISS TONGABEZI
p1585
sg23
V338x3
p1586
sg25
I60
sg26
I7
sg27
I63
sa(dp1587
g21
VSECRET DOOR
p1588
sg23
V24x85
p1589
sg25
I71
sg26
I8
sg27
I83
sa(dp1590
g21
VWAIHEKE
p1591
sg23
Vx24x6
p1592
sg25
I77
sg26
I9
sg27
I80
sa(dp1593
g21
VZARA HOPE
p1594
sg23
V16x7x
p1595
sg25
I80
sg26
I10
sg27
I60
sasg55
(lp1596
sssI1544274300
(dp1597
g2
Vhttp://www.skyracing.com.au/index.php?component=racing&task=race&id=108668360&meetingid=107753929&Itemid=89
p1598
sg4
V29040852.1305
p1599
sg6
(dp1600
g8
(lp1601
(lp1602
I1
aI14
aI22
aI5
aa(lp1603
I1
aI22
aI9
aI7
aa(lp1604
I1
aI22
aI9
aI12
aa(lp1605
I1
aI17
aI22
aI9
aa(lp1606
I22
aI1
aI7
aI15
aa(lp1607
I1
aI5
aI14
aI22
aa(lp1608
I2
aI1
aI5
aI22
aa(lp1609
I1
aI22
aI14
aI9
aasg18
(lp1610
(dp1611
g21
VSWINGBRIDGE
p1612
sg23
V61059
p1613
sg25
I100
sg26
I1
sg27
I100
sa(dp1614
g21
VWAAHEB
p1615
sg23
Vx3609
p1616
sg25
I99
sg26
I2
sg27
I90
sa(dp1617
g21
VEVISCERATING
p1618
sg23
V25x0x
p1619
sg25
I84
sg26
I3
sg27
I87
sa(dp1620
g21
VPI AHIO
p1621
sg23
V9x6x0
p1622
sg25
I90
sg26
I4
sg27
I67
sa(dp1623
g21
VBATTLING SPIRIT
p1624
sg23
V1312x
p1625
sg25
I88
sg26
I5
sg27
I93
sa(dp1626
g21
VMARKET'S FIELD
p1627
sg23
V0x6x8
p1628
sg25
I86
sg26
I6
sg27
I72
sa(dp1629
g21
VWEE SMALL HOURS
p1630
sg23
V4333x
p1631
sg25
I70
sg26
I7
sg27
I73
sa(dp1632
g21
VASK AND ANSWER
p1633
sg23
V6730x
p1634
sg25
I66
sg26
I8
sg27
I63
sa(dp1635
g21
VDANSE AWAY
p1636
sg23
V11x44
p1637
sg25
I81
sg26
I9
sg27
I83
sa(dp1638
g21
VKHUDHA
p1639
sg23
V006x5
p1640
sg25
I60
sg26
I10
sg27
I55
sa(dp1641
g21
VBYE BYE O BYE
p1642
sg23
Vx0043
p1643
sg25
I76
sg26
I11
sg27
I81
sa(dp1644
g21
VTREACYSENNISCORTHY
p1645
sg23
V006
p1646
sg25
I73
sg26
I12
sg27
I78
sa(dp1647
g21
VREDCLUE
p1648
sg23
V70008
p1649
sg25
I53
sg26
I13
sg27
I52
sa(dp1650
g21
VASKARI
p1651
sg23
V03332
p1652
sg25
I96
sg26
I14
sg27
I98
sa(dp1653
g21
VRACING STRIPES
p1654
sg23
V7300x
p1655
sg25
I72
sg26
I15
sg27
I77
sa(dp1656
g21
VSIZING JOSHUA
p1657
sg23
Vx60x0
p1658
sg25
I58
sg26
I16
sg27
I57
sa(dp1659
g21
VTHETURNOFTHESUN
p1660
sg23
Vx730x
p1661
sg25
I57
sg26
I17
sg27
I58
sa(dp1662
g21
VCAP'N
p1663
sg23
V108x9
p1664
sg25
I69
sg26
I18
sg27
I70
sa(dp1665
g21
VOKEY DOKEY
p1666
sg23
V46332
p1667
sg25
I78
sg26
I19
sg27
I84
sa(dp1668
g21
VOLIVE D'HAGUENET
p1669
sg23
V56802
p1670
sg25
I67
sg26
I20
sg27
I69
sa(dp1671
g21
VLADY QUILL
p1672
sg23
V34771
p1673
sg25
I82
sg26
I21
sg27
I89
sa(dp1674
g21
VHE KNOWS MY NAME
p1675
sg23
V23x01
p1676
sg25
I93
sg26
I22
sg27
I96
sa(dp1677
g21
VPOLISH PARTISAN
p1678
sg23
V70404
p1679
sg25
I65
sg26
I23
sg27
I65
sa(dp1680
g21
VFR GILLIGANSVOYGE
p1681
sg23
V6x0x0
p1682
sg25
I52
sg26
I24
sg27
I53
sa(dp1683
g21
VGLENMALURE LODGE
p1684
sg23
V7086
p1685
sg25
I55
sg26
I25
sg27
I61
sa(dp1686
g21
VAIRDRIGH
p1687
sg23
V54804
p1688
sg25
I63
sg26
I26
sg27
I66
sasg55
(lp1689
sss.