(dp0
I1542984000
(dp1
S'skyracing_url'
p2
Vhttp://www.skyracing.com.au/index.php?component=racing&task=race&id=108138984&meetingid=107036702&Itemid=89
p3
sS'betfair_raceid'
p4
V29021820.1440
p5
sS'dat2'
p6
(dp7
S'ratings_auto'
p8
(lp9
(lp10
I9
aI6
aI2
aI1
aa(lp11
I3
aI2
aI5
aI6
aa(lp12
I2
aI6
aI3
aI9
aa(lp13
I2
aI5
aI3
aI7
aa(lp14
I10
aI2
aI9
aI6
aa(lp15
I9
aI2
aI6
aI1
aa(lp16
I9
aI6
aI2
aI4
aa(lp17
I2
aI9
aI6
aI3
aasS'horse_details'
p18
(lp19
(dp20
S'horse_name'
p21
VROYAL REGATTA
p22
sS'horse_form'
p23
V9x09x
p24
sS'rating_2'
p25
I83
sS'horse_number'
p26
I1
sS'rating_1'
p27
I86
sa(dp28
g21
VCOBRA DE MAI
p29
sg23
V2x491
p30
sg25
I90
sg26
I2
sg27
I92
sa(dp31
g21
VFLYING ANGEL
p32
sg23
V8x0x6
p33
sg25
I73
sg26
I3
sg27
I83
sa(dp34
g21
VVALUE AT RISK
p35
sg23
V651x8
p36
sg25
I80
sg26
I4
sg27
I79
sa(dp37
g21
VCASSE TETE
p38
sg23
V7189x
p39
sg25
I61
sg26
I5
sg27
I61
sa(dp40
g21
VRIDGEWAY FLYER
p41
sg23
V118x2
p42
sg25
I95
sg26
I6
sg27
I96
sa(dp43
g21
VMORE BUCK'S
p44
sg23
V211x7
p45
sg25
I71
sg26
I7
sg27
I69
sa(dp46
g21
VMR MEDIC
p47
sg23
V6131x
p48
sg25
I88
sg26
I8
sg27
I75
sa(dp49
g21
VROYAL VILLAGE
p50
sg23
V13341
p51
sg25
I100
sg26
I9
sg27
I100
sa(dp52
g21
VDREAM BOLT
p53
sg23
Vx2433
p54
sg25
I65
sg26
I10
sg27
I63
sasS'ratings_manual'
p55
(lp56
sssI1542979200
(dp57
g2
Vhttp://www.skyracing.com.au/index.php?component=racing&task=race&id=108138953&meetingid=107036718&Itemid=89
p58
sg4
V29021821.1320
p59
sg6
(dp60
g8
(lp61
(lp62
I7
aI4
aI11
aI3
aa(lp63
I10
aI5
aI4
aI3
aa(lp64
I10
aI5
aI4
aI9
aa(lp65
I5
aI10
aI4
aI9
aa(lp66
I5
aI10
aI6
aI4
aa(lp67
I7
aI4
aI11
aI3
aa(lp68
I4
aI7
aI3
aI11
aa(lp69
I10
aI5
aI4
aI7
aasg18
(lp70
(dp71
g21
VALLNITE
p72
sg23
V98969
p73
sg25
I70
sg26
I1
sg27
I72
sa(dp74
g21
VCANADIAN GEORGE
p75
sg23
V33287
p76
sg25
I77
sg26
I2
sg27
I76
sa(dp77
g21
VDAGIAN
p78
sg23
Vx8217
p79
sg25
I94
sg26
I3
sg27
I90
sa(dp80
g21
VFOR PLEASURE
p81
sg23
V382x0
p82
sg25
I98
sg26
I4
sg27
I96
sa(dp83
g21
VFRAME RATE
p84
sg23
Vx0682
p85
sg25
I86
sg26
I5
sg27
I85
sa(dp86
g21
VHIGHLAND BOBBY
p87
sg23
V5x780
p88
sg25
I80
sg26
I6
sg27
I78
sa(dp89
g21
VLIVA
p90
sg23
V14504
p91
sg25
I100
sg26
I7
sg27
I100
sa(dp92
g21
VMARBLE BAR
p93
sg23
V7x508
p94
sg25
I79
sg26
I8
sg27
I81
sa(dp95
g21
VSURRENDER
p96
sg23
V35444
p97
sg25
I73
sg26
I9
sg27
I73
sa(dp98
g21
VVALKENBURG
p99
sg23
V71633
p100
sg25
I89
sg26
I10
sg27
I88
sa(dp101
g21
VTRAVEL LIGHTLY
p102
sg23
V24654
p103
sg25
I92
sg26
I11
sg27
I95
sasg55
(lp104
sssI1542975300
(dp105
g2
Vhttp://www.skyracing.com.au/index.php?component=racing&task=race&id=108138951&meetingid=107036718&Itemid=89
p106
sg4
V29021821.1215
p107
sg6
(dp108
g8
(lp109
(lp110
I1
aI2
aI9
aI6
aa(lp111
I2
aI3
aI6
aI1
aa(lp112
I2
aI3
aI1
aI8
aa(lp113
I2
aI6
aI1
aI7
aa(lp114
I2
aI1
aI3
aI7
aa(lp115
I1
aI2
aI6
aI3
aa(lp116
I1
aI9
aI2
aI4
aa(lp117
I2
aI1
aI3
aI6
aasg18
(lp118
(dp119
g21
VGOLDENCARD
p120
sg23
V2x331
p121
sg25
I100
sg26
I1
sg27
I100
sa(dp122
g21
VJE SUIS CHARLIE
p123
sg23
V855x3
p124
sg25
I95
sg26
I2
sg27
I98
sa(dp125
g21
VBALLYFARSOON
p126
sg23
V7x220
p127
sg25
I87
sg26
I3
sg27
I84
sa(dp128
g21
VCLASSIC SENIORITY
p129
sg23
V9432x
p130
sg25
I91
sg26
I4
sg27
I80
sa(dp131
g21
VDWIGHT D
p132
sg23
V27907
p133
sg25
I73
sg26
I5
sg27
I70
sa(dp134
g21
VLESTER KRIS
p135
sg23
V3x36x
p136
sg25
I86
sg26
I6
sg27
I91
sa(dp137
g21
VLOUGH LEGEND
p138
sg23
V33x03
p139
sg25
I80
sg26
I7
sg27
I87
sa(dp140
g21
VOLDTIMER
p141
sg23
V5x7
p142
sg25
I70
sg26
I8
sg27
I73
sa(dp143
g21
VSHAIYEM
p144
sg23
V01x7x
p145
sg25
I98
sg26
I9
sg27
I94
sa(dp146
g21
VSKA RIDGE
p147
sg23
Vx90x0
p148
sg25
I67
sg26
I10
sg27
I64
sa(dp149
g21
VSTART SEVEN
p150
sg23
V05x0x
p151
sg25
I79
sg26
I11
sg27
I77
sa(dp152
g21
VCALLIOPE
p153
sg23
V33293
p154
sg25
I77
sg26
I12
sg27
I78
sa(dp155
g21
VLEGALIZED
p156
sg23
V5x965
p157
sg25
I69
sg26
I13
sg27
I71
sasg55
(lp158
sssI1542988200
(dp159
g2
Vhttp://www.skyracing.com.au/index.php?component=racing&task=race&id=108138986&meetingid=107036702&Itemid=89
p160
sg4
V29021820.1550
p161
sg6
(dp162
g8
(lp163
(lp164
I7
aI3
aI1
aI2
aa(lp165
I3
aI2
aI4
aI8
aa(lp166
I8
aI3
aI7
aI2
aa(lp167
I3
aI4
aI8
aI1
aa(lp168
I8
aI2
aI3
aI7
aa(lp169
I7
aI3
aI2
aI1
aa(lp170
I7
aI1
aI4
aI3
aa(lp171
I3
aI7
aI8
aI2
aasg18
(lp172
(dp173
g21
VJOLLY'S CRACKED IT
p174
sg23
V31x0x
p175
sg25
I99
sg26
I1
sg27
I91
sa(dp176
g21
VDISTINGO
p177
sg23
V210x2
p178
sg25
I82
sg26
I2
sg27
I89
sa(dp179
g21
VFLYING TIGER
p180
sg23
V00x23
p181
sg25
I85
sg26
I3
sg27
I99
sa(dp182
g21
VBRIANSTORM
p183
sg23
V3110x
p184
sg25
I90
sg26
I4
sg27
I84
sa(dp185
g21
VSHOAL BAY
p186
sg23
V02x60
p187
sg25
I79
sg26
I5
sg27
I74
sa(dp188
g21
VSCHEU TIME
p189
sg23
V43x14
p190
sg25
I73
sg26
I6
sg27
I79
sa(dp191
g21
VCHATEZ
p192
sg23
V4x402
p193
sg25
I100
sg26
I7
sg27
I100
sa(dp194
g21
VJUMPING JACK
p195
sg23
V24217
p196
sg25
I72
sg26
I8
sg27
I72
sasg55
(lp197
sssI1542977100
(dp198
g2
Vhttp://www.skyracing.com.au/index.php?component=racing&task=race&id=108138952&meetingid=107036718&Itemid=89
p199
sg4
V29021821.1245
p200
sg6
(dp201
g8
(lp202
(lp203
I2
aI1
aI5
aI3
aa(lp204
I1
aI3
aI2
aI7
aa(lp205
I2
aI3
aI7
aI6
aa(lp206
I3
aI1
aI2
aI5
aa(lp207
I2
aI3
aI7
aI1
aa(lp208
I2
aI1
aI5
aI3
aa(lp209
I2
aI1
aI3
aI4
aa(lp210
I2
aI3
aI1
aI5
aasg18
(lp211
(dp212
g21
VFILEMON
p213
sg23
Vx6353
p214
sg25
I95
sg26
I1
sg27
I97
sa(dp215
g21
VGROW NASA GROW
p216
sg23
V75171
p217
sg25
I100
sg26
I2
sg27
I100
sa(dp218
g21
VMAHLERDRAMATIC
p219
sg23
V420x7
p220
sg25
I92
sg26
I3
sg27
I86
sa(dp221
g21
VSUPER CHARGE
p222
sg23
V69595
p223
sg25
I83
sg26
I4
sg27
I84
sa(dp224
g21
VGIN COBBLER
p225
sg23
V453x6
p226
sg25
I87
sg26
I5
sg27
I94
sa(dp227
g21
VPSYCHOLOGY
p228
sg23
V60448
p229
sg25
I76
sg26
I6
sg27
I74
sa(dp230
g21
VDUHALLOWCOUNTRY
p231
sg23
V846x4
p232
sg25
I80
sg26
I7
sg27
I80
sasg55
(lp233
sssI1542986700
(dp234
g2
Vhttp://www.skyracing.com.au/index.php?component=racing&task=race&id=108138971&meetingid=107036734&Itemid=89
p235
sg4
V29021819.1525
p236
sg6
(dp237
g8
(lp238
(lp239
I2
aI4
aI8
aI11
aa(lp240
I2
aI4
aI8
aI11
aa(lp241
I1
aI2
aI3
aI4
aa(lp242
I4
aI2
aI8
aI11
aa(lp243
I2
aI4
aI8
aI11
aa(lp244
I2
aI4
aI8
aI11
aa(lp245
I2
aI9
aI4
aI6
aa(lp246
I2
aI4
aI8
aI11
aasg18
(lp247
(dp248
g21
VAVOIR DE SOINS
p249
sg23
V
p250
sg25
I80
sg26
I1
sg27
I0
sa(dp251
g21
VBUBBLES OF GOLD
p252
sg23
V1x
p253
sg25
I100
sg26
I2
sg27
I100
sa(dp254
g21
VDON JUAN DU GOUET
p255
sg23
g250
sg25
I74
sg26
I3
sg27
I0
sa(dp256
g21
VGOLDEN SOVEREIGN
p257
sg23
V3x
p258
sg25
I93
sg26
I4
sg27
I96
sa(dp259
g21
VNO REMATCH
p260
sg23
g250
sg25
I77
sg26
I5
sg27
I0
sa(dp261
g21
VRUFIO
p262
sg23
g250
sg25
I90
sg26
I6
sg27
I0
sa(dp263
g21
VTHOR DE CERISY
p264
sg23
g250
sg25
I71
sg26
I7
sg27
I0
sa(dp265
g21
VTIMEFORASPIN
p266
sg23
V6x
p267
sg25
I86
sg26
I8
sg27
I90
sa(dp268
g21
VELLARNA
p269
sg23
g250
sg25
I97
sg26
I9
sg27
I0
sa(dp270
g21
VFAIR KATE
p271
sg23
g250
sg25
I87
sg26
I10
sg27
I0
sa(dp272
g21
VFISHERMAN'S TALE
p273
sg23
V0x
p274
sg25
I78
sg26
I11
sg27
I85
sasg55
(lp275
sssI1542987300
(dp276
g2
Vhttp://www.skyracing.com.au/index.php?component=racing&task=race&id=108138957&meetingid=107036718&Itemid=89
p277
sg4
V29021821.1535
p278
sg6
(dp279
g8
(lp280
(lp281
I2
aI5
aI7
aI3
aa(lp282
I2
aI3
aI5
aI1
aa(lp283
I2
aI5
aI1
aI6
aa(lp284
I2
aI3
aI5
aI8
aa(lp285
I2
aI5
aI7
aI3
aa(lp286
I2
aI5
aI7
aI3
aa(lp287
I2
aI5
aI4
aI7
aa(lp288
I2
aI5
aI3
aI7
aasg18
(lp289
(dp290
g21
VGOLD FIELDS
p291
sg23
V0x5
p292
sg25
I76
sg26
I1
sg27
I78
sa(dp293
g21
VNICKELSONTHEDIME
p294
sg23
V2
p295
sg25
I100
sg26
I2
sg27
I100
sa(dp296
g21
VROCKET MAN RODNEY
p297
sg23
V6x6x
p298
sg25
I84
sg26
I3
sg27
I87
sa(dp299
g21
VSCORCHIN
p300
sg23
g250
sg25
I91
sg26
I4
sg27
I0
sa(dp301
g21
VSOVIET CASTLE
p302
sg23
V2
p303
sg25
I98
sg26
I5
sg27
I95
sa(dp304
g21
VMARKMYWORD
p305
sg23
V50
p306
sg25
I79
sg26
I6
sg27
I82
sa(dp307
g21
VMEGA DOUBLE
p308
sg23
V92x
p309
sg25
I86
sg26
I7
sg27
I94
sa(dp310
g21
VRIDGEWAY PEARL
p311
sg23
V5x9x
p312
sg25
I70
sg26
I8
sg27
I75
sasg55
(lp313
sssI1542978000
(dp314
g2
Vhttp://www.skyracing.com.au/index.php?component=racing&task=race&id=108138981&meetingid=107036702&Itemid=89
p315
sg4
V29021820.1300
p316
sg6
(dp317
g8
(lp318
(lp319
I1
aI3
aI4
aI5
aa(lp320
I1
aI6
aI7
aI2
aa(lp321
I1
aI7
aI4
aI2
aa(lp322
I1
aI2
aI3
aI6
aa(lp323
I1
aI6
aI5
aI4
aa(lp324
I1
aI4
aI3
aI7
aa(lp325
I1
aI4
aI5
aI3
aa(lp326
I1
aI4
aI3
aI6
aasg18
(lp327
(dp328
g21
VWENYERREADYFREDDIE
p329
sg23
Vx2x21
p330
sg25
I100
sg26
I1
sg27
I100
sa(dp331
g21
VAZZERTI
p332
sg23
V724x0
p333
sg25
I77
sg26
I2
sg27
I76
sa(dp334
g21
VKILDISART
p335
sg23
V2519x
p336
sg25
I88
sg26
I3
sg27
I97
sa(dp337
g21
VMOON RACER
p338
sg23
V091x3
p339
sg25
I97
sg26
I4
sg27
I91
sa(dp340
g21
VONEFORTHEROADTOM
p341
sg23
V5x16x
p342
sg25
I92
sg26
I5
sg27
I87
sa(dp343
g21
VPITON PETE
p344
sg23
V1120x
p345
sg25
I78
sg26
I6
sg27
I78
sa(dp346
g21
VSTORM HOME
p347
sg23
V105x4
p348
sg25
I82
sg26
I7
sg27
I84
sasg55
(lp349
sssI1542981000
(dp350
g2
Vhttp://www.skyracing.com.au/index.php?component=racing&task=race&id=108138954&meetingid=107036718&Itemid=89
p351
sg4
V29021821.1350
p352
sg6
(dp353
g8
(lp354
(lp355
I6
aI9
aI8
aI3
aa(lp356
I2
aI1
aI3
aI6
aa(lp357
I2
aI3
aI8
aI9
aa(lp358
I2
aI1
aI3
aI5
aa(lp359
I4
aI3
aI6
aI7
aa(lp360
I6
aI8
aI3
aI9
aa(lp361
I6
aI2
aI9
aI8
aa(lp362
I3
aI2
aI6
aI8
aasg18
(lp363
(dp364
g21
VSTRAIDNAHANNA
p365
sg23
Vx1x0x
p366
sg25
I76
sg26
I1
sg27
I78
sa(dp367
g21
VPICKAMIX
p368
sg23
V21x24
p369
sg25
I98
sg26
I2
sg27
I83
sa(dp370
g21
VRED GIANT
p371
sg23
V12572
p372
sg25
I82
sg26
I3
sg27
I88
sa(dp373
g21
VJOVIAL JOEY
p374
sg23
V31324
p375
sg25
I69
sg26
I4
sg27
I73
sa(dp376
g21
VROCK ON FRUITY
p377
sg23
Vx005x
p378
sg25
I64
sg26
I5
sg27
I63
sa(dp379
g21
VSAME CIRCUS
p380
sg23
V145x5
p381
sg25
I100
sg26
I6
sg27
I100
sa(dp382
g21
VBALLYCRYSTAL
p383
sg23
V10x69
p384
sg25
I79
sg26
I7
sg27
I69
sa(dp385
g21
VCLOTH CAP
p386
sg23
Vx0x31
p387
sg25
I86
sg26
I8
sg27
I94
sa(dp388
g21
VTHE PADDY PIE
p389
sg23
V21x22
p390
sg25
I93
sg26
I9
sg27
I97
sasg55
(lp391
sssI1542986100
(dp392
g2
Vhttp://www.skyracing.com.au/index.php?component=racing&task=race&id=108138985&meetingid=107036702&Itemid=89
p393
sg4
V29021820.1515
p394
sg6
(dp395
g8
(lp396
(lp397
I5
aI1
aI2
aI3
aa(lp398
I4
aI1
aI7
aI6
aa(lp399
I7
aI3
aI6
aI4
aa(lp400
I2
aI1
aI7
aI5
aa(lp401
I3
aI9
aI1
aI6
aa(lp402
I5
aI2
aI3
aI1
aa(lp403
I2
aI5
aI3
aI1
aa(lp404
I1
aI3
aI5
aI2
aasg18
(lp405
(dp406
g21
VMINELLA DADDY
p407
sg23
V2002x
p408
sg25
I89
sg26
I1
sg27
I96
sa(dp409
g21
VBATTLE OF SHILOH
p410
sg23
V0x39x
p411
sg25
I99
sg26
I2
sg27
I93
sa(dp412
g21
VABOVE BOARD
p413
sg23
V1x327
p414
sg25
I94
sg26
I3
sg27
I89
sa(dp415
g21
VTINTERN THEATRE
p416
sg23
V007x8
p417
sg25
I70
sg26
I4
sg27
I69
sa(dp418
g21
VCABARET QUEEN
p419
sg23
V411x5
p420
sg25
I100
sg26
I5
sg27
I100
sa(dp421
g21
VMARKOV
p422
sg23
V407x8
p423
sg25
I66
sg26
I6
sg27
I68
sa(dp424
g21
VFAVORITO BUCK'S
p425
sg23
V814x4
p426
sg25
I79
sg26
I7
sg27
I78
sa(dp427
g21
VLE BOIZELO
p428
sg23
V2146x
p429
sg25
I75
sg26
I8
sg27
I77
sa(dp430
g21
VVICE ET VERTU
p431
sg23
V30x1x
p432
sg25
I81
sg26
I9
sg27
I84
sasg55
(lp433
sssI1542985200
(dp434
g2
Vhttp://www.skyracing.com.au/index.php?component=racing&task=race&id=108138956&meetingid=107036718&Itemid=89
p435
sg4
V29021821.1500
p436
sg6
(dp437
g8
(lp438
(lp439
I5
aI1
aI4
aI2
aa(lp440
I2
aI4
aI5
aI3
aa(lp441
I4
aI3
aI1
aI2
aa(lp442
I2
aI4
aI5
aI3
aa(lp443
I4
aI2
aI1
aI5
aa(lp444
I5
aI1
aI4
aI2
aa(lp445
I5
aI2
aI1
aI4
aa(lp446
I4
aI5
aI2
aI1
aasg18
(lp447
(dp448
g21
VBARTON KNOLL
p449
sg23
Vx224x
p450
sg25
I92
sg26
I1
sg27
I98
sa(dp451
g21
VBRAAVOS
p452
sg23
V5354x
p453
sg25
I99
sg26
I2
sg27
I87
sa(dp454
g21
VBUYER BEWARE
p455
sg23
V57844
p456
sg25
I78
sg26
I3
sg27
I78
sa(dp457
g21
VCREZIC
p458
sg23
V22206
p459
sg25
I88
sg26
I4
sg27
I91
sa(dp460
g21
VREVERANT CUST
p461
sg23
V1226x
p462
sg25
I100
sg26
I5
sg27
I100
sa(dp463
g21
VTETRAITES STYLE
p464
sg23
V27x6x
p465
sg25
I82
sg26
I6
sg27
I82
sasg55
(lp466
sssI1542981900
(dp467
g2
Vhttp://www.skyracing.com.au/index.php?component=racing&task=race&id=108138983&meetingid=107036702&Itemid=89
p468
sg4
V29021820.1405
p469
sg6
(dp470
g8
(lp471
(lp472
I4
aI2
aI1
aI8
aa(lp473
I2
aI4
aI1
aI6
aa(lp474
I4
aI2
aI1
aI6
aa(lp475
I2
aI4
aI1
aI6
aa(lp476
I4
aI2
aI6
aI1
aa(lp477
I4
aI2
aI1
aI8
aa(lp478
I4
aI1
aI2
aI8
aa(lp479
I4
aI2
aI1
aI6
aasg18
(lp480
(dp481
g21
VCOMMANCHE RED
p482
sg23
V1x6x1
p483
sg25
I94
sg26
I1
sg27
I94
sa(dp484
g21
VDIDTHEYLEAVEUOUTTO
p485
sg23
V1x0x1
p486
sg25
I95
sg26
I2
sg27
I96
sa(dp487
g21
VHIGHEST SUN
p488
sg23
V71x1x
p489
sg25
I84
sg26
I3
sg27
I78
sa(dp490
g21
VTHOMAS DARBY
p491
sg23
V1x1
p492
sg25
I100
sg26
I4
sg27
I100
sa(dp493
g21
VANOTHER GO
p494
sg23
Vx649x
p495
sg25
I70
sg26
I5
sg27
I72
sa(dp496
g21
VBENNY'S BRIDGE
p497
sg23
V1x3x2
p498
sg25
I79
sg26
I6
sg27
I83
sa(dp499
g21
VROCK STEADY
p500
sg23
Vx89x7
p501
sg25
I74
sg26
I7
sg27
I77
sa(dp502
g21
VRATOUTE YUTTY
p503
sg23
V5x21x
p504
sg25
I87
sg26
I8
sg27
I85
sasg55
(lp505
sssI1542978600
(dp506
g2
Vhttp://www.skyracing.com.au/index.php?component=racing&task=race&id=108138967&meetingid=107036734&Itemid=89
p507
sg4
V29021819.1310
p508
sg6
(dp509
g8
(lp510
(lp511
I2
aI1
aI5
aI4
aa(lp512
I2
aI5
aI4
aI1
aa(lp513
I4
aI2
aI3
aI1
aa(lp514
I2
aI5
aI7
aI3
aa(lp515
I5
aI2
aI4
aI1
aa(lp516
I1
aI2
aI5
aI4
aa(lp517
I2
aI5
aI1
aI4
aa(lp518
I2
aI5
aI4
aI1
aasg18
(lp519
(dp520
g21
VMONTANNA
p521
sg23
Vx211x
p522
sg25
I95
sg26
I1
sg27
I97
sa(dp523
g21
VAL DANCER
p524
sg23
Vx14x1
p525
sg25
I100
sg26
I2
sg27
I100
sa(dp526
g21
VBREDON HILL LEO
p527
sg23
V4x9x6
p528
sg25
I76
sg26
I3
sg27
I78
sa(dp529
g21
VLOOKS FROZEN
p530
sg23
Vx27x6
p531
sg25
I87
sg26
I4
sg27
I85
sa(dp532
g21
VON THE ROX
p533
sg23
V17x
p534
sg25
I94
sg26
I5
sg27
I92
sa(dp535
g21
VPRESENT VALUE
p536
sg23
g250
sg25
I82
sg26
I6
sg27
I0
sa(dp537
g21
VSAINT DE VASSY
p538
sg23
V4x
p539
sg25
I80
sg26
I7
sg27
I79
sasg55
(lp540
sssI1542984600
(dp541
g2
Vhttp://www.skyracing.com.au/index.php?component=racing&task=race&id=108138970&meetingid=107036734&Itemid=89
p542
sg4
V29021819.1450
p543
sg6
(dp544
g8
(lp545
(lp546
I9
aI7
aI1
aI5
aa(lp547
I3
aI9
aI5
aI4
aa(lp548
I9
aI1
aI2
aI8
aa(lp549
I2
aI5
aI4
aI1
aa(lp550
I9
aI3
aI7
aI5
aa(lp551
I9
aI7
aI5
aI1
aa(lp552
I5
aI7
aI9
aI1
aa(lp553
I9
aI5
aI7
aI1
aasg18
(lp554
(dp555
g21
VROCCO
p556
sg23
V29x14
p557
sg25
I85
sg26
I1
sg27
I92
sa(dp558
g21
VSNEAKY FEELING
p559
sg23
Vx07x0
p560
sg25
I82
sg26
I2
sg27
I76
sa(dp561
g21
VLAMANVER ODYSSEY
p562
sg23
V7220x
p563
sg25
I76
sg26
I3
sg27
I79
sa(dp564
g21
VNEVER EQUALLED
p565
sg23
V7314x
p566
sg25
I72
sg26
I4
sg27
I72
sa(dp567
g21
VFLASHJACK
p568
sg23
V1115x
p569
sg25
I95
sg26
I5
sg27
I88
sa(dp570
g21
VPADGE
p571
sg23
Vx055x
p572
sg25
I78
sg26
I6
sg27
I82
sa(dp573
g21
VPENN LANE
p574
sg23
Vx1x2x
p575
sg25
I100
sg26
I7
sg27
I97
sa(dp576
g21
VSHADOW'S BOY
p577
sg23
V58x60
p578
sg25
I65
sg26
I8
sg27
I64
sa(dp579
g21
VGARDINERS HILL
p580
sg23
V7x211
p581
sg25
I91
sg26
I9
sg27
I100
sasg55
(lp582
sssI1542982500
(dp583
g2
Vhttp://www.skyracing.com.au/index.php?component=racing&task=race&id=108138969&meetingid=107036734&Itemid=89
p584
sg4
V29021819.1415
p585
sg6
(dp586
g8
(lp587
(lp588
I3
aI7
aI2
aI4
aa(lp589
I7
aI8
aI9
aI2
aa(lp590
I9
aI1
aI8
aI2
aa(lp591
I7
aI1
aI8
aI6
aa(lp592
I8
aI9
aI2
aI7
aa(lp593
I3
aI7
aI2
aI4
aa(lp594
I7
aI3
aI4
aI6
aa(lp595
I7
aI8
aI9
aI3
aasg18
(lp596
(dp597
g21
VABSOLUTE POWER
p598
sg23
Vx26x6
p599
sg25
I71
sg26
I1
sg27
I78
sa(dp600
g21
VFAWSLEY SPIRIT
p601
sg23
V337x
p602
sg25
I84
sg26
I2
sg27
I90
sa(dp603
g21
VSIR EGBERT
p604
sg23
V3041x
p605
sg25
I100
sg26
I3
sg27
I100
sa(dp606
g21
VCESAR COLLONGES
p607
sg23
V0x25x
p608
sg25
I91
sg26
I4
sg27
I89
sa(dp609
g21
VOVERWORKDUNDERPAID
p610
sg23
V5x50x
p611
sg25
I78
sg26
I5
sg27
I71
sa(dp612
g21
VMONBEG AQUADUDE
p613
sg23
V5415x
p614
sg25
I86
sg26
I6
sg27
I73
sa(dp615
g21
VAIR NAVIGATOR
p616
sg23
V0453x
p617
sg25
I97
sg26
I7
sg27
I99
sa(dp618
g21
VLESKINFERE
p619
sg23
V437x5
p620
sg25
I76
sg26
I8
sg27
I81
sa(dp621
g21
VGONE PLATINUM
p622
sg23
V26029
p623
sg25
I60
sg26
I9
sg27
I68
sa(dp624
g21
VROBINSSON
p625
sg23
Vx300x
p626
sg25
I66
sg26
I10
sg27
I62
sasg55
(lp627
sssI1542983100
(dp628
g2
Vhttp://www.skyracing.com.au/index.php?component=racing&task=race&id=108138955&meetingid=107036718&Itemid=89
p629
sg4
V29021821.1425
p630
sg6
(dp631
g8
(lp632
(lp633
I2
aI1
aI4
aI8
aa(lp634
I1
aI3
aI2
aI6
aa(lp635
I1
aI6
aI8
aI9
aa(lp636
I3
aI6
aI1
aI8
aa(lp637
I1
aI9
aI8
aI2
aa(lp638
I2
aI1
aI8
aI4
aa(lp639
I1
aI2
aI4
aI8
aa(lp640
I1
aI2
aI8
aI3
aasg18
(lp641
(dp642
g21
VOUR REWARD
p643
sg23
V57413
p644
sg25
I99
sg26
I1
sg27
I96
sa(dp645
g21
VONE NIGHT IN MILAN
p646
sg23
V34119
p647
sg25
I100
sg26
I2
sg27
I100
sa(dp648
g21
VKATY ROYAL
p649
sg23
V123x0
p650
sg25
I82
sg26
I3
sg27
I82
sa(dp651
g21
VSCENTED LILY
p652
sg23
V06x31
p653
sg25
I93
sg26
I4
sg27
I91
sa(dp654
g21
VBORUMA
p655
sg23
V360x5
p656
sg25
I77
sg26
I5
sg27
I78
sa(dp657
g21
VMAH MATE BOB
p658
sg23
V769x5
p659
sg25
I69
sg26
I6
sg27
I70
sa(dp660
g21
VSIMPLY LUCKY
p661
sg23
V13550
p662
sg25
I79
sg26
I7
sg27
I77
sa(dp663
g21
VLAWTOP LEGEND
p664
sg23
V8x421
p665
sg25
I87
sg26
I8
sg27
I88
sa(dp666
g21
VSHAIYZAR
p667
sg23
V26535
p668
sg25
I63
sg26
I9
sg27
I68
sasg55
(lp669
sssI1542979800
(dp670
g2
Vhttp://www.skyracing.com.au/index.php?component=racing&task=race&id=108138982&meetingid=107036702&Itemid=89
p671
sg4
V29021820.1330
p672
sg6
(dp673
g8
(lp674
(lp675
I1
aI8
aI4
aI6
aa(lp676
I6
aI1
aI8
aI7
aa(lp677
I1
aI8
aI2
aI6
aa(lp678
I6
aI2
aI1
aI8
aa(lp679
I8
aI1
aI4
aI7
aa(lp680
I1
aI4
aI8
aI6
aa(lp681
I1
aI4
aI8
aI5
aa(lp682
I1
aI8
aI6
aI4
aasg18
(lp683
(dp684
g21
VBREAKING WAVES
p685
sg23
V1x3
p686
sg25
I100
sg26
I1
sg27
I100
sa(dp687
g21
VEASTER ERIC
p688
sg23
V3x5
p689
sg25
I72
sg26
I2
sg27
I74
sa(dp690
g21
VEL HAGEB ROSE
p691
sg23
V6x
p692
sg25
I79
sg26
I3
sg27
I83
sa(dp693
g21
VGEORDIE B
p694
sg23
V1x
p695
sg25
I99
sg26
I4
sg27
I94
sa(dp696
g21
VIGOR
p697
sg23
g250
sg25
I89
sg26
I5
sg27
I0
sa(dp698
g21
VMOONLIGHTER
p699
sg23
V1x6x3
p700
sg25
I81
sg26
I6
sg27
I86
sa(dp701
g21
VSCORPION HAZE
p702
sg23
V4232x
p703
sg25
I75
sg26
I7
sg27
I79
sa(dp704
g21
VWESTBURY
p705
sg23
V1x3
p706
sg25
I93
sg26
I8
sg27
I97
sasg55
(lp707
sssI1542976500
(dp708
g2
Vhttp://www.skyracing.com.au/index.php?component=racing&task=race&id=108138966&meetingid=107036734&Itemid=89
p709
sg4
V29021819.1235
p710
sg6
(dp711
g8
(lp712
(lp713
I1
aI2
aI11
aI6
aa(lp714
I1
aI6
aI7
aI5
aa(lp715
I1
aI2
aI6
aI3
aa(lp716
I5
aI1
aI2
aI6
aa(lp717
I5
aI4
aI7
aI6
aa(lp718
I1
aI11
aI2
aI10
aa(lp719
I5
aI4
aI1
aI2
aa(lp720
I1
aI2
aI5
aI6
aasg18
(lp721
(dp722
g21
VSTRONG RESEMBLANCE
p723
sg23
V4x211
p724
sg25
I100
sg26
I1
sg27
I100
sa(dp725
g21
VCOUGAR'S GOLD
p726
sg23
V542x5
p727
sg25
I96
sg26
I2
sg27
I99
sa(dp728
g21
VAMOUR D'OR
p729
sg23
V10x05
p730
sg25
I78
sg26
I3
sg27
I74
sa(dp731
g21
VTHE LAST BRIDGE
p732
sg23
V1139x
p733
sg25
I85
sg26
I4
sg27
I86
sa(dp734
g21
VCAWDOR HOUSE BERT
p735
sg23
V1200x
p736
sg25
I95
sg26
I5
sg27
I82
sa(dp737
g21
VSUTTER'S MILL
p738
sg23
V634x6
p739
sg25
I81
sg26
I6
sg27
I91
sa(dp740
g21
VCOLMERS HILL
p741
sg23
V0649x
p742
sg25
I73
sg26
I7
sg27
I75
sa(dp743
g21
VMAGICAL MAN
p744
sg23
V1466x
p745
sg25
I71
sg26
I8
sg27
I71
sa(dp746
g21
VASTIGOS
p747
sg23
V6316x
p748
sg25
I76
sg26
I9
sg27
I79
sa(dp749
g21
VHOW'S VIENNA
p750
sg23
V3316x
p751
sg25
I91
sg26
I10
sg27
I87
sa(dp752
g21
VLEITH HILL LEGASI
p753
sg23
V4552x
p754
sg25
I88
sg26
I11
sg27
I94
sasg55
(lp755
sssI1542980400
(dp756
g2
Vhttp://www.skyracing.com.au/index.php?component=racing&task=race&id=108138968&meetingid=107036734&Itemid=89
p757
sg4
V29021819.1340
p758
sg6
(dp759
g8
(lp760
(lp761
I2
aI3
aI12
aI7
aa(lp762
I3
aI2
aI7
aI5
aa(lp763
I2
aI5
aI6
aI4
aa(lp764
I4
aI3
aI6
aI7
aa(lp765
I2
aI3
aI6
aI7
aa(lp766
I2
aI3
aI12
aI7
aa(lp767
I7
aI2
aI12
aI3
aa(lp768
I2
aI3
aI7
aI6
aasg18
(lp769
(dp770
g21
VCASKO D'AIRY
p771
sg23
V1x2x9
p772
sg25
I86
sg26
I1
sg27
I89
sa(dp773
g21
VEMITOM
p774
sg23
V1x1
p775
sg25
I100
sg26
I2
sg27
I100
sa(dp776
g21
VHIDEAWAY VIC
p777
sg23
V212x
p778
sg25
I91
sg26
I3
sg27
I96
sa(dp779
g21
VLANDOFSMILES
p780
sg23
V23x46
p781
sg25
I77
sg26
I4
sg27
I81
sa(dp782
g21
VLISNAGAR OSCAR
p783
sg23
V1x3
p784
sg25
I89
sg26
I5
sg27
I84
sa(dp785
g21
VMICK MANHATTAN
p786
sg23
V1x5
p787
sg25
I83
sg26
I6
sg27
I75
sa(dp788
g21
VMILANSTORM
p789
sg23
V21x
p790
sg25
I95
sg26
I7
sg27
I92
sa(dp791
g21
VMOVIE THEATRE
p792
sg23
V0x21x
p793
sg25
I79
sg26
I8
sg27
I78
sa(dp794
g21
VSPEEDY GONZALEZ
p795
sg23
Vx0x3x
p796
sg25
I73
sg26
I9
sg27
I74
sa(dp797
g21
VTEA TIME ON MARS
p798
sg23
V4x0x7
p799
sg25
I72
sg26
I10
sg27
I71
sa(dp800
g21
VDANCING GREY
p801
sg23
V59340
p802
sg25
I70
sg26
I11
sg27
I69
sa(dp803
g21
VFAITHFULNESS
p804
sg23
V1x
p805
sg25
I98
sg26
I12
sg27
I95
sasg55
(lp806
sss.