(dp0
I1542605700
(dp1
S'skyracing_url'
p2
Vhttp://www.skyracing.com.au/index.php?component=racing&task=race&id=107998392&meetingid=103843035&Itemid=89
p3
sS'betfair_raceid'
p4
V29015275.0535
p5
sS'dat2'
p6
(dp7
S'ratings_auto'
p8
(lp9
(lp10
I3
aI1
aI5
aI7
aa(lp11
I1
aI3
aI2
aI8
aa(lp12
I2
aI7
aI5
aI1
aa(lp13
I2
aI1
aI3
aI8
aa(lp14
I7
aI2
aI5
aI8
aa(lp15
I1
aI5
aI7
aI3
aa(lp16
I2
aI5
aI7
aI1
aa(lp17
I1
aI2
aI3
aI7
aasS'horse_details'
p18
(lp19
(dp20
S'horse_name'
p21
VALLKNIGHT SAINT
p22
sS'horse_form'
p23
V13605
p24
sS'rating_2'
p25
I89
sS'horse_number'
p26
I1
sS'rating_1'
p27
I92
sa(dp28
g21
VLANDMARKS
p29
sg23
V07216
p30
sg25
I100
sg26
I2
sg27
I83
sa(dp31
g21
VPORTION CONTROL
p32
sg23
V4700x
p33
sg25
I90
sg26
I3
sg27
I100
sa(dp34
g21
VLAY DOWN THE LAW
p35
sg23
V0547x
p36
sg25
I72
sg26
I4
sg27
I65
sa(dp37
g21
VMELTED MOMENTS
p38
sg23
V24241
p39
sg25
I95
sg26
I5
sg27
I89
sa(dp40
g21
VKASHARN
p41
sg23
V000x8
p42
sg25
I70
sg26
I6
sg27
I68
sa(dp43
g21
VPLEASED
p44
sg23
Vx2551
p45
sg25
I97
sg26
I7
sg27
I88
sa(dp46
g21
VYOUWAITANDSEE
p47
sg23
V4738x
p48
sg25
I73
sg26
I8
sg27
I70
sa(dp49
g21
VANNE BONNY
p50
sg23
V93344
p51
sg25
I84
sg26
I9
sg27
I79
sa(dp52
g21
VVOLTAIRE LUMIERE
p53
sg23
V68476
p54
sg25
I78
sg26
I10
sg27
I71
sa(dp55
g21
VTHEY CALL ME ROSE
p56
sg23
V94015
p57
sg25
I81
sg26
I11
sg27
I80
sa(dp58
g21
VILIA
p59
sg23
V52552
p60
sg25
I77
sg26
I12
sg27
I74
sa(dp61
g21
VMY BOY LOUIE
p62
sg23
V847x5
p63
sg25
I65
sg26
I13
sg27
I60
sasS'ratings_manual'
p64
(lp65
sssI1542597000
(dp66
g2
Vhttp://www.skyracing.com.au/index.php?component=racing&task=race&id=107998388&meetingid=103843035&Itemid=89
p67
sg4
V29015275.0310
p68
sg6
(dp69
g8
(lp70
(lp71
I3
aI6
aI7
aI1
aa(lp72
I2
aI5
aI1
aI3
aa(lp73
I1
aI2
aI3
aI6
aa(lp74
I1
aI2
aI3
aI6
aa(lp75
I3
aI5
aI7
aI2
aa(lp76
I6
aI3
aI7
aI2
aa(lp77
I3
aI6
aI2
aI7
aa(lp78
I3
aI2
aI1
aI6
aasg18
(lp79
(dp80
g21
VOUTSTRIP
p81
sg23
V10095
p82
sg25
I89
sg26
I1
sg27
I84
sa(dp83
g21
VLONELY ORPHAN
p84
sg23
V50404
p85
sg25
I96
sg26
I2
sg27
I80
sa(dp86
g21
VTOUGH ONE
p87
sg23
V18161
p88
sg25
I100
sg26
I3
sg27
I100
sa(dp89
g21
VTRUE RAIDER
p90
sg23
V25166
p91
sg25
I79
sg26
I4
sg27
I75
sa(dp92
g21
VQABLA
p93
sg23
V55905
p94
sg25
I76
sg26
I5
sg27
I78
sa(dp95
g21
VSHANDAARA
p96
sg23
V74424
p97
sg25
I92
sg26
I6
sg27
I94
sa(dp98
g21
VALFIE JUNIOR
p99
sg23
V18355
p100
sg25
I83
sg26
I7
sg27
I89
sasg64
(lp101
sssI1542609900
(dp102
g2
Vhttp://www.skyracing.com.au/index.php?component=racing&task=race&id=107998394&meetingid=103843035&Itemid=89
p103
sg4
V29015275.0645
p104
sg6
(dp105
g8
(lp106
(lp107
I2
aI9
aI6
aI3
aa(lp108
I1
aI7
aI12
aI2
aa(lp109
I2
aI1
aI8
aI5
aa(lp110
I5
aI1
aI11
aI2
aa(lp111
I2
aI9
aI6
aI7
aa(lp112
I2
aI9
aI3
aI6
aa(lp113
I2
aI1
aI9
aI6
aa(lp114
I2
aI1
aI9
aI6
aasg18
(lp115
(dp116
g21
VCAMBODIAN PRINCE
p117
sg23
Vx4665
p118
sg25
I99
sg26
I1
sg27
I89
sa(dp119
g21
VJAYZOU
p120
sg23
V32x21
p121
sg25
I100
sg26
I2
sg27
I100
sa(dp122
g21
VI AM PERFECT
p123
sg23
V03451
p124
sg25
I90
sg26
I3
sg27
I92
sa(dp125
g21
VGOLDEN VALLEY
p126
sg23
V553x6
p127
sg25
I86
sg26
I4
sg27
I75
sa(dp128
g21
VPRETTY SMART
p129
sg23
V7x732
p130
sg25
I77
sg26
I5
sg27
I84
sa(dp131
g21
VKARLU DREAMING
p132
sg23
V16332
p133
sg25
I89
sg26
I6
sg27
I94
sa(dp134
g21
VFALSIFIED
p135
sg23
V05388
p136
sg25
I71
sg26
I7
sg27
I70
sa(dp137
g21
VMADAM KATE
p138
sg23
V80502
p139
sg25
I82
sg26
I8
sg27
I80
sa(dp140
g21
VMUDGEE ROAD
p141
sg23
V00x13
p142
sg25
I94
sg26
I9
sg27
I98
sa(dp143
g21
VANGHIARI
p144
sg23
Vx0220
p145
sg25
I66
sg26
I10
sg27
I65
sa(dp146
g21
VTORPEDO
p147
sg23
V8x675
p148
sg25
I73
sg26
I11
sg27
I68
sa(dp149
g21
VARLINGTON HEIGHTS
p150
sg23
V05054
p151
sg25
I79
sg26
I12
sg27
I78
sa(dp152
g21
VMISHANI ISTANA
p153
sg23
V65263
p154
sg25
I70
sg26
I13
sg27
I73
sa(dp155
g21
VTAN TAT NOVA
p156
sg23
V50x09
p157
sg25
I61
sg26
I14
sg27
I61
sa(dp158
g21
VDESTINY'S GENERAL
p159
sg23
V50007
p160
sg25
I62
sg26
I15
sg27
I62
sasg64
(lp161
sssI1542597900
(dp162
g2
Vhttp://www.skyracing.com.au/index.php?component=racing&task=race&id=107998344&meetingid=103843019&Itemid=89
p163
sg4
V29015488.0325
p164
sg6
(dp165
g8
(lp166
(lp167
I3
aI5
aI8
aI14
aa(lp168
I3
aI8
aI16
aI4
aa(lp169
I4
aI17
aI14
aI16
aa(lp170
I8
aI16
aI3
aI13
aa(lp171
I16
aI8
aI3
aI14
aa(lp172
I5
aI3
aI8
aI16
aa(lp173
I3
aI8
aI5
aI14
aa(lp174
I3
aI8
aI16
aI5
aasg18
(lp175
(dp176
g21
VAGENT KING
p177
sg23
V
p178
sg25
I75
sg26
I1
sg27
I0
sa(dp179
g21
VTIME FOR US
p180
sg23
g178
sg25
I76
sg26
I2
sg27
I0
sa(dp181
g21
VKENNETH
p182
sg23
V272x9
p183
sg25
I100
sg26
I3
sg27
I100
sa(dp184
g21
VROYAL SWAGGER
p185
sg23
V89
p186
sg25
I72
sg26
I4
sg27
I74
sa(dp187
g21
VDEFEAT
p188
sg23
V7x
p189
sg25
I94
sg26
I5
sg27
I94
sa(dp190
g21
VGENERAL SOHO
p191
sg23
V6
p192
sg25
I68
sg26
I6
sg27
I73
sa(dp193
g21
VBUBBLES BALL
p194
sg23
V2
p195
sg25
I99
sg26
I7
sg27
I98
sa(dp196
g21
VARTEFIORI
p197
sg23
Vx055x
p198
sg25
I96
sg26
I8
sg27
I89
sa(dp199
g21
VCELEBRITA'S CHOICE
p200
sg23
g178
sg25
I88
sg26
I9
sg27
I0
sa(dp201
g21
VSTELLA SEA SUN
p202
sg23
g178
sg25
I81
sg26
I10
sg27
I0
sa(dp203
g21
VTUTUWEKA
p204
sg23
g178
sg25
I66
sg26
I11
sg27
I0
sa(dp205
g21
VHARDACHAK
p206
sg23
V0
p207
sg25
I87
sg26
I12
sg27
I85
sa(dp208
g21
VMADAM ILITHYIA
p209
sg23
V4x7
p210
sg25
I78
sg26
I13
sg27
I77
sa(dp211
g21
VSMOODGE
p212
sg23
V5
p213
sg25
I92
sg26
I14
sg27
I88
sa(dp214
g21
VHARKNESS
p215
sg23
V9x0
p216
sg25
I60
sg26
I15
sg27
I66
sa(dp217
g21
VSAFARIS
p218
sg23
V975x6
p219
sg25
I85
sg26
I16
sg27
I79
sa(dp220
g21
VSERGEANT RECKLESS
p221
sg23
V90x5
p222
sg25
I63
sg26
I17
sg27
I69
sa(dp223
g21
VEYE MAYBE A WINA
p224
sg23
V4080x
p225
sg25
I65
sg26
I18
sg27
I68
sasg64
(lp226
sssI1542595800
(dp227
g2
Vhttp://www.skyracing.com.au/index.php?component=racing&task=race&id=107998343&meetingid=103843019&Itemid=89
p228
sg4
V29015488.0250
p229
sg6
(dp230
g8
(lp231
(lp232
I8
aI2
aI4
aI13
aa(lp233
I4
aI8
aI2
aI9
aa(lp234
I8
aI2
aI9
aI3
aa(lp235
I4
aI8
aI9
aI2
aa(lp236
I2
aI8
aI4
aI3
aa(lp237
I8
aI2
aI4
aI3
aa(lp238
I8
aI4
aI2
aI13
aa(lp239
I8
aI2
aI4
aI9
aasg18
(lp240
(dp241
g21
VDECEPTIVE COVER
p242
sg23
g178
sg25
I78
sg26
I1
sg27
I0
sa(dp243
g21
VANAITA
p244
sg23
V52
p245
sg25
I96
sg26
I2
sg27
I96
sa(dp246
g21
VCASH FACTOR
p247
sg23
V0x24
p248
sg25
I86
sg26
I3
sg27
I87
sa(dp249
g21
VKENNYWYN
p250
sg23
V48x3x
p251
sg25
I95
sg26
I4
sg27
I93
sa(dp252
g21
VHARD REALITY
p253
sg23
V9
p254
sg25
I75
sg26
I5
sg27
I83
sa(dp255
g21
VNOMORETAWQ
p256
sg23
V8
p257
sg25
I65
sg26
I6
sg27
I69
sa(dp258
g21
VPELLIZENA
p259
sg23
V6
p260
sg25
I68
sg26
I7
sg27
I73
sa(dp261
g21
VMARY MAGPIE
p262
sg23
V8x252
p263
sg25
I100
sg26
I8
sg27
I100
sa(dp264
g21
VGOT THE GIGGLES
p265
sg23
V808
p266
sg25
I70
sg26
I9
sg27
I77
sa(dp267
g21
VCRYSTAL LAKE
p268
sg23
V9
p269
sg25
I74
sg26
I10
sg27
I79
sa(dp270
g21
VMY SHIROMI
p271
sg23
g178
sg25
I88
sg26
I11
sg27
I0
sa(dp272
g21
VAPPLESANDBISCUITS
p273
sg23
V0x
p274
sg25
I62
sg26
I12
sg27
I70
sa(dp275
g21
VCRYSTAL QUEEN
p276
sg23
V508x
p277
sg25
I91
sg26
I13
sg27
I90
sa(dp278
g21
VDYNASTY DI
p279
sg23
V06x53
p280
sg25
I81
sg26
I14
sg27
I84
sasg64
(lp281
sssI1542602400
(dp282
g2
Vhttp://www.skyracing.com.au/index.php?component=racing&task=race&id=107998346&meetingid=103843019&Itemid=89
p283
sg4
V29015488.0440
p284
sg6
(dp285
g8
(lp286
(lp287
I10
aI7
aI4
aI5
aa(lp288
I1
aI3
aI2
aI9
aa(lp289
I2
aI5
aI3
aI1
aa(lp290
I2
aI9
aI5
aI3
aa(lp291
I2
aI4
aI9
aI10
aa(lp292
I10
aI4
aI7
aI5
aa(lp293
I10
aI7
aI4
aI3
aa(lp294
I2
aI10
aI4
aI5
aasg18
(lp295
(dp296
g21
VEPIC DECISION
p297
sg23
V8x485
p298
sg25
I70
sg26
I1
sg27
I71
sa(dp299
g21
VCHARLIE GARCON
p300
sg23
V53471
p301
sg25
I80
sg26
I2
sg27
I78
sa(dp302
g21
VTABLE TWO
p303
sg23
Vx3450
p304
sg25
I77
sg26
I3
sg27
I77
sa(dp305
g21
VDON'T DOUBT HER
p306
sg23
V15x25
p307
sg25
I85
sg26
I4
sg27
I94
sa(dp308
g21
VHE'S OUR TOY BOY
p309
sg23
V05722
p310
sg25
I83
sg26
I5
sg27
I85
sa(dp311
g21
VBUDDY HONEST
p312
sg23
V9x432
p313
sg25
I94
sg26
I6
sg27
I81
sa(dp314
g21
VMOONLIGHT SPY
p315
sg23
V7290x
p316
sg25
I95
sg26
I7
sg27
I98
sa(dp317
g21
VSHALAMA
p318
sg23
V41376
p319
sg25
I60
sg26
I8
sg27
I67
sa(dp320
g21
VST LUKE
p321
sg23
V567x5
p322
sg25
I63
sg26
I9
sg27
I62
sa(dp323
g21
VMICK THE HAT
p324
sg23
V2x133
p325
sg25
I100
sg26
I10
sg27
I100
sasg64
(lp326
sssI1542603300
(dp327
g2
Vhttp://www.skyracing.com.au/index.php?component=racing&task=race&id=107998391&meetingid=103843035&Itemid=89
p328
sg4
V29015275.0455
p329
sg6
(dp330
g8
(lp331
(lp332
I4
aI2
aI1
aI6
aa(lp333
I7
aI3
aI2
aI5
aa(lp334
I2
aI5
aI8
aI1
aa(lp335
I8
aI7
aI1
aI2
aa(lp336
I7
aI2
aI8
aI4
aa(lp337
I1
aI4
aI6
aI2
aa(lp338
I2
aI4
aI6
aI8
aa(lp339
I2
aI7
aI1
aI4
aasg18
(lp340
(dp341
g21
VFUDGEWEDGE
p342
sg23
V6x853
p343
sg25
I90
sg26
I1
sg27
I89
sa(dp344
g21
VACRAMAN
p345
sg23
V26312
p346
sg25
I98
sg26
I2
sg27
I97
sa(dp347
g21
VCRESTA COSMIC
p348
sg23
V6856x
p349
sg25
I78
sg26
I3
sg27
I75
sa(dp350
g21
VNOOKS AND CRANNIES
p351
sg23
V23x71
p352
sg25
I100
sg26
I4
sg27
I100
sa(dp353
g21
VART FORM
p354
sg23
V79383
p355
sg25
I77
sg26
I5
sg27
I71
sa(dp356
g21
VFIRST TIME LUCKY
p357
sg23
V52421
p358
sg25
I95
sg26
I6
sg27
I85
sa(dp359
g21
VCAPTAIN THE WORLD
p360
sg23
V28255
p361
sg25
I80
sg26
I7
sg27
I78
sa(dp362
g21
VSHIVER ME TIMBERS
p363
sg23
V8x342
p364
sg25
I89
sg26
I8
sg27
I83
sa(dp365
g21
VESPLANADE
p366
sg23
V81700
p367
sg25
I72
sg26
I9
sg27
I65
sa(dp368
g21
VSTEPPIN' OUT
p369
sg23
V50x07
p370
sg25
I67
sg26
I10
sg27
I59
sa(dp371
g21
VLUNAR LUSTRE
p372
sg23
V1038x
p373
sg25
I73
sg26
I11
sg27
I68
sa(dp374
g21
VORNATE
p375
sg23
V53168
p376
sg25
I86
sg26
I12
sg27
I73
sa(dp377
g21
VBEAU DANCER
p378
sg23
V00779
p379
sg25
I71
sg26
I13
sg27
I64
sasg64
(lp380
sssI1542594600
(dp381
g2
Vhttp://www.skyracing.com.au/index.php?component=racing&task=race&id=107998373&meetingid=103843051&Itemid=89
p382
sg4
V29015490.0230
p383
sg6
(dp384
g8
(lp385
(lp386
I8
aI4
aI1
aI7
aa(lp387
I6
aI1
aI4
aI8
aa(lp388
I8
aI1
aI3
aI6
aa(lp389
I8
aI3
aI6
aI1
aa(lp390
I9
aI6
aI4
aI8
aa(lp391
I8
aI1
aI4
aI7
aa(lp392
I8
aI4
aI7
aI1
aa(lp393
I8
aI1
aI6
aI4
aasg18
(lp394
(dp395
g21
VANACHEEVA PRINCE
p396
sg23
V89569
p397
sg25
I87
sg26
I1
sg27
I85
sa(dp398
g21
VBADGE OF HONOUR
p399
sg23
V90709
p400
sg25
I71
sg26
I2
sg27
I67
sa(dp401
g21
VLAHEEB
p402
sg23
V00805
p403
sg25
I60
sg26
I3
sg27
I58
sa(dp404
g21
VMODERNA'S ARROW
p405
sg23
V7464x
p406
sg25
I95
sg26
I4
sg27
I87
sa(dp407
g21
VRAKAU WHERO
p408
sg23
V7x853
p409
sg25
I79
sg26
I5
sg27
I94
sa(dp410
g21
VCOSTANO MILLE
p411
sg23
V0x875
p412
sg25
I66
sg26
I6
sg27
I62
sa(dp413
g21
VHURRICAINE
p414
sg23
V658x4
p415
sg25
I90
sg26
I7
sg27
I77
sa(dp416
g21
VLESEDI
p417
sg23
V57330
p418
sg25
I100
sg26
I8
sg27
I100
sa(dp419
g21
VPEACEFUL SOLUTION
p420
sg23
Vx9050
p421
sg25
I81
sg26
I9
sg27
I76
sa(dp422
g21
VPERTINACIOUS
p423
sg23
V76
p424
sg25
I75
sg26
I10
sg27
I73
sasg64
(lp425
sssI1542596400
(dp426
g2
Vhttp://www.skyracing.com.au/index.php?component=racing&task=race&id=107998374&meetingid=103843051&Itemid=89
p427
sg4
V29015490.0300
p428
sg6
(dp429
g8
(lp430
(lp431
I3
aI6
aI2
aI7
aa(lp432
I5
aI2
aI3
aI8
aa(lp433
I2
aI3
aI6
aI5
aa(lp434
I3
aI5
aI6
aI7
aa(lp435
I2
aI3
aI7
aI6
aa(lp436
I3
aI6
aI2
aI7
aa(lp437
I3
aI6
aI5
aI2
aa(lp438
I3
aI2
aI6
aI5
aasg18
(lp439
(dp440
g21
VGOLDEN GEE
p441
sg23
V5x671
p442
sg25
I91
sg26
I1
sg27
I83
sa(dp443
g21
VBROO BOSS
p444
sg23
V13245
p445
sg25
I80
sg26
I2
sg27
I89
sa(dp446
g21
VNEGASI
p447
sg23
V43561
p448
sg25
I100
sg26
I3
sg27
I100
sa(dp449
g21
VTRUE GENT
p450
sg23
V52142
p451
sg25
I86
sg26
I4
sg27
I99
sa(dp452
g21
VNELSONS ARCH
p453
sg23
V55653
p454
sg25
I81
sg26
I5
sg27
I77
sa(dp455
g21
VSHE'S DELUXE
p456
sg23
V62149
p457
sg25
I98
sg26
I6
sg27
I92
sa(dp458
g21
VWOLF KING
p459
sg23
V99432
p460
sg25
I73
sg26
I7
sg27
I80
sa(dp461
g21
VZABEXTRA
p462
sg23
V60640
p463
sg25
I72
sg26
I8
sg27
I70
sa(dp464
g21
VVENTURA HIGHWAY
p465
sg23
V00708
p466
sg25
I67
sg26
I9
sg27
I64
sa(dp467
g21
VENTIRELY PERFECT
p468
sg23
V40680
p469
sg25
I62
sg26
I10
sg27
I62
sasg64
(lp470
sssI1542606900
(dp471
g2
Vhttp://www.skyracing.com.au/index.php?component=racing&task=race&id=107998348&meetingid=103843019&Itemid=89
p472
sg4
V29015488.0555
p473
sg6
(dp474
g8
(lp475
(lp476
I9
aI6
aI8
aI2
aa(lp477
I1
aI3
aI2
aI9
aa(lp478
I1
aI5
aI6
aI9
aa(lp479
I2
aI3
aI1
aI8
aa(lp480
I6
aI9
aI12
aI3
aa(lp481
I6
aI8
aI2
aI9
aa(lp482
I6
aI8
aI9
aI3
aa(lp483
I6
aI1
aI2
aI9
aasg18
(lp484
(dp485
g21
VVEGA DE LAGO
p486
sg23
V468x2
p487
sg25
I74
sg26
I1
sg27
I72
sa(dp488
g21
VRED ZEPHYR
p489
sg23
V3467x
p490
sg25
I86
sg26
I2
sg27
I90
sa(dp491
g21
VTYCOON STREET
p492
sg23
V0447x
p493
sg25
I91
sg26
I3
sg27
I86
sa(dp494
g21
VDON'T DOUBT HER
p495
sg23
V15x25
p496
sg25
I75
sg26
I4
sg27
I73
sa(dp497
g21
VBUDDY HONEST
p498
sg23
V9x432
p499
sg25
I88
sg26
I5
sg27
I82
sa(dp500
g21
VIBINI
p501
sg23
V128x1
p502
sg25
I100
sg26
I6
sg27
I94
sa(dp503
g21
VISLAND GRANGE
p504
sg23
V141x3
p505
sg25
I80
sg26
I7
sg27
I80
sa(dp506
g21
VRUGENBRAU
p507
sg23
V0631x
p508
sg25
I94
sg26
I8
sg27
I91
sa(dp509
g21
VPETRA JEWEL
p510
sg23
V16x33
p511
sg25
I96
sg26
I9
sg27
I100
sa(dp512
g21
VTORIO'S DELIGHT
p513
sg23
V0x100
p514
sg25
I64
sg26
I10
sg27
I63
sa(dp515
g21
VKATE'S PEARL
p516
sg23
V66152
p517
sg25
I78
sg26
I11
sg27
I76
sa(dp518
g21
VSHOAL RIVER
p519
sg23
V28007
p520
sg25
I72
sg26
I12
sg27
I68
sa(dp521
g21
VONLY IN RED
p522
sg23
V7000x
p523
sg25
I68
sg26
I13
sg27
I69
sasg64
(lp524
sssI1542598200
(dp525
g2
Vhttp://www.skyracing.com.au/index.php?component=racing&task=race&id=107998375&meetingid=103843051&Itemid=89
p526
sg4
V29015490.0330
p527
sg6
(dp528
g8
(lp529
(lp530
I2
aI4
aI7
aI6
aa(lp531
I4
aI2
aI6
aI7
aa(lp532
I4
aI6
aI1
aI2
aa(lp533
I2
aI4
aI7
aI6
aa(lp534
I2
aI7
aI4
aI6
aa(lp535
I2
aI4
aI7
aI6
aa(lp536
I2
aI4
aI7
aI6
aa(lp537
I2
aI4
aI7
aI6
aasg18
(lp538
(dp539
g21
VCARMELITES
p540
sg23
g178
sg25
I76
sg26
I1
sg27
I0
sa(dp541
g21
VDU WELL
p542
sg23
V75x
p543
sg25
I100
sg26
I2
sg27
I100
sa(dp544
g21
VLIFE IN MANHATTAN
p545
sg23
g178
sg25
I81
sg26
I3
sg27
I0
sa(dp546
g21
VMONGELICA
p547
sg23
V80x5
p548
sg25
I99
sg26
I4
sg27
I96
sa(dp549
g21
VSAHARA BELLE
p550
sg23
g178
sg25
I79
sg26
I5
sg27
I0
sa(dp551
g21
VSCHAZEM
p552
sg23
V8
p553
sg25
I88
sg26
I6
sg27
I85
sa(dp554
g21
VSTRAVAIN
p555
sg23
V8x
p556
sg25
I94
sg26
I7
sg27
I94
sasg64
(lp557
sssI1542599100
(dp558
g2
Vhttp://www.skyracing.com.au/index.php?component=racing&task=race&id=107998389&meetingid=103843035&Itemid=89
p559
sg4
V29015275.0345
p560
sg6
(dp561
g8
(lp562
(lp563
I4
aI9
aI11
aI10
aa(lp564
I9
aI15
aI2
aI4
aa(lp565
I4
aI11
aI17
aI9
aa(lp566
I4
aI2
aI18
aI15
aa(lp567
I9
aI15
aI17
aI4
aa(lp568
I9
aI4
aI11
aI15
aa(lp569
I9
aI4
aI10
aI11
aa(lp570
I4
aI9
aI15
aI11
aasg18
(lp571
(dp572
g21
VDISPENSATION
p573
sg23
g178
sg25
I89
sg26
I1
sg27
I0
sa(dp574
g21
VCASINO AT MARINO
p575
sg23
V49x
p576
sg25
I92
sg26
I2
sg27
I90
sa(dp577
g21
VNODIBBAG
p578
sg23
g178
sg25
I80
sg26
I3
sg27
I0
sa(dp579
g21
VZOUKI
p580
sg23
V24x22
p581
sg25
I100
sg26
I4
sg27
I100
sa(dp582
g21
VSEQUENTIAL PEARL
p583
sg23
V5
p584
sg25
I78
sg26
I5
sg27
I82
sa(dp585
g21
VSHINAR
p586
sg23
V7
p587
sg25
I75
sg26
I6
sg27
I76
sa(dp588
g21
VZIP ZAP COP THAT
p589
sg23
V5
p590
sg25
I71
sg26
I7
sg27
I74
sa(dp591
g21
VGREATDUCK
p592
sg23
V904x8
p593
sg25
I65
sg26
I8
sg27
I66
sa(dp594
g21
VMORINGA'S HIEMIE
p595
sg23
V29234
p596
sg25
I99
sg26
I9
sg27
I97
sa(dp597
g21
VANNIE ETHYL
p598
sg23
V5x
p599
sg25
I93
sg26
I10
sg27
I91
sa(dp600
g21
VCOMPLETE FAITH
p601
sg23
V20052
p602
sg25
I95
sg26
I11
sg27
I93
sa(dp603
g21
VLITTLE FUNNY BUNNY
p604
sg23
V9x8
p605
sg25
I63
sg26
I12
sg27
I62
sa(dp606
g21
VONWARD TO VICTORY
p607
sg23
V669x0
p608
sg25
I66
sg26
I13
sg27
I70
sa(dp609
g21
VPRINCESS IVY
p610
sg23
V99x9
p611
sg25
I61
sg26
I14
sg27
I65
sa(dp612
g21
VVINTAGE LUXE
p613
sg23
V06857
p614
sg25
I85
sg26
I15
sg27
I85
sa(dp615
g21
VDASHING OCEAN
p616
sg23
V09625
p617
sg25
I76
sg26
I16
sg27
I78
sa(dp618
g21
VSIDESHOW AL
p619
sg23
V90362
p620
sg25
I86
sg26
I17
sg27
I87
sa(dp621
g21
VSKYLAAZEM
p622
sg23
V9446x
p623
sg25
I68
sg26
I18
sg27
I73
sasg64
(lp624
sssI1542600000
(dp625
g2
Vhttp://www.skyracing.com.au/index.php?component=racing&task=race&id=107998376&meetingid=103843051&Itemid=89
p626
sg4
V29015490.0400
p627
sg6
(dp628
g8
(lp629
(lp630
I5
aI2
aI11
aI4
aa(lp631
I2
aI11
aI5
aI4
aa(lp632
I5
aI4
aI2
aI11
aa(lp633
I5
aI2
aI4
aI11
aa(lp634
I2
aI11
aI5
aI4
aa(lp635
I2
aI5
aI11
aI14
aa(lp636
I5
aI2
aI11
aI4
aa(lp637
I2
aI5
aI11
aI4
aasg18
(lp638
(dp639
g21
VDEVIL'S RAIN
p640
sg23
g178
sg25
I61
sg26
I1
sg27
I0
sa(dp641
g21
VINTEGRATED
p642
sg23
Vx2035
p643
sg25
I97
sg26
I2
sg27
I94
sa(dp644
g21
VMUZZLEFLASH
p645
sg23
g178
sg25
I84
sg26
I3
sg27
I0
sa(dp646
g21
VREWARD THE MISSES
p647
sg23
V575x3
p648
sg25
I92
sg26
I4
sg27
I85
sa(dp649
g21
VTHE GHAN
p650
sg23
V44x3
p651
sg25
I100
sg26
I5
sg27
I100
sa(dp652
g21
VVEGAS REWARD
p653
sg23
V8
p654
sg25
I66
sg26
I6
sg27
I61
sa(dp655
g21
VBELAR BLUE
p656
sg23
V6x
p657
sg25
I70
sg26
I7
sg27
I64
sa(dp658
g21
VHUNCH
p659
sg23
g178
sg25
I63
sg26
I8
sg27
I0
sa(dp660
g21
VPIEMONTE
p661
sg23
g178
sg25
I79
sg26
I9
sg27
I0
sa(dp662
g21
VURBAN MYTH
p663
sg23
V5
p664
sg25
I76
sg26
I10
sg27
I76
sa(dp665
g21
VMYLEX
p666
sg23
V39347
p667
sg25
I95
sg26
I11
sg27
I91
sa(dp668
g21
VYARRINUP FLYER
p669
sg23
g178
sg25
I69
sg26
I12
sg27
I0
sa(dp670
g21
VLOVE MACHINE
p671
sg23
V77x
p672
sg25
I80
sg26
I13
sg27
I78
sa(dp673
g21
VFIGHTING LEGEND
p674
sg23
V88x0
p675
sg25
I87
sg26
I14
sg27
I81
sa(dp676
g21
VBETTYGEE
p677
sg23
V594
p678
sg25
I73
sg26
I15
sg27
I69
sasg64
(lp679
sssI1542601800
(dp680
g2
Vhttp://www.skyracing.com.au/index.php?component=racing&task=race&id=107998377&meetingid=103843051&Itemid=89
p681
sg4
V29015490.0430
p682
sg6
(dp683
g8
(lp684
(lp685
I6
aI7
aI5
aI3
aa(lp686
I6
aI2
aI1
aI7
aa(lp687
I7
aI5
aI6
aI4
aa(lp688
I2
aI7
aI5
aI1
aa(lp689
I5
aI6
aI7
aI4
aa(lp690
I6
aI5
aI3
aI7
aa(lp691
I3
aI6
aI7
aI4
aa(lp692
I6
aI7
aI5
aI2
aasg18
(lp693
(dp694
g21
VCALL TO JUSTICE
p695
sg23
V5523x
p696
sg25
I77
sg26
I1
sg27
I78
sa(dp697
g21
VGAME UP HARDY
p698
sg23
V5497x
p699
sg25
I78
sg26
I2
sg27
I75
sa(dp700
g21
VATALAGA
p701
sg23
Vx7x0x
p702
sg25
I100
sg26
I3
sg27
I88
sa(dp703
g21
VSERVEUR
p704
sg23
Vx08x4
p705
sg25
I82
sg26
I4
sg27
I82
sa(dp706
g21
VFULLFORWARD
p707
sg23
V0x422
p708
sg25
I85
sg26
I5
sg27
I90
sa(dp709
g21
VLORD MORNINGTON
p710
sg23
V38580
p711
sg25
I97
sg26
I6
sg27
I100
sa(dp712
g21
VUNDER GOD'S SKY
p713
sg23
Vx7172
p714
sg25
I91
sg26
I7
sg27
I96
sa(dp715
g21
VBROUGHTY FERRY
p716
sg23
V080x8
p717
sg25
I71
sg26
I8
sg27
I70
sasg64
(lp718
sssI1542603600
(dp719
g2
Vhttp://www.skyracing.com.au/index.php?component=racing&task=race&id=107998378&meetingid=103843051&Itemid=89
p720
sg4
V29015490.0500
p721
sg6
(dp722
g8
(lp723
(lp724
I1
aI5
aI3
aI4
aa(lp725
I3
aI1
aI5
aI4
aa(lp726
I1
aI5
aI3
aI6
aa(lp727
I3
aI1
aI5
aI4
aa(lp728
I1
aI5
aI3
aI4
aa(lp729
I1
aI5
aI3
aI4
aa(lp730
I1
aI5
aI3
aI4
aa(lp731
I1
aI5
aI3
aI4
aasg18
(lp732
(dp733
g21
VTOUR DOWN UNDER
p734
sg23
V231
p735
sg25
I100
sg26
I1
sg27
I100
sa(dp736
g21
VSIMKIN
p737
sg23
V6x761
p738
sg25
I99
sg26
I2
sg27
I90
sa(dp739
g21
VRELIABLE MAGIC
p740
sg23
V310x6
p741
sg25
I86
sg26
I3
sg27
I85
sa(dp742
g21
VBLUE JAY WAY
p743
sg23
V7206x
p744
sg25
I84
sg26
I4
sg27
I82
sa(dp745
g21
VSMOOTH CELEBRATION
p746
sg23
V0x625
p747
sg25
I91
sg26
I5
sg27
I99
sa(dp748
g21
VDARKEN UP
p749
sg23
V840x2
p750
sg25
I79
sg26
I6
sg27
I80
sa(dp751
g21
VTYNONG ROCKET
p752
sg23
V07x70
p753
sg25
I73
sg26
I7
sg27
I75
sasg64
(lp754
sssI1542607800
(dp755
g2
Vhttp://www.skyracing.com.au/index.php?component=racing&task=race&id=107998393&meetingid=103843035&Itemid=89
p756
sg4
V29015275.0610
p757
sg6
(dp758
g8
(lp759
(lp760
I7
aI3
aI6
aI2
aa(lp761
I2
aI5
aI3
aI1
aa(lp762
I7
aI5
aI10
aI12
aa(lp763
I9
aI3
aI2
aI1
aa(lp764
I9
aI3
aI7
aI2
aa(lp765
I3
aI7
aI11
aI6
aa(lp766
I6
aI7
aI3
aI2
aa(lp767
I3
aI7
aI9
aI2
aasg18
(lp768
(dp769
g21
VCHAVO
p770
sg23
Vx441x
p771
sg25
I85
sg26
I1
sg27
I80
sa(dp772
g21
VTARBERT
p773
sg23
V1338x
p774
sg25
I82
sg26
I2
sg27
I85
sa(dp775
g21
VVIKING RAID
p776
sg23
V37x42
p777
sg25
I90
sg26
I3
sg27
I94
sa(dp778
g21
VTYPHOON BONNY
p779
sg23
V63333
p780
sg25
I93
sg26
I4
sg27
I89
sa(dp781
g21
VBACHELOR
p782
sg23
V50701
p783
sg25
I88
sg26
I5
sg27
I75
sa(dp784
g21
VCAMILLO
p785
sg23
V3720x
p786
sg25
I100
sg26
I6
sg27
I87
sa(dp787
g21
VZIOPTIMUS
p788
sg23
V54211
p789
sg25
I97
sg26
I7
sg27
I100
sa(dp790
g21
VSPIRIT OF HUSSON
p791
sg23
V6835x
p792
sg25
I71
sg26
I8
sg27
I68
sa(dp793
g21
VMIDWEEK HUSSLER
p794
sg23
V5040x
p795
sg25
I78
sg26
I9
sg27
I70
sa(dp796
g21
VSURF COAST
p797
sg23
V279x5
p798
sg25
I70
sg26
I10
sg27
I66
sa(dp799
g21
VSHE CLANGS
p800
sg23
V03371
p801
sg25
I76
sg26
I11
sg27
I77
sa(dp802
g21
VSCHOPENHAUER
p803
sg23
V62731
p804
sg25
I73
sg26
I12
sg27
I72
sa(dp805
g21
VYOUNG HUIT
p806
sg23
V04078
p807
sg25
I64
sg26
I13
sg27
I61
sa(dp808
g21
VFIELD OF FIRE
p809
sg23
V40738
p810
sg25
I63
sg26
I14
sg27
I59
sasg64
(lp811
sssI1542604500
(dp812
g2
Vhttp://www.skyracing.com.au/index.php?component=racing&task=race&id=107998347&meetingid=103843019&Itemid=89
p813
sg4
V29015488.0515
p814
sg6
(dp815
g8
(lp816
(lp817
I5
aI10
aI4
aI7
aa(lp818
I14
aI9
aI8
aI1
aa(lp819
I4
aI2
aI6
aI1
aa(lp820
I9
aI1
aI2
aI6
aa(lp821
I4
aI2
aI6
aI9
aa(lp822
I10
aI5
aI7
aI4
aa(lp823
I10
aI4
aI7
aI5
aa(lp824
I4
aI2
aI9
aI5
aasg18
(lp825
(dp826
g21
VSCULPTURES
p827
sg23
V76x77
p828
sg25
I73
sg26
I1
sg27
I73
sa(dp829
g21
VSHANGATO
p830
sg23
Vx7232
p831
sg25
I79
sg26
I2
sg27
I84
sa(dp832
g21
VMASTER OF THE TURF
p833
sg23
V5x711
p834
sg25
I85
sg26
I3
sg27
I77
sa(dp835
g21
VREWARD THE CHASER
p836
sg23
V38x61
p837
sg25
I94
sg26
I4
sg27
I94
sa(dp838
g21
VNET EFFECT
p839
sg23
Vx0162
p840
sg25
I98
sg26
I5
sg27
I100
sa(dp841
g21
VSCATTER BLAST
p842
sg23
V84821
p843
sg25
I81
sg26
I6
sg27
I88
sa(dp844
g21
VVOYAGES
p845
sg23
Vx2921
p846
sg25
I92
sg26
I7
sg27
I90
sa(dp847
g21
VSTAR WARS
p848
sg23
V238x6
p849
sg25
I66
sg26
I8
sg27
I63
sa(dp850
g21
VSUNDAY SWINDLER
p851
sg23
V07x47
p852
sg25
I70
sg26
I9
sg27
I69
sa(dp853
g21
VWINTER SONATA
p854
sg23
V13x33
p855
sg25
I100
sg26
I10
sg27
I98
sa(dp856
g21
VDIAMOND DELUXE
p857
sg23
Vx3926
p858
sg25
I89
sg26
I11
sg27
I81
sa(dp859
g21
VMALIBU STACY
p860
sg23
V27011
p861
sg25
I76
sg26
I12
sg27
I74
sa(dp862
g21
VAXEL BLING
p863
sg23
V40x40
p864
sg25
I70
sg26
I13
sg27
I69
sa(dp865
g21
VTHE BOHEMIAN
p866
sg23
V89578
p867
sg25
I63
sg26
I14
sg27
I61
sasg64
(lp868
sssI1542605400
(dp869
g2
Vhttp://www.skyracing.com.au/index.php?component=racing&task=race&id=107998379&meetingid=103843051&Itemid=89
p870
sg4
V29015490.0530
p871
sg6
(dp872
g8
(lp873
(lp874
I3
aI2
aI4
aI5
aa(lp875
I4
aI1
aI2
aI6
aa(lp876
I2
aI6
aI5
aI1
aa(lp877
I2
aI6
aI1
aI3
aa(lp878
I2
aI3
aI4
aI6
aa(lp879
I2
aI3
aI5
aI4
aa(lp880
I3
aI2
aI4
aI5
aa(lp881
I2
aI3
aI4
aI6
aasg18
(lp882
(dp883
g21
VFOREVER TRUE
p884
sg23
V10x05
p885
sg25
I80
sg26
I1
sg27
I69
sa(dp886
g21
VADINA ROSE
p887
sg23
V68x82
p888
sg25
I96
sg26
I2
sg27
I94
sa(dp889
g21
VVALERIA MESSALINA
p890
sg23
V13x9x
p891
sg25
I100
sg26
I3
sg27
I100
sa(dp892
g21
VALI ORPHAN
p893
sg23
V7x069
p894
sg25
I90
sg26
I4
sg27
I89
sa(dp895
g21
VLAST DANCE
p896
sg23
V10x04
p897
sg25
I88
sg26
I5
sg27
I87
sa(dp898
g21
VALLY'S REWARD
p899
sg23
V78x57
p900
sg25
I74
sg26
I6
sg27
I78
sa(dp901
g21
VMEET THE MISSUS
p902
sg23
V89x85
p903
sg25
I82
sg26
I7
sg27
I82
sa(dp904
g21
VTRUST IN TIME
p905
sg23
V880x6
p906
sg25
I68
sg26
I8
sg27
I67
sa(dp907
g21
VCOUREUSE CONTROLS
p908
sg23
V6x465
p909
sg25
I71
sg26
I9
sg27
I73
sasg64
(lp910
sssI1542607200
(dp911
g2
Vhttp://www.skyracing.com.au/index.php?component=racing&task=race&id=107998380&meetingid=103843051&Itemid=89
p912
sg4
V29015490.0600
p913
sg6
(dp914
g8
(lp915
(lp916
I4
aI1
aI3
aI8
aa(lp917
I2
aI7
aI3
aI5
aa(lp918
I7
aI2
aI10
aI8
aa(lp919
I3
aI1
aI5
aI4
aa(lp920
I3
aI7
aI2
aI8
aa(lp921
I1
aI4
aI3
aI8
aa(lp922
I4
aI1
aI3
aI2
aa(lp923
I3
aI1
aI7
aI2
aasg18
(lp924
(dp925
g21
VBLUE HOPE
p926
sg23
V5415x
p927
sg25
I99
sg26
I1
sg27
I96
sa(dp928
g21
VFULLY MAXED
p929
sg23
V058x6
p930
sg25
I84
sg26
I2
sg27
I79
sa(dp931
g21
VCHERIEF'S CHOICE
p932
sg23
V2209x
p933
sg25
I90
sg26
I3
sg27
I91
sa(dp934
g21
VWERBOWY
p935
sg23
V2521x
p936
sg25
I100
sg26
I4
sg27
I100
sa(dp937
g21
VCOVEIAN
p938
sg23
V1978x
p939
sg25
I66
sg26
I5
sg27
I66
sa(dp940
g21
VSWIZZLE STICKS
p941
sg23
V5318x
p942
sg25
I78
sg26
I6
sg27
I76
sa(dp943
g21
VWRITTEN CONSENT
p944
sg23
Vx8493
p945
sg25
I72
sg26
I7
sg27
I72
sa(dp946
g21
VSALLY SELLS SHELLS
p947
sg23
Vx3061
p948
sg25
I87
sg26
I8
sg27
I82
sa(dp949
g21
VSHAZIING
p950
sg23
V9x708
p951
sg25
I60
sg26
I9
sg27
I57
sa(dp952
g21
VMINUTE BY MINUTE
p953
sg23
V0x805
p954
sg25
I74
sg26
I10
sg27
I63
sasg64
(lp955
sssI1542609000
(dp956
g2
Vhttp://www.skyracing.com.au/index.php?component=racing&task=race&id=107998349&meetingid=103843019&Itemid=89
p957
sg4
V29015488.0630
p958
sg6
(dp959
g8
(lp960
(lp961
I1
aI10
aI3
aI13
aa(lp962
I7
aI6
aI3
aI16
aa(lp963
I3
aI16
aI7
aI13
aa(lp964
I4
aI6
aI7
aI3
aa(lp965
I7
aI13
aI9
aI6
aa(lp966
I10
aI1
aI13
aI3
aa(lp967
I10
aI3
aI1
aI13
aa(lp968
I7
aI1
aI10
aI3
aasg18
(lp969
(dp970
g21
VMAGPIE
p971
sg23
V5x1
p972
sg25
I98
sg26
I1
sg27
I100
sa(dp973
g21
VJAMAICAN DREAM
p974
sg23
V2x626
p975
sg25
I96
sg26
I2
sg27
I94
sa(dp976
g21
VMOOBI
p977
sg23
V18x35
p978
sg25
I94
sg26
I3
sg27
I93
sa(dp979
g21
VRAZIEL
p980
sg23
V410x0
p981
sg25
I72
sg26
I4
sg27
I70
sa(dp982
g21
VTIMION
p983
sg23
V45128
p984
sg25
I68
sg26
I5
sg27
I67
sa(dp985
g21
VINVINCIBLE TYPE
p986
sg23
V312x0
p987
sg25
I83
sg26
I6
sg27
I84
sa(dp988
g21
VCONDUCTRESS
p989
sg23
Vx0927
p990
sg25
I78
sg26
I7
sg27
I81
sa(dp991
g21
VSILENT JACK
p992
sg23
V0x053
p993
sg25
I80
sg26
I8
sg27
I77
sa(dp994
g21
VSWIFT ARRIVAL
p995
sg23
V83533
p996
sg25
I86
sg26
I9
sg27
I86
sa(dp997
g21
VPOWER OF WEXFORD
p998
sg23
V1
p999
sg25
I100
sg26
I10
sg27
I97
sa(dp1000
g21
VGALAXY JAK
p1001
sg23
V07x05
p1002
sg25
I67
sg26
I11
sg27
I65
sa(dp1003
g21
VSHIVER ME TIMBERS
p1004
sg23
V8x342
p1005
sg25
I89
sg26
I12
sg27
I88
sa(dp1006
g21
VLUCY'S LEGACY
p1007
sg23
V8x2x1
p1008
sg25
I91
sg26
I13
sg27
I89
sa(dp1009
g21
VCHEVARIA
p1010
sg23
V02032
p1011
sg25
I77
sg26
I14
sg27
I76
sa(dp1012
g21
VEXIT ONLY
p1013
sg23
V48x05
p1014
sg25
I65
sg26
I15
sg27
I63
sa(dp1015
g21
VAXEL BLING
p1016
sg23
V40x40
p1017
sg25
I74
sg26
I16
sg27
I74
sasg64
(lp1018
sssI1542600300
(dp1019
g2
Vhttp://www.skyracing.com.au/index.php?component=racing&task=race&id=107998345&meetingid=103843019&Itemid=89
p1020
sg4
V29015488.0405
p1021
sg6
(dp1022
g8
(lp1023
(lp1024
I6
aI13
aI4
aI8
aa(lp1025
I4
aI8
aI6
aI1
aa(lp1026
I1
aI4
aI15
aI7
aa(lp1027
I6
aI4
aI1
aI2
aa(lp1028
I4
aI8
aI6
aI7
aa(lp1029
I6
aI13
aI4
aI8
aa(lp1030
I6
aI13
aI8
aI4
aa(lp1031
I4
aI6
aI8
aI1
aasg18
(lp1032
(dp1033
g21
VBRIXTON TOWN
p1034
sg23
V45x42
p1035
sg25
I87
sg26
I1
sg27
I83
sa(dp1036
g21
VGOLD CODES
p1037
sg23
V53x0
p1038
sg25
I89
sg26
I2
sg27
I84
sa(dp1039
g21
VNEVER TARDY
p1040
sg23
V443x6
p1041
sg25
I84
sg26
I3
sg27
I79
sa(dp1042
g21
VTHUNDERZONE
p1043
sg23
Vx3373
p1044
sg25
I93
sg26
I4
sg27
I93
sa(dp1045
g21
VDOUBLE DEPOSIT
p1046
sg23
g178
sg25
I64
sg26
I5
sg27
I0
sa(dp1047
g21
VSAGANAKI
p1048
sg23
V326x
p1049
sg25
I100
sg26
I6
sg27
I100
sa(dp1050
g21
VSUNNY AFTERNOON
p1051
sg23
V5x432
p1052
sg25
I92
sg26
I7
sg27
I88
sa(dp1053
g21
VCANDY GIRL
p1054
sg23
V43323
p1055
sg25
I96
sg26
I8
sg27
I92
sa(dp1056
g21
VTHE CYPRIAN
p1057
sg23
g178
sg25
I79
sg26
I9
sg27
I0
sa(dp1058
g21
VALL CHARGES
p1059
sg23
g178
sg25
I67
sg26
I10
sg27
I0
sa(dp1060
g21
VAZARMIN
p1061
sg23
g178
sg25
I74
sg26
I11
sg27
I0
sa(dp1062
g21
VGUINNESS
p1063
sg23
g178
sg25
I82
sg26
I12
sg27
I0
sa(dp1064
g21
VMIMIC
p1065
sg23
V24x7
p1066
sg25
I99
sg26
I13
sg27
I98
sa(dp1067
g21
VTHE DEEL IS DUN
p1068
sg23
g178
sg25
I71
sg26
I14
sg27
I0
sa(dp1069
g21
VALLARU
p1070
sg23
V06306
p1071
sg25
I68
sg26
I15
sg27
I74
sa(dp1072
g21
VCLOVER CLUB
p1073
sg23
V4600x
p1074
sg25
I62
sg26
I16
sg27
I70
sa(dp1075
g21
VELCANO
p1076
sg23
V0x
p1077
sg25
I77
sg26
I17
sg27
I77
sasg64
(lp1078
sssI1542601200
(dp1079
g2
Vhttp://www.skyracing.com.au/index.php?component=racing&task=race&id=107998390&meetingid=103843035&Itemid=89
p1080
sg4
V29015275.0420
p1081
sg6
(dp1082
g8
(lp1083
(lp1084
I11
aI5
aI17
aI6
aa(lp1085
I9
aI1
aI5
aI16
aa(lp1086
I5
aI6
aI3
aI10
aa(lp1087
I1
aI5
aI6
aI11
aa(lp1088
I5
aI11
aI6
aI3
aa(lp1089
I11
aI5
aI17
aI6
aa(lp1090
I11
aI5
aI17
aI6
aa(lp1091
I5
aI11
aI6
aI1
aasg18
(lp1092
(dp1093
g21
VBLIND LOVE
p1094
sg23
V62206
p1095
sg25
I88
sg26
I1
sg27
I89
sa(dp1096
g21
VJUST RADISH
p1097
sg23
V00505
p1098
sg25
I61
sg26
I2
sg27
I60
sa(dp1099
g21
VMISTY VIEW
p1100
sg23
V0073
p1101
sg25
I82
sg26
I3
sg27
I81
sa(dp1102
g21
VNIP QUICK
p1103
sg23
V07
p1104
sg25
I65
sg26
I4
sg27
I64
sa(dp1105
g21
VPINNACLE POWER
p1106
sg23
V22534
p1107
sg25
I99
sg26
I5
sg27
I97
sa(dp1108
g21
VDELMORE
p1109
sg23
V35
p1110
sg25
I94
sg26
I6
sg27
I93
sa(dp1111
g21
VFROSTY OLAF
p1112
sg23
V5
p1113
sg25
I76
sg26
I7
sg27
I76
sa(dp1114
g21
VDANGAN RESSHA
p1115
sg23
V88497
p1116
sg25
I68
sg26
I8
sg27
I69
sa(dp1117
g21
VPAPER KITES
p1118
sg23
Vx3555
p1119
sg25
I86
sg26
I9
sg27
I84
sa(dp1120
g21
VSOLAR STORM
p1121
sg23
V467x5
p1122
sg25
I83
sg26
I10
sg27
I87
sa(dp1123
g21
VSTOLEN PARADISE
p1124
sg23
V2
p1125
sg25
I100
sg26
I11
sg27
I100
sa(dp1126
g21
VCHEVAL RAPIDE
p1127
sg23
V4
p1128
sg25
I78
sg26
I12
sg27
I78
sa(dp1129
g21
VFILTERS
p1130
sg23
V7
p1131
sg25
I92
sg26
I13
sg27
I92
sa(dp1132
g21
VGYPSY BALL
p1133
sg23
V087
p1134
sg25
I72
sg26
I14
sg27
I70
sa(dp1135
g21
VHEAVENTOMURGATROYD
p1136
sg23
V063x8
p1137
sg25
I75
sg26
I15
sg27
I74
sa(dp1138
g21
VSOLID NORTH
p1139
sg23
V8937x
p1140
sg25
I66
sg26
I16
sg27
I67
sa(dp1141
g21
VWINDERMERE
p1142
sg23
V6x6
p1143
sg25
I95
sg26
I17
sg27
I95
sa(dp1144
g21
VIGNITE THE MAGIC
p1145
sg23
V78
p1146
sg25
I62
sg26
I18
sg27
I62
sasg64
(lp1147
sss.