(dp0
I1543327200
(dp1
S'skyracing_url'
p2
Vhttp://www.skyracing.com.au/index.php?component=racing&task=race&id=108228209&meetingid=107357457&Itemid=89
p3
sS'betfair_raceid'
p4
V29027003.1400
p5
sS'dat2'
p6
(dp7
S'ratings_auto'
p8
(lp9
(lp10
I1
aI3
aI5
aI7
aa(lp11
I1
aI7
aI2
aI5
aa(lp12
I1
aI7
aI2
aI3
aa(lp13
I1
aI5
aI4
aI3
aa(lp14
I1
aI8
aI7
aI5
aa(lp15
I1
aI3
aI5
aI6
aa(lp16
I6
aI1
aI5
aI2
aa(lp17
I1
aI5
aI7
aI3
aasS'horse_details'
p18
(lp19
(dp20
S'horse_name'
p21
VECU DE LA NOVERIE
p22
sS'horse_form'
p23
V451x1
p24
sS'rating_2'
p25
I100
sS'horse_number'
p26
I1
sS'rating_1'
p27
I100
sa(dp28
g21
VESPRIT DE SOMOZA
p29
sg23
V20x65
p30
sg25
I85
sg26
I2
sg27
I77
sa(dp31
g21
VRIVER BRAY
p32
sg23
V52x33
p33
sg25
I84
sg26
I3
sg27
I98
sa(dp34
g21
VRUACANA
p35
sg23
V75x0x
p36
sg25
I70
sg26
I4
sg27
I69
sa(dp37
g21
VOXFORD BLU
p38
sg23
V2007x
p39
sg25
I90
sg26
I5
sg27
I94
sa(dp40
g21
VDON DES FOSSES
p41
sg23
Vx64x5
p42
sg25
I98
sg26
I6
sg27
I82
sa(dp43
g21
VAR MEST
p44
sg23
V140x9
p45
sg25
I78
sg26
I7
sg27
I88
sa(dp46
g21
VFIRST DU CHARMIL
p47
sg23
V4x34x
p48
sg25
I75
sg26
I8
sg27
I80
sa(dp49
g21
VROUGH NIGHT
p50
sg23
V3368x
p51
sg25
I68
sg26
I9
sg27
I68
sasS'ratings_manual'
p52
(lp53
sssI1543329600
(dp54
g2
Vhttp://www.skyracing.com.au/index.php?component=racing&task=race&id=108228181&meetingid=107357489&Itemid=89
p55
sg4
V29025959.1440
p56
sg6
(dp57
g8
(lp58
(lp59
I7
aI3
aI1
aI2
aa(lp60
I1
aI7
aI5
aI4
aa(lp61
I3
aI5
aI1
aI9
aa(lp62
I8
aI3
aI5
aI1
aa(lp63
I7
aI3
aI1
aI5
aa(lp64
I1
aI7
aI3
aI2
aa(lp65
I7
aI2
aI3
aI1
aa(lp66
I3
aI1
aI7
aI5
aasg18
(lp67
(dp68
g21
VHAATS OFF
p69
sg23
V20432
p70
sg25
I89
sg26
I1
sg27
I83
sa(dp71
g21
VSLOWMO
p72
sg23
V3164x
p73
sg25
I99
sg26
I2
sg27
I77
sa(dp74
g21
VSANDRIDGE LAD
p75
sg23
V56182
p76
sg25
I93
sg26
I3
sg27
I95
sa(dp77
g21
VDRAGON BEAT
p78
sg23
V32x92
p79
sg25
I81
sg26
I4
sg27
I74
sa(dp80
g21
VFREE LOVE
p81
sg23
V31430
p82
sg25
I79
sg26
I5
sg27
I64
sa(dp83
g21
VROBEAM
p84
sg23
V889x9
p85
sg25
I72
sg26
I6
sg27
I63
sa(dp86
g21
VKINGI COMPTON
p87
sg23
V72432
p88
sg25
I100
sg26
I7
sg27
I100
sa(dp89
g21
VNOT SO SHY
p90
sg23
V45377
p91
sg25
I67
sg26
I8
sg27
I58
sa(dp92
g21
VLINCOLN SPIRIT
p93
sg23
V557
p94
sg25
I75
sg26
I9
sg27
I69
sa(dp95
g21
VPRITTY LIVVY
p96
sg23
V98x00
p97
sg25
I61
sg26
I10
sg27
I53
sasg52
(lp98
sssI1543323600
(dp99
g2
Vhttp://www.skyracing.com.au/index.php?component=racing&task=race&id=108228207&meetingid=107357457&Itemid=89
p100
sg4
V29027003.1300
p101
sg6
(dp102
g8
(lp103
(lp104
I1
aI7
aI15
aI9
aa(lp105
I12
aI14
aI10
aI4
aa(lp106
I14
aI10
aI4
aI5
aa(lp107
I12
aI10
aI9
aI5
aa(lp108
I12
aI1
aI4
aI10
aa(lp109
I1
aI7
aI15
aI4
aa(lp110
I1
aI10
aI15
aI12
aa(lp111
I12
aI1
aI10
aI14
aasg18
(lp112
(dp113
g21
VCLONDAW ANCHOR
p114
sg23
V2x2x1
p115
sg25
I100
sg26
I1
sg27
I100
sa(dp116
g21
VAGE OF WISDOM
p117
sg23
V4144x
p118
sg25
I92
sg26
I2
sg27
I92
sa(dp119
g21
VBEET TOPPER
p120
sg23
Vx00x0
p121
sg25
I66
sg26
I3
sg27
I66
sa(dp122
g21
VCHAMPAGNE COURT
p123
sg23
Vx22x4
p124
sg25
I83
sg26
I4
sg27
I87
sa(dp125
g21
VCILAOS GLACE
p126
sg23
V0x4
p127
sg25
I77
sg26
I5
sg27
I79
sa(dp128
g21
VDUE SOUTH
p129
sg23
V7x3x
p130
sg25
I71
sg26
I6
sg27
I68
sa(dp131
g21
VET MOI ALORS
p132
sg23
V626x5
p133
sg25
I95
sg26
I7
sg27
I97
sa(dp134
g21
VGLORIOUS BORU
p135
sg23
V512x6
p136
sg25
I69
sg26
I8
sg27
I70
sa(dp137
g21
VKLARE CASTLE
p138
sg23
V22x6x
p139
sg25
I87
sg26
I9
sg27
I93
sa(dp140
g21
VNORDIC COMBINED
p141
sg23
V00395
p142
sg25
I88
sg26
I10
sg27
I89
sa(dp143
g21
VODEN
p144
sg23
V5x0x9
p145
sg25
I79
sg26
I11
sg27
I77
sa(dp146
g21
VSHIVERMETIMBERS
p147
sg23
V72x8x
p148
sg25
I94
sg26
I12
sg27
I80
sa(dp149
g21
VSIROBBIE
p150
sg23
V4x8x0
p151
sg25
I62
sg26
I13
sg27
I62
sa(dp152
g21
VSTORMINGIN
p153
sg23
Vx3x84
p154
sg25
I80
sg26
I14
sg27
I85
sa(dp155
g21
VTEGEREK
p156
sg23
V35x1x
p157
sg25
I98
sg26
I15
sg27
I95
sa(dp158
g21
VTHE VOLLAN
p159
sg23
V88
p160
sg25
I64
sg26
I16
sg27
I65
sa(dp161
g21
VWRITINGSONTHEWALL
p162
sg23
V8x
p163
sg25
I61
sg26
I17
sg27
I61
sa(dp164
g21
VBORN TO PLEASE
p165
sg23
V76330
p166
sg25
I73
sg26
I18
sg27
I73
sasg52
(lp167
sssI1543321800
(dp168
g2
Vhttp://www.skyracing.com.au/index.php?component=racing&task=race&id=108228206&meetingid=107357457&Itemid=89
p169
sg4
V29027003.1230
p170
sg6
(dp171
g8
(lp172
(lp173
I1
aI5
aI6
aI2
aa(lp174
I1
aI5
aI6
aI2
aa(lp175
I5
aI6
aI1
aI2
aa(lp176
I1
aI6
aI5
aI2
aa(lp177
I6
aI1
aI5
aI2
aa(lp178
I6
aI1
aI5
aI2
aa(lp179
I3
aI1
aI5
aI6
aa(lp180
I1
aI6
aI5
aI2
aasg18
(lp181
(dp182
g21
VCOLONEL MILLER
p183
sg23
V05x
p184
sg25
I98
sg26
I1
sg27
I100
sa(dp185
g21
VDOM GARO CATELINE
p186
sg23
V
p187
sg25
I79
sg26
I2
sg27
I0
sa(dp188
g21
VEL KALDOUN
p189
sg23
g187
sg25
I100
sg26
I3
sg27
I0
sa(dp190
g21
VMILLERS BANK
p191
sg23
g187
sg25
I81
sg26
I4
sg27
I0
sa(dp192
g21
VPHOENIX RIVER
p193
sg23
V7
p194
sg25
I93
sg26
I5
sg27
I96
sa(dp195
g21
VANNAJEMIMA
p196
sg23
V6
p197
sg25
I89
sg26
I6
sg27
I93
sasg52
(lp198
sssI1543324800
(dp199
g2
Vhttp://www.skyracing.com.au/index.php?component=racing&task=race&id=108228193&meetingid=107357473&Itemid=89
p200
sg4
V29027001.1320
p201
sg6
(dp202
g8
(lp203
(lp204
I3
aI8
aI6
aI4
aa(lp205
I1
aI5
aI3
aI8
aa(lp206
I1
aI3
aI8
aI6
aa(lp207
I1
aI3
aI2
aI5
aa(lp208
I1
aI3
aI8
aI5
aa(lp209
I8
aI3
aI6
aI1
aa(lp210
I6
aI3
aI2
aI8
aa(lp211
I3
aI1
aI8
aI6
aasg18
(lp212
(dp213
g21
VGRIS DE PRON
p214
sg23
V44350
p215
sg25
I85
sg26
I1
sg27
I78
sa(dp216
g21
VNINEPOINTSIXTHREE
p217
sg23
V2x8x0
p218
sg25
I82
sg26
I2
sg27
I73
sa(dp219
g21
VTHE HERDS GARDEN
p220
sg23
V346x8
p221
sg25
I99
sg26
I3
sg27
I100
sa(dp222
g21
VGOLDEN TOWN
p223
sg23
V15870
p224
sg25
I79
sg26
I4
sg27
I85
sa(dp225
g21
VOUTBACK BLUE
p226
sg23
V33790
p227
sg25
I67
sg26
I5
sg27
I66
sa(dp228
g21
VGLIMPSE OF GOLD
p229
sg23
Vx47x3
p230
sg25
I100
sg26
I6
sg27
I91
sa(dp231
g21
VEXCALIBUR
p232
sg23
V0x30x
p233
sg25
I75
sg26
I7
sg27
I84
sa(dp234
g21
VMILLIE THE MINX
p235
sg23
V03x23
p236
sg25
I92
sg26
I8
sg27
I95
sa(dp237
g21
VSTARSHELL
p238
sg23
V05900
p239
sg25
I61
sg26
I9
sg27
I61
sa(dp240
g21
VCYRANO STAR
p241
sg23
Vx9x6x
p242
sg25
I72
sg26
I10
sg27
I71
sasg52
(lp243
sssI1543325400
(dp244
g2
Vhttp://www.skyracing.com.au/index.php?component=racing&task=race&id=108228208&meetingid=107357457&Itemid=89
p245
sg4
V29027003.1330
p246
sg6
(dp247
g8
(lp248
(lp249
I2
aI1
aI4
aI6
aa(lp250
I1
aI6
aI2
aI5
aa(lp251
I1
aI2
aI7
aI5
aa(lp252
I4
aI6
aI2
aI5
aa(lp253
I6
aI1
aI5
aI2
aa(lp254
I1
aI2
aI4
aI7
aa(lp255
I2
aI1
aI4
aI6
aa(lp256
I1
aI2
aI6
aI4
aasg18
(lp257
(dp258
g21
VSILENT STEPS
p259
sg23
Vx73x3
p260
sg25
I98
sg26
I1
sg27
I96
sa(dp261
g21
VHINT OF GREY
p262
sg23
V1x305
p263
sg25
I100
sg26
I2
sg27
I100
sa(dp264
g21
VMRSROBIN
p265
sg23
V110x0
p266
sg25
I88
sg26
I3
sg27
I76
sa(dp267
g21
VTOP AND DROP
p268
sg23
V2x75x
p269
sg25
I90
sg26
I4
sg27
I89
sa(dp270
g21
VMEGABOOST
p271
sg23
V099x7
p272
sg25
I77
sg26
I5
sg27
I70
sa(dp273
g21
VMISS YEATS
p274
sg23
V0544x
p275
sg25
I84
sg26
I6
sg27
I84
sa(dp276
g21
VTHE BOOLA BEE
p277
sg23
V45093
p278
sg25
I78
sg26
I7
sg27
I81
sasg52
(lp279
sssI1543333200
(dp280
g2
Vhttp://www.skyracing.com.au/index.php?component=racing&task=race&id=108228183&meetingid=107357489&Itemid=89
p281
sg4
V29025959.1540
p282
sg6
(dp283
g8
(lp284
(lp285
I12
aI1
aI5
aI10
aa(lp286
I5
aI7
aI9
aI6
aa(lp287
I9
aI5
aI2
aI12
aa(lp288
I13
aI1
aI9
aI3
aa(lp289
I1
aI12
aI4
aI6
aa(lp290
I1
aI12
aI6
aI5
aa(lp291
I1
aI5
aI10
aI12
aa(lp292
I1
aI12
aI5
aI9
aasg18
(lp293
(dp294
g21
VPORT SOIF
p295
sg23
Vx101x
p296
sg25
I100
sg26
I1
sg27
I95
sa(dp297
g21
VVOICE OF A LEADER
p298
sg23
V67825
p299
sg25
I73
sg26
I2
sg27
I70
sa(dp300
g21
VMUNAAWIB
p301
sg23
V70x0x
p302
sg25
I79
sg26
I3
sg27
I60
sa(dp303
g21
VCARIBBEAN SPRING
p304
sg23
V74355
p305
sg25
I83
sg26
I4
sg27
I82
sa(dp306
g21
VBOOTS AND SPURS
p307
sg23
V00703
p308
sg25
I93
sg26
I5
sg27
I92
sa(dp309
g21
VLIMERICK LORD
p310
sg23
V33377
p311
sg25
I87
sg26
I6
sg27
I86
sa(dp312
g21
VCANDESTA
p313
sg23
V60x09
p314
sg25
I86
sg26
I7
sg27
I67
sa(dp315
g21
VMORETTI
p316
sg23
V25429
p317
sg25
I67
sg26
I8
sg27
I71
sa(dp318
g21
VMAJESTE
p319
sg23
V45205
p320
sg25
I71
sg26
I9
sg27
I76
sa(dp321
g21
VCOCKNEY BOY
p322
sg23
V624x9
p323
sg25
I92
sg26
I10
sg27
I89
sa(dp324
g21
VBILLIEBROOKEDIT
p325
sg23
V75080
p326
sg25
I62
sg26
I11
sg27
I64
sa(dp327
g21
VMOLTEN LAVA
p328
sg23
V71523
p329
sg25
I97
sg26
I12
sg27
I100
sa(dp330
g21
VJACKHAMMER
p331
sg23
V06625
p332
sg25
I75
sg26
I13
sg27
I81
sa(dp333
g21
VBLAME IT ON ME
p334
sg23
V9679
p335
sg25
I68
sg26
I14
sg27
I73
sasg52
(lp336
sssI1543326000
(dp337
g2
Vhttp://www.skyracing.com.au/index.php?component=racing&task=race&id=108228179&meetingid=107357489&Itemid=89
p338
sg4
V29025959.1340
p339
sg6
(dp340
g8
(lp341
(lp342
I1
aI8
aI2
aI11
aa(lp343
I9
aI1
aI4
aI13
aa(lp344
I2
aI1
aI7
aI4
aa(lp345
I9
aI2
aI1
aI5
aa(lp346
I9
aI2
aI4
aI7
aa(lp347
I1
aI2
aI8
aI4
aa(lp348
I1
aI13
aI7
aI5
aa(lp349
I1
aI9
aI2
aI4
aasg18
(lp350
(dp351
g21
VASTRAEA
p352
sg23
V60x03
p353
sg25
I97
sg26
I1
sg27
I96
sa(dp354
g21
VIMPERIAL LEGEND
p355
sg23
V00320
p356
sg25
I88
sg26
I2
sg27
I85
sa(dp357
g21
VCOOL STRUTTER
p358
sg23
V96616
p359
sg25
I100
sg26
I3
sg27
I100
sa(dp360
g21
VGIVE EM A CLUMP
p361
sg23
V24460
p362
sg25
I83
sg26
I4
sg27
I78
sa(dp363
g21
VFORTINBRASS
p364
sg23
Vx20x0
p365
sg25
I91
sg26
I5
sg27
I72
sa(dp366
g21
VBLUE SUEDE
p367
sg23
V48x00
p368
sg25
I65
sg26
I6
sg27
I69
sa(dp369
g21
VCOISTE BODHAR
p370
sg23
V00396
p371
sg25
I84
sg26
I7
sg27
I61
sa(dp372
g21
VITSUPFORGRABSNOW
p373
sg23
V86x50
p374
sg25
I74
sg26
I8
sg27
I88
sa(dp375
g21
VCANADIAN ROYAL
p376
sg23
V0x059
p377
sg25
I71
sg26
I9
sg27
I76
sa(dp378
g21
VJAZZ LEGEND
p379
sg23
Vx30x5
p380
sg25
I62
sg26
I10
sg27
I62
sa(dp381
g21
VWHISPERING SOUL
p382
sg23
V3x405
p383
sg25
I70
sg26
I11
sg27
I83
sa(dp384
g21
VTICKS THE BOXES
p385
sg23
V83070
p386
sg25
I75
sg26
I12
sg27
I74
sa(dp387
g21
VSIR GEOFFREY
p388
sg23
V080x0
p389
sg25
I93
sg26
I13
sg27
I68
sa(dp390
g21
VBLISTERING DANCER
p391
sg23
V45x37
p392
sg25
I78
sg26
I14
sg27
I93
sasg52
(lp393
sssI1543330800
(dp394
g2
Vhttp://www.skyracing.com.au/index.php?component=racing&task=race&id=108228211&meetingid=107357457&Itemid=89
p395
sg4
V29027003.1500
p396
sg6
(dp397
g8
(lp398
(lp399
I3
aI8
aI1
aI11
aa(lp400
I3
aI1
aI8
aI2
aa(lp401
I3
aI1
aI11
aI9
aa(lp402
I3
aI1
aI8
aI10
aa(lp403
I3
aI8
aI1
aI11
aa(lp404
I8
aI1
aI3
aI11
aa(lp405
I8
aI3
aI11
aI1
aa(lp406
I3
aI1
aI8
aI11
aasg18
(lp407
(dp408
g21
VAIMEE DE SIVOLA
p409
sg23
V24x45
p410
sg25
I90
sg26
I1
sg27
I89
sa(dp411
g21
VAMETHEA
p412
sg23
V99x7
p413
sg25
I81
sg26
I2
sg27
I75
sa(dp414
g21
VDUHALLOW GESTURE
p415
sg23
V1x3x3
p416
sg25
I100
sg26
I3
sg27
I100
sa(dp417
g21
VEOS
p418
sg23
V0x
p419
sg25
I73
sg26
I4
sg27
I65
sa(dp420
g21
VIMPULSIVE LEADER
p421
sg23
V650x6
p422
sg25
I70
sg26
I5
sg27
I56
sa(dp423
g21
VLONDON GRAMMAR
p424
sg23
V66x40
p425
sg25
I79
sg26
I6
sg27
I58
sa(dp426
g21
VNO TRUMPS
p427
sg23
g187
sg25
I89
sg26
I7
sg27
I0
sa(dp428
g21
VROSY WORLD
p429
sg23
V231x
p430
sg25
I97
sg26
I8
sg27
I94
sa(dp431
g21
VSPENDABLE
p432
sg23
V54897
p433
sg25
I77
sg26
I9
sg27
I70
sa(dp434
g21
VTHE WHITE MOUSE
p435
sg23
V9x
p436
sg25
I85
sg26
I10
sg27
I76
sa(dp437
g21
VWE'LLCWHATHAPPENS
p438
sg23
V1x3
p439
sg25
I95
sg26
I11
sg27
I82
sasg52
(lp440
sssI1543324200
(dp441
g2
Vhttp://www.skyracing.com.au/index.php?component=racing&task=race&id=108228178&meetingid=107357489&Itemid=89
p442
sg4
V29025959.1310
p443
sg6
(dp444
g8
(lp445
(lp446
I1
aI5
aI6
aI4
aa(lp447
I2
aI1
aI4
aI13
aa(lp448
I1
aI4
aI3
aI5
aa(lp449
I2
aI3
aI1
aI10
aa(lp450
I2
aI4
aI1
aI5
aa(lp451
I1
aI6
aI5
aI4
aa(lp452
I1
aI2
aI5
aI13
aa(lp453
I1
aI2
aI4
aI5
aasg18
(lp454
(dp455
g21
VCUPID'S ARROW
p456
sg23
V59216
p457
sg25
I100
sg26
I1
sg27
I100
sa(dp458
g21
VMY GIRL MAISIE
p459
sg23
V0000x
p460
sg25
I95
sg26
I2
sg27
I80
sa(dp461
g21
VMAGICAL MOLLY JOE
p462
sg23
Vx0675
p463
sg25
I73
sg26
I3
sg27
I79
sa(dp464
g21
VYORKSHIRE PUDDING
p465
sg23
Vx7403
p466
sg25
I84
sg26
I4
sg27
I90
sa(dp467
g21
VLITTLE CHOOSEY
p468
sg23
V07x51
p469
sg25
I96
sg26
I5
sg27
I99
sa(dp470
g21
VPOPPY MAY
p471
sg23
Vx0025
p472
sg25
I87
sg26
I6
sg27
I94
sa(dp473
g21
VGORGEOUS GENERAL
p474
sg23
V997x4
p475
sg25
I69
sg26
I7
sg27
I68
sa(dp476
g21
VMOREMONEYMOREPARTY
p477
sg23
V74894
p478
sg25
I66
sg26
I8
sg27
I66
sa(dp479
g21
VOPTIMICKSTICKHILL
p480
sg23
V95450
p481
sg25
I76
sg26
I9
sg27
I73
sa(dp482
g21
VPINDARIC
p483
sg23
V005x2
p484
sg25
I80
sg26
I10
sg27
I88
sa(dp485
g21
VFLY TRUE
p486
sg23
V0x755
p487
sg25
I70
sg26
I11
sg27
I76
sa(dp488
g21
VBARNEY BULLET
p489
sg23
V88678
p490
sg25
I62
sg26
I12
sg27
I63
sa(dp491
g21
VEVANESCENT
p492
sg23
V06880
p493
sg25
I90
sg26
I13
sg27
I72
sa(dp494
g21
VCOTTON SOCKS
p495
sg23
V96474
p496
sg25
I78
sg26
I14
sg27
I84
sasg52
(lp497
sssI1543326600
(dp498
g2
Vhttp://www.skyracing.com.au/index.php?component=racing&task=race&id=108228194&meetingid=107357473&Itemid=89
p499
sg4
V29027001.1350
p500
sg6
(dp501
g8
(lp502
(lp503
I2
aI1
aI4
aI3
aa(lp504
I2
aI1
aI4
aI3
aa(lp505
I1
aI2
aI3
aI4
aa(lp506
I1
aI2
aI4
aI3
aa(lp507
I2
aI1
aI4
aI3
aa(lp508
I1
aI2
aI4
aI3
aa(lp509
I1
aI2
aI4
aI3
aa(lp510
I2
aI1
aI4
aI3
aasg18
(lp511
(dp512
g21
VCAPTAIN MOWBRAY
p513
sg23
V18x65
p514
sg25
I99
sg26
I1
sg27
I95
sa(dp515
g21
VKILFINICHEN BAY
p516
sg23
V14323
p517
sg25
I100
sg26
I2
sg27
I100
sa(dp518
g21
VROYAL SALUTE
p519
sg23
V649x5
p520
sg25
I85
sg26
I3
sg27
I86
sa(dp521
g21
VDICK DARSIE
p522
sg23
V1756x
p523
sg25
I93
sg26
I4
sg27
I92
sasg52
(lp524
sssI1543323000
(dp525
g2
Vhttp://www.skyracing.com.au/index.php?component=racing&task=race&id=108228192&meetingid=107357473&Itemid=89
p526
sg4
V29027001.1250
p527
sg6
(dp528
g8
(lp529
(lp530
I1
aI6
aI4
aI5
aa(lp531
I4
aI1
aI5
aI2
aa(lp532
I1
aI5
aI4
aI10
aa(lp533
I3
aI4
aI1
aI5
aa(lp534
I4
aI2
aI5
aI9
aa(lp535
I1
aI6
aI5
aI4
aa(lp536
I4
aI1
aI6
aI3
aa(lp537
I1
aI4
aI5
aI6
aasg18
(lp538
(dp539
g21
VPROMISE OF PEACE
p540
sg23
V1x535
p541
sg25
I100
sg26
I1
sg27
I100
sa(dp542
g21
VWOR VERGE
p543
sg23
V8x7x9
p544
sg25
I70
sg26
I2
sg27
I71
sa(dp545
g21
VCALL THE COPS
p546
sg23
V4578x
p547
sg25
I86
sg26
I3
sg27
I81
sa(dp548
g21
VCANNY STYLE
p549
sg23
V3x975
p550
sg25
I98
sg26
I4
sg27
I91
sa(dp551
g21
VNEW LIST
p552
sg23
Vx5775
p553
sg25
I84
sg26
I5
sg27
I89
sa(dp554
g21
VPATIENCE TONY
p555
sg23
V5x63x
p556
sg25
I90
sg26
I6
sg27
I95
sa(dp557
g21
VRECOGNITION
p558
sg23
V709x0
p559
sg25
I67
sg26
I7
sg27
I60
sa(dp560
g21
VSTRAIT RUN
p561
sg23
V1378x
p562
sg25
I74
sg26
I8
sg27
I74
sa(dp563
g21
VANTON DOLIN
p564
sg23
V72070
p565
sg25
I62
sg26
I9
sg27
I67
sa(dp566
g21
VHEY BOB
p567
sg23
V39274
p568
sg25
I78
sg26
I10
sg27
I80
sasg52
(lp569
sssI1543320600
(dp570
g2
Vhttp://www.skyracing.com.au/index.php?component=racing&task=race&id=108228176&meetingid=107357489&Itemid=89
p571
sg4
V29025959.1210
p572
sg6
(dp573
g8
(lp574
(lp575
I1
aI10
aI12
aI14
aa(lp576
I2
aI1
aI9
aI4
aa(lp577
I5
aI10
aI12
aI7
aa(lp578
I2
aI3
aI1
aI5
aa(lp579
I4
aI13
aI10
aI3
aa(lp580
I12
aI10
aI1
aI14
aa(lp581
I1
aI10
aI9
aI5
aa(lp582
I1
aI10
aI12
aI2
aasg18
(lp583
(dp584
g21
VDI'S GIFT
p585
sg23
V2134x
p586
sg25
I100
sg26
I1
sg27
I100
sa(dp587
g21
VKING CHRISTOPHE
p588
sg23
V7600x
p589
sg25
I81
sg26
I2
sg27
I85
sa(dp590
g21
VMULSANNE CHASE
p591
sg23
V78x70
p592
sg25
I62
sg26
I3
sg27
I61
sa(dp593
g21
VGO ON GAL
p594
sg23
V6x597
p595
sg25
I75
sg26
I4
sg27
I78
sa(dp596
g21
VFILAMENT OF GOLD
p597
sg23
V13418
p598
sg25
I95
sg26
I5
sg27
I75
sa(dp599
g21
VMANOMINE
p600
sg23
V08x00
p601
sg25
I74
sg26
I6
sg27
I65
sa(dp602
g21
VJENNY REN
p603
sg23
V62167
p604
sg25
I86
sg26
I7
sg27
I86
sa(dp605
g21
VHAYWARD FIELD
p606
sg23
V7875x
p607
sg25
I69
sg26
I8
sg27
I70
sa(dp608
g21
VTHE LOCK MASTER
p609
sg23
V790x8
p610
sg25
I92
sg26
I9
sg27
I81
sa(dp611
g21
VGLASGON
p612
sg23
V51434
p613
sg25
I98
sg26
I10
sg27
I96
sa(dp614
g21
VMAMNOON
p615
sg23
V48775
p616
sg25
I72
sg26
I11
sg27
I73
sa(dp617
g21
VANNA JAMMEELA
p618
sg23
V05263
p619
sg25
I89
sg26
I12
sg27
I92
sa(dp620
g21
VTILLY DEVINE
p621
sg23
V2x50x
p622
sg25
I64
sg26
I13
sg27
I69
sa(dp623
g21
VWADACRE GIGI
p624
sg23
V9x639
p625
sg25
I79
sg26
I14
sg27
I91
sasg52
(lp626
sssI1543327800
(dp627
g2
Vhttp://www.skyracing.com.au/index.php?component=racing&task=race&id=108228180&meetingid=107357489&Itemid=89
p628
sg4
V29025959.1410
p629
sg6
(dp630
g8
(lp631
(lp632
I1
aI5
aI4
aI3
aa(lp633
I1
aI3
aI4
aI5
aa(lp634
I1
aI3
aI5
aI4
aa(lp635
I5
aI1
aI3
aI4
aa(lp636
I3
aI1
aI5
aI4
aa(lp637
I1
aI5
aI4
aI2
aa(lp638
I5
aI1
aI4
aI3
aa(lp639
I1
aI5
aI3
aI4
aasg18
(lp640
(dp641
g21
VTIMES PAST
p642
sg23
V272
p643
sg25
I100
sg26
I1
sg27
I100
sa(dp644
g21
VWINTERKOENIGIN
p645
sg23
V0539
p646
sg25
I80
sg26
I2
sg27
I76
sa(dp647
g21
VMATERIAL GIRL
p648
sg23
V5372
p649
sg25
I84
sg26
I3
sg27
I80
sa(dp650
g21
VZIP
p651
sg23
Vx7252
p652
sg25
I90
sg26
I4
sg27
I94
sa(dp653
g21
VLADS ORDER
p654
sg23
V504x1
p655
sg25
I97
sg26
I5
sg27
I99
sa(dp656
g21
VFRENCH TWIST
p657
sg23
V67033
p658
sg25
I89
sg26
I6
sg27
I86
sasg52
(lp659
sssI1543330200
(dp660
g2
Vhttp://www.skyracing.com.au/index.php?component=racing&task=race&id=108228196&meetingid=107357473&Itemid=89
p661
sg4
V29027001.1450
p662
sg6
(dp663
g8
(lp664
(lp665
I4
aI5
aI2
aI3
aa(lp666
I1
aI3
aI5
aI2
aa(lp667
I5
aI2
aI1
aI4
aa(lp668
I1
aI2
aI4
aI5
aa(lp669
I5
aI3
aI6
aI1
aa(lp670
I5
aI4
aI2
aI3
aa(lp671
I2
aI5
aI3
aI4
aa(lp672
I5
aI2
aI1
aI4
aasg18
(lp673
(dp674
g21
VBULKOV
p675
sg23
V211x8
p676
sg25
I81
sg26
I1
sg27
I76
sa(dp677
g21
VFIN AND GAME
p678
sg23
V114x6
p679
sg25
I99
sg26
I2
sg27
I87
sa(dp680
g21
VZALVADOS
p681
sg23
Vx2x04
p682
sg25
I88
sg26
I3
sg27
I80
sa(dp683
g21
VTAYZAR
p684
sg23
V3x761
p685
sg25
I93
sg26
I4
sg27
I100
sa(dp686
g21
VDR DUNRAVEN
p687
sg23
V55331
p688
sg25
I100
sg26
I5
sg27
I93
sa(dp689
g21
VMIDNIGHT CHILL
p690
sg23
V2030x
p691
sg25
I80
sg26
I6
sg27
I73
sasg52
(lp692
sssI1543321200
(dp693
g2
Vhttp://www.skyracing.com.au/index.php?component=racing&task=race&id=108228191&meetingid=107357473&Itemid=89
p694
sg4
V29027001.1220
p695
sg6
(dp696
g8
(lp697
(lp698
I4
aI5
aI2
aI3
aa(lp699
I2
aI5
aI4
aI6
aa(lp700
I4
aI2
aI6
aI5
aa(lp701
I4
aI3
aI2
aI5
aa(lp702
I2
aI4
aI5
aI6
aa(lp703
I2
aI5
aI4
aI1
aa(lp704
I2
aI5
aI4
aI3
aa(lp705
I4
aI2
aI5
aI3
aasg18
(lp706
(dp707
g21
VPRESENTING STREAK
p708
sg23
V77070
p709
sg25
I85
sg26
I1
sg27
I83
sa(dp710
g21
VROXYFET
p711
sg23
V6x656
p712
sg25
I98
sg26
I2
sg27
I93
sa(dp713
g21
VHOPE FOR GLORY
p714
sg23
V45x1x
p715
sg25
I83
sg26
I3
sg27
I88
sa(dp716
g21
VSHOW'S OVER
p717
sg23
V9x252
p718
sg25
I100
sg26
I4
sg27
I100
sa(dp719
g21
VYOURHOLIDAYISOVER
p720
sg23
V647x5
p721
sg25
I91
sg26
I5
sg27
I98
sa(dp722
g21
VEARLY BOY
p723
sg23
V7x642
p724
sg25
I78
sg26
I6
sg27
I79
sa(dp725
g21
VBERTIELICIOUS
p726
sg23
V9932x
p727
sg25
I77
sg26
I7
sg27
I76
sasg52
(lp728
sssI1543328400
(dp729
g2
Vhttp://www.skyracing.com.au/index.php?component=racing&task=race&id=108228195&meetingid=107357473&Itemid=89
p730
sg4
V29027001.1420
p731
sg6
(dp732
g8
(lp733
(lp734
I8
aI3
aI6
aI11
aa(lp735
I8
aI5
aI12
aI1
aa(lp736
I5
aI1
aI9
aI10
aa(lp737
I8
aI6
aI3
aI5
aa(lp738
I8
aI1
aI12
aI5
aa(lp739
I8
aI3
aI6
aI11
aa(lp740
I8
aI6
aI3
aI11
aa(lp741
I8
aI5
aI3
aI6
aasg18
(lp742
(dp743
g21
VABEL TASMAN
p744
sg23
V32345
p745
sg25
I89
sg26
I1
sg27
I89
sa(dp746
g21
VCAPMONFOR
p747
sg23
V437x8
p748
sg25
I77
sg26
I2
sg27
I78
sa(dp749
g21
VCHOSEN FLAME
p750
sg23
V5431x
p751
sg25
I94
sg26
I3
sg27
I99
sa(dp752
g21
VFISHER GREEN
p753
sg23
Vx6084
p754
sg25
I74
sg26
I4
sg27
I74
sa(dp755
g21
VLORD OF THE ROCK
p756
sg23
V65046
p757
sg25
I86
sg26
I5
sg27
I86
sa(dp758
g21
VMANAMITE
p759
sg23
V20x0x
p760
sg25
I98
sg26
I6
sg27
I93
sa(dp761
g21
VROLLERRULER
p762
sg23
g187
sg25
I72
sg26
I7
sg27
I0
sa(dp763
g21
VTHEATRE LEGEND
p764
sg23
V17x0x
p765
sg25
I100
sg26
I8
sg27
I100
sa(dp766
g21
VTORRID
p767
sg23
V00733
p768
sg25
I79
sg26
I9
sg27
I75
sa(dp769
g21
VDECIMA
p770
sg23
V71653
p771
sg25
I83
sg26
I10
sg27
I83
sa(dp772
g21
VILAYA
p773
sg23
V2x
p774
sg25
I92
sg26
I11
sg27
I90
sa(dp775
g21
VONELASTHAND
p776
sg23
V208x8
p777
sg25
I68
sg26
I12
sg27
I71
sasg52
(lp778
sssI1543331400
(dp779
g2
Vhttp://www.skyracing.com.au/index.php?component=racing&task=race&id=108228182&meetingid=107357489&Itemid=89
p780
sg4
V29025959.1510
p781
sg6
(dp782
g8
(lp783
(lp784
I3
aI4
aI2
aI7
aa(lp785
I1
aI3
aI4
aI2
aa(lp786
I1
aI4
aI7
aI9
aa(lp787
I2
aI3
aI4
aI7
aa(lp788
I3
aI2
aI4
aI7
aa(lp789
I3
aI4
aI2
aI10
aa(lp790
I3
aI5
aI4
aI2
aa(lp791
I3
aI4
aI2
aI1
aasg18
(lp792
(dp793
g21
VINVISIBLE SHADOW
p794
sg23
V589
p795
sg25
I66
sg26
I1
sg27
I70
sa(dp796
g21
VLOVE RAT
p797
sg23
V4309x
p798
sg25
I89
sg26
I2
sg27
I93
sa(dp799
g21
VMAMETZ WOOD
p800
sg23
V06x20
p801
sg25
I100
sg26
I3
sg27
I100
sa(dp802
g21
VSPACE BANDIT
p803
sg23
V5x4
p804
sg25
I91
sg26
I4
sg27
I95
sa(dp805
g21
VVOW OF PRESENCE
p806
sg23
g187
sg25
I96
sg26
I5
sg27
I0
sa(dp807
g21
VZAHRAANI
p808
sg23
g187
sg25
I61
sg26
I6
sg27
I0
sa(dp809
g21
VMARIE TOULOUSE
p810
sg23
V8x9
p811
sg25
I81
sg26
I7
sg27
I86
sa(dp812
g21
VMIAELLA
p813
sg23
V7
p814
sg25
I72
sg26
I8
sg27
I73
sa(dp815
g21
VQUEEN TOMYRIS
p816
sg23
V0
p817
sg25
I75
sg26
I9
sg27
I79
sa(dp818
g21
VYUPPY LOVE
p819
sg23
V84x
p820
sg25
I78
sg26
I10
sg27
I81
sasg52
(lp821
sssI1543329000
(dp822
g2
Vhttp://www.skyracing.com.au/index.php?component=racing&task=race&id=108228210&meetingid=107357457&Itemid=89
p823
sg4
V29027003.1430
p824
sg6
(dp825
g8
(lp826
(lp827
I6
aI4
aI1
aI2
aa(lp828
I3
aI1
aI5
aI2
aa(lp829
I4
aI6
aI5
aI3
aa(lp830
I1
aI3
aI5
aI4
aa(lp831
I6
aI3
aI1
aI5
aa(lp832
I1
aI6
aI4
aI2
aa(lp833
I4
aI6
aI2
aI7
aa(lp834
I1
aI6
aI3
aI4
aasg18
(lp835
(dp836
g21
VHOLBROOK PARK
p837
sg23
V2141x
p838
sg25
I92
sg26
I1
sg27
I85
sa(dp839
g21
VSOMEWHERE TO BE
p840
sg23
V16x2x
p841
sg25
I89
sg26
I2
sg27
I80
sa(dp842
g21
VSCOTCHTOWN
p843
sg23
V429x6
p844
sg25
I74
sg26
I3
sg27
I76
sa(dp845
g21
VRHAEGAR
p846
sg23
Vx39x1
p847
sg25
I100
sg26
I4
sg27
I95
sa(dp848
g21
VLEITH HILL LAD
p849
sg23
V13x55
p850
sg25
I84
sg26
I5
sg27
I67
sa(dp851
g21
VDIPLOMATE SIVOLA
p852
sg23
V43x32
p853
sg25
I99
sg26
I6
sg27
I100
sa(dp854
g21
VCUCKLINGTON
p855
sg23
V112x0
p856
sg25
I78
sg26
I7
sg27
I72
sa(dp857
g21
VISKRABOB
p858
sg23
V0x55x
p859
sg25
I72
sg26
I8
sg27
I63
sasg52
(lp860
sssI1543322400
(dp861
g2
Vhttp://www.skyracing.com.au/index.php?component=racing&task=race&id=108228177&meetingid=107357489&Itemid=89
p862
sg4
V29025959.1240
p863
sg6
(dp864
g8
(lp865
(lp866
I11
aI9
aI10
aI1
aa(lp867
I1
aI11
aI9
aI2
aa(lp868
I1
aI11
aI6
aI5
aa(lp869
I11
aI1
aI9
aI10
aa(lp870
I11
aI1
aI6
aI2
aa(lp871
I9
aI11
aI10
aI1
aa(lp872
I11
aI9
aI10
aI1
aa(lp873
I11
aI1
aI9
aI10
aasg18
(lp874
(dp875
g21
VBLAZON
p876
sg23
V43579
p877
sg25
I93
sg26
I1
sg27
I85
sa(dp878
g21
VBILLY RUSKIN
p879
sg23
V43x
p880
sg25
I88
sg26
I2
sg27
I84
sa(dp881
g21
VDUTCH MELODY
p882
sg23
V00x6
p883
sg25
I76
sg26
I3
sg27
I65
sa(dp884
g21
VLORD DIGBY
p885
sg23
V9
p886
sg25
I73
sg26
I4
sg27
I69
sa(dp887
g21
VNEWGATE DUCHESS
p888
sg23
V66x77
p889
sg25
I79
sg26
I5
sg27
I73
sa(dp890
g21
VTILSWORTH SAMMY
p891
sg23
V03
p892
sg25
I85
sg26
I6
sg27
I80
sa(dp893
g21
VGOLDFOX GIRL
p894
sg23
Vx0390
p895
sg25
I82
sg26
I7
sg27
I77
sa(dp896
g21
VKAALA TAARA
p897
sg23
V7857x
p898
sg25
I71
sg26
I8
sg27
I71
sa(dp899
g21
VPRINCESS HARLEY
p900
sg23
V66342
p901
sg25
I97
sg26
I9
sg27
I94
sa(dp902
g21
VPRINCIPIA
p903
sg23
V8x4
p904
sg25
I91
sg26
I10
sg27
I88
sa(dp905
g21
VRARE
p906
sg23
V23563
p907
sg25
I100
sg26
I11
sg27
I100
sasg52
(lp908
sss.