(dp0
I1544620800
(dp1
S'skyracing_url'
p2
Vhttp://www.skyracing.com.au/index.php?component=racing&task=race&id=108832790&meetingid=108214487&Itemid=89
p3
sS'betfair_raceid'
p4
V29045734.1320
p5
sS'dat2'
p6
(dp7
S'ratings_auto'
p8
(lp9
(lp10
I2
aI1
aI5
aI3
aa(lp11
I2
aI5
aI4
aI1
aa(lp12
I2
aI4
aI1
aI3
aa(lp13
I2
aI5
aI4
aI1
aa(lp14
I2
aI1
aI4
aI5
aa(lp15
I2
aI5
aI1
aI4
aa(lp16
I2
aI5
aI1
aI3
aa(lp17
I2
aI1
aI5
aI4
aasS'horse_details'
p18
(lp19
(dp20
S'horse_name'
p21
VICONIC BELLE
p22
sS'horse_form'
p23
V106x1
p24
sS'rating_2'
p25
I93
sS'horse_number'
p26
I1
sS'rating_1'
p27
I98
sa(dp28
g21
VDERRIANA SPIRIT
p29
sg23
V7x1x2
p30
sg25
I100
sg26
I2
sg27
I100
sa(dp31
g21
VDRUMOCHTER
p32
sg23
V64x54
p33
sg25
I84
sg26
I3
sg27
I86
sa(dp34
g21
VMADAM CLOUD
p35
sg23
V31x04
p36
sg25
I83
sg26
I4
sg27
I84
sa(dp37
g21
VPAPER ROSES
p38
sg23
V25x4x
p39
sg25
I94
sg26
I5
sg27
I92
sasS'ratings_manual'
p40
(lp41
sssI1544631300
(dp42
g2
Vhttp://www.skyracing.com.au/index.php?component=racing&task=race&id=108832864&meetingid=108214564&Itemid=89
p43
sg4
V29044840.1615
p44
sg6
(dp45
g8
(lp46
(lp47
I1
aI3
aI5
aI8
aa(lp48
I1
aI6
aI8
aI7
aa(lp49
I1
aI3
aI7
aI4
aa(lp50
I7
aI2
aI1
aI3
aa(lp51
I1
aI6
aI8
aI3
aa(lp52
I1
aI5
aI8
aI3
aa(lp53
I1
aI3
aI6
aI5
aa(lp54
I1
aI3
aI8
aI7
aasg18
(lp55
(dp56
g21
VTIMES PAST
p57
sg23
V2721
p58
sg25
I100
sg26
I1
sg27
I100
sa(dp59
g21
VBLACK MEDICK
p60
sg23
V072
p61
sg25
I75
sg26
I2
sg27
I78
sa(dp62
g21
VFUME
p63
sg23
V34x22
p64
sg25
I97
sg26
I3
sg27
I97
sa(dp65
g21
VWOODSIDE WONDER
p66
sg23
V20694
p67
sg25
I83
sg26
I4
sg27
I83
sa(dp68
g21
VPORT OF LEITH
p69
sg23
V309x1
p70
sg25
I94
sg26
I5
sg27
I93
sa(dp71
g21
VINVINCIBELLA
p72
sg23
V41244
p73
sg25
I92
sg26
I6
sg27
I89
sa(dp74
g21
VJEAN VALJEAN
p75
sg23
V544x4
p76
sg25
I70
sg26
I7
sg27
I71
sa(dp77
g21
VINTRICATE
p78
sg23
V3757
p79
sg25
I89
sg26
I8
sg27
I91
sa(dp80
g21
VRECUERDAME
p81
sg23
V7415x
p82
sg25
I85
sg26
I9
sg27
I73
sa(dp83
g21
VFLAUNT IT
p84
sg23
V952
p85
sg25
I73
sg26
I10
sg27
I75
sa(dp86
g21
VIFTON
p87
sg23
V585
p88
sg25
I79
sg26
I11
sg27
I84
sa(dp89
g21
VREDEMPTIVE
p90
sg23
V7635
p91
sg25
I68
sg26
I12
sg27
I69
sa(dp92
g21
VDANDY LAD
p93
sg23
V36004
p94
sg25
I66
sg26
I13
sg27
I65
sa(dp95
g21
VNGUNI
p96
sg23
V848
p97
sg25
I63
sg26
I14
sg27
I62
sasg40
(lp98
sssI1544622600
(dp99
g2
Vhttp://www.skyracing.com.au/index.php?component=racing&task=race&id=108832791&meetingid=108214487&Itemid=89
p100
sg4
V29045734.1350
p101
sg6
(dp102
g8
(lp103
(lp104
I3
aI4
aI2
aI5
aa(lp105
I1
aI4
aI2
aI3
aa(lp106
I3
aI4
aI5
aI2
aa(lp107
I1
aI3
aI4
aI2
aa(lp108
I3
aI1
aI2
aI4
aa(lp109
I3
aI2
aI4
aI5
aa(lp110
I3
aI4
aI2
aI5
aa(lp111
I3
aI4
aI2
aI1
aasg18
(lp112
(dp113
g21
VONDERUN
p114
sg23
V130x0
p115
sg25
I78
sg26
I1
sg27
I83
sa(dp116
g21
VDICK DARSIE
p117
sg23
V756x3
p118
sg25
I93
sg26
I2
sg27
I93
sa(dp119
g21
VINCHCOLM
p120
sg23
V2x411
p121
sg25
I100
sg26
I3
sg27
I100
sa(dp122
g21
VALTO DES MOTTES
p123
sg23
V8x032
p124
sg25
I97
sg26
I4
sg27
I95
sa(dp125
g21
VCRANBROOK CAUSEWAY
p126
sg23
V90x54
p127
sg25
I83
sg26
I5
sg27
I86
sa(dp128
g21
VMCGINTY'S DREAM
p129
sg23
V44x70
p130
sg25
I80
sg26
I6
sg27
I78
sasg40
(lp131
sssI1544614800
(dp132
g2
Vhttp://www.skyracing.com.au/index.php?component=racing&task=race&id=108832773&meetingid=108214471&Itemid=89
p133
sg4
V29044839.1140
p134
sg6
(dp135
g8
(lp136
(lp137
I3
aI11
aI4
aI12
aa(lp138
I10
aI4
aI1
aI2
aa(lp139
I10
aI4
aI3
aI9
aa(lp140
I2
aI1
aI4
aI12
aa(lp141
I4
aI12
aI2
aI9
aa(lp142
I3
aI11
aI4
aI12
aa(lp143
I2
aI3
aI11
aI4
aa(lp144
I4
aI3
aI10
aI2
aasg18
(lp145
(dp146
g21
VTAKE TWO
p147
sg23
V1x7x0
p148
sg25
I82
sg26
I1
sg27
I74
sa(dp149
g21
VDANGEROUS ENDS
p150
sg23
V4216x
p151
sg25
I92
sg26
I2
sg27
I85
sa(dp152
g21
VALDRIN
p153
sg23
Vx9161
p154
sg25
I100
sg26
I3
sg27
I100
sa(dp155
g21
VFEARSOME
p156
sg23
Vx3513
p157
sg25
I94
sg26
I4
sg27
I94
sa(dp158
g21
VGLOBAL ART
p159
sg23
V61439
p160
sg25
I75
sg26
I5
sg27
I79
sa(dp161
g21
VGIVE HIM TIME
p162
sg23
V2575x
p163
sg25
I70
sg26
I6
sg27
I69
sa(dp164
g21
VSHE BELIEVES
p165
sg23
V77900
p166
sg25
I73
sg26
I7
sg27
I72
sa(dp167
g21
VDONO DI DIO
p168
sg23
Vx2401
p169
sg25
I79
sg26
I8
sg27
I81
sa(dp170
g21
VBAMAKO DU CHATELET
p171
sg23
V31163
p172
sg25
I86
sg26
I9
sg27
I89
sa(dp173
g21
VMUTANAQEL
p174
sg23
V35450
p175
sg25
I71
sg26
I10
sg27
I75
sa(dp176
g21
VHACKBRIDGE
p177
sg23
V14011
p178
sg25
I99
sg26
I11
sg27
I97
sa(dp179
g21
VTHE NIGHT KING
p180
sg23
V24411
p181
sg25
I87
sg26
I12
sg27
I90
sasg40
(lp182
sssI1544616600
(dp183
g2
Vhttp://www.skyracing.com.au/index.php?component=racing&task=race&id=108832774&meetingid=108214471&Itemid=89
p184
sg4
V29044839.1210
p185
sg6
(dp186
g8
(lp187
(lp188
I2
aI1
aI11
aI12
aa(lp189
I6
aI7
aI3
aI8
aa(lp190
I1
aI9
aI5
aI6
aa(lp191
I3
aI4
aI1
aI7
aa(lp192
I1
aI9
aI2
aI12
aa(lp193
I2
aI1
aI8
aI11
aa(lp194
I1
aI2
aI12
aI6
aa(lp195
I1
aI2
aI9
aI3
aasg18
(lp196
(dp197
g21
VFAMILY FORTUNES
p198
sg23
V25512
p199
sg25
I96
sg26
I1
sg27
I97
sa(dp200
g21
VMATTERHORN
p201
sg23
V312
p202
sg25
I100
sg26
I2
sg27
I100
sa(dp203
g21
VMAKAARIM
p204
sg23
V0x590
p205
sg25
I68
sg26
I3
sg27
I70
sa(dp206
g21
VSIX STRINGS
p207
sg23
V390x5
p208
sg25
I77
sg26
I4
sg27
I78
sa(dp209
g21
VZORAYA
p210
sg23
V30x85
p211
sg25
I70
sg26
I5
sg27
I74
sa(dp212
g21
VFRANK BRIDGE
p213
sg23
V07707
p214
sg25
I89
sg26
I6
sg27
I75
sa(dp215
g21
VPEARL SPECTRE
p216
sg23
V09580
p217
sg25
I73
sg26
I7
sg27
I69
sa(dp218
g21
VTHE WARRIOR
p219
sg23
V41476
p220
sg25
I80
sg26
I8
sg27
I85
sa(dp221
g21
VAMBIENT
p222
sg23
V54072
p223
sg25
I79
sg26
I9
sg27
I80
sa(dp224
g21
VDEADLY ACCURATE
p225
sg23
V5184x
p226
sg25
I84
sg26
I10
sg27
I88
sa(dp227
g21
VCENTRAL CITY
p228
sg23
V61130
p229
sg25
I91
sg26
I11
sg27
I93
sa(dp230
g21
VDE VEGAS KID
p231
sg23
V11743
p232
sg25
I94
sg26
I12
sg27
I92
sasg40
(lp233
sssI1544626200
(dp234
g2
Vhttp://www.skyracing.com.au/index.php?component=racing&task=race&id=108832793&meetingid=108214487&Itemid=89
p235
sg4
V29045734.1450
p236
sg6
(dp237
g8
(lp238
(lp239
I4
aI5
aI2
aI3
aa(lp240
I5
aI3
aI4
aI2
aa(lp241
I5
aI4
aI2
aI6
aa(lp242
I3
aI2
aI5
aI4
aa(lp243
I5
aI4
aI2
aI6
aa(lp244
I5
aI4
aI2
aI3
aa(lp245
I2
aI5
aI4
aI3
aa(lp246
I5
aI4
aI2
aI3
aasg18
(lp247
(dp248
g21
VDULCE PANEM
p249
sg23
V0x098
p250
sg25
I75
sg26
I1
sg27
I83
sa(dp251
g21
VECHO EXPRESS
p252
sg23
Vx70x2
p253
sg25
I100
sg26
I2
sg27
I94
sa(dp254
g21
VBLACK KETTLE
p255
sg23
Vx431x
p256
sg25
I87
sg26
I3
sg27
I85
sa(dp257
g21
VKAVANAGHS CORNER
p258
sg23
V221x2
p259
sg25
I89
sg26
I4
sg27
I100
sa(dp260
g21
VINSTINGTIVE
p261
sg23
V22722
p262
sg25
I98
sg26
I5
sg27
I95
sa(dp263
g21
VDUHALLOWCOUNTRY
p264
sg23
V6x428
p265
sg25
I71
sg26
I6
sg27
I78
sa(dp266
g21
VBERTIELICIOUS
p267
sg23
V932x5
p268
sg25
I64
sg26
I7
sg27
I75
sasg40
(lp269
sssI1544618400
(dp270
g2
Vhttp://www.skyracing.com.au/index.php?component=racing&task=race&id=108832775&meetingid=108214471&Itemid=89
p271
sg4
V29044839.1240
p272
sg6
(dp273
g8
(lp274
(lp275
I1
aI4
aI7
aI2
aa(lp276
I7
aI2
aI8
aI9
aa(lp277
I2
aI1
aI4
aI7
aa(lp278
I5
aI6
aI1
aI3
aa(lp279
I2
aI9
aI1
aI7
aa(lp280
I4
aI1
aI2
aI7
aa(lp281
I4
aI7
aI1
aI8
aa(lp282
I1
aI2
aI4
aI7
aasg18
(lp283
(dp284
g21
VPHILAMUNDO
p285
sg23
V874x3
p286
sg25
I94
sg26
I1
sg27
I100
sa(dp287
g21
VFIELDSMAN
p288
sg23
V43257
p289
sg25
I91
sg26
I2
sg27
I89
sa(dp290
g21
VBOND STREET BEAU
p291
sg23
V653x3
p292
sg25
I84
sg26
I3
sg27
I87
sa(dp293
g21
VDEEDS NOT WORDS
p294
sg23
V64159
p295
sg25
I99
sg26
I4
sg27
I97
sa(dp296
g21
VSEA SHACK
p297
sg23
V4099x
p298
sg25
I83
sg26
I5
sg27
I84
sa(dp299
g21
VGOLDEN FOOTSTEPS
p300
sg23
V900x0
p301
sg25
I72
sg26
I6
sg27
I68
sa(dp302
g21
VDECLAMATION
p303
sg23
V8x963
p304
sg25
I100
sg26
I7
sg27
I92
sa(dp305
g21
VSWISS CROSS
p306
sg23
V61877
p307
sg25
I89
sg26
I8
sg27
I80
sa(dp308
g21
VMAAZEL
p309
sg23
V44006
p310
sg25
I77
sg26
I9
sg27
I76
sa(dp311
g21
VMR ANDROS
p312
sg23
V09749
p313
sg25
I79
sg26
I10
sg27
I74
sa(dp314
g21
VTHUNDERBELL
p315
sg23
V7x38x
p316
sg25
I73
sg26
I11
sg27
I72
sasg40
(lp317
sssI1544626800
(dp318
g2
Vhttp://www.skyracing.com.au/index.php?component=racing&task=race&id=108832822&meetingid=108214518&Itemid=89
p319
sg4
V29045769.1500
p320
sg6
(dp321
g8
(lp322
(lp323
I1
aI2
aI3
aI4
aa(lp324
I1
aI3
aI7
aI4
aa(lp325
I1
aI3
aI4
aI2
aa(lp326
I1
aI3
aI7
aI2
aa(lp327
I3
aI6
aI7
aI4
aa(lp328
I3
aI1
aI2
aI4
aa(lp329
I1
aI4
aI3
aI2
aa(lp330
I1
aI3
aI2
aI4
aasg18
(lp331
(dp332
g21
VANNIE BONNY
p333
sg23
V1x534
p334
sg25
I100
sg26
I1
sg27
I100
sa(dp335
g21
VCOCK A DOODLE DOO
p336
sg23
V17x46
p337
sg25
I85
sg26
I2
sg27
I95
sa(dp338
g21
VLITTLE PIPPIN
p339
sg23
V5x101
p340
sg25
I91
sg26
I3
sg27
I93
sa(dp341
g21
VDYLIEV
p342
sg23
V3x848
p343
sg25
I97
sg26
I4
sg27
I88
sa(dp344
g21
VKATEBIRD
p345
sg23
V0933x
p346
sg25
I84
sg26
I5
sg27
I77
sa(dp347
g21
VCHILLI ROMANCE
p348
sg23
Vx4339
p349
sg25
I79
sg26
I6
sg27
I83
sa(dp350
g21
VYALLA HABIBTI
p351
sg23
V45x06
p352
sg25
I72
sg26
I7
sg27
I69
sa(dp353
g21
VCELER ET AUDAX
p354
sg23
V89464
p355
sg25
I74
sg26
I8
sg27
I73
sasg40
(lp356
sssI1544620200
(dp357
g2
Vhttp://www.skyracing.com.au/index.php?component=racing&task=race&id=108832776&meetingid=108214471&Itemid=89
p358
sg4
V29044839.1310
p359
sg6
(dp360
g8
(lp361
(lp362
I6
aI5
aI4
aI1
aa(lp363
I2
aI3
aI7
aI1
aa(lp364
I2
aI1
aI3
aI4
aa(lp365
I8
aI2
aI1
aI3
aa(lp366
I4
aI3
aI5
aI2
aa(lp367
I4
aI6
aI5
aI1
aa(lp368
I6
aI5
aI4
aI8
aa(lp369
I2
aI4
aI3
aI1
aasg18
(lp370
(dp371
g21
VBELLE MEADE
p372
sg23
V61031
p373
sg25
I85
sg26
I1
sg27
I83
sa(dp374
g21
VKEYSER SOZE
p375
sg23
V02x03
p376
sg25
I75
sg26
I2
sg27
I80
sa(dp377
g21
VSEA FOX
p378
sg23
V00685
p379
sg25
I68
sg26
I3
sg27
I67
sa(dp380
g21
VAREEN HEART
p381
sg23
V13222
p382
sg25
I94
sg26
I4
sg27
I91
sa(dp383
g21
VBREAKING RECORDS
p384
sg23
V4x313
p385
sg25
I97
sg26
I5
sg27
I97
sa(dp386
g21
VSWISS KNIGHT
p387
sg23
Vx142x
p388
sg25
I100
sg26
I6
sg27
I100
sa(dp389
g21
VSWIFT APPROVAL
p390
sg23
V00468
p391
sg25
I71
sg26
I7
sg27
I72
sa(dp392
g21
VSWORD EXCEED
p393
sg23
V18x48
p394
sg25
I83
sg26
I8
sg27
I76
sa(dp395
g21
VSPARE PARTS
p396
sg23
V9x878
p397
sg25
I79
sg26
I9
sg27
I57
sa(dp398
g21
VSHYRON
p399
sg23
V7780x
p400
sg25
I61
sg26
I10
sg27
I63
sasg40
(lp401
sssI1544622000
(dp402
g2
Vhttp://www.skyracing.com.au/index.php?component=racing&task=race&id=108832777&meetingid=108214471&Itemid=89
p403
sg4
V29044839.1340
p404
sg6
(dp405
g8
(lp406
(lp407
I1
aI4
aI7
aI2
aa(lp408
I2
aI4
aI7
aI5
aa(lp409
I4
aI7
aI5
aI3
aa(lp410
I2
aI4
aI1
aI7
aa(lp411
I4
aI2
aI7
aI5
aa(lp412
I4
aI1
aI2
aI7
aa(lp413
I1
aI4
aI7
aI2
aa(lp414
I4
aI2
aI7
aI1
aasg18
(lp415
(dp416
g21
VMILITARY LAW
p417
sg23
V91x
p418
sg25
I100
sg26
I1
sg27
I100
sa(dp419
g21
VACE CHEETAH
p420
sg23
V65x4x
p421
sg25
I87
sg26
I2
sg27
I83
sa(dp422
g21
VLORD DEL BOY
p423
sg23
V7x98
p424
sg25
I83
sg26
I3
sg27
I79
sa(dp425
g21
VMAINSAIL ATLANTIC
p426
sg23
V23422
p427
sg25
I97
sg26
I4
sg27
I94
sa(dp428
g21
VBLACK LACE
p429
sg23
V85006
p430
sg25
I74
sg26
I5
sg27
I75
sa(dp431
g21
VEVADALA
p432
sg23
V
p433
sg25
I79
sg26
I6
sg27
I0
sa(dp434
g21
VQUEEN OF PARIS
p435
sg23
V5
p436
sg25
I90
sg26
I7
sg27
I88
sa(dp437
g21
VSACRED SPRITE
p438
sg23
g433
sg25
I72
sg26
I8
sg27
I0
sasg40
(lp439
sssI1544623800
(dp440
g2
Vhttp://www.skyracing.com.au/index.php?component=racing&task=race&id=108832778&meetingid=108214471&Itemid=89
p441
sg4
V29044839.1410
p442
sg6
(dp443
g8
(lp444
(lp445
I1
aI4
aI3
aI7
aa(lp446
I2
aI3
aI4
aI1
aa(lp447
I2
aI1
aI4
aI8
aa(lp448
I9
aI11
aI3
aI2
aa(lp449
I1
aI2
aI3
aI4
aa(lp450
I1
aI4
aI3
aI7
aa(lp451
I7
aI1
aI3
aI5
aa(lp452
I1
aI2
aI4
aI3
aasg18
(lp453
(dp454
g21
VSETTLE PETAL
p455
sg23
V93541
p456
sg25
I100
sg26
I1
sg27
I100
sa(dp457
g21
VYAMUNA RIVER
p458
sg23
Vx8362
p459
sg25
I79
sg26
I2
sg27
I78
sa(dp460
g21
VDIVINE MESSENGER
p461
sg23
V212x7
p462
sg25
I95
sg26
I3
sg27
I94
sa(dp463
g21
VBAN SHOOF
p464
sg23
V42622
p465
sg25
I92
sg26
I4
sg27
I99
sa(dp466
g21
VPACIFIC SALT
p467
sg23
Vx8603
p468
sg25
I89
sg26
I5
sg27
I86
sa(dp469
g21
VMOOD FOR MISCHIEF
p470
sg23
V948x3
p471
sg25
I81
sg26
I6
sg27
I89
sa(dp472
g21
VROSS RAITH ROVER
p473
sg23
V05116
p474
sg25
I97
sg26
I7
sg27
I92
sa(dp475
g21
VDON'T CRY ABOUT IT
p476
sg23
V86x48
p477
sg25
I70
sg26
I8
sg27
I71
sa(dp478
g21
VINTERMODAL
p479
sg23
V5x264
p480
sg25
I77
sg26
I9
sg27
I75
sa(dp481
g21
VWITH APPROVAL
p482
sg23
V67034
p483
sg25
I85
sg26
I10
sg27
I83
sa(dp484
g21
VRED COSSACK
p485
sg23
V7x0x8
p486
sg25
I74
sg26
I11
sg27
I73
sasg40
(lp487
sssI1544625600
(dp488
g2
Vhttp://www.skyracing.com.au/index.php?component=racing&task=race&id=108832779&meetingid=108214471&Itemid=89
p489
sg4
V29044839.1440
p490
sg6
(dp491
g8
(lp492
(lp493
I7
aI8
aI1
aI6
aa(lp494
I3
aI6
aI2
aI1
aa(lp495
I1
aI3
aI7
aI6
aa(lp496
I2
aI1
aI3
aI6
aa(lp497
I1
aI6
aI3
aI7
aa(lp498
I1
aI7
aI8
aI6
aa(lp499
I1
aI7
aI8
aI9
aa(lp500
I1
aI3
aI7
aI6
aasg18
(lp501
(dp502
g21
VRAKEMATIZ
p503
sg23
V91232
p504
sg25
I97
sg26
I1
sg27
I92
sa(dp505
g21
VRITA'S MAN
p506
sg23
V3000x
p507
sg25
I78
sg26
I2
sg27
I68
sa(dp508
g21
VNARJES
p509
sg23
V22384
p510
sg25
I70
sg26
I3
sg27
I78
sa(dp511
g21
VBEAUTY SALON
p512
sg23
V0x64
p513
sg25
I73
sg26
I4
sg27
I81
sa(dp514
g21
VSIR PRIZE
p515
sg23
V507
p516
sg25
I64
sg26
I5
sg27
I74
sa(dp517
g21
VHAWRIDGE GLORY
p518
sg23
V52073
p519
sg25
I84
sg26
I6
sg27
I84
sa(dp520
g21
VPIVOTAL FLAME
p521
sg23
V45472
p522
sg25
I100
sg26
I7
sg27
I100
sa(dp523
g21
VPOWER HOME
p524
sg23
Vx7822
p525
sg25
I90
sg26
I8
sg27
I98
sa(dp526
g21
VTHUNDERCLOUD
p527
sg23
V31750
p528
sg25
I88
sg26
I9
sg27
I65
sa(dp529
g21
VCONTINGENCY FEE
p530
sg23
V33480
p531
sg25
I61
sg26
I10
sg27
I60
sasg40
(lp532
sssI1544628000
(dp533
g2
Vhttp://www.skyracing.com.au/index.php?component=racing&task=race&id=108832794&meetingid=108214487&Itemid=89
p534
sg4
V29045734.1520
p535
sg6
(dp536
g8
(lp537
(lp538
I3
aI2
aI9
aI10
aa(lp539
I3
aI4
aI6
aI1
aa(lp540
I3
aI8
aI2
aI6
aa(lp541
I5
aI3
aI4
aI1
aa(lp542
I3
aI1
aI4
aI6
aa(lp543
I3
aI2
aI9
aI10
aa(lp544
I2
aI3
aI1
aI9
aa(lp545
I3
aI2
aI4
aI1
aasg18
(lp546
(dp547
g21
VMY LIEGE
p548
sg23
Vx553x
p549
sg25
I89
sg26
I1
sg27
I83
sa(dp550
g21
VASK THE TYCOON
p551
sg23
V45x53
p552
sg25
I100
sg26
I2
sg27
I96
sa(dp553
g21
VSHERIFF GARRETT
p554
sg23
V23422
p555
sg25
I92
sg26
I3
sg27
I100
sa(dp556
g21
VBEYONDTEMPTATION
p557
sg23
V713x0
p558
sg25
I82
sg26
I4
sg27
I70
sa(dp559
g21
VLOSTOCK HALL
p560
sg23
V317x0
p561
sg25
I79
sg26
I5
sg27
I73
sa(dp562
g21
VWOR VERGE
p563
sg23
Vx7x93
p564
sg25
I63
sg26
I6
sg27
I66
sa(dp565
g21
VWHERE NOW
p566
sg23
Vx8604
p567
sg25
I65
sg26
I7
sg27
I78
sa(dp568
g21
VMAH MATE BOB
p569
sg23
V69x58
p570
sg25
I54
sg26
I8
sg27
I62
sa(dp571
g21
VSTRIKE WEST
p572
sg23
V4831x
p573
sg25
I88
sg26
I9
sg27
I94
sa(dp574
g21
VTOWERBURN
p575
sg23
V00x41
p576
sg25
I71
sg26
I10
sg27
I88
sasg40
(lp577
sssI1544629200
(dp578
g2
Vhttp://www.skyracing.com.au/index.php?component=racing&task=race&id=108832863&meetingid=108214564&Itemid=89
p579
sg4
V29044840.1540
p580
sg6
(dp581
g8
(lp582
(lp583
I8
aI5
aI4
aI6
aa(lp584
I6
aI4
aI5
aI8
aa(lp585
I6
aI5
aI8
aI10
aa(lp586
I6
aI5
aI10
aI8
aa(lp587
I6
aI8
aI5
aI10
aa(lp588
I6
aI8
aI5
aI4
aa(lp589
I8
aI5
aI4
aI6
aa(lp590
I6
aI5
aI8
aI4
aasg18
(lp591
(dp592
g21
VBENNY AND THE JETS
p593
sg23
g433
sg25
I76
sg26
I1
sg27
I0
sa(dp594
g21
VFOX HAPPY
p595
sg23
g433
sg25
I79
sg26
I2
sg27
I0
sa(dp596
g21
VMAJOR BLUE
p597
sg23
g433
sg25
I74
sg26
I3
sg27
I0
sa(dp598
g21
VNEFARIOUS
p599
sg23
V83x
p600
sg25
I95
sg26
I4
sg27
I91
sa(dp601
g21
VNO NONSENSE
p602
sg23
V4
p603
sg25
I98
sg26
I5
sg27
I99
sa(dp604
g21
VRICOCHET
p605
sg23
V9x2
p606
sg25
I90
sg26
I6
sg27
I84
sa(dp607
g21
VTALK LIKE THIS
p608
sg23
V8
p609
sg25
I71
sg26
I7
sg27
I72
sa(dp610
g21
VBACKSTREET GIRL
p611
sg23
V3
p612
sg25
I100
sg26
I8
sg27
I100
sa(dp613
g21
VCARLA KOALA
p614
sg23
V5x
p615
sg25
I71
sg26
I9
sg27
I67
sa(dp616
g21
VDISTANT MIRAGE
p617
sg23
V9
p618
sg25
I80
sg26
I10
sg27
I78
sa(dp619
g21
VSARSAPARILLA KIT
p620
sg23
g433
sg25
I85
sg26
I11
sg27
I0
sa(dp621
g21
VTHOUGHTFULLY
p622
sg23
V45x
p623
sg25
I88
sg26
I12
sg27
I80
sasg40
(lp624
sssI1544627400
(dp625
g2
Vhttp://www.skyracing.com.au/index.php?component=racing&task=race&id=108832780&meetingid=108214471&Itemid=89
p626
sg4
V29044839.1510
p627
sg6
(dp628
g8
(lp629
(lp630
I1
aI8
aI2
aI5
aa(lp631
I1
aI2
aI5
aI8
aa(lp632
I2
aI5
aI8
aI10
aa(lp633
I9
aI6
aI2
aI1
aa(lp634
I2
aI8
aI10
aI5
aa(lp635
I8
aI1
aI2
aI5
aa(lp636
I1
aI7
aI8
aI2
aa(lp637
I2
aI8
aI1
aI5
aasg18
(lp638
(dp639
g21
VCHETAN
p640
sg23
V5222x
p641
sg25
I100
sg26
I1
sg27
I100
sa(dp642
g21
VBARRSBROOK
p643
sg23
V2x725
p644
sg25
I95
sg26
I2
sg27
I94
sa(dp645
g21
VMIDNIGHT VIXEN
p646
sg23
Vx07x6
p647
sg25
I77
sg26
I3
sg27
I78
sa(dp648
g21
VSUPEREGO
p649
sg23
V5686x
p650
sg25
I78
sg26
I4
sg27
I82
sa(dp651
g21
VBAASHA
p652
sg23
Vx5439
p653
sg25
I85
sg26
I5
sg27
I90
sa(dp654
g21
VMUNDERSFIELD
p655
sg23
V460x
p656
sg25
I81
sg26
I6
sg27
I86
sa(dp657
g21
VHIC BIBI
p658
sg23
V4018x
p659
sg25
I92
sg26
I7
sg27
I89
sa(dp660
g21
VBIG BAD LOL
p661
sg23
V32223
p662
sg25
I96
sg26
I8
sg27
I97
sa(dp663
g21
VTHE BEARFIGHTER
p664
sg23
V7x07x
p665
sg25
I74
sg26
I9
sg27
I74
sa(dp666
g21
VMALAYSIAN BOLEH
p667
sg23
V55767
p668
sg25
I87
sg26
I10
sg27
I76
sa(dp669
g21
VCORAL CAYE
p670
sg23
V70x08
p671
sg25
I70
sg26
I11
sg27
I71
sasg40
(lp672
sssI1544619600
(dp673
g2
Vhttp://www.skyracing.com.au/index.php?component=racing&task=race&id=108832818&meetingid=108214518&Itemid=89
p674
sg4
V29045769.1300
p675
sg6
(dp676
g8
(lp677
(lp678
I3
aI1
aI4
aI5
aa(lp679
I4
aI1
aI3
aI5
aa(lp680
I4
aI1
aI3
aI5
aa(lp681
I5
aI1
aI3
aI4
aa(lp682
I1
aI4
aI3
aI5
aa(lp683
I1
aI3
aI5
aI4
aa(lp684
I4
aI3
aI1
aI5
aa(lp685
I1
aI3
aI4
aI5
aasg18
(lp686
(dp687
g21
VVERSIFIER
p688
sg23
Vx2512
p689
sg25
I92
sg26
I1
sg27
I94
sa(dp690
g21
VGLORVINA
p691
sg23
V637x6
p692
sg25
I83
sg26
I2
sg27
I79
sa(dp693
g21
VPREMIER ROSE
p694
sg23
V58611
p695
sg25
I100
sg26
I3
sg27
I100
sa(dp696
g21
VKAPGA DE LILY
p697
sg23
V5x1x4
p698
sg25
I95
sg26
I4
sg27
I87
sa(dp699
g21
VYOUKNOWELL
p700
sg23
V678x1
p701
sg25
I85
sg26
I5
sg27
I81
sasg40
(lp702
sssI1544628600
(dp703
g2
Vhttp://www.skyracing.com.au/index.php?component=racing&task=race&id=108832823&meetingid=108214518&Itemid=89
p704
sg4
V29045769.1530
p705
sg6
(dp706
g8
(lp707
(lp708
I4
aI3
aI2
aI1
aa(lp709
I2
aI3
aI4
aI1
aa(lp710
I2
aI3
aI4
aI1
aa(lp711
I3
aI2
aI4
aI1
aa(lp712
I2
aI3
aI4
aI1
aa(lp713
I2
aI4
aI3
aI1
aa(lp714
I4
aI3
aI1
aI2
aa(lp715
I2
aI3
aI4
aI1
aasg18
(lp716
(dp717
g21
VBAILARICO
p718
sg23
V111x1
p719
sg25
I96
sg26
I1
sg27
I79
sa(dp720
g21
VSKIDOOSH
p721
sg23
V0x413
p722
sg25
I88
sg26
I2
sg27
I84
sa(dp723
g21
VDARK EPISODE
p724
sg23
V33
p725
sg25
I93
sg26
I3
sg27
I96
sa(dp726
g21
VSHE MITE BITE
p727
sg23
V51x2
p728
sg25
I100
sg26
I4
sg27
I100
sasg40
(lp729
sssI1544621400
(dp730
g2
Vhttp://www.skyracing.com.au/index.php?component=racing&task=race&id=108832819&meetingid=108214518&Itemid=89
p731
sg4
V29045769.1330
p732
sg6
(dp733
g8
(lp734
(lp735
I2
aI11
aI6
aI9
aa(lp736
I4
aI9
aI2
aI6
aa(lp737
I9
aI2
aI8
aI7
aa(lp738
I2
aI4
aI10
aI9
aa(lp739
I4
aI2
aI9
aI6
aa(lp740
I6
aI2
aI9
aI11
aa(lp741
I11
aI2
aI6
aI9
aa(lp742
I2
aI9
aI4
aI6
aasg18
(lp743
(dp744
g21
VDEBROUILLARD
p745
sg23
V0x6
p746
sg25
I77
sg26
I1
sg27
I73
sa(dp747
g21
VEBONY GALE
p748
sg23
V61x00
p749
sg25
I100
sg26
I2
sg27
I100
sa(dp750
g21
VFRENCH PIECE
p751
sg23
V60
p752
sg25
I69
sg26
I3
sg27
I69
sa(dp753
g21
VGO AS YOU PLEASE
p754
sg23
V2x0
p755
sg25
I83
sg26
I4
sg27
I78
sa(dp756
g21
VPANIC AND RUN
p757
sg23
V55x50
p758
sg25
I87
sg26
I5
sg27
I85
sa(dp759
g21
VPRECIOUS BOUNTY
p760
sg23
V02x06
p761
sg25
I95
sg26
I6
sg27
I91
sa(dp762
g21
VRAISE YOUR SHADES
p763
sg23
Vx6788
p764
sg25
I74
sg26
I7
sg27
I71
sa(dp765
g21
VSIGN OF WAR
p766
sg23
V4
p767
sg25
I85
sg26
I8
sg27
I83
sa(dp768
g21
VCARDIGAN BAY
p769
sg23
V5x1x0
p770
sg25
I91
sg26
I9
sg27
I88
sa(dp771
g21
VHURRICANE MINNIE
p772
sg23
V050x0
p773
sg25
I72
sg26
I10
sg27
I67
sa(dp774
g21
VMALASPINA
p775
sg23
Vx504x
p776
sg25
I96
sg26
I11
sg27
I99
sa(dp777
g21
VMISSESGEEJAY
p778
sg23
Vx445x
p779
sg25
I79
sg26
I12
sg27
I76
sasg40
(lp780
sssI1544623200
(dp781
g2
Vhttp://www.skyracing.com.au/index.php?component=racing&task=race&id=108832820&meetingid=108214518&Itemid=89
p782
sg4
V29045769.1400
p783
sg6
(dp784
g8
(lp785
(lp786
I3
aI5
aI6
aI1
aa(lp787
I2
aI3
aI1
aI5
aa(lp788
I3
aI2
aI1
aI5
aa(lp789
I4
aI3
aI2
aI5
aa(lp790
I3
aI2
aI1
aI6
aa(lp791
I3
aI5
aI6
aI1
aa(lp792
I3
aI6
aI2
aI5
aa(lp793
I3
aI2
aI5
aI1
aasg18
(lp794
(dp795
g21
VLAZARUS
p796
sg23
V74120
p797
sg25
I84
sg26
I1
sg27
I89
sa(dp798
g21
VJACBEQUICK
p799
sg23
V24104
p800
sg25
I90
sg26
I2
sg27
I83
sa(dp801
g21
VCOUGAR KID
p802
sg23
V52x32
p803
sg25
I99
sg26
I3
sg27
I100
sa(dp804
g21
VPEUR DE RIEN
p805
sg23
V4x0x8
p806
sg25
I79
sg26
I4
sg27
I78
sa(dp807
g21
VFALCON SUN
p808
sg23
V46x95
p809
sg25
I85
sg26
I5
sg27
I95
sa(dp810
g21
VWENCESLAUS
p811
sg23
Vx7311
p812
sg25
I100
sg26
I6
sg27
I91
sasg40
(lp813
sssI1544624400
(dp814
g2
Vhttp://www.skyracing.com.au/index.php?component=racing&task=race&id=108832792&meetingid=108214487&Itemid=89
p815
sg4
V29045734.1420
p816
sg6
(dp817
g8
(lp818
(lp819
I3
aI2
aI9
aI1
aa(lp820
I3
aI2
aI8
aI10
aa(lp821
I3
aI9
aI8
aI7
aa(lp822
I3
aI2
aI6
aI5
aa(lp823
I3
aI10
aI11
aI9
aa(lp824
I3
aI2
aI9
aI1
aa(lp825
I3
aI2
aI1
aI9
aa(lp826
I3
aI2
aI9
aI8
aasg18
(lp827
(dp828
g21
VPERSHING MISSILE
p829
sg23
Vx22x0
p830
sg25
I92
sg26
I1
sg27
I90
sa(dp831
g21
VNEMEAN LION
p832
sg23
V75514
p833
sg25
I97
sg26
I2
sg27
I97
sa(dp834
g21
VMISFITS
p835
sg23
V9x614
p836
sg25
I100
sg26
I3
sg27
I100
sa(dp837
g21
VALONG CAME THEO
p838
sg23
V227x2
p839
sg25
I75
sg26
I4
sg27
I85
sa(dp840
g21
VKALAHARRY
p841
sg23
V631x7
p842
sg25
I80
sg26
I5
sg27
I77
sa(dp843
g21
VOVERTHEEDGE
p844
sg23
V394x0
p845
sg25
I88
sg26
I6
sg27
I71
sa(dp846
g21
VONWITHTHEPARTY
p847
sg23
V471x5
p848
sg25
I71
sg26
I7
sg27
I79
sa(dp849
g21
VCOTTONVALE
p850
sg23
V48x72
p851
sg25
I83
sg26
I8
sg27
I89
sa(dp852
g21
VLAWTOP LEGEND
p853
sg23
Vx4214
p854
sg25
I91
sg26
I9
sg27
I94
sa(dp855
g21
VTURTLE CASK
p856
sg23
V5x008
p857
sg25
I64
sg26
I10
sg27
I70
sa(dp858
g21
VIT'S ALL ABOUT ME
p859
sg23
V700x6
p860
sg25
I76
sg26
I11
sg27
I83
sa(dp861
g21
VESPOIR MORIVIERE
p862
sg23
V06x07
p863
sg25
I69
sg26
I12
sg27
I74
sasg40
(lp864
sssI1544625000
(dp865
g2
Vhttp://www.skyracing.com.au/index.php?component=racing&task=race&id=108832821&meetingid=108214518&Itemid=89
p866
sg4
V29045769.1430
p867
sg6
(dp868
g8
(lp869
(lp870
I2
aI4
aI1
aI3
aa(lp871
I2
aI1
aI4
aI3
aa(lp872
I2
aI3
aI4
aI1
aa(lp873
I2
aI4
aI3
aI1
aa(lp874
I2
aI4
aI1
aI3
aa(lp875
I2
aI1
aI4
aI5
aa(lp876
I1
aI2
aI4
aI3
aa(lp877
I2
aI4
aI1
aI3
aasg18
(lp878
(dp879
g21
VWEEBILL
p880
sg23
V121x6
p881
sg25
I95
sg26
I1
sg27
I94
sa(dp882
g21
VCOTSWOLD WAY
p883
sg23
V72x11
p884
sg25
I100
sg26
I2
sg27
I100
sa(dp885
g21
VVOODOO DOLL
p886
sg23
V82238
p887
sg25
I87
sg26
I3
sg27
I89
sa(dp888
g21
VHILLCREST FIRE
p889
sg23
Vx7532
p890
sg25
I91
sg26
I4
sg27
I98
sa(dp891
g21
VTHAHAB IFRAJ
p892
sg23
V86761
p893
sg25
I81
sg26
I5
sg27
I82
sasg40
(lp894
sssI1544617200
(dp895
g2
Vhttp://www.skyracing.com.au/index.php?component=racing&task=race&id=108832788&meetingid=108214487&Itemid=89
p896
sg4
V29045734.1220
p897
sg6
(dp898
g8
(lp899
(lp900
I5
aI1
aI2
aI3
aa(lp901
I5
aI1
aI8
aI7
aa(lp902
I5
aI1
aI8
aI2
aa(lp903
I5
aI1
aI2
aI3
aa(lp904
I5
aI1
aI8
aI7
aa(lp905
I5
aI1
aI2
aI4
aa(lp906
I5
aI1
aI2
aI4
aa(lp907
I5
aI1
aI2
aI8
aasg18
(lp908
(dp909
g21
VAL DESTOOR
p910
sg23
V32322
p911
sg25
I96
sg26
I1
sg27
I95
sa(dp912
g21
VBARACALU
p913
sg23
V8x42x
p914
sg25
I95
sg26
I2
sg27
I94
sa(dp915
g21
VBATTLE HARD
p916
sg23
V44x0x
p917
sg25
I71
sg26
I3
sg27
I86
sa(dp918
g21
VCLOGHOUGE BOY
p919
sg23
V2210x
p920
sg25
I88
sg26
I4
sg27
I81
sa(dp921
g21
VKNOW THE SCORE
p922
sg23
Vx10x3
p923
sg25
I100
sg26
I5
sg27
I100
sa(dp924
g21
VPEAK TIME
p925
sg23
g433
sg25
I78
sg26
I6
sg27
I0
sa(dp926
g21
VROWDY ROBIN
p927
sg23
V5x66x
p928
sg25
I67
sg26
I7
sg27
I73
sa(dp929
g21
VWARENDORF
p930
sg23
Vx7x35
p931
sg25
I72
sg26
I8
sg27
I78
sasg40
(lp932
sssI1544619000
(dp933
g2
Vhttp://www.skyracing.com.au/index.php?component=racing&task=race&id=108832789&meetingid=108214487&Itemid=89
p934
sg4
V29045734.1250
p935
sg6
(dp936
g8
(lp937
(lp938
I3
aI5
aI1
aI8
aa(lp939
I3
aI2
aI5
aI4
aa(lp940
I3
aI4
aI5
aI6
aa(lp941
I3
aI1
aI5
aI6
aa(lp942
I5
aI8
aI6
aI7
aa(lp943
I5
aI3
aI1
aI8
aa(lp944
I3
aI5
aI4
aI1
aa(lp945
I3
aI5
aI1
aI8
aasg18
(lp946
(dp947
g21
VWELL ABOVE PAR
p948
sg23
Vx206x
p949
sg25
I84
sg26
I1
sg27
I90
sa(dp950
g21
VROSSMORE'S PRIDE
p951
sg23
V1588x
p952
sg25
I68
sg26
I2
sg27
I79
sa(dp953
g21
VROYAL SALUTE
p954
sg23
V49x54
p955
sg25
I100
sg26
I3
sg27
I100
sa(dp956
g21
VHATTONS HILL
p957
sg23
V698x4
p958
sg25
I94
sg26
I4
sg27
I74
sa(dp959
g21
VPADDLING
p960
sg23
V42x35
p961
sg25
I95
sg26
I5
sg27
I96
sa(dp962
g21
VNOTONEBUTTWO
p963
sg23
V6x248
p964
sg25
I71
sg26
I6
sg27
I84
sa(dp965
g21
VCOURT PAINTER
p966
sg23
V426x8
p967
sg25
I52
sg26
I7
sg27
I70
sa(dp968
g21
VSILVERTON
p969
sg23
Vx932x
p970
sg25
I66
sg26
I8
sg27
I87
sa(dp971
g21
VKNOCKLAYDE
p972
sg23
V08x55
p973
sg25
I62
sg26
I9
sg27
I68
sasg40
(lp974
sss.