(dp0
I1542470400
(dp1
S'skyracing_url'
p2
Vhttp://www.skyracing.com.au/index.php?component=racing&task=race&id=107992154&meetingid=106620770&Itemid=89
p3
sS'betfair_raceid'
p4
V29011676.1600
p5
sS'dat2'
p6
(dp7
S'ratings_auto'
p8
(lp9
(lp10
I12
aI4
aI15
aI7
aa(lp11
I12
aI13
aI5
aI2
aa(lp12
I12
aI2
aI6
aI7
aa(lp13
I12
aI5
aI2
aI13
aa(lp14
I12
aI2
aI5
aI11
aa(lp15
I12
aI15
aI4
aI13
aa(lp16
I12
aI15
aI7
aI4
aa(lp17
I12
aI2
aI5
aI4
aasS'horse_details'
p18
(lp19
(dp20
S'horse_name'
p21
VCARDIGAN BAY
p22
sS'horse_form'
p23
V65x1x
p24
sS'rating_2'
p25
I72
sS'horse_number'
p26
I1
sS'rating_1'
p27
I74
sa(dp28
g21
VCEDAR VALLEY
p29
sg23
V19x3
p30
sg25
I81
sg26
I2
sg27
I86
sa(dp31
g21
VCROSSGALESFAMEGAME
p32
sg23
V33x
p33
sg25
I73
sg26
I3
sg27
I75
sa(dp34
g21
VDANSE IDOL
p35
sg23
V12x
p36
sg25
I90
sg26
I4
sg27
I96
sa(dp37
g21
VKALIFORNIA
p38
sg23
V71x5
p39
sg25
I63
sg26
I5
sg27
I65
sa(dp40
g21
VLEGENDS GOLD
p41
sg23
V1x2
p42
sg25
I86
sg26
I6
sg27
I81
sa(dp43
g21
VMEGA YEATS
p44
sg23
V1x1
p45
sg25
I93
sg26
I7
sg27
I91
sa(dp46
g21
VMOOR FREEDOM
p47
sg23
V2x
p48
sg25
I78
sg26
I8
sg27
I79
sa(dp49
g21
VMRS HYDE
p50
sg23
V5x1
p51
sg25
I77
sg26
I9
sg27
I71
sa(dp52
g21
VPINK ROCK
p53
sg23
V
p54
sg25
I67
sg26
I10
sg27
I0
sa(dp55
g21
VPOPERINGHE GINGER
p56
sg23
V4x3
p57
sg25
I69
sg26
I11
sg27
I72
sa(dp58
g21
VROYAL ILLUSION
p59
sg23
V11
p60
sg25
I100
sg26
I12
sg27
I100
sa(dp61
g21
VSTACEY SUE
p62
sg23
V1x121
p63
sg25
I89
sg26
I13
sg27
I89
sa(dp64
g21
VTASHUNKA
p65
sg23
Vx26x8
p66
sg25
I60
sg26
I14
sg27
I62
sa(dp67
g21
VTHE GLANCING QUEEN
p68
sg23
V1x
p69
sg25
I96
sg26
I15
sg27
I93
sasS'ratings_manual'
p70
(lp71
sssI1542461700
(dp72
g2
Vhttp://www.skyracing.com.au/index.php?component=racing&task=race&id=107992121&meetingid=106620786&Itemid=89
p73
sg4
V29011679.1335
p74
sg6
(dp75
g8
(lp76
(lp77
I1
aI3
aI4
aI6
aa(lp78
I1
aI2
aI3
aI8
aa(lp79
I1
aI5
aI7
aI8
aa(lp80
I1
aI3
aI2
aI4
aa(lp81
I3
aI1
aI2
aI5
aa(lp82
I1
aI3
aI4
aI6
aa(lp83
I1
aI3
aI4
aI2
aa(lp84
I1
aI3
aI2
aI4
aasg18
(lp85
(dp86
g21
VSALATEEN
p87
sg23
V22444
p88
sg25
I97
sg26
I1
sg27
I100
sa(dp89
g21
VGORING
p90
sg23
V300x0
p91
sg25
I86
sg26
I2
sg27
I79
sa(dp92
g21
VORIGINAL CHOICE
p93
sg23
V03350
p94
sg25
I100
sg26
I3
sg27
I97
sa(dp95
g21
VCHEVALLIER
p96
sg23
V8403x
p97
sg25
I92
sg26
I4
sg27
I91
sa(dp98
g21
VHAKAM
p99
sg23
V45014
p100
sg25
I78
sg26
I5
sg27
I82
sa(dp101
g21
VFIRST SELECTION
p102
sg23
V6230x
p103
sg25
I81
sg26
I6
sg27
I87
sa(dp104
g21
VMYTHICAL MADNESS
p105
sg23
V08307
p106
sg25
I70
sg26
I7
sg27
I72
sa(dp107
g21
VMY TARGET
p108
sg23
V40208
p109
sg25
I74
sg26
I8
sg27
I73
sasg70
(lp110
sssI1542462600
(dp111
g2
Vhttp://www.skyracing.com.au/index.php?component=racing&task=race&id=107992150&meetingid=106620770&Itemid=89
p112
sg4
V29011676.1350
p113
sg6
(dp114
g8
(lp115
(lp116
I2
aI5
aI6
aI1
aa(lp117
I3
aI4
aI2
aI5
aa(lp118
I2
aI10
aI14
aI5
aa(lp119
I3
aI4
aI2
aI5
aa(lp120
I14
aI2
aI3
aI5
aa(lp121
I5
aI2
aI6
aI1
aa(lp122
I5
aI1
aI8
aI9
aa(lp123
I2
aI5
aI3
aI4
aasg18
(lp124
(dp125
g21
VCONEYGREE
p126
sg23
V3x80x
p127
sg25
I99
sg26
I1
sg27
I93
sa(dp128
g21
VVIRGILIO
p129
sg23
V011x3
p130
sg25
I96
sg26
I2
sg27
I100
sa(dp131
g21
VPERFECT CANDIDATE
p132
sg23
V5x0x0
p133
sg25
I66
sg26
I3
sg27
I66
sa(dp134
g21
VVICENTE
p135
sg23
V0x05x
p136
sg25
I86
sg26
I4
sg27
I89
sa(dp137
g21
VROCK THE KASBAH
p138
sg23
V0x2x6
p139
sg25
I100
sg26
I5
sg27
I96
sa(dp140
g21
VSINGLEFARMPAYMENT
p141
sg23
V5852x
p142
sg25
I94
sg26
I6
sg27
I95
sa(dp143
g21
VROYAL VACATION
p144
sg23
V5x00x
p145
sg25
I68
sg26
I7
sg27
I68
sa(dp146
g21
VCALETT MAD
p147
sg23
V1x9x4
p148
sg25
I89
sg26
I8
sg27
I82
sa(dp149
g21
VDAKLONDIKE
p150
sg23
V11x0x
p151
sg25
I90
sg26
I9
sg27
I69
sa(dp152
g21
VCOGRY
p153
sg23
V300x2
p154
sg25
I75
sg26
I10
sg27
I78
sa(dp155
g21
VMYSTEREE
p156
sg23
V2x03x
p157
sg25
I77
sg26
I11
sg27
I76
sa(dp158
g21
VTHE YOUNG MASTER
p159
sg23
V08x11
p160
sg25
I83
sg26
I12
sg27
I88
sa(dp161
g21
VLOOKING WELL
p162
sg23
V0x03x
p163
sg25
I78
sg26
I13
sg27
I80
sa(dp164
g21
VSHARP RESPONSE
p165
sg23
V21x41
p166
sg25
I80
sg26
I14
sg27
I85
sa(dp167
g21
VPURE VISION
p168
sg23
V1472x
p169
sg25
I71
sg26
I15
sg27
I73
sa(dp170
g21
VDOING FINE
p171
sg23
V4x4x0
p172
sg25
I64
sg26
I16
sg27
I63
sasg70
(lp173
sssI1542456300
(dp174
g2
Vhttp://www.skyracing.com.au/index.php?component=racing&task=race&id=107992088&meetingid=106780475&Itemid=89
p175
sg4
V29013345.1205
p176
sg6
(dp177
g8
(lp178
(lp179
I9
aI4
aI6
aI8
aa(lp180
I8
aI15
aI17
aI7
aa(lp181
I17
aI4
aI6
aI8
aa(lp182
I8
aI17
aI12
aI1
aa(lp183
I15
aI17
aI4
aI8
aa(lp184
I9
aI4
aI6
aI8
aa(lp185
I4
aI9
aI6
aI8
aa(lp186
I8
aI17
aI4
aI9
aasg18
(lp187
(dp188
g21
VAMADEUS
p189
sg23
V5x00x
p190
sg25
I70
sg26
I1
sg27
I71
sa(dp191
g21
VBACHELOR
p192
sg23
V0x690
p193
sg25
I76
sg26
I2
sg27
I83
sa(dp194
g21
VBALGOWLAH
p195
sg23
V797x8
p196
sg25
I66
sg26
I3
sg27
I65
sa(dp197
g21
VBLACK NOAH
p198
sg23
V333
p199
sg25
I99
sg26
I4
sg27
I98
sa(dp200
g21
VDANI'S BOY
p201
sg23
V21800
p202
sg25
I83
sg26
I5
sg27
I73
sa(dp203
g21
VGOT TRUMPED
p204
sg23
V292
p205
sg25
I93
sg26
I6
sg27
I95
sa(dp206
g21
VIT'S PADDYS DAY
p207
sg23
V48920
p208
sg25
I72
sg26
I7
sg27
I77
sa(dp209
g21
VLEVER DU SOLEIL
p210
sg23
V33332
p211
sg25
I90
sg26
I8
sg27
I94
sa(dp212
g21
VLIGNOU
p213
sg23
V41x1x
p214
sg25
I100
sg26
I9
sg27
I100
sa(dp215
g21
VMOOBORAK
p216
sg23
V689x9
p217
sg25
I59
sg26
I10
sg27
I60
sa(dp218
g21
VRATHBRIDE PRINCE
p219
sg23
V00x0x
p220
sg25
I65
sg26
I11
sg27
I66
sa(dp221
g21
VROCKY BLUE
p222
sg23
V2221x
p223
sg25
I89
sg26
I12
sg27
I86
sa(dp224
g21
VTAHAN
p225
sg23
V7x068
p226
sg25
I62
sg26
I13
sg27
I67
sa(dp227
g21
VWALKING ON GLASS
p228
sg23
V000
p229
sg25
I60
sg26
I14
sg27
I69
sa(dp230
g21
VDAWN HOOFER
p231
sg23
V21733
p232
sg25
I95
sg26
I15
sg27
I91
sa(dp233
g21
VDEFINITE DOYENNE
p234
sg23
V16x08
p235
sg25
I86
sg26
I16
sg27
I62
sa(dp236
g21
VLADY CAMELOT
p237
sg23
V43422
p238
sg25
I84
sg26
I17
sg27
I89
sa(dp239
g21
VLIFFEYDALE DREAMER
p240
sg23
V464x0
p241
sg25
I81
sg26
I18
sg27
I79
sa(dp242
g21
VQUIET LADY
p243
sg23
g54
sg25
I69
sg26
I19
sg27
I0
sa(dp244
g21
VSHES GOLD
p245
sg23
V3609
p246
sg25
I78
sg26
I20
sg27
I84
sa(dp247
g21
VSO ENJOY
p248
sg23
V4828x
p249
sg25
I75
sg26
I21
sg27
I81
sa(dp250
g21
VSTORMY FALLS
p251
sg23
V080x0
p252
sg25
I68
sg26
I22
sg27
I70
sa(dp253
g21
VCAILIN RUA
p254
sg23
V0
p255
sg25
I57
sg26
I23
sg27
I57
sa(dp256
g21
VWAR CHILD
p257
sg23
V0x0x0
p258
sg25
I54
sg26
I24
sg27
I58
sasg70
(lp259
sssI1542464400
(dp260
g2
Vhttp://www.skyracing.com.au/index.php?component=racing&task=race&id=107992092&meetingid=106780475&Itemid=89
p261
sg4
V29013345.1420
p262
sg6
(dp263
g8
(lp264
(lp265
I1
aI3
aI2
aI6
aa(lp266
I3
aI4
aI1
aI7
aa(lp267
I1
aI7
aI5
aI4
aa(lp268
I3
aI5
aI4
aI1
aa(lp269
I7
aI4
aI3
aI1
aa(lp270
I3
aI1
aI5
aI6
aa(lp271
I2
aI1
aI3
aI6
aa(lp272
I3
aI1
aI4
aI7
aasg18
(lp273
(dp274
g21
VGOOD THYNE TARA
p275
sg23
V16x13
p276
sg25
I100
sg26
I1
sg27
I100
sa(dp277
g21
VLACKANEEN LEADER
p278
sg23
V1120x
p279
sg25
I98
sg26
I2
sg27
I89
sa(dp280
g21
VSTORMY IRELAND
p281
sg23
V9713x
p282
sg25
I92
sg26
I3
sg27
I95
sa(dp283
g21
VELUSIVE THEATRE
p284
sg23
V230x4
p285
sg25
I75
sg26
I4
sg27
I74
sa(dp286
g21
VMORGA
p287
sg23
Vx2333
p288
sg25
I79
sg26
I5
sg27
I80
sa(dp289
g21
VRIA D'ETEL
p290
sg23
V31x2x
p291
sg25
I87
sg26
I6
sg27
I84
sa(dp292
g21
VKILBARRY WAY
p293
sg23
V12641
p294
sg25
I82
sg26
I7
sg27
I78
sa(dp295
g21
VTHE PRINCETONIAN
p296
sg23
V51455
p297
sg25
I72
sg26
I8
sg27
I69
sasg70
(lp298
sssI1542455700
(dp299
g2
Vhttp://www.skyracing.com.au/index.php?component=racing&task=race&id=107992118&meetingid=106620786&Itemid=89
p300
sg4
V29011679.1155
p301
sg6
(dp302
g8
(lp303
(lp304
I1
aI4
aI9
aI2
aa(lp305
I2
aI3
aI5
aI1
aa(lp306
I2
aI4
aI1
aI3
aa(lp307
I2
aI4
aI1
aI3
aa(lp308
I1
aI9
aI12
aI3
aa(lp309
I9
aI1
aI4
aI2
aa(lp310
I1
aI4
aI2
aI5
aa(lp311
I1
aI2
aI4
aI9
aasg18
(lp312
(dp313
g21
VLORD MURPHY
p314
sg23
V43362
p315
sg25
I100
sg26
I1
sg27
I100
sa(dp316
g21
VSOARING SPIRITS
p317
sg23
V02019
p318
sg25
I93
sg26
I2
sg27
I90
sa(dp319
g21
VHERM
p320
sg23
V34556
p321
sg25
I84
sg26
I3
sg27
I82
sa(dp322
g21
VAINNE
p323
sg23
V05451
p324
sg25
I96
sg26
I4
sg27
I98
sa(dp325
g21
VSHIFTING STAR
p326
sg23
V64499
p327
sg25
I89
sg26
I5
sg27
I77
sa(dp328
g21
VMUTHRAAB ALDAAR
p329
sg23
V2085x
p330
sg25
I74
sg26
I6
sg27
I75
sa(dp331
g21
VTHREE C'S
p332
sg23
V16509
p333
sg25
I71
sg26
I7
sg27
I69
sa(dp334
g21
VPOLLY'S GOLD
p335
sg23
V3550x
p336
sg25
I78
sg26
I8
sg27
I85
sa(dp337
g21
VMOLTEN LAVA
p338
sg23
V37152
p339
sg25
I90
sg26
I9
sg27
I92
sa(dp340
g21
VBOOKMAKER
p341
sg23
V4880x
p342
sg25
I82
sg26
I10
sg27
I68
sa(dp343
g21
VLONE VOICE
p344
sg23
V098x7
p345
sg25
I72
sg26
I11
sg27
I72
sa(dp346
g21
VBLACK TRUFFLE
p347
sg23
V77754
p348
sg25
I75
sg26
I12
sg27
I79
sasg70
(lp349
sssI1542466200
(dp350
g2
Vhttp://www.skyracing.com.au/index.php?component=racing&task=race&id=107992137&meetingid=106620818&Itemid=89
p351
sg4
V29013360.1450
p352
sg6
(dp353
g8
(lp354
(lp355
I2
aI5
aI1
aI4
aa(lp356
I2
aI1
aI5
aI3
aa(lp357
I2
aI1
aI5
aI3
aa(lp358
I1
aI2
aI5
aI4
aa(lp359
I2
aI5
aI1
aI3
aa(lp360
I2
aI1
aI5
aI4
aa(lp361
I2
aI1
aI5
aI3
aa(lp362
I2
aI1
aI5
aI4
aasg18
(lp363
(dp364
g21
VKAJAKI
p365
sg23
V45381
p366
sg25
I91
sg26
I1
sg27
I93
sa(dp367
g21
VTIGHT CALL
p368
sg23
Vx3x11
p369
sg25
I100
sg26
I2
sg27
I100
sa(dp370
g21
VDEW POND
p371
sg23
V7x068
p372
sg25
I84
sg26
I3
sg27
I83
sa(dp373
g21
VMOUNTAIN HAWK
p374
sg23
V4x
p375
sg25
I87
sg26
I4
sg27
I86
sa(dp376
g21
VSKANDIBURG
p377
sg23
V4x1
p378
sg25
I95
sg26
I5
sg27
I97
sasg70
(lp379
sssI1542456900
(dp380
g2
Vhttp://www.skyracing.com.au/index.php?component=racing&task=race&id=107992103&meetingid=106620802&Itemid=89
p381
sg4
V29013363.1215
p382
sg6
(dp383
g8
(lp384
(lp385
I1
aI4
aI5
aI3
aa(lp386
I4
aI3
aI6
aI12
aa(lp387
I6
aI4
aI3
aI11
aa(lp388
I2
aI3
aI12
aI6
aa(lp389
I3
aI6
aI4
aI11
aa(lp390
I1
aI5
aI4
aI3
aa(lp391
I4
aI1
aI5
aI6
aa(lp392
I4
aI3
aI6
aI1
aasg18
(lp393
(dp394
g21
VQUANTUM OF SOLACE
p395
sg23
Vx014x
p396
sg25
I99
sg26
I1
sg27
I100
sa(dp397
g21
VOSCAR VESPASIAN
p398
sg23
Vx452x
p399
sg25
I76
sg26
I2
sg27
I82
sa(dp400
g21
VPASSING DREAM
p401
sg23
V100x4
p402
sg25
I87
sg26
I3
sg27
I92
sa(dp403
g21
VBOYCHICK
p404
sg23
V24466
p405
sg25
I100
sg26
I4
sg27
I97
sa(dp406
g21
VTHE MAJOR
p407
sg23
V7462x
p408
sg25
I94
sg26
I5
sg27
I95
sa(dp409
g21
VFIERCLY FORGIE
p410
sg23
V1x467
p411
sg25
I91
sg26
I6
sg27
I70
sa(dp412
g21
VNICE THOUGHTS
p413
sg23
Vx840x
p414
sg25
I83
sg26
I7
sg27
I79
sa(dp415
g21
VDARLYN
p416
sg23
V4044x
p417
sg25
I71
sg26
I8
sg27
I73
sa(dp418
g21
VTOWER OF ALLEN
p419
sg23
V4663x
p420
sg25
I85
sg26
I9
sg27
I87
sa(dp421
g21
VKALASKADESEMILLEY
p422
sg23
Vx979x
p423
sg25
I74
sg26
I10
sg27
I76
sa(dp424
g21
VCLOCK ON TOM
p425
sg23
V57x66
p426
sg25
I78
sg26
I11
sg27
I85
sa(dp427
g21
VMURCHISON RIVER
p428
sg23
V64x07
p429
sg25
I71
sg26
I12
sg27
I65
sa(dp430
g21
VANTON DOLIN
p431
sg23
V67207
p432
sg25
I65
sg26
I13
sg27
I72
sa(dp433
g21
VSTARSHELL
p434
sg23
V90590
p435
sg25
I63
sg26
I14
sg27
I63
sasg70
(lp436
sssI1542467100
(dp437
g2
Vhttp://www.skyracing.com.au/index.php?component=racing&task=race&id=107992108&meetingid=106620802&Itemid=89
p438
sg4
V29013363.1505
p439
sg6
(dp440
g8
(lp441
(lp442
I6
aI9
aI2
aI7
aa(lp443
I3
aI2
aI1
aI5
aa(lp444
I7
aI5
aI4
aI6
aa(lp445
I3
aI2
aI1
aI11
aa(lp446
I7
aI2
aI6
aI1
aa(lp447
I2
aI6
aI9
aI7
aa(lp448
I2
aI6
aI9
aI4
aa(lp449
I2
aI6
aI7
aI3
aasg18
(lp450
(dp451
g21
VMARVELLOUS MONTY
p452
sg23
V3367x
p453
sg25
I84
sg26
I1
sg27
I83
sa(dp454
g21
VTIERRA VERDE
p455
sg23
V5332x
p456
sg25
I97
sg26
I2
sg27
I93
sa(dp457
g21
VASK CATKIN
p458
sg23
V4450x
p459
sg25
I70
sg26
I3
sg27
I72
sa(dp460
g21
VAGENT MEMPHIS
p461
sg23
V008x6
p462
sg25
I87
sg26
I4
sg27
I87
sa(dp463
g21
VNORTHERN GIRL
p464
sg23
V070x2
p465
sg25
I82
sg26
I5
sg27
I80
sa(dp466
g21
VPREMIER ROSE
p467
sg23
V05861
p468
sg25
I100
sg26
I6
sg27
I100
sa(dp469
g21
VMETHAG
p470
sg23
V22345
p471
sg25
I90
sg26
I7
sg27
I89
sa(dp472
g21
VDOMESTIC DIVA
p473
sg23
V850x6
p474
sg25
I76
sg26
I8
sg27
I77
sa(dp475
g21
VHOPONANDSEE
p476
sg23
Vx1238
p477
sg25
I94
sg26
I9
sg27
I99
sa(dp478
g21
VLADY MASTER
p479
sg23
V7864x
p480
sg25
I73
sg26
I10
sg27
I73
sa(dp481
g21
VHER DREAM
p482
sg23
V0800x
p483
sg25
I63
sg26
I11
sg27
I60
sa(dp484
g21
VSCORPION SEA
p485
sg23
V070x7
p486
sg25
I70
sg26
I12
sg27
I70
sa(dp487
g21
VCHOOCHOOBUGALOO
p488
sg23
V0x09x
p489
sg25
I64
sg26
I13
sg27
I62
sa(dp490
g21
VHELAMIS
p491
sg23
Vx58x9
p492
sg25
I78
sg26
I14
sg27
I67
sasg70
(lp493
sssI1542458400
(dp494
g2
Vhttp://www.skyracing.com.au/index.php?component=racing&task=race&id=107992148&meetingid=106620770&Itemid=89
p495
sg4
V29011676.1240
p496
sg6
(dp497
g8
(lp498
(lp499
I1
aI7
aI5
aI2
aa(lp500
I2
aI5
aI1
aI4
aa(lp501
I2
aI5
aI1
aI4
aa(lp502
I2
aI5
aI1
aI4
aa(lp503
I5
aI1
aI2
aI4
aa(lp504
I1
aI7
aI2
aI5
aa(lp505
I7
aI5
aI1
aI2
aa(lp506
I1
aI2
aI5
aI7
aasg18
(lp507
(dp508
g21
VCRACKER FACTORY
p509
sg23
V11121
p510
sg25
I93
sg26
I1
sg27
I100
sa(dp511
g21
VQUEL DESTIN
p512
sg23
V81x21
p513
sg25
I86
sg26
I2
sg27
I87
sa(dp514
g21
VIL RE DI NESSUNO
p515
sg23
V5388x
p516
sg25
I79
sg26
I3
sg27
I78
sa(dp517
g21
VKATPOLI
p518
sg23
V40x1
p519
sg25
I81
sg26
I4
sg27
I81
sa(dp520
g21
VMONTESTREL
p521
sg23
V1
p522
sg25
I96
sg26
I5
sg27
I90
sa(dp523
g21
VNEEDS TO BE SEEN
p524
sg23
V55341
p525
sg25
I77
sg26
I6
sg27
I73
sa(dp526
g21
VNEVER ADAPT
p527
sg23
V1x
p528
sg25
I100
sg26
I7
sg27
I95
sasg70
(lp529
sssI1542460200
(dp530
g2
Vhttp://www.skyracing.com.au/index.php?component=racing&task=race&id=107992090&meetingid=106780475&Itemid=89
p531
sg4
V29013345.1310
p532
sg6
(dp533
g8
(lp534
(lp535
I1
aI2
aI5
aI3
aa(lp536
I1
aI5
aI2
aI3
aa(lp537
I1
aI5
aI2
aI3
aa(lp538
I1
aI2
aI3
aI5
aa(lp539
I1
aI2
aI5
aI3
aa(lp540
I1
aI2
aI5
aI3
aa(lp541
I2
aI1
aI5
aI3
aa(lp542
I1
aI2
aI5
aI3
aasg18
(lp543
(dp544
g21
VCADMIUM
p545
sg23
V11521
p546
sg25
I100
sg26
I1
sg27
I100
sa(dp547
g21
VHARDLINE
p548
sg23
V138x1
p549
sg25
I98
sg26
I2
sg27
I99
sa(dp550
g21
VKILDORRERY
p551
sg23
Vx7151
p552
sg25
I84
sg26
I3
sg27
I82
sa(dp553
g21
VMIND'S EYE
p554
sg23
V04x21
p555
sg25
I85
sg26
I4
sg27
I87
sa(dp556
g21
VVOIX DU REVE
p557
sg23
V11031
p558
sg25
I90
sg26
I5
sg27
I91
sa(dp559
g21
VWELL TOM
p560
sg23
Vx8710
p561
sg25
I79
sg26
I6
sg27
I79
sasg70
(lp562
sssI1542457500
(dp563
g2
Vhttp://www.skyracing.com.au/index.php?component=racing&task=race&id=107992119&meetingid=106620786&Itemid=89
p564
sg4
V29011679.1225
p565
sg6
(dp566
g8
(lp567
(lp568
I1
aI2
aI3
aI9
aa(lp569
I2
aI1
aI3
aI9
aa(lp570
I2
aI1
aI3
aI9
aa(lp571
I2
aI3
aI1
aI9
aa(lp572
I2
aI1
aI3
aI9
aa(lp573
I1
aI2
aI3
aI9
aa(lp574
I1
aI2
aI7
aI3
aa(lp575
I2
aI1
aI3
aI9
aasg18
(lp576
(dp577
g21
VBARYS
p578
sg23
V3453
p579
sg25
I100
sg26
I1
sg27
I100
sa(dp580
g21
VBARYSHNIKOV
p581
sg23
V43
p582
sg25
I98
sg26
I2
sg27
I96
sa(dp583
g21
VGARRISON COMMANDER
p584
sg23
V3x4
p585
sg25
I90
sg26
I3
sg27
I90
sa(dp586
g21
VHYDROPLANE
p587
sg23
V0995
p588
sg25
I79
sg26
I4
sg27
I81
sa(dp589
g21
VIGNATIUS
p590
sg23
V7x8x
p591
sg25
I70
sg26
I5
sg27
I72
sa(dp592
g21
VMURAAD
p593
sg23
g54
sg25
I80
sg26
I6
sg27
I0
sa(dp594
g21
VNEW KING
p595
sg23
g54
sg25
I94
sg26
I7
sg27
I0
sa(dp596
g21
VTIME IMMEMORIAL
p597
sg23
V00
p598
sg25
I77
sg26
I8
sg27
I80
sa(dp599
g21
VEDIFICE
p600
sg23
V07
p601
sg25
I89
sg26
I9
sg27
I85
sa(dp602
g21
VWHISTLER BOWL
p603
sg23
V08
p604
sg25
I74
sg26
I10
sg27
I76
sa(dp605
g21
VWINTER SKY
p606
sg23
g54
sg25
I86
sg26
I11
sg27
I0
sasg70
(lp607
sssI1542461100
(dp608
g2
Vhttp://www.skyracing.com.au/index.php?component=racing&task=race&id=107992105&meetingid=106620802&Itemid=89
p609
sg4
V29013363.1325
p610
sg6
(dp611
g8
(lp612
(lp613
I10
aI3
aI6
aI4
aa(lp614
I7
aI5
aI2
aI3
aa(lp615
I4
aI10
aI8
aI1
aa(lp616
I1
aI3
aI7
aI2
aa(lp617
I2
aI7
aI10
aI9
aa(lp618
I6
aI4
aI10
aI3
aa(lp619
I6
aI3
aI1
aI7
aa(lp620
I10
aI7
aI3
aI4
aasg18
(lp621
(dp622
g21
VSOLSTICE SON
p623
sg23
V2x08x
p624
sg25
I98
sg26
I1
sg27
I69
sa(dp625
g21
VBRAMBLE BROOK
p626
sg23
V4316x
p627
sg25
I65
sg26
I2
sg27
I80
sa(dp628
g21
VCROSSPARK
p629
sg23
V4344x
p630
sg25
I94
sg26
I3
sg27
I96
sa(dp631
g21
VANOTHER FRONTIER
p632
sg23
V12x10
p633
sg25
I70
sg26
I4
sg27
I86
sa(dp634
g21
VNEWTOWN LAD
p635
sg23
V7279x
p636
sg25
I73
sg26
I5
sg27
I61
sa(dp637
g21
VCHEF D'OEUVRE
p638
sg23
V0762x
p639
sg25
I100
sg26
I6
sg27
I91
sa(dp640
g21
VBLAMEITALONMYROOTS
p641
sg23
V7259x
p642
sg25
I81
sg26
I7
sg27
I75
sa(dp643
g21
VFAIR EXCHANGE
p644
sg23
V32004
p645
sg25
I62
sg26
I8
sg27
I64
sa(dp646
g21
VTHE ARTFUL COBBLER
p647
sg23
V1110x
p648
sg25
I80
sg26
I9
sg27
I84
sa(dp649
g21
VONE OF US
p650
sg23
V0x5x2
p651
sg25
I86
sg26
I10
sg27
I100
sasg70
(lp652
sssI1542462000
(dp653
g2
Vhttp://www.skyracing.com.au/index.php?component=racing&task=race&id=107992135&meetingid=106620818&Itemid=89
p654
sg4
V29013360.1340
p655
sg6
(dp656
g8
(lp657
(lp658
I1
aI4
aI7
aI3
aa(lp659
I6
aI3
aI11
aI2
aa(lp660
I11
aI1
aI4
aI7
aa(lp661
I3
aI5
aI11
aI10
aa(lp662
I11
aI7
aI3
aI10
aa(lp663
I7
aI1
aI4
aI2
aa(lp664
I1
aI7
aI4
aI10
aa(lp665
I11
aI1
aI7
aI3
aasg18
(lp666
(dp667
g21
VWEMYSS POINT
p668
sg23
V108x1
p669
sg25
I100
sg26
I1
sg27
I100
sa(dp670
g21
VMISCHIEVIOUS MAX
p671
sg23
Vx99x0
p672
sg25
I84
sg26
I2
sg27
I88
sa(dp673
g21
VQUEST FOR LIFE
p674
sg23
V231x0
p675
sg25
I89
sg26
I3
sg27
I91
sa(dp676
g21
VLOVATO
p677
sg23
Vx2172
p678
sg25
I97
sg26
I4
sg27
I98
sa(dp679
g21
VWILL O'THE WEST
p680
sg23
V2232x
p681
sg25
I80
sg26
I5
sg27
I81
sa(dp682
g21
VBECKY THE THATCHER
p683
sg23
V12286
p684
sg25
I74
sg26
I6
sg27
I79
sa(dp685
g21
VAPTERIX
p686
sg23
V54123
p687
sg25
I94
sg26
I7
sg27
I94
sa(dp688
g21
VBIG TIME DANCER
p689
sg23
V14364
p690
sg25
I78
sg26
I8
sg27
I77
sa(dp691
g21
VPLACEDELA CONCORDE
p692
sg23
V48233
p693
sg25
I72
sg26
I9
sg27
I72
sa(dp694
g21
VSHINE BABY SHINE
p695
sg23
V2174x
p696
sg25
I92
sg26
I10
sg27
I84
sa(dp697
g21
VOLD SALT
p698
sg23
V75550
p699
sg25
I76
sg26
I11
sg27
I74
sasg70
(lp700
sssI1542463800
(dp701
g2
Vhttp://www.skyracing.com.au/index.php?component=racing&task=race&id=107992122&meetingid=106620786&Itemid=89
p702
sg4
V29011679.1410
p703
sg6
(dp704
g8
(lp705
(lp706
I1
aI7
aI9
aI2
aa(lp707
I1
aI2
aI9
aI7
aa(lp708
I1
aI2
aI9
aI7
aa(lp709
I1
aI2
aI9
aI7
aa(lp710
I2
aI9
aI8
aI7
aa(lp711
I9
aI1
aI7
aI2
aa(lp712
I7
aI1
aI9
aI2
aa(lp713
I1
aI9
aI2
aI7
aasg18
(lp714
(dp715
g21
VFARAASAH
p716
sg23
V0x640
p717
sg25
I95
sg26
I1
sg27
I100
sa(dp718
g21
VPOETIC PRINCIPLE
p719
sg23
V43x62
p720
sg25
I86
sg26
I2
sg27
I85
sa(dp721
g21
VREIGNITE
p722
sg23
V47
p723
sg25
I78
sg26
I3
sg27
I78
sa(dp724
g21
VSTOPDWORLDNLETMEOF
p725
sg23
V235x0
p726
sg25
I75
sg26
I4
sg27
I0
sa(dp727
g21
VPREMIUM PINK
p728
sg23
V8x
p729
sg25
I64
sg26
I5
sg27
I64
sa(dp730
g21
VROUE DE CHARRETTE
p731
sg23
V7900
p732
sg25
I71
sg26
I6
sg27
I71
sa(dp733
g21
VSIDE EFFECT
p734
sg23
V44352
p735
sg25
I100
sg26
I7
sg27
I98
sa(dp736
g21
VWARRIOR GODDESS
p737
sg23
V4x4
p738
sg25
I82
sg26
I8
sg27
I84
sa(dp739
g21
VYOUR CHOICE
p740
sg23
V9x347
p741
sg25
I91
sg26
I9
sg27
I91
sasg70
(lp742
sssI1542458100
(dp743
g2
Vhttp://www.skyracing.com.au/index.php?component=racing&task=race&id=107992089&meetingid=106780475&Itemid=89
p744
sg4
V29013345.1235
p745
sg6
(dp746
g8
(lp747
(lp748
I2
aI8
aI5
aI7
aa(lp749
I5
aI3
aI2
aI6
aa(lp750
I2
aI9
aI4
aI1
aa(lp751
I3
aI5
aI2
aI6
aa(lp752
I5
aI6
aI2
aI8
aa(lp753
I8
aI2
aI7
aI5
aa(lp754
I8
aI9
aI5
aI7
aa(lp755
I2
aI5
aI8
aI3
aasg18
(lp756
(dp757
g21
VAN DROICHEAD GORM
p758
sg23
Vx9089
p759
sg25
I64
sg26
I1
sg27
I66
sa(dp760
g21
VBEN DUNDEE
p761
sg23
V000x3
p762
sg25
I83
sg26
I2
sg27
I100
sa(dp763
g21
VBEYOND THE LAW
p764
sg23
V1409x
p765
sg25
I79
sg26
I3
sg27
I79
sa(dp766
g21
VDUKE CASS
p767
sg23
Vx0050
p768
sg25
I70
sg26
I4
sg27
I71
sa(dp769
g21
VMALL DINI
p770
sg23
V4520x
p771
sg25
I95
sg26
I5
sg27
I93
sa(dp772
g21
VSCOIR MEAR
p773
sg23
V5207x
p774
sg25
I75
sg26
I6
sg27
I77
sa(dp775
g21
VSIR CARNO
p776
sg23
V1145x
p777
sg25
I87
sg26
I7
sg27
I89
sa(dp778
g21
VTOWER BRIDGE
p779
sg23
V4153x
p780
sg25
I100
sg26
I8
sg27
I95
sa(dp781
g21
VWHISPERINTHEBREEZE
p782
sg23
V492x4
p783
sg25
I92
sg26
I9
sg27
I82
sasg70
(lp784
sssI1542464700
(dp785
g2
Vhttp://www.skyracing.com.au/index.php?component=racing&task=race&id=107992151&meetingid=106620770&Itemid=89
p786
sg4
V29011676.1425
p787
sg6
(dp788
g8
(lp789
(lp790
I2
aI5
aI20
aI7
aa(lp791
I1
aI4
aI6
aI2
aa(lp792
I1
aI2
aI3
aI7
aa(lp793
I1
aI4
aI6
aI2
aa(lp794
I7
aI1
aI2
aI11
aa(lp795
I2
aI5
aI12
aI20
aa(lp796
I5
aI15
aI2
aI7
aa(lp797
I2
aI1
aI5
aI7
aasg18
(lp798
(dp799
g21
VFRODON
p800
sg23
V350x1
p801
sg25
I84
sg26
I1
sg27
I79
sa(dp802
g21
VMISTER WHITAKER
p803
sg23
V211x1
p804
sg25
I98
sg26
I2
sg27
I100
sa(dp805
g21
VJAVERT
p806
sg23
V01x12
p807
sg25
I72
sg26
I3
sg27
I67
sa(dp808
g21
VBENATAR
p809
sg23
V1x3x4
p810
sg25
I96
sg26
I4
sg27
I72
sa(dp811
g21
VRATHER BE
p812
sg23
V1312x
p813
sg25
I100
sg26
I5
sg27
I98
sa(dp814
g21
VKALONDRA
p815
sg23
Vx3x0x
p816
sg25
I76
sg26
I6
sg27
I86
sa(dp817
g21
VBARON ALCO
p818
sg23
V122x2
p819
sg25
I87
sg26
I7
sg27
I94
sa(dp820
g21
VSHANTOU VILLAGE
p821
sg23
V43156
p822
sg25
I90
sg26
I8
sg27
I65
sa(dp823
g21
VWEST APPROACH
p824
sg23
V560x3
p825
sg25
I79
sg26
I9
sg27
I88
sa(dp826
g21
VSPLASH OF GINGE
p827
sg23
V982x5
p828
sg25
I62
sg26
I10
sg27
I54
sa(dp829
g21
VHAPPY DIVA
p830
sg23
V121x2
p831
sg25
I68
sg26
I11
sg27
I77
sa(dp832
g21
VMOVEWITHTHETIMES
p833
sg23
V3x0x5
p834
sg25
I80
sg26
I12
sg27
I91
sa(dp835
g21
VKING'S SOCKS
p836
sg23
Vx350x
p837
sg25
I75
sg26
I13
sg27
I80
sa(dp838
g21
VROMAIN DE SENAM
p839
sg23
V07x43
p840
sg25
I65
sg26
I14
sg27
I69
sa(dp841
g21
VBALLYANDY
p842
sg23
Vx47x3
p843
sg25
I94
sg26
I15
sg27
I83
sa(dp844
g21
VGEORDIE DES CHAMPS
p845
sg23
V3x5x7
p846
sg25
I60
sg26
I16
sg27
I57
sa(dp847
g21
VGUITAR PETE
p848
sg23
V68x82
p849
sg25
I67
sg26
I17
sg27
I74
sa(dp850
g21
VWILLIE BOY
p851
sg23
V6x0x2
p852
sg25
I58
sg26
I18
sg27
I60
sa(dp853
g21
VEAMON AN CNOIC
p854
sg23
V190x8
p855
sg25
I53
sg26
I19
sg27
I62
sa(dp856
g21
VWHOSHOTWHO
p857
sg23
V3211x
p858
sg25
I88
sg26
I20
sg27
I95
sasg70
(lp859
sssI1542468000
(dp860
g2
Vhttp://www.skyracing.com.au/index.php?component=racing&task=race&id=107992138&meetingid=106620818&Itemid=89
p861
sg4
V29013360.1520
p862
sg6
(dp863
g8
(lp864
(lp865
I6
aI3
aI2
aI5
aa(lp866
I4
aI6
aI7
aI1
aa(lp867
I4
aI6
aI7
aI5
aa(lp868
I2
aI6
aI1
aI3
aa(lp869
I6
aI4
aI1
aI5
aa(lp870
I6
aI3
aI2
aI5
aa(lp871
I1
aI6
aI2
aI5
aa(lp872
I6
aI4
aI2
aI3
aasg18
(lp873
(dp874
g21
VBEENO
p875
sg23
V33365
p876
sg25
I93
sg26
I1
sg27
I81
sa(dp877
g21
VVENDOR
p878
sg23
V0x62x
p879
sg25
I86
sg26
I2
sg27
I94
sa(dp880
g21
VRAVEN'S TOWER
p881
sg23
Vx79x3
p882
sg25
I82
sg26
I3
sg27
I95
sa(dp883
g21
VMELODY OF SCOTLAND
p884
sg23
V33260
p885
sg25
I78
sg26
I4
sg27
I80
sa(dp886
g21
VCORNBOROUGH
p887
sg23
V65312
p888
sg25
I95
sg26
I5
sg27
I85
sa(dp889
g21
VGOLDEN JEFFREY
p890
sg23
V69662
p891
sg25
I100
sg26
I6
sg27
I100
sa(dp892
g21
VDESERT ISLAND DUSK
p893
sg23
Vx3934
p894
sg25
I73
sg26
I7
sg27
I77
sasg70
(lp895
sssI1542466500
(dp896
g2
Vhttp://www.skyracing.com.au/index.php?component=racing&task=race&id=107992093&meetingid=106780475&Itemid=89
p897
sg4
V29013345.1455
p898
sg6
(dp899
g8
(lp900
(lp901
I2
aI3
aI4
aI1
aa(lp902
I4
aI5
aI2
aI1
aa(lp903
I4
aI2
aI3
aI8
aa(lp904
I4
aI2
aI1
aI8
aa(lp905
I4
aI2
aI8
aI5
aa(lp906
I4
aI2
aI3
aI8
aa(lp907
I1
aI2
aI4
aI3
aa(lp908
I4
aI2
aI3
aI8
aasg18
(lp909
(dp910
g21
VDUE REWARD
p911
sg23
V4119x
p912
sg25
I100
sg26
I1
sg27
I80
sa(dp913
g21
VPARIS TEXAS
p914
sg23
V32132
p915
sg25
I96
sg26
I2
sg27
I100
sa(dp916
g21
VSTAR MAKER
p917
sg23
Vx6619
p918
sg25
I88
sg26
I3
sg27
I95
sa(dp919
g21
VA PLACE APART
p920
sg23
V80211
p921
sg25
I90
sg26
I4
sg27
I85
sa(dp922
g21
VTHOMAS O'MALLEY
p923
sg23
V07005
p924
sg25
I78
sg26
I5
sg27
I66
sa(dp925
g21
VHOWLUCKYCANWEBE
p926
sg23
V9x79x
p927
sg25
I71
sg26
I6
sg27
I61
sa(dp928
g21
VPARTY PLAYBOY
p929
sg23
V0x766
p930
sg25
I77
sg26
I7
sg27
I69
sa(dp931
g21
VACCLAMATIO
p932
sg23
V28401
p933
sg25
I81
sg26
I8
sg27
I75
sasg70
(lp934
sssI1542457800
(dp935
g2
Vhttp://www.skyracing.com.au/index.php?component=racing&task=race&id=107992133&meetingid=106620818&Itemid=89
p936
sg4
V29013360.1230
p937
sg6
(dp938
g8
(lp939
(lp940
I2
aI10
aI12
aI3
aa(lp941
I2
aI3
aI12
aI8
aa(lp942
I10
aI2
aI6
aI11
aa(lp943
I3
aI2
aI12
aI8
aa(lp944
I12
aI3
aI2
aI8
aa(lp945
I2
aI10
aI12
aI3
aa(lp946
I2
aI10
aI5
aI12
aa(lp947
I2
aI12
aI3
aI10
aasg18
(lp948
(dp949
g21
VROO ROO
p950
sg23
V5415x
p951
sg25
I86
sg26
I1
sg27
I86
sa(dp952
g21
VSKIDOOSH
p953
sg23
V20x41
p954
sg25
I100
sg26
I2
sg27
I100
sa(dp955
g21
VCAPTAIN ZEBO
p956
sg23
V9x34x
p957
sg25
I88
sg26
I3
sg27
I92
sa(dp958
g21
VDEBROUILLARD
p959
sg23
V0x
p960
sg25
I71
sg26
I4
sg27
I71
sa(dp961
g21
VIWASTHEFUTUREONCE
p962
sg23
V2x01x
p963
sg25
I93
sg26
I5
sg27
I89
sa(dp964
g21
VLEODIS
p965
sg23
V1x538
p966
sg25
I78
sg26
I6
sg27
I80
sa(dp967
g21
VPLENEY
p968
sg23
V47x
p969
sg25
I73
sg26
I7
sg27
I74
sa(dp970
g21
VSCHIEHALLION MUNRO
p971
sg23
V4x3x
p972
sg25
I76
sg26
I8
sg27
I75
sa(dp973
g21
VSTRIPE OF HONOUR
p974
sg23
V89x9x
p975
sg25
I70
sg26
I9
sg27
I70
sa(dp976
g21
VTHELONGWAYAROUND
p977
sg23
V01x2
p978
sg25
I96
sg26
I10
sg27
I97
sa(dp979
g21
VBENE REGINA
p980
sg23
V113x4
p981
sg25
I82
sg26
I11
sg27
I78
sa(dp982
g21
VHIGHWAY GIRL
p983
sg23
V33x
p984
sg25
I90
sg26
I12
sg27
I94
sasg70
(lp985
sssI1542468300
(dp986
g2
Vhttp://www.skyracing.com.au/index.php?component=racing&task=race&id=107992094&meetingid=106780475&Itemid=89
p987
sg4
V29013345.1525
p988
sg6
(dp989
g8
(lp990
(lp991
I2
aI1
aI6
aI5
aa(lp992
I2
aI5
aI1
aI3
aa(lp993
I1
aI2
aI3
aI4
aa(lp994
I2
aI5
aI1
aI4
aa(lp995
I5
aI2
aI3
aI6
aa(lp996
I6
aI2
aI1
aI4
aa(lp997
I2
aI6
aI5
aI1
aa(lp998
I2
aI1
aI5
aI6
aasg18
(lp999
(dp1000
g21
VHAPPY LAD
p1001
sg23
V63x51
p1002
sg25
I89
sg26
I1
sg27
I98
sa(dp1003
g21
VREBEL OG
p1004
sg23
V1x
p1005
sg25
I100
sg26
I2
sg27
I100
sa(dp1006
g21
VTHE SHUNTER
p1007
sg23
V0373x
p1008
sg25
I78
sg26
I3
sg27
I75
sa(dp1009
g21
VWHO SAID THAT
p1010
sg23
V3x
p1011
sg25
I84
sg26
I4
sg27
I81
sa(dp1012
g21
VCHEAD SOLAS
p1013
sg23
V2x
p1014
sg25
I90
sg26
I5
sg27
I85
sa(dp1015
g21
VSOLDIER AT WAR
p1016
sg23
V2x
p1017
sg25
I96
sg26
I6
sg27
I90
sasg70
(lp1018
sssI1542459600
(dp1019
g2
Vhttp://www.skyracing.com.au/index.php?component=racing&task=race&id=107992120&meetingid=106620786&Itemid=89
p1020
sg4
V29011679.1300
p1021
sg6
(dp1022
g8
(lp1023
(lp1024
I6
aI9
aI2
aI5
aa(lp1025
I9
aI6
aI3
aI2
aa(lp1026
I9
aI6
aI4
aI5
aa(lp1027
I9
aI6
aI2
aI4
aa(lp1028
I9
aI6
aI1
aI2
aa(lp1029
I9
aI6
aI2
aI5
aa(lp1030
I6
aI9
aI2
aI1
aa(lp1031
I9
aI6
aI2
aI5
aasg18
(lp1032
(dp1033
g21
VALMOKHTAAR
p1034
sg23
g54
sg25
I88
sg26
I1
sg27
I0
sa(dp1035
g21
VBRAWNY
p1036
sg23
V57x
p1037
sg25
I92
sg26
I2
sg27
I90
sa(dp1038
g21
VCATCH THE CUBAN
p1039
sg23
V056x0
p1040
sg25
I80
sg26
I3
sg27
I79
sa(dp1041
g21
VDREAMWEAVER
p1042
sg23
V09
p1043
sg25
I75
sg26
I4
sg27
I78
sa(dp1044
g21
VHERMOCRATES
p1045
sg23
V99
p1046
sg25
I82
sg26
I5
sg27
I87
sa(dp1047
g21
VHUMANITARIAN
p1048
sg23
V2
p1049
sg25
I100
sg26
I6
sg27
I100
sa(dp1050
g21
VIL CAPITANO
p1051
sg23
V0
p1052
sg25
I63
sg26
I7
sg27
I69
sa(dp1053
g21
VLEE ROY
p1054
sg23
V80
p1055
sg25
I70
sg26
I8
sg27
I73
sa(dp1056
g21
VSASH
p1057
sg23
V2
p1058
sg25
I95
sg26
I9
sg27
I95
sa(dp1059
g21
VSUPREME CHANCE
p1060
sg23
V0
p1061
sg25
I60
sg26
I10
sg27
I62
sasg70
(lp1062
sssI1542468600
(dp1063
g2
Vhttp://www.skyracing.com.au/index.php?component=racing&task=race&id=107992153&meetingid=106620770&Itemid=89
p1064
sg4
V29011676.1530
p1065
sg6
(dp1066
g8
(lp1067
(lp1068
I1
aI10
aI14
aI3
aa(lp1069
I1
aI15
aI11
aI2
aa(lp1070
I14
aI2
aI4
aI5
aa(lp1071
I1
aI11
aI12
aI8
aa(lp1072
I1
aI11
aI8
aI14
aa(lp1073
I1
aI10
aI14
aI3
aa(lp1074
I1
aI10
aI6
aI14
aa(lp1075
I1
aI14
aI11
aI10
aasg18
(lp1076
(dp1077
g21
VWESTEND STORY
p1078
sg23
Vx121x
p1079
sg25
I100
sg26
I1
sg27
I100
sa(dp1080
g21
VPOINT OF PRINCIPLE
p1081
sg23
V175x2
p1082
sg25
I73
sg26
I2
sg27
I82
sa(dp1083
g21
VDELL ORO
p1084
sg23
V4x32x
p1085
sg25
I89
sg26
I3
sg27
I92
sa(dp1086
g21
VEQUUS MILLAR
p1087
sg23
V2x116
p1088
sg25
I79
sg26
I4
sg27
I73
sa(dp1089
g21
VSEROSEVSKY
p1090
sg23
V2x123
p1091
sg25
I80
sg26
I5
sg27
I77
sa(dp1092
g21
VLOUSE TALK
p1093
sg23
Vx110x
p1094
sg25
I93
sg26
I6
sg27
I78
sa(dp1095
g21
VLUNGARNO PALACE
p1096
sg23
V25x14
p1097
sg25
I68
sg26
I7
sg27
I65
sa(dp1098
g21
VLYGON ROCK
p1099
sg23
V331x2
p1100
sg25
I75
sg26
I8
sg27
I85
sa(dp1101
g21
VMELLOW BEN
p1102
sg23
V5x168
p1103
sg25
I64
sg26
I9
sg27
I70
sa(dp1104
g21
VAYE RIGHT
p1105
sg23
Vx2x11
p1106
sg25
I97
sg26
I10
sg27
I96
sa(dp1107
g21
VLE MUSEE
p1108
sg23
V2210x
p1109
sg25
I62
sg26
I11
sg27
I63
sa(dp1110
g21
VCHRISTMAS IN APRIL
p1111
sg23
Vx01x3
p1112
sg25
I84
sg26
I12
sg27
I88
sa(dp1113
g21
VMAHLERVOUS
p1114
sg23
V2720x
p1115
sg25
I61
sg26
I13
sg27
I61
sa(dp1116
g21
VSPEEDO BOY
p1117
sg23
V71356
p1118
sg25
I91
sg26
I14
sg27
I94
sa(dp1119
g21
VINTERNAL TRANSFER
p1120
sg23
V0x32x
p1121
sg25
I71
sg26
I15
sg27
I68
sasg70
(lp1122
sssI1542460500
(dp1123
g2
Vhttp://www.skyracing.com.au/index.php?component=racing&task=race&id=107992149&meetingid=106620770&Itemid=89
p1124
sg4
V29011676.1315
p1125
sg6
(dp1126
g8
(lp1127
(lp1128
I2
aI1
aI4
aI5
aa(lp1129
I2
aI1
aI6
aI4
aa(lp1130
I2
aI1
aI5
aI3
aa(lp1131
I2
aI1
aI6
aI4
aa(lp1132
I2
aI6
aI1
aI5
aa(lp1133
I1
aI2
aI4
aI3
aa(lp1134
I2
aI1
aI5
aI4
aa(lp1135
I2
aI1
aI6
aI4
aasg18
(lp1136
(dp1137
g21
VMINELLA AWARDS
p1138
sg23
Vx2x31
p1139
sg25
I95
sg26
I1
sg27
I94
sa(dp1140
g21
VTHE WORLDS END
p1141
sg23
V474x1
p1142
sg25
I100
sg26
I2
sg27
I100
sa(dp1143
g21
VBRYNMAWR
p1144
sg23
V8122x
p1145
sg25
I79
sg26
I3
sg27
I79
sa(dp1146
g21
VIBIS DU RHEU
p1147
sg23
Vx455x
p1148
sg25
I94
sg26
I4
sg27
I91
sa(dp1149
g21
VSHANNON BRIDGE
p1150
sg23
V280x3
p1151
sg25
I88
sg26
I5
sg27
I84
sa(dp1152
g21
VTHEATRE TERRITORY
p1153
sg23
V3233x
p1154
sg25
I82
sg26
I6
sg27
I76
sasg70
(lp1155
sssI1542462300
(dp1156
g2
Vhttp://www.skyracing.com.au/index.php?component=racing&task=race&id=107992091&meetingid=106780475&Itemid=89
p1157
sg4
V29013345.1345
p1158
sg6
(dp1159
g8
(lp1160
(lp1161
I3
aI4
aI1
aI8
aa(lp1162
I3
aI4
aI6
aI8
aa(lp1163
I4
aI1
aI6
aI8
aa(lp1164
I3
aI4
aI8
aI6
aa(lp1165
I3
aI4
aI1
aI8
aa(lp1166
I4
aI3
aI1
aI6
aa(lp1167
I3
aI4
aI2
aI1
aa(lp1168
I4
aI3
aI1
aI8
aasg18
(lp1169
(dp1170
g21
VBEGINAGAIN
p1171
sg23
V0
p1172
sg25
I85
sg26
I1
sg27
I81
sa(dp1173
g21
VCASTLE OLIVER
p1174
sg23
g54
sg25
I91
sg26
I2
sg27
I0
sa(dp1175
g21
VCOMMANDER OF FLEET
p1176
sg23
V11x
p1177
sg25
I100
sg26
I3
sg27
I100
sa(dp1178
g21
VKALUM RIVER
p1179
sg23
V1x22
p1180
sg25
I98
sg26
I4
sg27
I97
sa(dp1181
g21
VORGANISED SOLUTION
p1182
sg23
g54
sg25
I71
sg26
I5
sg27
I0
sa(dp1183
g21
VPINO BOY
p1184
sg23
V900
p1185
sg25
I74
sg26
I6
sg27
I72
sa(dp1186
g21
VGALBOYSTOWN ROSE
p1187
sg23
g54
sg25
I80
sg26
I7
sg27
I0
sa(dp1188
g21
VMISS CASSY
p1189
sg23
V000x0
p1190
sg25
I82
sg26
I8
sg27
I77
sasg70
(lp1191
sssI1542463200
(dp1192
g2
Vhttp://www.skyracing.com.au/index.php?component=racing&task=race&id=107992106&meetingid=106620802&Itemid=89
p1193
sg4
V29013363.1400
p1194
sg6
(dp1195
g8
(lp1196
(lp1197
I1
aI10
aI2
aI8
aa(lp1198
I7
aI1
aI10
aI2
aa(lp1199
I10
aI9
aI1
aI14
aa(lp1200
I1
aI7
aI5
aI2
aa(lp1201
I1
aI7
aI10
aI2
aa(lp1202
I2
aI1
aI10
aI8
aa(lp1203
I1
aI10
aI8
aI2
aa(lp1204
I1
aI10
aI7
aI2
aasg18
(lp1205
(dp1206
g21
VTOKAY DOKEY
p1207
sg23
V1x1
p1208
sg25
I100
sg26
I1
sg27
I100
sa(dp1209
g21
VARCTIC ROAD
p1210
sg23
V2312x
p1211
sg25
I92
sg26
I2
sg27
I94
sa(dp1212
g21
VBOY NAMED SIOUX
p1213
sg23
V7x38x
p1214
sg25
I79
sg26
I3
sg27
I78
sa(dp1215
g21
VBURNING BRIGHT
p1216
sg23
V9x
p1217
sg25
I63
sg26
I4
sg27
I62
sa(dp1218
g21
VCHEZ HANS
p1219
sg23
V7x
p1220
sg25
I87
sg26
I5
sg27
I87
sa(dp1221
g21
VI'M RUNNING LATE
p1222
sg23
Vx9828
p1223
sg25
I70
sg26
I6
sg27
I71
sa(dp1224
g21
VMID DAY GUN
p1225
sg23
V5x35
p1226
sg25
I73
sg26
I7
sg27
I77
sa(dp1227
g21
VPEEPING TOM
p1228
sg23
V981x
p1229
sg25
I93
sg26
I8
sg27
I90
sa(dp1230
g21
VRAISE YOUR SHADES
p1231
sg23
V3x67
p1232
sg25
I67
sg26
I9
sg27
I65
sa(dp1233
g21
VSPEED COMPANY
p1234
sg23
Vx5552
p1235
sg25
I97
sg26
I10
sg27
I99
sa(dp1236
g21
VSTAR OF RORY
p1237
sg23
V80x0x
p1238
sg25
I83
sg26
I11
sg27
I71
sa(dp1239
g21
VLADY OF DERRYGALLY
p1240
sg23
V2923x
p1241
sg25
I76
sg26
I12
sg27
I82
sa(dp1242
g21
VPRESENTING RIO
p1243
sg23
V5226x
p1244
sg25
I71
sg26
I13
sg27
I74
sa(dp1245
g21
VTIGERALLEY
p1246
sg23
Vx13x4
p1247
sg25
I85
sg26
I14
sg27
I86
sasg70
(lp1248
sssI1542469200
(dp1249
g2
Vhttp://www.skyracing.com.au/index.php?component=racing&task=race&id=107992109&meetingid=106620802&Itemid=89
p1250
sg4
V29013363.1540
p1251
sg6
(dp1252
g8
(lp1253
(lp1254
I8
aI7
aI13
aI3
aa(lp1255
I3
aI8
aI7
aI4
aa(lp1256
I8
aI14
aI1
aI2
aa(lp1257
I3
aI4
aI8
aI14
aa(lp1258
I14
aI8
aI3
aI7
aa(lp1259
I7
aI8
aI13
aI3
aa(lp1260
I7
aI8
aI13
aI5
aa(lp1261
I8
aI3
aI7
aI14
aasg18
(lp1262
(dp1263
g21
VDARLING ALKO
p1264
sg23
V1x9x
p1265
sg25
I82
sg26
I1
sg27
I77
sa(dp1266
g21
VCALL ME TJ
p1267
sg23
g54
sg25
I62
sg26
I2
sg27
I0
sa(dp1268
g21
VCOSHESTON
p1269
sg23
V3x
p1270
sg25
I86
sg26
I3
sg27
I85
sa(dp1271
g21
VEURKASH
p1272
sg23
V74x
p1273
sg25
I77
sg26
I4
sg27
I74
sa(dp1274
g21
VHELFORD RIVER
p1275
sg23
g54
sg25
I91
sg26
I5
sg27
I0
sa(dp1276
g21
VIFYOUCANSEEMENOW
p1277
sg23
g54
sg25
I69
sg26
I6
sg27
I0
sa(dp1278
g21
VKENSUKES KINGDOM
p1279
sg23
Vx1x1x
p1280
sg25
I100
sg26
I7
sg27
I94
sa(dp1281
g21
VLIOSDUIN BHEARNA
p1282
sg23
V3x2x2
p1283
sg25
I99
sg26
I8
sg27
I100
sa(dp1284
g21
VNORTH STAR OSCAR
p1285
sg23
g54
sg25
I89
sg26
I9
sg27
I0
sa(dp1286
g21
VOSCAR MAGUIRE
p1287
sg23
g54
sg25
I70
sg26
I10
sg27
I0
sa(dp1288
g21
VOUR IDIC BOY
p1289
sg23
g54
sg25
I65
sg26
I11
sg27
I0
sa(dp1290
g21
VTHE MACON LUGNATIC
p1291
sg23
g54
sg25
I74
sg26
I12
sg27
I0
sa(dp1292
g21
VUMBRIGADO
p1293
sg23
V2x
p1294
sg25
I95
sg26
I13
sg27
I89
sa(dp1295
g21
VVOILA ERIC
p1296
sg23
V2x6x3
p1297
sg25
I78
sg26
I14
sg27
I80
sasg70
(lp1298
sssI1542464100
(dp1299
g2
Vhttp://www.skyracing.com.au/index.php?component=racing&task=race&id=107992136&meetingid=106620818&Itemid=89
p1300
sg4
V29013360.1415
p1301
sg6
(dp1302
g8
(lp1303
(lp1304
I5
aI4
aI6
aI2
aa(lp1305
I1
aI4
aI5
aI2
aa(lp1306
I5
aI2
aI1
aI3
aa(lp1307
I1
aI3
aI6
aI4
aa(lp1308
I6
aI5
aI1
aI4
aa(lp1309
I4
aI5
aI6
aI2
aa(lp1310
I4
aI5
aI6
aI1
aa(lp1311
I5
aI4
aI6
aI1
aasg18
(lp1312
(dp1313
g21
VPAIN AU CHOCOLAT
p1314
sg23
V5120x
p1315
sg25
I84
sg26
I1
sg27
I75
sa(dp1316
g21
VLOFGREN
p1317
sg23
V21714
p1318
sg25
I87
sg26
I2
sg27
I81
sa(dp1319
g21
VWESTERN MILLER
p1320
sg23
V4x02x
p1321
sg25
I78
sg26
I3
sg27
I78
sa(dp1322
g21
VCATAMARAN DU SEUIL
p1323
sg23
V1421x
p1324
sg25
I100
sg26
I4
sg27
I93
sa(dp1325
g21
VCRACKING FIND
p1326
sg23
V63x23
p1327
sg25
I96
sg26
I5
sg27
I100
sa(dp1328
g21
VBORDEAUX BILL
p1329
sg23
V1x16x
p1330
sg25
I92
sg26
I6
sg27
I87
sasg70
(lp1331
sssI1542459900
(dp1332
g2
Vhttp://www.skyracing.com.au/index.php?component=racing&task=race&id=107992134&meetingid=106620818&Itemid=89
p1333
sg4
V29013360.1305
p1334
sg6
(dp1335
g8
(lp1336
(lp1337
I1
aI2
aI6
aI5
aa(lp1338
I1
aI3
aI4
aI2
aa(lp1339
I1
aI6
aI2
aI5
aa(lp1340
I1
aI3
aI4
aI2
aa(lp1341
I1
aI7
aI3
aI4
aa(lp1342
I1
aI2
aI6
aI5
aa(lp1343
I7
aI1
aI2
aI4
aa(lp1344
I1
aI2
aI3
aI6
aasg18
(lp1345
(dp1346
g21
VMILES TO MILAN
p1347
sg23
Vx1x43
p1348
sg25
I100
sg26
I1
sg27
I100
sa(dp1349
g21
VCHEBSEY BEAU
p1350
sg23
V25107
p1351
sg25
I99
sg26
I2
sg27
I98
sa(dp1352
g21
VCAPTAIN MOWBRAY
p1353
sg23
V318x6
p1354
sg25
I75
sg26
I3
sg27
I79
sa(dp1355
g21
VBRIGHT PROSPECT
p1356
sg23
V1x5x5
p1357
sg25
I87
sg26
I4
sg27
I82
sa(dp1358
g21
VLOUGH SALT
p1359
sg23
V72644
p1360
sg25
I78
sg26
I5
sg27
I87
sa(dp1361
g21
VBAFANA BLUE
p1362
sg23
V64x15
p1363
sg25
I82
sg26
I6
sg27
I93
sa(dp1364
g21
VKNOCKNAMONA
p1365
sg23
V146x4
p1366
sg25
I94
sg26
I7
sg27
I77
sasg70
(lp1367
sssI1542465900
(dp1368
g2
Vhttp://www.skyracing.com.au/index.php?component=racing&task=race&id=107992123&meetingid=106620786&Itemid=89
p1369
sg4
V29011679.1445
p1370
sg6
(dp1371
g8
(lp1372
(lp1373
I1
aI2
aI7
aI6
aa(lp1374
I1
aI8
aI2
aI4
aa(lp1375
I7
aI5
aI2
aI9
aa(lp1376
I1
aI8
aI2
aI7
aa(lp1377
I1
aI2
aI7
aI8
aa(lp1378
I2
aI1
aI7
aI6
aa(lp1379
I1
aI2
aI6
aI7
aa(lp1380
I1
aI2
aI7
aI8
aasg18
(lp1381
(dp1382
g21
VADDEYBB
p1383
sg23
V118x0
p1384
sg25
I100
sg26
I1
sg27
I100
sa(dp1385
g21
VBIG COUNTRY
p1386
sg23
V03135
p1387
sg25
I98
sg26
I2
sg27
I95
sa(dp1388
g21
VFRANKUUS
p1389
sg23
V6x7x4
p1390
sg25
I70
sg26
I3
sg27
I62
sa(dp1391
g21
VMASTER THE WORLD
p1392
sg23
V00460
p1393
sg25
I74
sg26
I4
sg27
I77
sa(dp1394
g21
VMAVERICK WAVE
p1395
sg23
Vx8x83
p1396
sg25
I78
sg26
I5
sg27
I71
sa(dp1397
g21
VPRIMERO
p1398
sg23
V52x01
p1399
sg25
I92
sg26
I6
sg27
I83
sa(dp1400
g21
VSCARLET DRAGON
p1401
sg23
V930x3
p1402
sg25
I88
sg26
I7
sg27
I88
sa(dp1403
g21
VSPARK PLUG
p1404
sg23
V3727x
p1405
sg25
I84
sg26
I8
sg27
I82
sa(dp1406
g21
VSNOWFLAKES
p1407
sg23
V19790
p1408
sg25
I64
sg26
I9
sg27
I67
sasg70
(lp1409
sssI1542466800
(dp1410
g2
Vhttp://www.skyracing.com.au/index.php?component=racing&task=race&id=107992152&meetingid=106620770&Itemid=89
p1411
sg4
V29011676.1500
p1412
sg6
(dp1413
g8
(lp1414
(lp1415
I7
aI6
aI2
aI4
aa(lp1416
I3
aI1
aI2
aI10
aa(lp1417
I1
aI9
aI7
aI10
aa(lp1418
I3
aI1
aI4
aI2
aa(lp1419
I2
aI10
aI7
aI6
aa(lp1420
I2
aI7
aI4
aI6
aa(lp1421
I3
aI7
aI2
aI6
aa(lp1422
I2
aI7
aI1
aI3
aasg18
(lp1423
(dp1424
g21
VDELL' ARCA
p1425
sg23
V11548
p1426
sg25
I79
sg26
I1
sg27
I72
sa(dp1427
g21
VBOYHOOD
p1428
sg23
Vx141x
p1429
sg25
I95
sg26
I2
sg27
I88
sa(dp1430
g21
VVIEUX LION ROUGE
p1431
sg23
V7x49x
p1432
sg25
I88
sg26
I3
sg27
I76
sa(dp1433
g21
VTHE EAGLEHASLANDED
p1434
sg23
V6x8x0
p1435
sg25
I91
sg26
I4
sg27
I83
sa(dp1436
g21
VGOODBYE DANCER
p1437
sg23
V081x0
p1438
sg25
I82
sg26
I5
sg27
I77
sa(dp1439
g21
VWEEBILL
p1440
sg23
V2121x
p1441
sg25
I99
sg26
I6
sg27
I97
sa(dp1442
g21
VFIRST ASSIGNMENT
p1443
sg23
V413x1
p1444
sg25
I100
sg26
I7
sg27
I100
sa(dp1445
g21
VMASTER DANCER
p1446
sg23
V7x9x0
p1447
sg25
I74
sg26
I8
sg27
I66
sa(dp1448
g21
VANTEROS
p1449
sg23
V56x34
p1450
sg25
I86
sg26
I9
sg27
I80
sa(dp1451
g21
VBUCKLE STREET
p1452
sg23
Vx7546
p1453
sg25
I70
sg26
I10
sg27
I65
sa(dp1454
g21
VSWEET HOME CHICAGO
p1455
sg23
V04511
p1456
sg25
I76
sg26
I11
sg27
I69
sasg70
(lp1457
sssI1542469800
(dp1458
g2
Vhttp://www.skyracing.com.au/index.php?component=racing&task=race&id=107992139&meetingid=106620818&Itemid=89
p1459
sg4
V29013360.1550
p1460
sg6
(dp1461
g8
(lp1462
(lp1463
I1
aI2
aa(lp1464
I1
aI2
aa(lp1465
I1
aI2
aa(lp1466
I1
aI2
aa(lp1467
I1
aI2
aa(lp1468
I1
aI2
aa(lp1469
I1
aI2
aa(lp1470
I1
aI2
aasg18
(lp1471
(dp1472
g21
VHAWK HIGH
p1473
sg23
V088x3
p1474
sg25
I100
sg26
I1
sg27
I100
sa(dp1475
g21
VRAVENHILL ROAD
p1476
sg23
V1x36x
p1477
sg25
I99
sg26
I2
sg27
I95
sasg70
(lp1478
sssI1542467700
(dp1479
g2
Vhttp://www.skyracing.com.au/index.php?component=racing&task=race&id=107992124&meetingid=106620786&Itemid=89
p1480
sg4
V29011679.1515
p1481
sg6
(dp1482
g8
(lp1483
(lp1484
I7
aI5
aI3
aI10
aa(lp1485
I7
aI1
aI10
aI8
aa(lp1486
I2
aI9
aI11
aI8
aa(lp1487
I7
aI1
aI10
aI3
aa(lp1488
I10
aI7
aI2
aI12
aa(lp1489
I3
aI7
aI10
aI5
aa(lp1490
I7
aI5
aI3
aI6
aa(lp1491
I7
aI10
aI3
aI2
aasg18
(lp1492
(dp1493
g21
VABOVE THE REST
p1494
sg23
V1165x
p1495
sg25
I77
sg26
I1
sg27
I75
sa(dp1496
g21
VKIMBERELLA
p1497
sg23
V03735
p1498
sg25
I73
sg26
I2
sg27
I72
sa(dp1499
g21
VMUTHMIR
p1500
sg23
V23330
p1501
sg25
I94
sg26
I3
sg27
I90
sa(dp1502
g21
VATLETICO
p1503
sg23
V900x0
p1504
sg25
I68
sg26
I4
sg27
I66
sa(dp1505
g21
VCORINTHIA KNIGHT
p1506
sg23
V99423
p1507
sg25
I97
sg26
I5
sg27
I97
sa(dp1508
g21
VENCRYPTED
p1509
sg23
V00128
p1510
sg25
I88
sg26
I6
sg27
I76
sa(dp1511
g21
VGIFTED MASTER
p1512
sg23
V4015x
p1513
sg25
I100
sg26
I7
sg27
I100
sa(dp1514
g21
VGRACIOUS JOHN
p1515
sg23
V20774
p1516
sg25
I78
sg26
I8
sg27
I70
sa(dp1517
g21
VGULLIVER
p1518
sg23
V8x360
p1519
sg25
I71
sg26
I9
sg27
I68
sa(dp1520
g21
VINTISAAB
p1521
sg23
V0731x
p1522
sg25
I90
sg26
I10
sg27
I88
sa(dp1523
g21
VMYTHMAKER
p1524
sg23
V16245
p1525
sg25
I84
sg26
I11
sg27
I83
sa(dp1526
g21
VCOULD IT BE LOVE
p1527
sg23
V20320
p1528
sg25
I80
sg26
I12
sg27
I82
sasg70
(lp1529
sssI1542459000
(dp1530
g2
Vhttp://www.skyracing.com.au/index.php?component=racing&task=race&id=107992104&meetingid=106620802&Itemid=89
p1531
sg4
V29013363.1250
p1532
sg6
(dp1533
g8
(lp1534
(lp1535
I3
aI13
aI17
aI10
aa(lp1536
I13
aI11
aI17
aI3
aa(lp1537
I14
aI9
aI2
aI7
aa(lp1538
I13
aI11
aI17
aI4
aa(lp1539
I17
aI10
aI13
aI3
aa(lp1540
I3
aI13
aI17
aI10
aa(lp1541
I3
aI14
aI13
aI17
aa(lp1542
I13
aI17
aI3
aI11
aasg18
(lp1543
(dp1544
g21
VAMATEUR
p1545
sg23
V2310x
p1546
sg25
I79
sg26
I1
sg27
I69
sa(dp1547
g21
VARTHUR'S SIXPENCE
p1548
sg23
V12x4
p1549
sg25
I86
sg26
I2
sg27
I64
sa(dp1550
g21
VBEAKSTOWN
p1551
sg23
V1x2x
p1552
sg25
I100
sg26
I3
sg27
I100
sa(dp1553
g21
VBOOK DIRECT
p1554
sg23
V22x7x
p1555
sg25
I66
sg26
I4
sg27
I70
sa(dp1556
g21
VDANCING DOUG
p1557
sg23
V322x6
p1558
sg25
I89
sg26
I5
sg27
I90
sa(dp1559
g21
VGALLOWS POINT
p1560
sg23
V6x
p1561
sg25
I72
sg26
I6
sg27
I79
sa(dp1562
g21
VGOODTHYNEAWAY
p1563
sg23
V474x4
p1564
sg25
I68
sg26
I7
sg27
I74
sa(dp1565
g21
VIWILLDOIT
p1566
sg23
V5x53x
p1567
sg25
I62
sg26
I8
sg27
I62
sa(dp1568
g21
VJUSTTHEGREY
p1569
sg23
V5x2
p1570
sg25
I65
sg26
I9
sg27
I66
sa(dp1571
g21
VLEGAL EYES
p1572
sg23
V2x2x
p1573
sg25
I91
sg26
I10
sg27
I93
sa(dp1574
g21
VLORD DU MESNIL
p1575
sg23
Vx3x00
p1576
sg25
I73
sg26
I11
sg27
I81
sa(dp1577
g21
VMISTERCOBAR
p1578
sg23
V2112x
p1579
sg25
I81
sg26
I12
sg27
I85
sa(dp1580
g21
VMOUNT RUSHMOORE
p1581
sg23
V3224x
p1582
sg25
I98
sg26
I13
sg27
I99
sa(dp1583
g21
VNINTH WAVE
p1584
sg23
V1x4
p1585
sg25
I96
sg26
I14
sg27
I77
sa(dp1586
g21
VSAM CHISOLM
p1587
sg23
Vx6x4x
p1588
sg25
I61
sg26
I15
sg27
I61
sa(dp1589
g21
VSOUTHERN SAM
p1590
sg23
V2x
p1591
sg25
I83
sg26
I16
sg27
I89
sa(dp1592
g21
VYOUNG WOLF
p1593
sg23
V2x
p1594
sg25
I94
sg26
I17
sg27
I95
sa(dp1595
g21
VSEE FOREVER
p1596
sg23
V2x
p1597
sg25
I76
sg26
I18
sg27
I86
sasg70
(lp1598
sssI1542465300
(dp1599
g2
Vhttp://www.skyracing.com.au/index.php?component=racing&task=race&id=107992107&meetingid=106620802&Itemid=89
p1600
sg4
V29013363.1435
p1601
sg6
(dp1602
g8
(lp1603
(lp1604
I1
aI2
aI5
aI4
aa(lp1605
I2
aI1
aI5
aI4
aa(lp1606
I2
aI1
aI5
aI3
aa(lp1607
I2
aI1
aI5
aI4
aa(lp1608
I2
aI5
aI1
aI4
aa(lp1609
I1
aI2
aI5
aI4
aa(lp1610
I4
aI1
aI2
aI3
aa(lp1611
I2
aI1
aI5
aI4
aasg18
(lp1612
(dp1613
g21
VMOLLY THE DOLLY
p1614
sg23
V422x1
p1615
sg25
I100
sg26
I1
sg27
I100
sa(dp1616
g21
VTREACKLE TART
p1617
sg23
V23x12
p1618
sg25
I93
sg26
I2
sg27
I96
sa(dp1619
g21
VCARNSPINDLE
p1620
sg23
V3185x
p1621
sg25
I81
sg26
I3
sg27
I82
sa(dp1622
g21
VMIDNIGHT TUNE
p1623
sg23
V1410x
p1624
sg25
I97
sg26
I4
sg27
I85
sa(dp1625
g21
VMOLLY CHILDERS
p1626
sg23
V22x22
p1627
sg25
I87
sg26
I5
sg27
I91
sasg70
(lp1628
sssI1542469500
(dp1629
g2
Vhttp://www.skyracing.com.au/index.php?component=racing&task=race&id=107992125&meetingid=106620786&Itemid=89
p1630
sg4
V29011679.1545
p1631
sg6
(dp1632
g8
(lp1633
(lp1634
I9
aI4
aI2
aI7
aa(lp1635
I2
aI1
aI4
aI5
aa(lp1636
I5
aI3
aI7
aI9
aa(lp1637
I1
aI9
aI5
aI8
aa(lp1638
I2
aI7
aI1
aI4
aa(lp1639
I4
aI9
aI7
aI13
aa(lp1640
I9
aI4
aI3
aI1
aa(lp1641
I9
aI2
aI4
aI1
aasg18
(lp1642
(dp1643
g21
VLUNA MAGIC
p1644
sg23
V42700
p1645
sg25
I90
sg26
I1
sg27
I75
sa(dp1646
g21
VPRAIRIE TOWN
p1647
sg23
V123x5
p1648
sg25
I93
sg26
I2
sg27
I94
sa(dp1649
g21
VDELIRIUM
p1650
sg23
V36250
p1651
sg25
I96
sg26
I3
sg27
I77
sa(dp1652
g21
VFULL SUIT
p1653
sg23
V1534x
p1654
sg25
I100
sg26
I4
sg27
I97
sa(dp1655
g21
VDELICATE KISS
p1656
sg23
V80359
p1657
sg25
I66
sg26
I5
sg27
I65
sa(dp1658
g21
VWALLY'S WISDOM
p1659
sg23
Vx415x
p1660
sg25
I78
sg26
I6
sg27
I84
sa(dp1661
g21
VTAUREAN DANCER
p1662
sg23
V44648
p1663
sg25
I89
sg26
I7
sg27
I92
sa(dp1664
g21
VVANITY VANITY
p1665
sg23
V25669
p1666
sg25
I70
sg26
I8
sg27
I72
sa(dp1667
g21
VCAT ROYALE
p1668
sg23
V35143
p1669
sg25
I99
sg26
I9
sg27
I100
sa(dp1670
g21
VARIA ROSE
p1671
sg23
V6796
p1672
sg25
I68
sg26
I10
sg27
I70
sa(dp1673
g21
VCASA COMIGO
p1674
sg23
Vx0x08
p1675
sg25
I77
sg26
I11
sg27
I83
sa(dp1676
g21
VHARRY CALLAHAN
p1677
sg23
V970x8
p1678
sg25
I86
sg26
I12
sg27
I89
sa(dp1679
g21
VYOUR BAND
p1680
sg23
V0x96
p1681
sg25
I80
sg26
I13
sg27
I86
sa(dp1682
g21
VHALLINGHAM
p1683
sg23
V53044
p1684
sg25
I74
sg26
I14
sg27
I80
sa(dp1685
g21
VZARRAR
p1686
sg23
V38580
p1687
sg25
I84
sg26
I15
sg27
I63
sa(dp1688
g21
VBANTA BAY
p1689
sg23
V0x570
p1690
sg25
I65
sg26
I16
sg27
I66
sasg70
(lp1691
sss.