(dp0
I1542211200
(dp1
S'skyracing_url'
p2
Vhttp://www.skyracing.com.au/index.php?component=racing&task=race&id=107834189&meetingid=106613526&Itemid=89
p3
sS'betfair_raceid'
p4
V29008506.1600
p5
sS'dat2'
p6
(dp7
S'ratings_auto'
p8
(lp9
(lp10
I8
aI3
aI9
aI5
aa(lp11
I3
aI9
aI8
aI4
aa(lp12
I3
aI9
aI8
aI4
aa(lp13
I3
aI4
aI9
aI8
aa(lp14
I3
aI9
aI8
aI7
aa(lp15
I3
aI9
aI8
aI5
aa(lp16
I3
aI8
aI9
aI2
aa(lp17
I3
aI9
aI8
aI4
aasS'horse_details'
p18
(lp19
(dp20
S'horse_name'
p21
VALLNITE
p22
sS'horse_form'
p23
V29896
p24
sS'rating_2'
p25
I63
sS'horse_number'
p26
I1
sS'rating_1'
p27
I59
sa(dp28
g21
VBARNAY
p29
sg23
V42100
p30
sg25
I89
sg26
I2
sg27
I73
sa(dp31
g21
VBOLD REASON
p32
sg23
V309x3
p33
sg25
I100
sg26
I3
sg27
I90
sa(dp34
g21
VDON'T CRY ABOUT IT
p35
sg23
V286x4
p36
sg25
I69
sg26
I4
sg27
I66
sa(dp37
g21
VFRENCH KISS
p38
sg23
Vx0908
p39
sg25
I82
sg26
I5
sg27
I80
sa(dp40
g21
VGLENPARK
p41
sg23
V4
p42
sg25
I79
sg26
I6
sg27
I76
sa(dp43
g21
VGOOD IMPRESSION
p44
sg23
V67662
p45
sg25
I75
sg26
I7
sg27
I69
sa(dp46
g21
VNEBUCHADNEZZAR
p47
sg23
Vx43x4
p48
sg25
I96
sg26
I8
sg27
I100
sa(dp49
g21
VNELSON RIVER
p50
sg23
V7x912
p51
sg25
I91
sg26
I9
sg27
I88
sasS'ratings_manual'
p52
(lp53
sssI1542212100
(dp54
g2
Vhttp://www.skyracing.com.au/index.php?component=racing&task=race&id=107834204&meetingid=106613542&Itemid=89
p55
sg4
V29008508.1615
p56
sg6
(dp57
g8
(lp58
(lp59
I4
aI1
aI5
aI10
aa(lp60
I1
aI6
aI3
aI11
aa(lp61
I11
aI1
aI2
aI3
aa(lp62
I6
aI1
aI11
aI3
aa(lp63
I3
aI1
aI8
aI11
aa(lp64
I1
aI4
aI10
aI14
aa(lp65
I1
aI4
aI10
aI5
aa(lp66
I1
aI11
aI4
aI6
aasg18
(lp67
(dp68
g21
VALSA MIX
p69
sg23
V1x1x
p70
sg25
I100
sg26
I1
sg27
I96
sa(dp71
g21
VBALLYBOUGH NORA
p72
sg23
V41x
p73
sg25
I78
sg26
I2
sg27
I69
sa(dp74
g21
VEVERLANES
p75
sg23
V5x44x
p76
sg25
I75
sg26
I3
sg27
I76
sa(dp77
g21
VEVIDENCE DE THAIX
p78
sg23
V211x
p79
sg25
I99
sg26
I4
sg27
I100
sa(dp80
g21
VEXECUTIVE CAPILANO
p81
sg23
V41x
p82
sg25
I91
sg26
I5
sg27
I92
sa(dp83
g21
VMALACHYS GIRL
p84
sg23
V21x5x
p85
sg25
I80
sg26
I6
sg27
I82
sa(dp86
g21
VMISS ROCHER
p87
sg23
V8x
p88
sg25
I67
sg26
I7
sg27
I60
sa(dp89
g21
VMRS MIGGINS
p90
sg23
V3x83x
p91
sg25
I71
sg26
I8
sg27
I73
sa(dp92
g21
VSIENNA ROYALE
p93
sg23
V74x
p94
sg25
I69
sg26
I9
sg27
I67
sa(dp95
g21
VSORAYA
p96
sg23
V1x
p97
sg25
I93
sg26
I10
sg27
I89
sa(dp98
g21
VSWEET ADARE
p99
sg23
V41x7
p100
sg25
I74
sg26
I11
sg27
I72
sa(dp101
g21
VTHEATRE MIX
p102
sg23
V467x
p103
sg25
I62
sg26
I12
sg27
I62
sa(dp104
g21
VURCA DE LIMA
p105
sg23
V1x85x
p106
sg25
I84
sg26
I13
sg27
I78
sa(dp107
g21
VVIVA VITTORIA
p108
sg23
V2x
p109
sg25
I87
sg26
I14
sg27
I85
sasg52
(lp110
sssI1542213000
(dp111
g2
Vhttp://www.skyracing.com.au/index.php?component=racing&task=race&id=107834273&meetingid=106613558&Itemid=89
p112
sg4
V29007179.1630
p113
sg6
(dp114
g8
(lp115
(lp116
I3
aI5
aI1
aI11
aa(lp117
I5
aI1
aI4
aI6
aa(lp118
I3
aI12
aI11
aI9
aa(lp119
I14
aI8
aI6
aI10
aa(lp120
I4
aI11
aI8
aI6
aa(lp121
I5
aI3
aI1
aI11
aa(lp122
I1
aI4
aI3
aI11
aa(lp123
I3
aI5
aI1
aI11
aasg18
(lp124
(dp125
g21
VLUXFORD
p126
sg23
V0x598
p127
sg25
I100
sg26
I1
sg27
I93
sa(dp128
g21
VFREDDY WITH A Y
p129
sg23
V3069x
p130
sg25
I80
sg26
I2
sg27
I80
sa(dp131
g21
VRIGHTWAY
p132
sg23
V770x3
p133
sg25
I96
sg26
I3
sg27
I100
sa(dp134
g21
VHIDDEN STASH
p135
sg23
V03208
p136
sg25
I95
sg26
I4
sg27
I76
sa(dp137
g21
VBLOODSWEATANDTEARS
p138
sg23
V238x8
p139
sg25
I87
sg26
I5
sg27
I96
sa(dp140
g21
VCOOKIE RING
p141
sg23
V85x06
p142
sg25
I76
sg26
I6
sg27
I72
sa(dp143
g21
VLA MERNANCIA
p144
sg23
V64900
p145
sg25
I71
sg26
I7
sg27
I73
sa(dp146
g21
VHURRICANE LIL
p147
sg23
V37x80
p148
sg25
I74
sg26
I8
sg27
I78
sa(dp149
g21
VAINNE
p150
sg23
V30545
p151
sg25
I78
sg26
I9
sg27
I88
sa(dp152
g21
VHOLLYWOOD DREAM
p153
sg23
V09x05
p154
sg25
I68
sg26
I10
sg27
I69
sa(dp155
g21
VERTIDAAD
p156
sg23
Vx0935
p157
sg25
I91
sg26
I11
sg27
I90
sa(dp158
g21
VALTAIRA
p159
sg23
V51337
p160
sg25
I85
sg26
I12
sg27
I84
sa(dp161
g21
VTAKIAH
p162
sg23
V64676
p163
sg25
I67
sg26
I13
sg27
I66
sa(dp164
g21
VIT'S HOW WE ROLL
p165
sg23
Vx070x
p166
sg25
I62
sg26
I14
sg27
I63
sasg52
(lp167
sssI1542197100
(dp168
g2
Vhttp://www.skyracing.com.au/index.php?component=racing&task=race&id=107834213&meetingid=106613510&Itemid=89
p169
sg4
V29008547.1205
p170
sg6
(dp171
g8
(lp172
(lp173
I6
aI1
aI12
aI13
aa(lp174
I5
aI11
aI1
aI7
aa(lp175
I6
aI2
aI12
aI11
aa(lp176
I5
aI3
aI1
aI9
aa(lp177
I2
aI1
aI6
aI12
aa(lp178
I1
aI6
aI12
aI13
aa(lp179
I1
aI12
aI2
aI6
aa(lp180
I1
aI6
aI5
aI12
aasg18
(lp181
(dp182
g21
VJUST BOBBY
p183
sg23
V63x1x
p184
sg25
I100
sg26
I1
sg27
I94
sa(dp185
g21
VASK THE TYCOON
p186
sg23
V345x5
p187
sg25
I92
sg26
I2
sg27
I81
sa(dp188
g21
VANOTHER MATTIE
p189
sg23
V7433x
p190
sg25
I87
sg26
I3
sg27
I83
sa(dp191
g21
VMINSTREL ROYAL
p192
sg23
V5x0x9
p193
sg25
I69
sg26
I4
sg27
I63
sa(dp194
g21
VKILLER CROW
p195
sg23
V233x0
p196
sg25
I79
sg26
I5
sg27
I67
sa(dp197
g21
VCOLD SHOULDER
p198
sg23
V4x681
p199
sg25
I98
sg26
I6
sg27
I100
sa(dp200
g21
VSUNNY DESTINATION
p201
sg23
V54x2x
p202
sg25
I73
sg26
I7
sg27
I72
sa(dp203
g21
VPORTO DU SUD
p204
sg23
Vx706x
p205
sg25
I63
sg26
I8
sg27
I57
sa(dp206
g21
VKALAHARRY
p207
sg23
V0631x
p208
sg25
I83
sg26
I9
sg27
I74
sa(dp209
g21
VDULCE PANEM
p210
sg23
V260x0
p211
sg25
I70
sg26
I10
sg27
I69
sa(dp212
g21
VGLINGERSIDE
p213
sg23
Vx53x4
p214
sg25
I77
sg26
I11
sg27
I78
sa(dp215
g21
VGREEN ZONE
p216
sg23
V14432
p217
sg25
I94
sg26
I12
sg27
I89
sa(dp218
g21
VLASTIN' MEMORIES
p219
sg23
V5262x
p220
sg25
I85
sg26
I13
sg27
I87
sa(dp221
g21
VHEATHER BURNING
p222
sg23
V9906x
p223
sg25
I66
sg26
I14
sg27
I62
sa(dp224
g21
VCRUACHAN
p225
sg23
Vx8408
p226
sg25
I61
sg26
I15
sg27
I56
sasg52
(lp227
sssI1542204300
(dp228
g2
Vhttp://www.skyracing.com.au/index.php?component=racing&task=race&id=107834200&meetingid=106613542&Itemid=89
p229
sg4
V29008508.1405
p230
sg6
(dp231
g8
(lp232
(lp233
I2
aI12
aI1
aI6
aa(lp234
I1
aI4
aI2
aI6
aa(lp235
I2
aI10
aI12
aI8
aa(lp236
I4
aI2
aI1
aI6
aa(lp237
I1
aI12
aI5
aI6
aa(lp238
I1
aI12
aI2
aI6
aa(lp239
I12
aI6
aI1
aI2
aa(lp240
I1
aI2
aI12
aI4
aasg18
(lp241
(dp242
g21
VBEARS RAILS
p243
sg23
V5641x
p244
sg25
I96
sg26
I1
sg27
I92
sa(dp245
g21
VCORNISH WARRIOR
p246
sg23
V1x310
p247
sg25
I93
sg26
I2
sg27
I100
sa(dp248
g21
VCABRAGH
p249
sg23
V3x68x
p250
sg25
I84
sg26
I3
sg27
I85
sa(dp251
g21
VGORSKY ISLAND
p252
sg23
V5244x
p253
sg25
I77
sg26
I4
sg27
I76
sa(dp254
g21
VMRSROBIN
p255
sg23
Vx110x
p256
sg25
I80
sg26
I5
sg27
I77
sa(dp257
g21
VSONOFTHEKING
p258
sg23
V2x44x
p259
sg25
I91
sg26
I6
sg27
I89
sa(dp260
g21
VUMBERTO D'OLIVATE
p261
sg23
V00x3x
p262
sg25
I88
sg26
I7
sg27
I68
sa(dp263
g21
VSARTORIAL ELEGANCE
p264
sg23
V843x5
p265
sg25
I78
sg26
I8
sg27
I82
sa(dp266
g21
VPINK GIN
p267
sg23
Vx795x
p268
sg25
I73
sg26
I9
sg27
I73
sa(dp269
g21
VONLY GORGEOUS
p270
sg23
V3x6x5
p271
sg25
I70
sg26
I10
sg27
I68
sa(dp272
g21
VHELUVAGOOD
p273
sg23
V28x93
p274
sg25
I70
sg26
I11
sg27
I71
sa(dp275
g21
VREDMOND
p276
sg23
V133x3
p277
sg25
I100
sg26
I12
sg27
I96
sasg52
(lp278
sssI1542206100
(dp279
g2
Vhttp://www.skyracing.com.au/index.php?component=racing&task=race&id=107834201&meetingid=106613542&Itemid=89
p280
sg4
V29008508.1435
p281
sg6
(dp282
g8
(lp283
(lp284
I3
aI2
aI9
aI8
aa(lp285
I1
aI3
aI4
aI12
aa(lp286
I3
aI13
aI9
aI4
aa(lp287
I5
aI1
aI3
aI6
aa(lp288
I12
aI4
aI3
aI10
aa(lp289
I2
aI3
aI9
aI8
aa(lp290
I2
aI5
aI3
aI8
aa(lp291
I3
aI2
aI1
aI9
aasg18
(lp292
(dp293
g21
VHEAD TO THE STARS
p294
sg23
V2220x
p295
sg25
I71
sg26
I1
sg27
I73
sa(dp296
g21
VGUNFLEET
p297
sg23
V2511x
p298
sg25
I100
sg26
I2
sg27
I95
sa(dp299
g21
VJUST A STING
p300
sg23
V338x1
p301
sg25
I98
sg26
I3
sg27
I100
sa(dp302
g21
VRUN TO MILAN
p303
sg23
V202x0
p304
sg25
I62
sg26
I4
sg27
I59
sa(dp305
g21
VPOTTERS CORNER
p306
sg23
Vx342x
p307
sg25
I95
sg26
I5
sg27
I84
sa(dp308
g21
VPERFORM
p309
sg23
V4x94x
p310
sg25
I66
sg26
I6
sg27
I67
sa(dp311
g21
VINDIAN HERCULES
p312
sg23
Vx533x
p313
sg25
I75
sg26
I7
sg27
I74
sa(dp314
g21
VKING UTHER
p315
sg23
V3123x
p316
sg25
I87
sg26
I8
sg27
I87
sa(dp317
g21
VVODKA ALL THE WAY
p318
sg23
V221x6
p319
sg25
I91
sg26
I9
sg27
I90
sa(dp320
g21
VMERRY MILAN
p321
sg23
Vx612x
p322
sg25
I84
sg26
I10
sg27
I62
sa(dp323
g21
VREIKERS ISLAND
p324
sg23
Vx015x
p325
sg25
I81
sg26
I11
sg27
I77
sa(dp326
g21
VVOIE DANS VOIE
p327
sg23
V2236x
p328
sg25
I79
sg26
I12
sg27
I80
sa(dp329
g21
VSKEWIFF
p330
sg23
V425x3
p331
sg25
I74
sg26
I13
sg27
I68
sa(dp332
g21
VLATE ROMANTIC
p333
sg23
V0110x
p334
sg25
I71
sg26
I14
sg27
I69
sasg52
(lp335
sssI1542208800
(dp336
g2
Vhttp://www.skyracing.com.au/index.php?component=racing&task=race&id=107834219&meetingid=106613510&Itemid=89
p337
sg4
V29008547.1520
p338
sg6
(dp339
g8
(lp340
(lp341
I2
aI1
aI3
aI6
aa(lp342
I1
aI2
aI5
aI4
aa(lp343
I3
aI7
aI8
aI1
aa(lp344
I1
aI2
aI4
aI3
aa(lp345
I7
aI9
aI8
aI1
aa(lp346
I3
aI2
aI1
aI6
aa(lp347
I1
aI2
aI6
aI3
aa(lp348
I1
aI2
aI3
aI7
aasg18
(lp349
(dp350
g21
VPROGRESS DRIVE
p351
sg23
V2127x
p352
sg25
I98
sg26
I1
sg27
I95
sa(dp353
g21
VKIMBERLITE CANDY
p354
sg23
V0431x
p355
sg25
I100
sg26
I2
sg27
I100
sa(dp356
g21
VSWINGBRIDGE
p357
sg23
V13610
p358
sg25
I92
sg26
I3
sg27
I90
sa(dp359
g21
VSILVER TASSIE
p360
sg23
V0323x
p361
sg25
I75
sg26
I4
sg27
I79
sa(dp362
g21
VMORNING ROYALTY
p363
sg23
V3455x
p364
sg25
I67
sg26
I5
sg27
I70
sa(dp365
g21
VKILBREE CHIEF
p366
sg23
V6319x
p367
sg25
I89
sg26
I6
sg27
I86
sa(dp368
g21
VCARRIGDHOUN
p369
sg23
V44x63
p370
sg25
I79
sg26
I7
sg27
I76
sa(dp371
g21
VNAKADAM
p372
sg23
V223x4
p373
sg25
I81
sg26
I8
sg27
I82
sa(dp374
g21
VLOWANBEHOLD
p375
sg23
V4316x
p376
sg25
I71
sg26
I9
sg27
I63
sasg52
(lp377
sssI1542207600
(dp378
g2
Vhttp://www.skyracing.com.au/index.php?component=racing&task=race&id=107834173&meetingid=106778958&Itemid=89
p379
sg4
V29008518.1500
p380
sg6
(dp381
g8
(lp382
(lp383
I6
aI8
aI2
aI4
aa(lp384
I1
aI3
aI4
aI9
aa(lp385
I9
aI1
aI8
aI4
aa(lp386
I1
aI3
aI9
aI6
aa(lp387
I1
aI3
aI6
aI2
aa(lp388
I2
aI6
aI8
aI4
aa(lp389
I6
aI8
aI2
aI1
aa(lp390
I1
aI6
aI3
aI8
aasg18
(lp391
(dp392
g21
VMOSKOVITE
p393
sg23
V56x55
p394
sg25
I87
sg26
I1
sg27
I75
sa(dp395
g21
VFIZZLESTICK
p396
sg23
V3x
p397
sg25
I90
sg26
I2
sg27
I85
sa(dp398
g21
VMY PEGGY
p399
sg23
Vx026x
p400
sg25
I78
sg26
I3
sg27
I72
sa(dp401
g21
VOUR ROXANE
p402
sg23
V38735
p403
sg25
I83
sg26
I4
sg27
I79
sa(dp404
g21
VGLENMALURE LODGE
p405
sg23
V708
p406
sg25
I64
sg26
I5
sg27
I62
sa(dp407
g21
VHONEYSUCKLE
p408
sg23
V1x
p409
sg25
I100
sg26
I6
sg27
I100
sa(dp410
g21
VMIDLAND MILLIE
p411
sg23
V
p412
sg25
I73
sg26
I7
sg27
I0
sa(dp413
g21
VVENTA GARCIA
p414
sg23
V3
p415
sg25
I96
sg26
I8
sg27
I95
sa(dp416
g21
VWALKING IN MEMPHIS
p417
sg23
V4x08
p418
sg25
I71
sg26
I9
sg27
I67
sasg52
(lp419
sssI1542209700
(dp420
g2
Vhttp://www.skyracing.com.au/index.php?component=racing&task=race&id=107834174&meetingid=106778958&Itemid=89
p421
sg4
V29008518.1535
p422
sg6
(dp423
g8
(lp424
(lp425
I4
aI5
aI2
aI3
aa(lp426
I3
aI2
aI17
aI4
aa(lp427
I2
aI4
aI6
aI5
aa(lp428
I2
aI3
aI8
aI7
aa(lp429
I17
aI3
aI2
aI4
aa(lp430
I4
aI5
aI2
aI13
aa(lp431
I2
aI3
aI4
aI14
aa(lp432
I2
aI4
aI3
aI5
aasg18
(lp433
(dp434
g21
VBALTIMORE BUZZ
p435
sg23
V00x00
p436
sg25
I88
sg26
I1
sg27
I69
sa(dp437
g21
VCAN'T BE DONE
p438
sg23
V15032
p439
sg25
I97
sg26
I2
sg27
I96
sa(dp440
g21
VTHE CHURCH GATE
p441
sg23
V3453x
p442
sg25
I94
sg26
I3
sg27
I93
sa(dp443
g21
VFINTOWN BOY
p444
sg23
V86311
p445
sg25
I100
sg26
I4
sg27
I100
sa(dp446
g21
VAUTHORATIVE
p447
sg23
V64x13
p448
sg25
I95
sg26
I5
sg27
I98
sa(dp449
g21
VMAIGHNEALTA
p450
sg23
V30306
p451
sg25
I86
sg26
I6
sg27
I71
sa(dp452
g21
VDERECHO STORM
p453
sg23
Vx2600
p454
sg25
I69
sg26
I7
sg27
I75
sa(dp455
g21
VFILLY MULLINS
p456
sg23
V53400
p457
sg25
I82
sg26
I8
sg27
I87
sa(dp458
g21
VMAKEYOURCALL
p459
sg23
V0x500
p460
sg25
I58
sg26
I9
sg27
I56
sa(dp461
g21
VEURO SO BRAVE
p462
sg23
V02460
p463
sg25
I71
sg26
I10
sg27
I79
sa(dp464
g21
VZAGNZIG
p465
sg23
V16354
p466
sg25
I77
sg26
I11
sg27
I83
sa(dp467
g21
VGLENDAARS WARRIOR
p468
sg23
V0x595
p469
sg25
I78
sg26
I12
sg27
I89
sa(dp470
g21
VTSARINA SOPHIA
p471
sg23
V00780
p472
sg25
I84
sg26
I13
sg27
I90
sa(dp473
g21
VSTEELYEYED
p474
sg23
V06970
p475
sg25
I92
sg26
I14
sg27
I76
sa(dp476
g21
VNORTHERN EMPEROR
p477
sg23
V48x60
p478
sg25
I65
sg26
I15
sg27
I61
sa(dp479
g21
VSCOTCH QUAY
p480
sg23
V970x7
p481
sg25
I62
sg26
I16
sg27
I63
sa(dp482
g21
VKILKEASKIN MOLLY
p483
sg23
V02004
p484
sg25
I67
sg26
I17
sg27
I67
sa(dp485
g21
VGALUPPI
p486
sg23
V50x8x
p487
sg25
I74
sg26
I18
sg27
I82
sa(dp488
g21
VBAZAROV
p489
sg23
V5x005
p490
sg25
I61
sg26
I19
sg27
I64
sasg52
(lp491
sssI1542201000
(dp492
g2
Vhttp://www.skyracing.com.au/index.php?component=racing&task=race&id=107834215&meetingid=106613510&Itemid=89
p493
sg4
V29008547.1310
p494
sg6
(dp495
g8
(lp496
(lp497
I7
aI6
aI1
aI2
aa(lp498
I2
aI3
aI8
aI9
aa(lp499
I9
aI1
aI5
aI3
aa(lp500
I1
aI7
aI2
aI9
aa(lp501
I2
aI9
aI3
aI4
aa(lp502
I1
aI7
aI6
aI3
aa(lp503
I7
aI1
aI6
aI2
aa(lp504
I1
aI2
aI7
aI9
aasg18
(lp505
(dp506
g21
VAL DESTOOR
p507
sg23
V53323
p508
sg25
I91
sg26
I1
sg27
I89
sa(dp509
g21
VBIG BAD DREAM
p510
sg23
V5x23x
p511
sg25
I88
sg26
I2
sg27
I84
sa(dp512
g21
VBLAYDON
p513
sg23
V3x7x4
p514
sg25
I84
sg26
I3
sg27
I80
sa(dp515
g21
VELVIS MAIL
p516
sg23
V443x
p517
sg25
I67
sg26
I4
sg27
I63
sa(dp518
g21
VFULLY BOOKED
p519
sg23
V6
p520
sg25
I78
sg26
I5
sg27
I74
sa(dp521
g21
VLORD SPRINGFIELD
p522
sg23
V1x
p523
sg25
I95
sg26
I6
sg27
I95
sa(dp524
g21
VSAM'S ADVENTURE
p525
sg23
V1x21x
p526
sg25
I100
sg26
I7
sg27
I100
sa(dp527
g21
VVINTAGE GLEN
p528
sg23
V54x
p529
sg25
I70
sg26
I8
sg27
I65
sa(dp530
g21
VBOBBIE THE DAZZLER
p531
sg23
V96x73
p532
sg25
I77
sg26
I9
sg27
I72
sasg52
(lp533
sssI1542201900
(dp534
g2
Vhttp://www.skyracing.com.au/index.php?component=racing&task=race&id=107834170&meetingid=106778958&Itemid=89
p535
sg4
V29008518.1325
p536
sg6
(dp537
g8
(lp538
(lp539
I3
aI2
aI8
aI4
aa(lp540
I2
aI4
aI3
aI5
aa(lp541
I2
aI3
aI7
aI1
aa(lp542
I4
aI3
aI1
aI7
aa(lp543
I4
aI3
aI12
aI2
aa(lp544
I3
aI2
aI8
aI1
aa(lp545
I2
aI3
aI4
aI1
aa(lp546
I3
aI2
aI4
aI8
aasg18
(lp547
(dp548
g21
VTHEKINGOFCONNEMARA
p549
sg23
Vx8065
p550
sg25
I86
sg26
I1
sg27
I88
sa(dp551
g21
VDANALI
p552
sg23
V68502
p553
sg25
I100
sg26
I2
sg27
I97
sa(dp554
g21
VWELL TOM
p555
sg23
V7x871
p556
sg25
I99
sg26
I3
sg27
I100
sa(dp557
g21
VBALLYFINBOY
p558
sg23
V01579
p559
sg25
I90
sg26
I4
sg27
I91
sa(dp560
g21
VDAWN LIGHT CAVE
p561
sg23
V40x78
p562
sg25
I83
sg26
I5
sg27
I77
sa(dp563
g21
VFR HUMPHREY
p564
sg23
V8x00x
p565
sg25
I87
sg26
I6
sg27
I68
sa(dp566
g21
VSELECT OPPORTUNITY
p567
sg23
V60105
p568
sg25
I76
sg26
I7
sg27
I79
sa(dp569
g21
VREDWOOD BOY
p570
sg23
V42054
p571
sg25
I93
sg26
I8
sg27
I94
sa(dp572
g21
VPOLISH PARTISAN
p573
sg23
Vx7040
p574
sg25
I71
sg26
I9
sg27
I71
sa(dp575
g21
VREDWOOD CASTLE
p576
sg23
V7x250
p577
sg25
I70
sg26
I10
sg27
I73
sa(dp578
g21
VJAMESMICHEAL
p579
sg23
V05529
p580
sg25
I79
sg26
I11
sg27
I86
sa(dp581
g21
VNIGHT SIR
p582
sg23
V3x063
p583
sg25
I74
sg26
I12
sg27
I81
sa(dp584
g21
VKILDERRY PRINCE
p585
sg23
V08500
p586
sg25
I64
sg26
I13
sg27
I65
sasg52
(lp587
sssI1542202800
(dp588
g2
Vhttp://www.skyracing.com.au/index.php?component=racing&task=race&id=107834216&meetingid=106613510&Itemid=89
p589
sg4
V29008547.1340
p590
sg6
(dp591
g8
(lp592
(lp593
I1
aI5
aI7
aI3
aa(lp594
I4
aI1
aI3
aI5
aa(lp595
I1
aI3
aI5
aI4
aa(lp596
I4
aI1
aI2
aI3
aa(lp597
I4
aI6
aI5
aI1
aa(lp598
I1
aI5
aI6
aI7
aa(lp599
I1
aI5
aI4
aI3
aa(lp600
I1
aI4
aI5
aI3
aasg18
(lp601
(dp602
g21
VMUMGOS DEBUT
p603
sg23
V643x2
p604
sg25
I100
sg26
I1
sg27
I100
sa(dp605
g21
VCRAIGANBOY
p606
sg23
V5x82x
p607
sg25
I76
sg26
I2
sg27
I69
sa(dp608
g21
VJOHN WILLIAMS
p609
sg23
V247x3
p610
sg25
I92
sg26
I3
sg27
I86
sa(dp611
g21
VCASUAL CAVALIER
p612
sg23
V247x4
p613
sg25
I84
sg26
I4
sg27
I79
sa(dp614
g21
VSEVEN DEVILS
p615
sg23
V3x623
p616
sg25
I99
sg26
I5
sg27
I98
sa(dp617
g21
VLAS TUNAS
p618
sg23
V21x04
p619
sg25
I78
sg26
I6
sg27
I82
sa(dp620
g21
VINSTINGTIVE
p621
sg23
V03227
p622
sg25
I86
sg26
I7
sg27
I92
sa(dp623
g21
VHOPE FOR GLORY
p624
sg23
V45x1x
p625
sg25
I72
sg26
I8
sg27
I74
sasg52
(lp626
sssI1542203700
(dp627
g2
Vhttp://www.skyracing.com.au/index.php?component=racing&task=race&id=107834171&meetingid=106778958&Itemid=89
p628
sg4
V29008518.1355
p629
sg6
(dp630
g8
(lp631
(lp632
I1
aI6
aI8
aI2
aa(lp633
I2
aI1
aI6
aI3
aa(lp634
I1
aI3
aI8
aI2
aa(lp635
I8
aI1
aI6
aI3
aa(lp636
I1
aI2
aI6
aI3
aa(lp637
I2
aI1
aI6
aI8
aa(lp638
I1
aI6
aI2
aI8
aa(lp639
I1
aI2
aI6
aI8
aasg18
(lp640
(dp641
g21
VBATTS ROCK
p642
sg23
V11023
p643
sg25
I100
sg26
I1
sg27
I100
sa(dp644
g21
VSTEEL CAP
p645
sg23
V1599
p646
sg25
I95
sg26
I2
sg27
I81
sa(dp647
g21
VTRUMP CARD
p648
sg23
V45061
p649
sg25
I88
sg26
I3
sg27
I76
sa(dp650
g21
VCHEF AFEF
p651
sg23
g412
sg25
I84
sg26
I4
sg27
I0
sa(dp652
g21
VKILCOLGAN ROCKET
p653
sg23
g412
sg25
I77
sg26
I5
sg27
I0
sa(dp654
g21
VMELLY AND ME
p655
sg23
Vx224x
p656
sg25
I98
sg26
I6
sg27
I95
sa(dp657
g21
VQUICK GETAWAY
p658
sg23
V8x8x
p659
sg25
I80
sg26
I7
sg27
I72
sa(dp660
g21
VROCK ROAD
p661
sg23
V029x5
p662
sg25
I90
sg26
I8
sg27
I91
sa(dp663
g21
VBALLYBEGGAN PEGGY
p664
sg23
V0x0
p665
sg25
I78
sg26
I9
sg27
I74
sa(dp666
g21
VKNOCKATOO HILL
p667
sg23
V0x0x
p668
sg25
I72
sg26
I10
sg27
I65
sa(dp669
g21
VPICCOLO MILANO
p670
sg23
g412
sg25
I73
sg26
I11
sg27
I0
sasg52
(lp671
sssI1542205500
(dp672
g2
Vhttp://www.skyracing.com.au/index.php?component=racing&task=race&id=107834186&meetingid=106613526&Itemid=89
p673
sg4
V29008506.1425
p674
sg6
(dp675
g8
(lp676
(lp677
I6
aI2
aI4
aI9
aa(lp678
I2
aI9
aI1
aI7
aa(lp679
I2
aI7
aI11
aI3
aa(lp680
I9
aI2
aI1
aI7
aa(lp681
I2
aI13
aI1
aI9
aa(lp682
I6
aI2
aI4
aI9
aa(lp683
I2
aI6
aI13
aI9
aa(lp684
I2
aI9
aI6
aI1
aasg18
(lp685
(dp686
g21
VBANG ON
p687
sg23
V22x5x
p688
sg25
I73
sg26
I1
sg27
I73
sa(dp689
g21
VFLASH THE STEEL
p690
sg23
V231x3
p691
sg25
I98
sg26
I2
sg27
I96
sa(dp692
g21
VFROM THE HEART
p693
sg23
V80x3
p694
sg25
I84
sg26
I3
sg27
I84
sa(dp695
g21
VMR PUMBLECHOOK
p696
sg23
V66x
p697
sg25
I90
sg26
I4
sg27
I94
sa(dp698
g21
VPARK PHILOSOPHER
p699
sg23
V34x
p700
sg25
I78
sg26
I5
sg27
I79
sa(dp701
g21
VPHOENIX WAY
p702
sg23
V1x
p703
sg25
I100
sg26
I6
sg27
I100
sa(dp704
g21
VRAPPER
p705
sg23
V3x4
p706
sg25
I83
sg26
I7
sg27
I82
sa(dp707
g21
VSIROBBIE
p708
sg23
V4x8x
p709
sg25
I68
sg26
I8
sg27
I67
sa(dp710
g21
VTHE SOME DANCE KID
p711
sg23
V1x2x3
p712
sg25
I87
sg26
I9
sg27
I92
sa(dp713
g21
VTHE VOLLAN
p714
sg23
V8
p715
sg25
I67
sg26
I10
sg27
I71
sa(dp716
g21
VTIMCODA
p717
sg23
Vx33x2
p718
sg25
I77
sg26
I11
sg27
I76
sa(dp719
g21
VLADY CHARTREUSE
p720
sg23
V6x
p721
sg25
I72
sg26
I12
sg27
I72
sa(dp722
g21
VORIENTAL CROSS
p723
sg23
Vx912x
p724
sg25
I95
sg26
I13
sg27
I88
sasg52
(lp725
sssI1542208200
(dp726
g2
Vhttp://www.skyracing.com.au/index.php?component=racing&task=race&id=107834202&meetingid=106613542&Itemid=89
p727
sg4
V29008508.1510
p728
sg6
(dp729
g8
(lp730
(lp731
I2
aI10
aI3
aI4
aa(lp732
I3
aI2
aI4
aI7
aa(lp733
I3
aI7
aI9
aI6
aa(lp734
I3
aI2
aI7
aI4
aa(lp735
I3
aI2
aI7
aI4
aa(lp736
I2
aI10
aI3
aI8
aa(lp737
I2
aI10
aI3
aI4
aa(lp738
I3
aI2
aI7
aI10
aasg18
(lp739
(dp740
g21
VAUMIT HILL
p741
sg23
V4482x
p742
sg25
I60
sg26
I1
sg27
I61
sa(dp743
g21
VBLACK OP
p744
sg23
V1221x
p745
sg25
I100
sg26
I2
sg27
I100
sa(dp746
g21
VI'M A GAME CHANGER
p747
sg23
V192x2
p748
sg25
I91
sg26
I3
sg27
I93
sa(dp749
g21
VKILDISART
p750
sg23
V2519x
p751
sg25
I86
sg26
I4
sg27
I88
sa(dp752
g21
VMINELLATILLMORNING
p753
sg23
Vx112x
p754
sg25
I75
sg26
I5
sg27
I78
sa(dp755
g21
VOVER THE ARCH
p756
sg23
V745x8
p757
sg25
I65
sg26
I6
sg27
I63
sa(dp758
g21
VSHOW ON THE ROAD
p759
sg23
V318x4
p760
sg25
I80
sg26
I7
sg27
I76
sa(dp761
g21
VTHE RUSSIAN DOYEN
p762
sg23
V1516x
p763
sg25
I82
sg26
I8
sg27
I84
sa(dp764
g21
VMERCENAIRE
p765
sg23
V320x7
p766
sg25
I70
sg26
I9
sg27
I69
sa(dp767
g21
VSULLY D'OC AA
p768
sg23
V1211x
p769
sg25
I96
sg26
I10
sg27
I99
sasg52
(lp770
sssI1542199500
(dp771
g2
Vhttp://www.skyracing.com.au/index.php?component=racing&task=race&id=107834183&meetingid=106613526&Itemid=89
p772
sg4
V29008506.1245
p773
sg6
(dp774
g8
(lp775
(lp776
I3
aI5
aI2
aI6
aa(lp777
I3
aI4
aI5
aI2
aa(lp778
I2
aI1
aI3
aI4
aa(lp779
I1
aI4
aI3
aI6
aa(lp780
I5
aI3
aI2
aI4
aa(lp781
I5
aI3
aI2
aI6
aa(lp782
I5
aI3
aI2
aI6
aa(lp783
I3
aI5
aI2
aI1
aasg18
(lp784
(dp785
g21
VCOOLOGUE
p786
sg23
V080x6
p787
sg25
I83
sg26
I1
sg27
I78
sa(dp788
g21
VJABULANI
p789
sg23
V870x5
p790
sg25
I91
sg26
I2
sg27
I85
sa(dp791
g21
VJUST MINDED
p792
sg23
V34x2x
p793
sg25
I100
sg26
I3
sg27
I100
sa(dp794
g21
VVINNIE RED
p795
sg23
V5430x
p796
sg25
I79
sg26
I4
sg27
I75
sa(dp797
g21
VSTEPS AND STAIRS
p798
sg23
Vx131x
p799
sg25
I98
sg26
I5
sg27
I93
sa(dp800
g21
VTHYNE FOR GOLD
p801
sg23
V3441x
p802
sg25
I88
sg26
I6
sg27
I80
sasg52
(lp803
sssI1542200400
(dp804
g2
Vhttp://www.skyracing.com.au/index.php?component=racing&task=race&id=107834198&meetingid=106613542&Itemid=89
p805
sg4
V29008508.1300
p806
sg6
(dp807
g8
(lp808
(lp809
I15
aI1
aI13
aI10
aa(lp810
I15
aI10
aI13
aI5
aa(lp811
I2
aI6
aI4
aI12
aa(lp812
I15
aI10
aI13
aI5
aa(lp813
I15
aI13
aI10
aI7
aa(lp814
I15
aI1
aI13
aI10
aa(lp815
I15
aI1
aI13
aI10
aa(lp816
I15
aI13
aI10
aI1
aasg18
(lp817
(dp818
g21
VORCHARD THIEVES
p819
sg23
V2x1x
p820
sg25
I98
sg26
I1
sg27
I98
sa(dp821
g21
VCHAMPAGNE IDEAS
p822
sg23
Vx63x4
p823
sg25
I63
sg26
I2
sg27
I63
sa(dp824
g21
VCOASTAL DRIFT
p825
sg23
V7x
p826
sg25
I69
sg26
I3
sg27
I71
sa(dp827
g21
VCORNELIUS SOCKS
p828
sg23
V875
p829
sg25
I60
sg26
I4
sg27
I60
sa(dp830
g21
VDENSFIRTH
p831
sg23
V4x5x
p832
sg25
I79
sg26
I5
sg27
I83
sa(dp833
g21
VDIOMEDE DES MOTTES
p834
sg23
V021x6
p835
sg25
I82
sg26
I6
sg27
I80
sa(dp836
g21
VLAMANVER PIPPIN
p837
sg23
V2x
p838
sg25
I89
sg26
I7
sg27
I92
sa(dp839
g21
VMINERFORTYNINER
p840
sg23
V81x4x
p841
sg25
I76
sg26
I8
sg27
I67
sa(dp842
g21
VMODERN WARFAIR
p843
sg23
V2x
p844
sg25
I86
sg26
I9
sg27
I88
sa(dp845
g21
VNESTOR PARK
p846
sg23
V1x50x
p847
sg25
I93
sg26
I10
sg27
I93
sa(dp848
g21
VRUSSIAN HAWK
p849
sg23
V3x
p850
sg25
I83
sg26
I11
sg27
I87
sa(dp851
g21
VSANDRO BOTTICELLI
p852
sg23
Vx0x08
p853
sg25
I70
sg26
I12
sg27
I74
sa(dp854
g21
VSHAUGHNESSY
p855
sg23
V22x1x
p856
sg25
I96
sg26
I13
sg27
I95
sa(dp857
g21
VTHREE IN ONE
p858
sg23
V6x22x
p859
sg25
I67
sg26
I14
sg27
I68
sa(dp860
g21
VTIME TO MOVE ON
p861
sg23
V1x1x
p862
sg25
I100
sg26
I15
sg27
I100
sa(dp863
g21
VTWO SAMS
p864
sg23
V0x1x
p865
sg25
I91
sg26
I16
sg27
I78
sa(dp866
g21
VYESANDNO
p867
sg23
V0x3x
p868
sg25
I75
sg26
I17
sg27
I77
sa(dp869
g21
VCITY BREAK
p870
sg23
V7123x
p871
sg25
I64
sg26
I18
sg27
I65
sasg52
(lp872
sssI1542209400
(dp873
g2
Vhttp://www.skyracing.com.au/index.php?component=racing&task=race&id=107834188&meetingid=106613526&Itemid=89
p874
sg4
V29008506.1530
p875
sg6
(dp876
g8
(lp877
(lp878
I4
aI1
aI5
aI2
aa(lp879
I2
aI3
aI5
aI4
aa(lp880
I3
aI2
aI5
aI1
aa(lp881
I2
aI3
aI4
aI5
aa(lp882
I2
aI3
aI4
aI1
aa(lp883
I4
aI5
aI1
aI3
aa(lp884
I1
aI5
aI4
aI2
aa(lp885
I2
aI3
aI4
aI5
aasg18
(lp886
(dp887
g21
VARDLETHEN
p888
sg23
V1x
p889
sg25
I100
sg26
I1
sg27
I96
sa(dp890
g21
VFONTLEY HOUSE
p891
sg23
V3x8
p892
sg25
I88
sg26
I2
sg27
I85
sa(dp893
g21
VMORRAMAN
p894
sg23
V18x63
p895
sg25
I81
sg26
I3
sg27
I81
sa(dp896
g21
VNOTACHANCE
p897
sg23
V2x
p898
sg25
I96
sg26
I4
sg27
I100
sa(dp899
g21
VTRIO FOR RIO
p900
sg23
V121x3
p901
sg25
I91
sg26
I5
sg27
I93
sasg52
(lp902
sssI1542202200
(dp903
g2
Vhttp://www.skyracing.com.au/index.php?component=racing&task=race&id=107834199&meetingid=106613542&Itemid=89
p904
sg4
V29008508.1330
p905
sg6
(dp906
g8
(lp907
(lp908
I7
aI2
aI8
aI6
aa(lp909
I10
aI9
aI6
aI3
aa(lp910
I5
aI6
aI1
aI8
aa(lp911
I10
aI3
aI8
aI2
aa(lp912
I10
aI6
aI8
aI7
aa(lp913
I6
aI8
aI7
aI2
aa(lp914
I7
aI6
aI2
aI1
aa(lp915
I6
aI10
aI8
aI7
aasg18
(lp916
(dp917
g21
VRUARAIDH HUGH
p918
sg23
V11052
p919
sg25
I97
sg26
I1
sg27
I89
sa(dp920
g21
VNORSE LEGEND
p921
sg23
V3453x
p922
sg25
I95
sg26
I2
sg27
I98
sa(dp923
g21
VBIG DIFFERENCE
p924
sg23
Vx509x
p925
sg25
I75
sg26
I3
sg27
I83
sa(dp926
g21
VCHAMPAGNE CHASER
p927
sg23
V4639x
p928
sg25
I85
sg26
I4
sg27
I79
sa(dp929
g21
VMIDNIGHT MIDGE
p930
sg23
V869x3
p931
sg25
I70
sg26
I5
sg27
I74
sa(dp932
g21
VTRIOPAS
p933
sg23
V880x4
p934
sg25
I92
sg26
I6
sg27
I91
sa(dp935
g21
VMOGESTIC
p936
sg23
Vx115x
p937
sg25
I100
sg26
I7
sg27
I100
sa(dp938
g21
VHURLSTONE POINT
p939
sg23
Vx02x0
p940
sg25
I87
sg26
I8
sg27
I94
sa(dp941
g21
VTZAR DE L'ELFE
p942
sg23
V148x6
p943
sg25
I69
sg26
I9
sg27
I70
sa(dp944
g21
VINVICTA LAKE
p945
sg23
V975x0
p946
sg25
I78
sg26
I10
sg27
I76
sa(dp947
g21
VPAHASKA
p948
sg23
V076x7
p949
sg25
I74
sg26
I11
sg27
I70
sa(dp950
g21
VVANGO DE VAIGE
p951
sg23
V6060x
p952
sg25
I82
sg26
I12
sg27
I86
sasg52
(lp953
sssI1542210000
(dp954
g2
Vhttp://www.skyracing.com.au/index.php?component=racing&task=race&id=107834203&meetingid=106613542&Itemid=89
p955
sg4
V29008508.1540
p956
sg6
(dp957
g8
(lp958
(lp959
I2
aI6
aI4
aI5
aa(lp960
I1
aI4
aI7
aI2
aa(lp961
I3
aI2
aI6
aI7
aa(lp962
I1
aI7
aI4
aI3
aa(lp963
I7
aI1
aI8
aI2
aa(lp964
I4
aI2
aI6
aI5
aa(lp965
I2
aI4
aI6
aI5
aa(lp966
I2
aI4
aI1
aI7
aasg18
(lp967
(dp968
g21
VZALVADOS
p969
sg23
V7x2x0
p970
sg25
I81
sg26
I1
sg27
I72
sa(dp971
g21
VNAYATI
p972
sg23
V118x3
p973
sg25
I100
sg26
I2
sg27
I100
sa(dp974
g21
VRIVER BRAY
p975
sg23
V852x3
p976
sg25
I79
sg26
I3
sg27
I77
sa(dp977
g21
VWATCOMBE HEIGHTS
p978
sg23
V6436x
p979
sg25
I97
sg26
I4
sg27
I88
sa(dp980
g21
VCOMRADE CONRAD
p981
sg23
V536x8
p982
sg25
I85
sg26
I5
sg27
I79
sa(dp983
g21
VCASTERLY ROCK
p984
sg23
V3x8x2
p985
sg25
I94
sg26
I6
sg27
I96
sa(dp986
g21
VTRANS EXPRESS
p987
sg23
Vx23x7
p988
sg25
I77
sg26
I7
sg27
I64
sa(dp989
g21
VPRIMAL FOCUS
p990
sg23
V23350
p991
sg25
I71
sg26
I8
sg27
I71
sa(dp992
g21
VINDIAN HARBOUR
p993
sg23
V0x35x
p994
sg25
I68
sg26
I9
sg27
I61
sasg52
(lp995
sssI1542204900
(dp996
g2
Vhttp://www.skyracing.com.au/index.php?component=racing&task=race&id=107834217&meetingid=106613510&Itemid=89
p997
sg4
V29008547.1415
p998
sg6
(dp999
g8
(lp1000
(lp1001
I6
aI9
aI2
aI10
aa(lp1002
I4
aI5
aI7
aI6
aa(lp1003
I12
aI1
aI3
aI4
aa(lp1004
I4
aI5
aI7
aI6
aa(lp1005
I7
aI5
aI10
aI4
aa(lp1006
I6
aI9
aI10
aI7
aa(lp1007
I7
aI6
aI10
aI2
aa(lp1008
I6
aI4
aI7
aI5
aasg18
(lp1009
(dp1010
g21
VBON CHIC
p1011
sg23
V74170
p1012
sg25
I82
sg26
I1
sg27
I73
sa(dp1013
g21
VSCHIAPARANNIE
p1014
sg23
V12x3x
p1015
sg25
I92
sg26
I2
sg27
I94
sa(dp1016
g21
VISLE OF DESTINY
p1017
sg23
V33318
p1018
sg25
I86
sg26
I3
sg27
I86
sa(dp1019
g21
VRUBENESQUE
p1020
sg23
V23253
p1021
sg25
I78
sg26
I4
sg27
I80
sa(dp1022
g21
VVICTORIA SAYS
p1023
sg23
V1x6x4
p1024
sg25
I75
sg26
I5
sg27
I75
sa(dp1025
g21
VBIRCH VALE
p1026
sg23
V4121x
p1027
sg25
I100
sg26
I6
sg27
I100
sa(dp1028
g21
VETERNALLY YOURS
p1029
sg23
V4141x
p1030
sg25
I98
sg26
I7
sg27
I88
sa(dp1031
g21
VOFF THE HOOK
p1032
sg23
Vx222x
p1033
sg25
I73
sg26
I8
sg27
I79
sa(dp1034
g21
VHIDDEN DILEMMA
p1035
sg23
V46x71
p1036
sg25
I93
sg26
I9
sg27
I96
sa(dp1037
g21
VQUESTION OF FAITH
p1038
sg23
V41742
p1039
sg25
I88
sg26
I10
sg27
I91
sa(dp1040
g21
VCYPRUS AVENUE
p1041
sg23
V546x7
p1042
sg25
I71
sg26
I11
sg27
I71
sa(dp1043
g21
VMAUREEN'S STAR
p1044
sg23
V00749
p1045
sg25
I70
sg26
I12
sg27
I69
sasg52
(lp1046
sssI1542205800
(dp1047
g2
Vhttp://www.skyracing.com.au/index.php?component=racing&task=race&id=107834172&meetingid=106778958&Itemid=89
p1048
sg4
V29008518.1430
p1049
sg6
(dp1050
g8
(lp1051
(lp1052
I7
aI3
aI4
aI1
aa(lp1053
I4
aI7
aI1
aI3
aa(lp1054
I1
aI3
aI6
aI7
aa(lp1055
I4
aI7
aI3
aI1
aa(lp1056
I4
aI7
aI1
aI3
aa(lp1057
I1
aI7
aI3
aI4
aa(lp1058
I3
aI7
aI4
aI1
aa(lp1059
I7
aI4
aI1
aI3
aasg18
(lp1060
(dp1061
g21
VCOOLDINE BOG
p1062
sg23
V23251
p1063
sg25
I88
sg26
I1
sg27
I83
sa(dp1064
g21
VJACK FIASCO
p1065
sg23
V071x0
p1066
sg25
I83
sg26
I2
sg27
I80
sa(dp1067
g21
VMONBEG WORLDWIDE
p1068
sg23
V23x51
p1069
sg25
I98
sg26
I3
sg27
I96
sa(dp1070
g21
VSTAY HUMBLE
p1071
sg23
V2311x
p1072
sg25
I94
sg26
I4
sg27
I94
sa(dp1073
g21
VCATCH MY DRIFT
p1074
sg23
V05633
p1075
sg25
I77
sg26
I5
sg27
I70
sa(dp1076
g21
VFAMOUS DAY
p1077
sg23
V72412
p1078
sg25
I78
sg26
I6
sg27
I76
sa(dp1079
g21
VMY SISTER SARAH
p1080
sg23
V1x1
p1081
sg25
I100
sg26
I7
sg27
I100
sasg52
(lp1082
sssI1542206700
(dp1083
g2
Vhttp://www.skyracing.com.au/index.php?component=racing&task=race&id=107834218&meetingid=106613510&Itemid=89
p1084
sg4
V29008547.1445
p1085
sg6
(dp1086
g8
(lp1087
(lp1088
I2
aI3
aI4
aI5
aa(lp1089
I4
aI6
aI2
aI1
aa(lp1090
I4
aI2
aI10
aI6
aa(lp1091
I4
aI8
aI2
aI1
aa(lp1092
I4
aI2
aI11
aI6
aa(lp1093
I3
aI2
aI4
aI5
aa(lp1094
I8
aI4
aI5
aI2
aa(lp1095
I4
aI2
aI3
aI6
aasg18
(lp1096
(dp1097
g21
VQUICK PICK
p1098
sg23
V1930x
p1099
sg25
I85
sg26
I1
sg27
I81
sa(dp1100
g21
VTRONGATE
p1101
sg23
Vx3212
p1102
sg25
I90
sg26
I2
sg27
I100
sa(dp1103
g21
VHENRY'S JOY
p1104
sg23
V5172x
p1105
sg25
I88
sg26
I3
sg27
I98
sa(dp1106
g21
VSOPHIE OLIVIA
p1107
sg23
V128x1
p1108
sg25
I99
sg26
I4
sg27
I94
sa(dp1109
g21
VIMADA
p1110
sg23
V3x72x
p1111
sg25
I100
sg26
I5
sg27
I90
sa(dp1112
g21
VASUM
p1113
sg23
V02x93
p1114
sg25
I78
sg26
I6
sg27
I76
sa(dp1115
g21
VCHASSEUR DE TETE
p1116
sg23
V921x7
p1117
sg25
I80
sg26
I7
sg27
I87
sa(dp1118
g21
VLORD COUNTY
p1119
sg23
V1351x
p1120
sg25
I94
sg26
I8
sg27
I85
sa(dp1121
g21
VLOVELY SCHTUFF
p1122
sg23
V3374x
p1123
sg25
I70
sg26
I9
sg27
I70
sa(dp1124
g21
VSTRONG ECONOMY
p1125
sg23
V230x4
p1126
sg25
I73
sg26
I10
sg27
I77
sa(dp1127
g21
VIMPERIAL PRINCE
p1128
sg23
V343x9
p1129
sg25
I76
sg26
I11
sg27
I73
sasg52
(lp1130
sssI1542198000
(dp1131
g2
Vhttp://www.skyracing.com.au/index.php?component=racing&task=race&id=107834168&meetingid=106778958&Itemid=89
p1132
sg4
V29008518.1220
p1133
sg6
(dp1134
g8
(lp1135
(lp1136
I4
aI8
aI1
aI2
aa(lp1137
I2
aI4
aI1
aI7
aa(lp1138
I2
aI4
aI1
aI5
aa(lp1139
I2
aI4
aI7
aI5
aa(lp1140
I2
aI1
aI3
aI7
aa(lp1141
I8
aI4
aI1
aI2
aa(lp1142
I8
aI1
aI4
aI2
aa(lp1143
I2
aI4
aI1
aI8
aasg18
(lp1144
(dp1145
g21
VELLIE MAC
p1146
sg23
Vx0521
p1147
sg25
I95
sg26
I1
sg27
I93
sa(dp1148
g21
VTHECRAICISNINETY
p1149
sg23
Vx1812
p1150
sg25
I89
sg26
I2
sg27
I85
sa(dp1151
g21
VKONIG HALL
p1152
sg23
V32409
p1153
sg25
I79
sg26
I3
sg27
I79
sa(dp1154
g21
VMONATOMIC
p1155
sg23
V441x6
p1156
sg25
I91
sg26
I4
sg27
I100
sa(dp1157
g21
VMY MANEKINEKO
p1158
sg23
V02939
p1159
sg25
I71
sg26
I5
sg27
I75
sa(dp1160
g21
VRUNYON RATTLER
p1161
sg23
V67253
p1162
sg25
I83
sg26
I6
sg27
I83
sa(dp1163
g21
VSANIBEL ISLAND
p1164
sg23
Vx467x
p1165
sg25
I76
sg26
I7
sg27
I69
sa(dp1166
g21
VMOONBALL
p1167
sg23
V46216
p1168
sg25
I100
sg26
I8
sg27
I95
sasg52
(lp1169
sssI1542198900
(dp1170
g2
Vhttp://www.skyracing.com.au/index.php?component=racing&task=race&id=107834214&meetingid=106613510&Itemid=89
p1171
sg4
V29008547.1235
p1172
sg6
(dp1173
g8
(lp1174
(lp1175
I10
aI5
aI4
aI7
aa(lp1176
I1
aI5
aI10
aI7
aa(lp1177
I3
aI1
aI9
aI2
aa(lp1178
I5
aI1
aI10
aI7
aa(lp1179
I10
aI5
aI1
aI7
aa(lp1180
I7
aI10
aI5
aI4
aa(lp1181
I5
aI10
aI4
aI7
aa(lp1182
I10
aI5
aI1
aI7
aasg18
(lp1183
(dp1184
g21
VANYTIME NOW
p1185
sg23
V23375
p1186
sg25
I83
sg26
I1
sg27
I81
sa(dp1187
g21
VASKING FOR ANSWERS
p1188
sg23
V73x0
p1189
sg25
I62
sg26
I2
sg27
I65
sa(dp1190
g21
VBRIDANE HIGH
p1191
sg23
V2x5
p1192
sg25
I76
sg26
I3
sg27
I73
sa(dp1193
g21
VDIOCESE
p1194
sg23
V1123x
p1195
sg25
I93
sg26
I4
sg27
I92
sa(dp1196
g21
VHIGHLAND HUNTER
p1197
sg23
Vx1x0x
p1198
sg25
I100
sg26
I5
sg27
I98
sa(dp1199
g21
VJACK RIDDELL
p1200
sg23
g412
sg25
I70
sg26
I6
sg27
I0
sa(dp1201
g21
VMANETTI
p1202
sg23
Vx211x
p1203
sg25
I87
sg26
I7
sg27
I85
sa(dp1204
g21
VSKYHILL
p1205
sg23
V2022x
p1206
sg25
I78
sg26
I8
sg27
I76
sa(dp1207
g21
VAMOR VERDADERO
p1208
sg23
V79
p1209
sg25
I68
sg26
I9
sg27
I66
sa(dp1210
g21
VDERRIANA SPIRIT
p1211
sg23
V27x1x
p1212
sg25
I97
sg26
I10
sg27
I100
sasg52
(lp1213
sssI1542199800
(dp1214
g2
Vhttp://www.skyracing.com.au/index.php?component=racing&task=race&id=107834169&meetingid=106778958&Itemid=89
p1215
sg4
V29008518.1250
p1216
sg6
(dp1217
g8
(lp1218
(lp1219
I5
aI7
aI3
aI1
aa(lp1220
I1
aI7
aI4
aI5
aa(lp1221
I1
aI3
aI6
aI8
aa(lp1222
I1
aI5
aI7
aI3
aa(lp1223
I1
aI7
aI4
aI3
aa(lp1224
I7
aI5
aI3
aI1
aa(lp1225
I5
aI7
aI1
aI3
aa(lp1226
I1
aI7
aI5
aI3
aasg18
(lp1227
(dp1228
g21
VCHEROKEE BILL
p1229
sg23
V79x73
p1230
sg25
I86
sg26
I1
sg27
I86
sa(dp1231
g21
VDISCO MUSIK
p1232
sg23
V000x
p1233
sg25
I69
sg26
I2
sg27
I69
sa(dp1234
g21
VLORD IN RED
p1235
sg23
V0x315
p1236
sg25
I90
sg26
I3
sg27
I90
sa(dp1237
g21
VNOMANBEHIND
p1238
sg23
V0x65x
p1239
sg25
I78
sg26
I4
sg27
I80
sa(dp1240
g21
VPOLI ROI
p1241
sg23
V6x85x
p1242
sg25
I100
sg26
I5
sg27
I100
sa(dp1243
g21
VROCKY'S SILVER
p1244
sg23
V52x80
p1245
sg25
I77
sg26
I6
sg27
I74
sa(dp1246
g21
VMOYHENNA
p1247
sg23
V1245x
p1248
sg25
I96
sg26
I7
sg27
I96
sa(dp1249
g21
VTARA MIA
p1250
sg23
V15800
p1251
sg25
I84
sg26
I8
sg27
I79
sasg52
(lp1252
sss.