(dp0
I1542804000
(dp1
S'skyracing_url'
p2
Vhttp://www.skyracing.com.au/index.php?component=racing&task=race&id=108065304&meetingid=107035189&Itemid=89
p3
sS'betfair_raceid'
p4
V29018860.1240
p5
sS'dat2'
p6
(dp7
S'ratings_auto'
p8
(lp9
(lp10
I8
aI6
aI5
aI13
aa(lp11
I2
aI4
aI1
aI5
aa(lp12
I6
aI7
aI2
aI1
aa(lp13
I4
aI6
aI8
aI1
aa(lp14
I2
aI13
aI5
aI11
aa(lp15
I6
aI8
aI5
aI13
aa(lp16
I8
aI5
aI13
aI9
aa(lp17
I6
aI2
aI8
aI5
aasS'horse_details'
p18
(lp19
(dp20
S'horse_name'
p21
VHOLDBACKTHERIVER
p22
sS'horse_form'
p23
V5261x
p24
sS'rating_2'
p25
I79
sS'horse_number'
p26
I1
sS'rating_1'
p27
I86
sa(dp28
g21
VWESTERN CLIMATE
p29
sg23
V847x0
p30
sg25
I85
sg26
I2
sg27
I66
sa(dp31
g21
VDOESYOURDOGBITE
p32
sg23
V59x2x
p33
sg25
I76
sg26
I3
sg27
I79
sa(dp34
g21
VTOPPER THORNTON
p35
sg23
V2507x
p36
sg25
I71
sg26
I4
sg27
I75
sa(dp37
g21
VJUGE ET PARTI
p38
sg23
V22x6x
p39
sg25
I96
sg26
I5
sg27
I95
sa(dp40
g21
VSOLSTICE STAR
p41
sg23
V648x1
p42
sg25
I95
sg26
I6
sg27
I97
sa(dp43
g21
VSMART BOY
p44
sg23
V321x5
p45
sg25
I82
sg26
I7
sg27
I89
sa(dp46
g21
VSTEEL BOB
p47
sg23
Vx412x
p48
sg25
I100
sg26
I8
sg27
I100
sa(dp49
g21
VECHO WATT
p50
sg23
V4865x
p51
sg25
I88
sg26
I9
sg27
I71
sa(dp52
g21
VALBERT D'OLIVATE
p53
sg23
V6x20x
p54
sg25
I69
sg26
I10
sg27
I74
sa(dp55
g21
VCHLOE'S COURT
p56
sg23
V4542x
p57
sg25
I74
sg26
I11
sg27
I80
sa(dp58
g21
VEDDY
p59
sg23
V7x84x
p60
sg25
I66
sg26
I12
sg27
I68
sa(dp61
g21
VFOR CARMEL
p62
sg23
V2081x
p63
sg25
I92
sg26
I13
sg27
I92
sasS'ratings_manual'
p64
(lp65
sssI1542813600
(dp66
g2
Vhttp://www.skyracing.com.au/index.php?component=racing&task=race&id=108065309&meetingid=107035189&Itemid=89
p67
sg4
V29018860.1520
p68
sg6
(dp69
g8
(lp70
(lp71
I5
aI4
aI3
aI1
aa(lp72
I1
aI6
aI8
aI5
aa(lp73
I7
aI3
aI10
aI1
aa(lp74
I4
aI8
aI7
aI9
aa(lp75
I9
aI8
aI10
aI1
aa(lp76
I5
aI4
aI3
aI1
aa(lp77
I4
aI5
aI3
aI9
aa(lp78
I4
aI5
aI1
aI8
aasg18
(lp79
(dp80
g21
VFLAMING CHARMER
p81
sg23
V545x5
p82
sg25
I92
sg26
I1
sg27
I91
sa(dp83
g21
VPOP ROCKSTAR
p84
sg23
Vx76x5
p85
sg25
I71
sg26
I2
sg27
I74
sa(dp86
g21
VOXWICH BAY
p87
sg23
V204x4
p88
sg25
I93
sg26
I3
sg27
I93
sa(dp89
g21
VATIRELARIGO
p90
sg23
V0913x
p91
sg25
I96
sg26
I4
sg27
I98
sa(dp92
g21
VTHE KINGS WRIT
p93
sg23
V9221x
p94
sg25
I100
sg26
I5
sg27
I100
sa(dp95
g21
VI SEE YOU WELL
p96
sg23
V514x5
p97
sg25
I79
sg26
I6
sg27
I76
sa(dp98
g21
VSTAGE SUMMIT
p99
sg23
Vx30x5
p100
sg25
I88
sg26
I7
sg27
I87
sa(dp101
g21
VVIVACCIO
p102
sg23
V3345x
p103
sg25
I76
sg26
I8
sg27
I82
sa(dp104
g21
VBEALLANDENDALL
p105
sg23
V1222x
p106
sg25
I84
sg26
I9
sg27
I85
sa(dp107
g21
VMODELIGO
p108
sg23
V32556
p109
sg25
I80
sg26
I10
sg27
I71
sa(dp110
g21
VSIDEWAYS
p111
sg23
V42x30
p112
sg25
I71
sg26
I11
sg27
I70
sa(dp113
g21
VPRECIOUS GROUND
p114
sg23
Vx334x
p115
sg25
I74
sg26
I12
sg27
I79
sasg64
(lp116
sssI1542806400
(dp117
g2
Vhttp://www.skyracing.com.au/index.php?component=racing&task=race&id=108065290&meetingid=107035205&Itemid=89
p118
sg4
V29018851.1320
p119
sg6
(dp120
g8
(lp121
(lp122
I4
aI2
aI6
aI1
aa(lp123
I2
aI1
aI6
aI4
aa(lp124
I1
aI5
aI3
aI2
aa(lp125
I2
aI6
aI4
aI1
aa(lp126
I2
aI4
aI1
aI6
aa(lp127
I2
aI6
aI4
aI1
aa(lp128
I2
aI4
aI6
aI1
aa(lp129
I2
aI4
aI1
aI6
aasg18
(lp130
(dp131
g21
VBLOTTOS
p132
sg23
V167x0
p133
sg25
I87
sg26
I1
sg27
I83
sa(dp134
g21
VDONNA'S DIAMOND
p135
sg23
V1102x
p136
sg25
I96
sg26
I2
sg27
I94
sa(dp137
g21
VNINE O THREE
p138
sg23
V21x00
p139
sg25
I81
sg26
I3
sg27
I79
sa(dp140
g21
VSENOR LOMBARDY
p141
sg23
V2112x
p142
sg25
I100
sg26
I4
sg27
I100
sa(dp143
g21
VTOP CAT DJ
p144
sg23
V84x46
p145
sg25
I79
sg26
I5
sg27
I78
sa(dp146
g21
VTOP VILLE BEN
p147
sg23
V0080x
p148
sg25
I93
sg26
I6
sg27
I88
sasg64
(lp149
sssI1542803400
(dp150
g2
Vhttp://www.skyracing.com.au/index.php?component=racing&task=race&id=108065274&meetingid=107035237&Itemid=89
p151
sg4
V29018850.1230
p152
sg6
(dp153
g8
(lp154
(lp155
I6
aI8
aI9
aI3
aa(lp156
I6
aI8
aI13
aI4
aa(lp157
I4
aI3
aI1
aI7
aa(lp158
I6
aI8
aI13
aI3
aa(lp159
I6
aI8
aI3
aI13
aa(lp160
I8
aI6
aI9
aI1
aa(lp161
I6
aI8
aI9
aI4
aa(lp162
I6
aI8
aI3
aI4
aasg18
(lp163
(dp164
g21
VBBOLD
p165
sg23
V2x7
p166
sg25
I85
sg26
I1
sg27
I85
sa(dp167
g21
VBOLAND'S MILL
p168
sg23
V06x80
p169
sg25
I67
sg26
I2
sg27
I62
sa(dp170
g21
VDESSIE'S DIAMOND
p171
sg23
V33
p172
sg25
I90
sg26
I3
sg27
I88
sa(dp173
g21
VGENERATION GAP
p174
sg23
V21x6
p175
sg25
I88
sg26
I4
sg27
I76
sa(dp176
g21
VGOODTHYNEAWAY
p177
sg23
V74x40
p178
sg25
I75
sg26
I5
sg27
I74
sa(dp179
g21
VHARAMBE
p180
sg23
V2x3x0
p181
sg25
I96
sg26
I6
sg27
I100
sa(dp182
g21
VHAVANA HERMANO
p183
sg23
V30x74
p184
sg25
I81
sg26
I7
sg27
I82
sa(dp185
g21
VLAUGHING LUIS
p186
sg23
V4x114
p187
sg25
I100
sg26
I8
sg27
I96
sa(dp188
g21
VMY MATE MARK
p189
sg23
V210x2
p190
sg25
I95
sg26
I9
sg27
I92
sa(dp191
g21
VON PAROLE
p192
sg23
V0x
p193
sg25
I68
sg26
I10
sg27
I68
sa(dp194
g21
VOSTUNI
p195
sg23
V8x
p196
sg25
I73
sg26
I11
sg27
I71
sa(dp197
g21
VSAVANNA ROAR
p198
sg23
V9x8x5
p199
sg25
I78
sg26
I12
sg27
I77
sa(dp200
g21
VWE'VE GOT PAYET
p201
sg23
V14957
p202
sg25
I71
sg26
I13
sg27
I68
sasg64
(lp203
sssI1542809700
(dp204
g2
Vhttp://www.skyracing.com.au/index.php?component=racing&task=race&id=108065307&meetingid=107035189&Itemid=89
p205
sg4
V29018860.1415
p206
sg6
(dp207
g8
(lp208
(lp209
I8
aI9
aI12
aI2
aa(lp210
I3
aI6
aI1
aI5
aa(lp211
I5
aI8
aI6
aI9
aa(lp212
I2
aI3
aI1
aI13
aa(lp213
I3
aI6
aI1
aI8
aa(lp214
I12
aI8
aI9
aI1
aa(lp215
I9
aI1
aI3
aI2
aa(lp216
I8
aI3
aI6
aI1
aasg18
(lp217
(dp218
g21
VSNUFF BOX
p219
sg23
V9201x
p220
sg25
I97
sg26
I1
sg27
I87
sa(dp221
g21
VIMPERIAL BAY
p222
sg23
V414x
p223
sg25
I94
sg26
I2
sg27
I90
sa(dp224
g21
VBILLY BRONCO
p225
sg23
V42x8x
p226
sg25
I89
sg26
I3
sg27
I82
sa(dp227
g21
VQUARENTA
p228
sg23
V000x7
p229
sg25
I63
sg26
I4
sg27
I63
sa(dp230
g21
VMR MCGUINESS
p231
sg23
V52463
p232
sg25
I70
sg26
I5
sg27
I74
sa(dp233
g21
VBATTLE OF IDEAS
p234
sg23
V345x4
p235
sg25
I82
sg26
I6
sg27
I85
sa(dp236
g21
VROBINROYALE
p237
sg23
V54x80
p238
sg25
I60
sg26
I7
sg27
I60
sa(dp239
g21
VGARRANE
p240
sg23
V110x2
p241
sg25
I84
sg26
I8
sg27
I100
sa(dp242
g21
VGLEN FORSA
p243
sg23
V15x22
p244
sg25
I100
sg26
I9
sg27
I99
sa(dp245
g21
VVICTARION
p246
sg23
V4x3x0
p247
sg25
I78
sg26
I10
sg27
I79
sa(dp248
g21
VBARBROOK STAR
p249
sg23
Vx64x4
p250
sg25
I68
sg26
I11
sg27
I71
sa(dp251
g21
VMINELLATILLMORNING
p252
sg23
Vx112x
p253
sg25
I90
sg26
I12
sg27
I93
sa(dp254
g21
VPOLYMATH
p255
sg23
V13x0x
p256
sg25
I65
sg26
I13
sg27
I72
sa(dp257
g21
VJULLY LES BUXY
p258
sg23
V5310x
p259
sg25
I74
sg26
I14
sg27
I75
sa(dp260
g21
VTHE BOOM IS BACK
p261
sg23
V17x70
p262
sg25
I76
sg26
I15
sg27
I64
sasg64
(lp263
sssI1542816600
(dp264
g2
Vhttp://www.skyracing.com.au/index.php?component=racing&task=race&id=108065364&meetingid=107035221&Itemid=89
p265
sg4
V29017540.1610
p266
sg6
(dp267
g8
(lp268
(lp269
I1
aI3
aI6
aI5
aa(lp270
I14
aI2
aI3
aI10
aa(lp271
I3
aI5
aI13
aI11
aa(lp272
I2
aI1
aI7
aI3
aa(lp273
I2
aI3
aI1
aI11
aa(lp274
I3
aI6
aI1
aI5
aa(lp275
I5
aI10
aI1
aI3
aa(lp276
I3
aI1
aI2
aI6
aasg18
(lp277
(dp278
g21
VUNIT OF ASSESSMENT
p279
sg23
V2151x
p280
sg25
I100
sg26
I1
sg27
I100
sa(dp281
g21
VGLENDUN
p282
sg23
V94540
p283
sg25
I84
sg26
I2
sg27
I76
sa(dp284
g21
VASHAZURI
p285
sg23
V36524
p286
sg25
I91
sg26
I3
sg27
I96
sa(dp287
g21
VLADY FARHH
p288
sg23
V582
p289
sg25
I73
sg26
I4
sg27
I71
sa(dp290
g21
VARABIC CULTURE
p291
sg23
V0x618
p292
sg25
I99
sg26
I5
sg27
I87
sa(dp293
g21
VRAAQYAH
p294
sg23
Vx443x
p295
sg25
I89
sg26
I6
sg27
I92
sa(dp296
g21
VSCREAMING GEMINI
p297
sg23
V33x28
p298
sg25
I77
sg26
I7
sg27
I79
sa(dp299
g21
VZENITH ONE
p300
sg23
V640x
p301
sg25
I62
sg26
I8
sg27
I59
sa(dp302
g21
VDONO DI DIO
p303
sg23
V6x240
p304
sg25
I67
sg26
I9
sg27
I66
sa(dp305
g21
VMAGIC MIRROR
p306
sg23
V866x3
p307
sg25
I94
sg26
I10
sg27
I72
sa(dp308
g21
VEXCELLERATION
p309
sg23
V32706
p310
sg25
I78
sg26
I11
sg27
I82
sa(dp311
g21
VCOMPULSIVE
p312
sg23
Vx889x
p313
sg25
I71
sg26
I12
sg27
I69
sa(dp314
g21
VGO FOX
p315
sg23
Vx4362
p316
sg25
I80
sg26
I13
sg27
I85
sa(dp317
g21
VMATRAVERS
p318
sg23
V75886
p319
sg25
I70
sg26
I14
sg27
I63
sasg64
(lp320
sssI1542805800
(dp321
g2
Vhttp://www.skyracing.com.au/index.php?component=racing&task=race&id=108065305&meetingid=107035189&Itemid=89
p322
sg4
V29018860.1310
p323
sg6
(dp324
g8
(lp325
(lp326
I3
aI5
aI16
aI4
aa(lp327
I5
aI16
aI9
aI14
aa(lp328
I14
aI1
aI7
aI11
aa(lp329
I5
aI16
aI9
aI14
aa(lp330
I16
aI5
aI9
aI4
aa(lp331
I16
aI4
aI3
aI13
aa(lp332
I3
aI16
aI4
aI5
aa(lp333
I16
aI5
aI3
aI9
aasg18
(lp334
(dp335
g21
VAPPLE MACK
p336
sg23
V9x7
p337
sg25
I74
sg26
I1
sg27
I67
sa(dp338
g21
VARTISTE DU GOUET
p339
sg23
V6x45x
p340
sg25
I70
sg26
I2
sg27
I59
sa(dp341
g21
VDEISE ABA
p342
sg23
V1x
p343
sg25
I100
sg26
I3
sg27
I100
sa(dp344
g21
VDIGER DAUDAIE
p345
sg23
V1x
p346
sg25
I98
sg26
I4
sg27
I85
sa(dp347
g21
VKNOW THE SCORE
p348
sg23
V1x10x
p349
sg25
I93
sg26
I5
sg27
I97
sa(dp350
g21
VMACK THE MAN
p351
sg23
V8x
p352
sg25
I79
sg26
I6
sg27
I71
sa(dp353
g21
VNATIVE SOLDIER
p354
sg23
V846x9
p355
sg25
I69
sg26
I7
sg27
I60
sa(dp356
g21
VNEWTIDE
p357
sg23
V2x
p358
sg25
I85
sg26
I8
sg27
I76
sa(dp359
g21
VNOT NORMAL
p360
sg23
V32x
p361
sg25
I86
sg26
I9
sg27
I78
sa(dp362
g21
VPASSING OCEANS
p363
sg23
V5x
p364
sg25
I77
sg26
I10
sg27
I68
sa(dp365
g21
VSOUTHERN STATES
p366
sg23
Vx09x0
p367
sg25
I66
sg26
I11
sg27
I63
sa(dp368
g21
VSTORM ARISING
p369
sg23
V3x
p370
sg25
I89
sg26
I12
sg27
I80
sa(dp371
g21
VWEE SAXON
p372
sg23
V12x
p373
sg25
I90
sg26
I13
sg27
I83
sa(dp374
g21
VGET AN OSCAR
p375
sg23
V21x64
p376
sg25
I80
sg26
I14
sg27
I73
sa(dp377
g21
VLONDON GRAMMAR
p378
sg23
V66x40
p379
sg25
I65
sg26
I15
sg27
I57
sa(dp380
g21
VQUEENOHEARTS
p381
sg23
V41x1x
p382
sg25
I95
sg26
I16
sg27
I87
sasg64
(lp383
sssI1542811500
(dp384
g2
Vhttp://www.skyracing.com.au/index.php?component=racing&task=race&id=108065308&meetingid=107035189&Itemid=89
p385
sg4
V29018860.1445
p386
sg6
(dp387
g8
(lp388
(lp389
I4
aI2
aI7
aI10
aa(lp390
I5
aI6
aI2
aI11
aa(lp391
I2
aI11
aI9
aI3
aa(lp392
I4
aI3
aI6
aI2
aa(lp393
I6
aI2
aI3
aI1
aa(lp394
I4
aI7
aI2
aI5
aa(lp395
I4
aI10
aI8
aI2
aa(lp396
I2
aI4
aI6
aI3
aasg18
(lp397
(dp398
g21
VACLASSAGOLD
p399
sg23
Vx108x
p400
sg25
I73
sg26
I1
sg27
I74
sa(dp401
g21
VDARK EPISODE
p402
sg23
V3
p403
sg25
I93
sg26
I2
sg27
I96
sa(dp404
g21
VEBONY GALE
p405
sg23
V61x0
p406
sg25
I84
sg26
I3
sg27
I81
sa(dp407
g21
VEKAYBURG
p408
sg23
V6x11x
p409
sg25
I100
sg26
I4
sg27
I100
sa(dp410
g21
VGOLDEN WHISKY
p411
sg23
V5640x
p412
sg25
I81
sg26
I5
sg27
I87
sa(dp413
g21
VJ'AI FROID
p414
sg23
V52x
p415
sg25
I79
sg26
I6
sg27
I78
sa(dp416
g21
VKINGS INN
p417
sg23
V4307x
p418
sg25
I87
sg26
I7
sg27
I94
sa(dp419
g21
VLOCHINVER
p420
sg23
V1x4x
p421
sg25
I92
sg26
I8
sg27
I84
sa(dp422
g21
VMONKEY HARRIS
p423
sg23
Vx24x8
p424
sg25
I71
sg26
I9
sg27
I72
sa(dp425
g21
VVARDS
p426
sg23
V121x
p427
sg25
I97
sg26
I10
sg27
I91
sa(dp428
g21
VZANZA
p429
sg23
V6
p430
sg25
I75
sg26
I11
sg27
I75
sa(dp431
g21
VQUESTIONATION
p432
sg23
V90x5x
p433
sg25
I70
sg26
I12
sg27
I68
sasg64
(lp434
sssI1542808200
(dp435
g2
Vhttp://www.skyracing.com.au/index.php?component=racing&task=race&id=108065291&meetingid=107035205&Itemid=89
p436
sg4
V29018851.1350
p437
sg6
(dp438
g8
(lp439
(lp440
I13
aI4
aI2
aI1
aa(lp441
I3
aI4
aI7
aI13
aa(lp442
I4
aI13
aI2
aI3
aa(lp443
I5
aI4
aI3
aI13
aa(lp444
I4
aI2
aI7
aI3
aa(lp445
I2
aI13
aI1
aI4
aa(lp446
I9
aI4
aI2
aI7
aa(lp447
I4
aI13
aI2
aI3
aasg18
(lp448
(dp449
g21
VGASSIN GOLF
p450
sg23
V4304x
p451
sg25
I83
sg26
I1
sg27
I86
sa(dp452
g21
VTEESCOMPONENTS LAD
p453
sg23
V334x2
p454
sg25
I92
sg26
I2
sg27
I89
sa(dp455
g21
VSLEEPY HAVEN
p456
sg23
V357x6
p457
sg25
I71
sg26
I3
sg27
I64
sa(dp458
g21
VTAKE A BREAK
p459
sg23
V33211
p460
sg25
I100
sg26
I4
sg27
I96
sa(dp461
g21
VTHE CHARACTER
p462
sg23
V30x1x
p463
sg25
I84
sg26
I5
sg27
I79
sa(dp464
g21
VLOSTOCK HALL
p465
sg23
V1317x
p466
sg25
I79
sg26
I6
sg27
I76
sa(dp467
g21
VBEYONDTEMPTATION
p468
sg23
V1713x
p469
sg25
I88
sg26
I7
sg27
I71
sa(dp470
g21
VFELIX MENDELSSOHN
p471
sg23
V065x0
p472
sg25
I65
sg26
I8
sg27
I64
sa(dp473
g21
VSTARPLEX
p474
sg23
V1445x
p475
sg25
I98
sg26
I9
sg27
I81
sa(dp476
g21
VPISTOL
p477
sg23
V330x0
p478
sg25
I63
sg26
I10
sg27
I57
sa(dp479
g21
VSAINT FREULE
p480
sg23
V256x7
p481
sg25
I73
sg26
I11
sg27
I68
sa(dp482
g21
VNEWSTART
p483
sg23
V314x0
p484
sg25
I69
sg26
I12
sg27
I61
sa(dp485
g21
VMINELLA FIVEO
p486
sg23
V69262
p487
sg25
I95
sg26
I13
sg27
I100
sa(dp488
g21
VWISHING WELL
p489
sg23
Vx7349
p490
sg25
I77
sg26
I14
sg27
I73
sasg64
(lp491
sssI1542809100
(dp492
g2
Vhttp://www.skyracing.com.au/index.php?component=racing&task=race&id=108065277&meetingid=107035237&Itemid=89
p493
sg4
V29018850.1405
p494
sg6
(dp495
g8
(lp496
(lp497
I2
aI1
aI3
aa(lp498
I2
aI1
aI3
aa(lp499
I3
aI1
aI2
aa(lp500
I2
aI1
aI3
aa(lp501
I2
aI1
aI3
aa(lp502
I2
aI1
aI3
aa(lp503
I2
aI1
aI3
aa(lp504
I2
aI1
aI3
aasg18
(lp505
(dp506
g21
VDJINGLE
p507
sg23
Vx1x4x
p508
sg25
I98
sg26
I1
sg27
I99
sa(dp509
g21
VPACIFIC DE BAUNE
p510
sg23
V1712x
p511
sg25
I100
sg26
I2
sg27
I100
sa(dp512
g21
VSUSSEX ROAD
p513
sg23
Vx6233
p514
sg25
I92
sg26
I3
sg27
I90
sasg64
(lp515
sssI1542807600
(dp516
g2
Vhttp://www.skyracing.com.au/index.php?component=racing&task=race&id=108065306&meetingid=107035189&Itemid=89
p517
sg4
V29018860.1340
p518
sg6
(dp519
g8
(lp520
(lp521
I5
aI6
aI4
aI16
aa(lp522
I8
aI1
aI12
aI10
aa(lp523
I13
aI7
aI11
aI2
aa(lp524
I6
aI8
aI1
aI13
aa(lp525
I10
aI5
aI1
aI16
aa(lp526
I5
aI6
aI4
aI16
aa(lp527
I6
aI5
aI10
aI4
aa(lp528
I5
aI6
aI8
aI1
aasg18
(lp529
(dp530
g21
VAMZAC MAGIC
p531
sg23
V2x53x
p532
sg25
I86
sg26
I1
sg27
I78
sa(dp533
g21
VAWESOMEDESTINATION
p534
sg23
V220x0
p535
sg25
I82
sg26
I2
sg27
I77
sa(dp536
g21
VBIGNORM
p537
sg23
V88x8x
p538
sg25
I66
sg26
I3
sg27
I60
sa(dp539
g21
VDUKE OF KILCORRAL
p540
sg23
V2022x
p541
sg25
I94
sg26
I4
sg27
I94
sa(dp542
g21
VEASYRUN DE VASSY
p543
sg23
V5x11x
p544
sg25
I97
sg26
I5
sg27
I100
sa(dp545
g21
VMCNAMARAS BAND
p546
sg23
V1x
p547
sg25
I100
sg26
I6
sg27
I96
sa(dp548
g21
VNATIVEGETAWAY
p549
sg23
V352x3
p550
sg25
I88
sg26
I7
sg27
I85
sa(dp551
g21
VNOCTURNAL MYTH
p552
sg23
V65x
p553
sg25
I84
sg26
I8
sg27
I83
sa(dp554
g21
VOSCAR CEREMONY
p555
sg23
V
p556
sg25
I77
sg26
I9
sg27
I0
sa(dp557
g21
VPAXMAN
p558
sg23
V1x
p559
sg25
I95
sg26
I10
sg27
I87
sa(dp560
g21
VSHAMAN DU BERLAIS
p561
sg23
V273x7
p562
sg25
I73
sg26
I11
sg27
I73
sa(dp563
g21
VSHARP GETAWAY
p564
sg23
V680x
p565
sg25
I64
sg26
I12
sg27
I62
sa(dp566
g21
VSUPER SNIPE
p567
sg23
V6
p568
sg25
I72
sg26
I13
sg27
I68
sa(dp569
g21
VBACKINTHEOLDTIMES
p570
sg23
V0x1x0
p571
sg25
I78
sg26
I14
sg27
I67
sa(dp572
g21
VCHAMPAGNEFOROSCAR
p573
sg23
V9
p574
sg25
I69
sg26
I15
sg27
I70
sa(dp575
g21
VVIVA VITTORIA
p576
sg23
V2x
p577
sg25
I91
sg26
I16
sg27
I91
sasg64
(lp578
sssI1542807000
(dp579
g2
Vhttp://www.skyracing.com.au/index.php?component=racing&task=race&id=108065276&meetingid=107035237&Itemid=89
p580
sg4
V29018850.1330
p581
sg6
(dp582
g8
(lp583
(lp584
I9
aI1
aI7
aI8
aa(lp585
I6
aI1
aI4
aI7
aa(lp586
I1
aI4
aI6
aI10
aa(lp587
I6
aI1
aI5
aI7
aa(lp588
I6
aI7
aI9
aI1
aa(lp589
I1
aI9
aI7
aI8
aa(lp590
I9
aI7
aI1
aI2
aa(lp591
I1
aI6
aI9
aI7
aasg18
(lp592
(dp593
g21
VBIDDY THE BOSS
p594
sg23
V21542
p595
sg25
I92
sg26
I1
sg27
I96
sa(dp596
g21
VBALLYBOUGH NORA
p597
sg23
V41x
p598
sg25
I89
sg26
I2
sg27
I79
sa(dp599
g21
VBASTANTE
p600
sg23
V0x41x
p601
sg25
I71
sg26
I3
sg27
I73
sa(dp602
g21
VHOT RYAN
p603
sg23
V817x6
p604
sg25
I74
sg26
I4
sg27
I63
sa(dp605
g21
VLIBERTY BELLA
p606
sg23
V5457x
p607
sg25
I62
sg26
I5
sg27
I69
sa(dp608
g21
VMAEBH
p609
sg23
V130x3
p610
sg25
I78
sg26
I6
sg27
I81
sa(dp611
g21
VMILLARVILLE
p612
sg23
V1x
p613
sg25
I95
sg26
I7
sg27
I90
sa(dp614
g21
VMY DIXIE
p615
sg23
V4x
p616
sg25
I83
sg26
I8
sg27
I85
sa(dp617
g21
VSHE MITE BITE
p618
sg23
V51x
p619
sg25
I100
sg26
I9
sg27
I100
sa(dp620
g21
VWINDY BOTTOM
p621
sg23
V401x8
p622
sg25
I68
sg26
I10
sg27
I61
sasg64
(lp623
sssI1542804600
(dp624
g2
Vhttp://www.skyracing.com.au/index.php?component=racing&task=race&id=108065289&meetingid=107035205&Itemid=89
p625
sg4
V29018851.1250
p626
sg6
(dp627
g8
(lp628
(lp629
I3
aI10
aI1
aI9
aa(lp630
I6
aI7
aI3
aI10
aa(lp631
I6
aI7
aI2
aI3
aa(lp632
I6
aI7
aI10
aI2
aa(lp633
I10
aI7
aI3
aI6
aa(lp634
I3
aI10
aI1
aI5
aa(lp635
I10
aI3
aI1
aI9
aa(lp636
I3
aI10
aI6
aI7
aasg18
(lp637
(dp638
g21
VENFIN PHIL
p639
sg23
Vx341x
p640
sg25
I94
sg26
I1
sg27
I94
sa(dp641
g21
VCAPTAIN KURT
p642
sg23
V0x4
p643
sg25
I78
sg26
I2
sg27
I78
sa(dp644
g21
VHILL SIXTEEN
p645
sg23
V1x3
p646
sg25
I100
sg26
I3
sg27
I100
sa(dp647
g21
VMAGIC DRAGON
p648
sg23
V67
p649
sg25
I81
sg26
I4
sg27
I80
sa(dp650
g21
VSTONEY ROVER
p651
sg23
V83x92
p652
sg25
I89
sg26
I5
sg27
I87
sa(dp653
g21
VTOI STOREY
p654
sg23
V44
p655
sg25
I77
sg26
I6
sg27
I75
sa(dp656
g21
VWARENDORF
p657
sg23
V6x7x3
p658
sg25
I86
sg26
I7
sg27
I85
sa(dp659
g21
VCUSHY BUTTERFIELD
p660
sg23
Vx008x
p661
sg25
I70
sg26
I8
sg27
I70
sa(dp662
g21
VMADAM CLOUD
p663
sg23
V31x0
p664
sg25
I92
sg26
I9
sg27
I90
sa(dp665
g21
VMISS BATTEN
p666
sg23
V1x
p667
sg25
I98
sg26
I10
sg27
I97
sa(dp668
g21
VSAMBA TIME
p669
sg23
V0x7x
p670
sg25
I73
sg26
I11
sg27
I74
sasg64
(lp671
sssI1542810900
(dp672
g2
Vhttp://www.skyracing.com.au/index.php?component=racing&task=race&id=108065278&meetingid=107035237&Itemid=89
p673
sg4
V29018850.1435
p674
sg6
(dp675
g8
(lp676
(lp677
I4
aI3
aI1
aI2
aa(lp678
I1
aI4
aI2
aI7
aa(lp679
I4
aI1
aI7
aI2
aa(lp680
I1
aI3
aI4
aI5
aa(lp681
I1
aI7
aI4
aI2
aa(lp682
I4
aI3
aI1
aI5
aa(lp683
I1
aI4
aI7
aI3
aa(lp684
I4
aI1
aI3
aI7
aasg18
(lp685
(dp686
g21
VMALACHITE
p687
sg23
V516x0
p688
sg25
I96
sg26
I1
sg27
I88
sa(dp689
g21
VSANTIAGO DE CUBA
p690
sg23
V3250x
p691
sg25
I81
sg26
I2
sg27
I82
sa(dp692
g21
VCOGBURN
p693
sg23
V22x4x
p694
sg25
I87
sg26
I3
sg27
I97
sa(dp695
g21
VERICK LE ROUGE
p696
sg23
V452x1
p697
sg25
I100
sg26
I4
sg27
I100
sa(dp698
g21
VCLASSIC TUNE
p699
sg23
Vx0x0x
p700
sg25
I75
sg26
I5
sg27
I79
sa(dp701
g21
VOUTCROP
p702
sg23
V59031
p703
sg25
I90
sg26
I6
sg27
I94
sa(dp704
g21
VSPORTY YANKEE
p705
sg23
V7x0x0
p706
sg25
I78
sg26
I7
sg27
I74
sasg64
(lp707
sssI1542812100
(dp708
g2
Vhttp://www.skyracing.com.au/index.php?component=racing&task=race&id=108065293&meetingid=107035205&Itemid=89
p709
sg4
V29018851.1455
p710
sg6
(dp711
g8
(lp712
(lp713
I1
aI14
aI2
aI4
aa(lp714
I1
aI4
aI13
aI3
aa(lp715
I8
aI10
aI1
aI12
aa(lp716
I10
aI3
aI13
aI1
aa(lp717
I3
aI1
aI4
aI13
aa(lp718
I1
aI2
aI4
aI14
aa(lp719
I1
aI2
aI4
aI9
aa(lp720
I1
aI4
aI3
aI10
aasg18
(lp721
(dp722
g21
VCHANCEANOTHERFIVE
p723
sg23
Vx4340
p724
sg25
I100
sg26
I1
sg27
I100
sa(dp725
g21
VCELTIC MONARCH
p726
sg23
V13686
p727
sg25
I99
sg26
I2
sg27
I96
sa(dp728
g21
VLOVE AT DAWN
p729
sg23
V652x9
p730
sg25
I83
sg26
I3
sg27
I87
sa(dp731
g21
VSNOWED IN
p732
sg23
Vx0739
p733
sg25
I95
sg26
I4
sg27
I94
sa(dp734
g21
VMISS AMELIA
p735
sg23
V6850x
p736
sg25
I78
sg26
I5
sg27
I81
sa(dp737
g21
VMOORES NOVELTY
p738
sg23
V0x04x
p739
sg25
I77
sg26
I6
sg27
I77
sa(dp740
g21
VCRAKEHALL LAD
p741
sg23
V76575
p742
sg25
I91
sg26
I7
sg27
I89
sa(dp743
g21
VEMILYOGUE
p744
sg23
V7x067
p745
sg25
I69
sg26
I8
sg27
I69
sa(dp746
g21
VMAC CENNETIG
p747
sg23
V8x805
p748
sg25
I89
sg26
I9
sg27
I90
sa(dp749
g21
VAIRDRIGH
p750
sg23
V65480
p751
sg25
I73
sg26
I10
sg27
I75
sa(dp752
g21
VBRACKENMOSS RORY
p753
sg23
V900x0
p754
sg25
I64
sg26
I11
sg27
I64
sa(dp755
g21
VWISE COCO
p756
sg23
V06407
p757
sg25
I66
sg26
I12
sg27
I66
sa(dp758
g21
VAVONDHU PEARL
p759
sg23
V368x7
p760
sg25
I87
sg26
I13
sg27
I78
sa(dp761
g21
VTOWERBURN
p762
sg23
V000x4
p763
sg25
I94
sg26
I14
sg27
I99
sa(dp764
g21
VROCK N'STONES
p765
sg23
V04797
p766
sg25
I80
sg26
I15
sg27
I84
sa(dp767
g21
VMILLROSE BELL
p768
sg23
V7657x
p769
sg25
I71
sg26
I16
sg27
I70
sasg64
(lp770
sssI1542814200
(dp771
g2
Vhttp://www.skyracing.com.au/index.php?component=racing&task=race&id=108065294&meetingid=107035205&Itemid=89
p772
sg4
V29018851.1530
p773
sg6
(dp774
g8
(lp775
(lp776
I5
aI1
aI7
aI3
aa(lp777
I1
aI9
aI2
aI4
aa(lp778
I1
aI2
aI6
aI10
aa(lp779
I9
aI3
aI1
aI8
aa(lp780
I1
aI9
aI6
aI10
aa(lp781
I1
aI5
aI7
aI4
aa(lp782
I3
aI5
aI1
aI4
aa(lp783
I1
aI9
aI5
aI2
aasg18
(lp784
(dp785
g21
VRED OCHRE
p786
sg23
V22x52
p787
sg25
I93
sg26
I1
sg27
I95
sa(dp788
g21
VLE FRANK
p789
sg23
V0x4x4
p790
sg25
I79
sg26
I2
sg27
I77
sa(dp791
g21
VECHO EXPRESS
p792
sg23
V6x70x
p793
sg25
I99
sg26
I3
sg27
I83
sa(dp794
g21
VBUDARRI
p795
sg23
V22x73
p796
sg25
I82
sg26
I4
sg27
I79
sa(dp797
g21
VTROOBLUE
p798
sg23
V34x98
p799
sg25
I100
sg26
I5
sg27
I100
sa(dp800
g21
VRINGARINGAROSIE
p801
sg23
Vx0743
p802
sg25
I69
sg26
I6
sg27
I69
sa(dp803
g21
VTHE PINE MARTIN
p804
sg23
V6x12x
p805
sg25
I88
sg26
I7
sg27
I89
sa(dp806
g21
VGOGO BALOO
p807
sg23
Vx378x
p808
sg25
I73
sg26
I8
sg27
I73
sa(dp809
g21
VSCORPO
p810
sg23
V0969x
p811
sg25
I60
sg26
I9
sg27
I59
sa(dp812
g21
VEARLY BOY
p813
sg23
V7x642
p814
sg25
I67
sg26
I10
sg27
I60
sasg64
(lp815
sssI1542818400
(dp816
g2
Vhttp://www.skyracing.com.au/index.php?component=racing&task=race&id=108065365&meetingid=107035221&Itemid=89
p817
sg4
V29017540.1640
p818
sg6
(dp819
g8
(lp820
(lp821
I10
aI5
aI7
aI4
aa(lp822
I6
aI1
aI13
aI12
aa(lp823
I1
aI6
aI7
aI5
aa(lp824
I10
aI1
aI5
aI7
aa(lp825
I12
aI10
aI1
aI7
aa(lp826
I10
aI7
aI5
aI4
aa(lp827
I10
aI5
aI13
aI7
aa(lp828
I10
aI1
aI7
aI5
aasg18
(lp829
(dp830
g21
VWHELANS WAY
p831
sg23
V2046
p832
sg25
I72
sg26
I1
sg27
I72
sa(dp833
g21
VCOMEONFEELTHEFORCE
p834
sg23
V3445x
p835
sg25
I79
sg26
I2
sg27
I78
sa(dp836
g21
VSAVOY BROWN
p837
sg23
V4095
p838
sg25
I75
sg26
I3
sg27
I75
sa(dp839
g21
VRIVIERA CLAIRE
p840
sg23
V353
p841
sg25
I87
sg26
I4
sg27
I90
sa(dp842
g21
VOPEN SEA
p843
sg23
V443
p844
sg25
I99
sg26
I5
sg27
I96
sa(dp845
g21
VSECOND COLLECTION
p846
sg23
V56430
p847
sg25
I67
sg26
I6
sg27
I67
sa(dp848
g21
VORCHID KILLER
p849
sg23
V336
p850
sg25
I94
sg26
I7
sg27
I94
sa(dp851
g21
VGLOBAL ACCLAMATION
p852
sg23
V557
p853
sg25
I74
sg26
I8
sg27
I74
sa(dp854
g21
VYOUR MOTHERS' EYES
p855
sg23
V8954
p856
sg25
I86
sg26
I9
sg27
I89
sa(dp857
g21
VDANCING JO
p858
sg23
V06812
p859
sg25
I100
sg26
I10
sg27
I100
sa(dp860
g21
VCAUTHEN
p861
sg23
V0549
p862
sg25
I63
sg26
I11
sg27
I62
sa(dp863
g21
VCOASTGUARD WATCH
p864
sg23
V30035
p865
sg25
I81
sg26
I12
sg27
I85
sa(dp866
g21
VPRECISION PRINCE
p867
sg23
V7810x
p868
sg25
I90
sg26
I13
sg27
I83
sa(dp869
g21
VCERN
p870
sg23
V999
p871
sg25
I71
sg26
I14
sg27
I70
sasg64
(lp872
sssI1542815100
(dp873
g2
Vhttp://www.skyracing.com.au/index.php?component=racing&task=race&id=108065280&meetingid=107035237&Itemid=89
p874
sg4
V29018850.1545
p875
sg6
(dp876
g8
(lp877
(lp878
I6
aI2
aI4
aI7
aa(lp879
I2
aI6
aI4
aI7
aa(lp880
I2
aI6
aI4
aI7
aa(lp881
I2
aI6
aI4
aI7
aa(lp882
I6
aI2
aI4
aI7
aa(lp883
I6
aI2
aI4
aI7
aa(lp884
I6
aI2
aI5
aI1
aa(lp885
I6
aI2
aI4
aI7
aasg18
(lp886
(dp887
g21
VAINMISFEARR
p888
sg23
g556
sg25
I90
sg26
I1
sg27
I0
sa(dp889
g21
VBERGAMOT
p890
sg23
V5
p891
sg25
I97
sg26
I2
sg27
I98
sa(dp892
g21
VDEVIOUS DICKS DAME
p893
sg23
g556
sg25
I61
sg26
I3
sg27
I0
sa(dp894
g21
VESPECIALLY SO
p895
sg23
V4
p896
sg25
I85
sg26
I4
sg27
I94
sa(dp897
g21
VEYES RIGHT
p898
sg23
g556
sg25
I95
sg26
I5
sg27
I0
sa(dp899
g21
VFELICIDAD
p900
sg23
V42
p901
sg25
I100
sg26
I6
sg27
I100
sa(dp902
g21
VFILIPINE
p903
sg23
V6
p904
sg25
I79
sg26
I7
sg27
I89
sa(dp905
g21
VLADY CYLLA
p906
sg23
g556
sg25
I87
sg26
I8
sg27
I0
sa(dp907
g21
VLITTLE CHARLOTTE
p908
sg23
g556
sg25
I77
sg26
I9
sg27
I0
sa(dp909
g21
VLUNAR BABY
p910
sg23
g556
sg25
I82
sg26
I10
sg27
I0
sa(dp911
g21
VMONTELIMAR
p912
sg23
g556
sg25
I63
sg26
I11
sg27
I0
sa(dp913
g21
VPARISIAN AFFAIR
p914
sg23
g556
sg25
I74
sg26
I12
sg27
I0
sa(dp915
g21
VSLEPTWITHMEBOOTSON
p916
sg23
g556
sg25
I65
sg26
I13
sg27
I0
sa(dp917
g21
VTOPS NO
p918
sg23
g556
sg25
I72
sg26
I14
sg27
I0
sa(dp919
g21
VWHAT ABOUT BARB
p920
sg23
g556
sg25
I68
sg26
I15
sg27
I0
sasg64
(lp921
sssI1542805200
(dp922
g2
Vhttp://www.skyracing.com.au/index.php?component=racing&task=race&id=108065275&meetingid=107035237&Itemid=89
p923
sg4
V29018850.1300
p924
sg6
(dp925
g8
(lp926
(lp927
I1
aI2
aI4
aI3
aa(lp928
I1
aI2
aI4
aI6
aa(lp929
I1
aI2
aI4
aI6
aa(lp930
I1
aI2
aI4
aI6
aa(lp931
I1
aI4
aI6
aI2
aa(lp932
I1
aI4
aI3
aI2
aa(lp933
I2
aI1
aI3
aI4
aa(lp934
I1
aI2
aI4
aI6
aasg18
(lp935
(dp936
g21
VMARIENSTAR
p937
sg23
V46x11
p938
sg25
I100
sg26
I1
sg27
I100
sa(dp939
g21
VBLACK TULIP
p940
sg23
Vx83x3
p941
sg25
I97
sg26
I2
sg27
I97
sa(dp942
g21
VBLACKDOWN HILLS
p943
sg23
V1x1x9
p944
sg25
I94
sg26
I3
sg27
I89
sa(dp945
g21
VPULLING POWER
p946
sg23
V0x5x1
p947
sg25
I89
sg26
I4
sg27
I94
sa(dp948
g21
VDROPS OF JUPITOR
p949
sg23
V6640x
p950
sg25
I81
sg26
I5
sg27
I79
sa(dp951
g21
VKILCARA
p952
sg23
V4x043
p953
sg25
I78
sg26
I6
sg27
I83
sasg64
(lp954
sssI1542810300
(dp955
g2
Vhttp://www.skyracing.com.au/index.php?component=racing&task=race&id=108065292&meetingid=107035205&Itemid=89
p956
sg4
V29018851.1425
p957
sg6
(dp958
g8
(lp959
(lp960
I4
aI9
aI2
aI1
aa(lp961
I1
aI2
aI4
aI8
aa(lp962
I7
aI8
aI5
aI3
aa(lp963
I2
aI3
aI11
aI7
aa(lp964
I9
aI7
aI10
aI5
aa(lp965
I2
aI4
aI9
aI1
aa(lp966
I4
aI2
aI5
aI9
aa(lp967
I2
aI4
aI9
aI7
aasg18
(lp968
(dp969
g21
VTICKENWOLF
p970
sg23
V64632
p971
sg25
I92
sg26
I1
sg27
I86
sa(dp972
g21
VKILCULLEN FLEM
p973
sg23
V8134x
p974
sg25
I93
sg26
I2
sg27
I90
sa(dp975
g21
VGEORGES CONN
p976
sg23
V21030
p977
sg25
I85
sg26
I3
sg27
I83
sa(dp978
g21
VBATTLE DUST
p979
sg23
V1210x
p980
sg25
I100
sg26
I4
sg27
I100
sa(dp981
g21
VCRANK EM UP
p982
sg23
V458x3
p983
sg25
I88
sg26
I5
sg27
I77
sa(dp984
g21
VSCOTSWELL
p985
sg23
Vx75x8
p986
sg25
I79
sg26
I6
sg27
I72
sa(dp987
g21
VAMILLIONTIMES
p988
sg23
V75435
p989
sg25
I80
sg26
I7
sg27
I80
sa(dp990
g21
VTOTAL ASSETS
p991
sg23
V83x06
p992
sg25
I70
sg26
I8
sg27
I67
sa(dp993
g21
VCHANCEITON
p994
sg23
V9x313
p995
sg25
I96
sg26
I9
sg27
I98
sa(dp996
g21
VAPACHE PILOT
p997
sg23
V134x6
p998
sg25
I75
sg26
I10
sg27
I75
sa(dp999
g21
VALTO DES MOTTES
p1000
sg23
V368x0
p1001
sg25
I73
sg26
I11
sg27
I70
sasg64
(lp1002
sssI1542813000
(dp1003
g2
Vhttp://www.skyracing.com.au/index.php?component=racing&task=race&id=108065279&meetingid=107035237&Itemid=89
p1004
sg4
V29018850.1510
p1005
sg6
(dp1006
g8
(lp1007
(lp1008
I1
aI2
aI3
aa(lp1009
I1
aI2
aI3
aa(lp1010
I1
aI2
aI3
aa(lp1011
I3
aI1
aI2
aa(lp1012
I2
aI1
aI3
aa(lp1013
I1
aI2
aI3
aa(lp1014
I1
aI2
aI3
aa(lp1015
I1
aI2
aI3
aasg18
(lp1016
(dp1017
g21
VEXITAS
p1018
sg23
V41221
p1019
sg25
I99
sg26
I1
sg27
I100
sa(dp1020
g21
VBEAT THAT
p1021
sg23
Vx1142
p1022
sg25
I100
sg26
I2
sg27
I99
sa(dp1023
g21
VLE REVE
p1024
sg23
V0x90x
p1025
sg25
I90
sg26
I3
sg27
I94
sasg64
(lp1026
sss.