(dp0
I1542636000
(dp1
S'skyracing_url'
p2
Vhttp://www.skyracing.com.au/index.php?component=racing&task=race&id=108000160&meetingid=107033805&Itemid=89
p3
sS'betfair_raceid'
p4
V29016354.1400
p5
sS'dat2'
p6
(dp7
S'ratings_auto'
p8
(lp9
(lp10
I1
aI5
aI2
aI4
aa(lp11
I1
aI5
aI3
aI4
aa(lp12
I1
aI5
aI2
aI4
aa(lp13
I1
aI3
aI2
aI5
aa(lp14
I5
aI3
aI1
aI4
aa(lp15
I5
aI1
aI4
aI2
aa(lp16
I1
aI5
aI2
aI4
aa(lp17
I1
aI5
aI3
aI2
aasS'horse_details'
p18
(lp19
(dp20
S'horse_name'
p21
VSACKETT
p22
sS'horse_form'
p23
V237x1
p24
sS'rating_2'
p25
I100
sS'horse_number'
p26
I1
sS'rating_1'
p27
I100
sa(dp28
g21
VZEPHYROS BLEU
p29
sg23
Vx96x6
p30
sg25
I93
sg26
I2
sg27
I87
sa(dp31
g21
VACARO
p32
sg23
V237x0
p33
sg25
I81
sg26
I3
sg27
I80
sa(dp34
g21
VMR FICKLE
p35
sg23
V73x10
p36
sg25
I89
sg26
I4
sg27
I84
sa(dp37
g21
VWINTER SPICE
p38
sg23
V26322
p39
sg25
I98
sg26
I5
sg27
I95
sasS'ratings_manual'
p40
(lp41
sssI1542640800
(dp42
g2
Vhttp://www.skyracing.com.au/index.php?component=racing&task=race&id=108000177&meetingid=107810698&Itemid=89
p43
sg4
V29016351.1520
p44
sg6
(dp45
g8
(lp46
(lp47
I5
aI2
aI3
aI1
aa(lp48
I5
aI2
aI1
aI3
aa(lp49
I5
aI2
aI1
aI4
aa(lp50
I5
aI4
aI3
aI1
aa(lp51
I5
aI3
aI2
aI4
aa(lp52
I3
aI2
aI5
aI1
aa(lp53
I2
aI5
aI3
aI1
aa(lp54
I5
aI2
aI3
aI1
aasg18
(lp55
(dp56
g21
VCERNUNNOS
p57
sg23
V68623
p58
sg25
I85
sg26
I1
sg27
I88
sa(dp59
g21
VABBEYGREY
p60
sg23
V9x7x2
p61
sg25
I98
sg26
I2
sg27
I96
sa(dp62
g21
VPEMBROKE HOUSE
p63
sg23
V221x2
p64
sg25
I93
sg26
I3
sg27
I93
sa(dp65
g21
VCHILL IN THE WOOD
p66
sg23
V2x393
p67
sg25
I82
sg26
I4
sg27
I80
sa(dp68
g21
VLOVE THE LEADER
p69
sg23
Vx0911
p70
sg25
I100
sg26
I5
sg27
I100
sa(dp71
g21
VSPOCK
p72
sg23
V2470x
p73
sg25
I79
sg26
I6
sg27
I76
sa(dp74
g21
VCRANBROOK CAUSEWAY
p75
sg23
V090x5
p76
sg25
I77
sg26
I7
sg27
I77
sasg40
(lp77
sssI1542639900
(dp78
g2
Vhttp://www.skyracing.com.au/index.php?component=racing&task=race&id=108000162&meetingid=107033805&Itemid=89
p79
sg4
V29016354.1505
p80
sg6
(dp81
g8
(lp82
(lp83
I8
aI7
aI6
aI2
aa(lp84
I1
aI4
aI2
aI3
aa(lp85
I2
aI3
aI8
aI4
aa(lp86
I2
aI1
aI6
aI3
aa(lp87
I2
aI8
aI10
aI3
aa(lp88
I8
aI7
aI6
aI2
aa(lp89
I1
aI6
aI7
aI5
aa(lp90
I2
aI8
aI1
aI7
aasg18
(lp91
(dp92
g21
VFLY HOME HARRY
p93
sg23
V84x78
p94
sg25
I95
sg26
I1
sg27
I79
sa(dp95
g21
VRIVER OF INTRIGUE
p96
sg23
V3x319
p97
sg25
I84
sg26
I2
sg27
I90
sa(dp98
g21
VTHEKINGOFCONNEMARA
p99
sg23
V80652
p100
sg25
I78
sg26
I3
sg27
I89
sa(dp101
g21
VROYALS AND REBELS
p102
sg23
V07755
p103
sg25
I80
sg26
I4
sg27
I76
sa(dp104
g21
VCHEQUE EN BLANC
p105
sg23
V320x6
p106
sg25
I87
sg26
I5
sg27
I86
sa(dp107
g21
VCRUISING BYE
p108
sg23
Vx215x
p109
sg25
I92
sg26
I6
sg27
I95
sa(dp110
g21
VITOLDYOU
p111
sg23
V5725x
p112
sg25
I97
sg26
I7
sg27
I96
sa(dp113
g21
VBERMEO
p114
sg23
V63111
p115
sg25
I100
sg26
I8
sg27
I100
sa(dp116
g21
VALANJOU
p117
sg23
V82948
p118
sg25
I74
sg26
I9
sg27
I74
sa(dp119
g21
VROGUE DANCER
p120
sg23
Vx83x2
p121
sg25
I77
sg26
I10
sg27
I80
sa(dp122
g21
VSNOWBALL
p123
sg23
V4074x
p124
sg25
I71
sg26
I11
sg27
I71
sa(dp125
g21
VMINMORE GREY
p126
sg23
V5537x
p127
sg25
I70
sg26
I12
sg27
I71
sasg40
(lp128
sssI1542641700
(dp129
g2
Vhttp://www.skyracing.com.au/index.php?component=racing&task=race&id=108000163&meetingid=107033805&Itemid=89
p130
sg4
V29016354.1535
p131
sg6
(dp132
g8
(lp133
(lp134
I3
aI1
aI8
aI2
aa(lp135
I1
aI2
aI3
aI4
aa(lp136
I5
aI1
aI2
aI8
aa(lp137
I4
aI5
aI1
aI2
aa(lp138
I3
aI2
aI1
aI4
aa(lp139
I1
aI3
aI8
aI2
aa(lp140
I3
aI8
aI1
aI7
aa(lp141
I1
aI3
aI2
aI5
aasg18
(lp142
(dp143
g21
VWELLUPTOSCRATCH
p144
sg23
V607x2
p145
sg25
I95
sg26
I1
sg27
I95
sa(dp146
g21
VBALKINSTOWN
p147
sg23
V23844
p148
sg25
I85
sg26
I2
sg27
I81
sa(dp149
g21
VBURGESS DREAM
p150
sg23
V3381x
p151
sg25
I100
sg26
I3
sg27
I100
sa(dp152
g21
VFEARSOME FRED
p153
sg23
V2837x
p154
sg25
I77
sg26
I4
sg27
I77
sa(dp155
g21
VMAUNA KEA
p156
sg23
V4x076
p157
sg25
I69
sg26
I5
sg27
I68
sa(dp158
g21
VSIZING SAHARA
p159
sg23
Vx7x7x
p160
sg25
I80
sg26
I6
sg27
I72
sa(dp161
g21
VJONJOELA
p162
sg23
V0x053
p163
sg25
I82
sg26
I7
sg27
I74
sa(dp164
g21
VLAMH AR LAMH
p165
sg23
V34592
p166
sg25
I92
sg26
I8
sg27
I86
sasg40
(lp167
sssI1542630600
(dp168
g2
Vhttp://www.skyracing.com.au/index.php?component=racing&task=race&id=108000157&meetingid=107033805&Itemid=89
p169
sg4
V29016354.1230
p170
sg6
(dp171
g8
(lp172
(lp173
I1
aI11
aI4
aI3
aa(lp174
I1
aI4
aI3
aI9
aa(lp175
I4
aI9
aI3
aI1
aa(lp176
I1
aI4
aI9
aI3
aa(lp177
I4
aI1
aI3
aI12
aa(lp178
I11
aI1
aI4
aI7
aa(lp179
I1
aI11
aI4
aI3
aa(lp180
I1
aI4
aI3
aI11
aasg18
(lp181
(dp182
g21
VCOMMANCHE RED
p183
sg23
V1x6x1
p184
sg25
I100
sg26
I1
sg27
I100
sa(dp185
g21
VBEET TOPPER
p186
sg23
V3x00x
p187
sg25
I73
sg26
I2
sg27
I75
sa(dp188
g21
VGETAWAY TRUMP
p189
sg23
Vx46x4
p190
sg25
I90
sg26
I3
sg27
I89
sa(dp191
g21
VGO FORRIT
p192
sg23
V443x3
p193
sg25
I94
sg26
I4
sg27
I92
sa(dp194
g21
VPEDDLER
p195
sg23
V
p196
sg25
I79
sg26
I5
sg27
I0
sa(dp197
g21
VPETE'S CHOICE
p198
sg23
V7x0x0
p199
sg25
I68
sg26
I6
sg27
I69
sa(dp200
g21
VRUFFLING FEATHERS
p201
sg23
V848x
p202
sg25
I87
sg26
I7
sg27
I87
sa(dp203
g21
VSATURDAYNIGHTFEVER
p204
sg23
V45x7x
p205
sg25
I82
sg26
I8
sg27
I84
sa(dp206
g21
VSHEILA'S FANCY
p207
sg23
V733x4
p208
sg25
I75
sg26
I9
sg27
I80
sa(dp209
g21
VSTORM FIRE
p210
sg23
V036x4
p211
sg25
I70
sg26
I10
sg27
I72
sa(dp212
g21
VTALKTOMENOW
p213
sg23
V1x
p214
sg25
I96
sg26
I11
sg27
I96
sa(dp215
g21
VVETONCALL
p216
sg23
Vx107x
p217
sg25
I84
sg26
I12
sg27
I76
sa(dp218
g21
VSPENDABLE
p219
sg23
Vx5489
p220
sg25
I66
sg26
I13
sg27
I68
sasg40
(lp221
sssI1542638700
(dp222
g2
Vhttp://www.skyracing.com.au/index.php?component=racing&task=race&id=108000176&meetingid=107810698&Itemid=89
p223
sg4
V29016351.1445
p224
sg6
(dp225
g8
(lp226
(lp227
I2
aI5
aI6
aI7
aa(lp228
I2
aI3
aI4
aI1
aa(lp229
I2
aI9
aI5
aI6
aa(lp230
I2
aI3
aI4
aI5
aa(lp231
I2
aI3
aI6
aI11
aa(lp232
I2
aI5
aI6
aI7
aa(lp233
I1
aI5
aI2
aI6
aa(lp234
I2
aI5
aI3
aI6
aasg18
(lp235
(dp236
g21
VWILLIAM H BONNEY
p237
sg23
Vx800x
p238
sg25
I95
sg26
I1
sg27
I86
sa(dp239
g21
VZOFFANY BAY
p240
sg23
V12621
p241
sg25
I100
sg26
I2
sg27
I100
sa(dp242
g21
VMON ELDORADO
p243
sg23
V39x4x
p244
sg25
I83
sg26
I3
sg27
I88
sa(dp245
g21
VLORD MARMADUKE
p246
sg23
V6348x
p247
sg25
I75
sg26
I4
sg27
I78
sa(dp248
g21
VADMIRAL'S SUNSET
p249
sg23
V435x1
p250
sg25
I97
sg26
I5
sg27
I99
sa(dp251
g21
VCOUGAR KID
p252
sg23
V552x3
p253
sg25
I90
sg26
I6
sg27
I93
sa(dp254
g21
VFALCON SUN
p255
sg23
V346x9
p256
sg25
I86
sg26
I7
sg27
I90
sa(dp257
g21
VAMERICAN CRAFTSMAN
p258
sg23
V08x75
p259
sg25
I79
sg26
I8
sg27
I71
sa(dp260
g21
VEX S'ELANCE
p261
sg23
V1x766
p262
sg25
I88
sg26
I9
sg27
I80
sa(dp263
g21
VNABHAN
p264
sg23
V28367
p265
sg25
I70
sg26
I10
sg27
I74
sa(dp266
g21
VHAZAMAR
p267
sg23
V6607x
p268
sg25
I73
sg26
I11
sg27
I76
sasg40
(lp269
sssI1542631500
(dp270
g2
Vhttp://www.skyracing.com.au/index.php?component=racing&task=race&id=108000172&meetingid=107810698&Itemid=89
p271
sg4
V29016351.1245
p272
sg6
(dp273
g8
(lp274
(lp275
I2
aI4
aI6
aI5
aa(lp276
I3
aI1
aI2
aI4
aa(lp277
I4
aI5
aI6
aI1
aa(lp278
I8
aI3
aI1
aI4
aa(lp279
I3
aI4
aI5
aI6
aa(lp280
I4
aI6
aI2
aI5
aa(lp281
I2
aI6
aI4
aI3
aa(lp282
I4
aI3
aI2
aI6
aasg18
(lp283
(dp284
g21
VEVERYDAY EVERYHOUR
p285
sg23
Vx85x8
p286
sg25
I87
sg26
I1
sg27
I79
sa(dp287
g21
VTHOMAS BLOSSOM
p288
sg23
V5x801
p289
sg25
I100
sg26
I2
sg27
I100
sa(dp290
g21
VBAJARDO
p291
sg23
V3038x
p292
sg25
I83
sg26
I3
sg27
I75
sa(dp293
g21
VPADDLING
p294
sg23
V342x3
p295
sg25
I92
sg26
I4
sg27
I94
sa(dp296
g21
VHANDS OF STONE
p297
sg23
V64x63
p298
sg25
I79
sg26
I5
sg27
I84
sa(dp299
g21
VSHOW'S OVER
p300
sg23
Vx9x25
p301
sg25
I97
sg26
I6
sg27
I88
sa(dp302
g21
VKEPPEL ISLE
p303
sg23
V68845
p304
sg25
I70
sg26
I7
sg27
I72
sa(dp305
g21
VDAVERON
p306
sg23
V378x0
p307
sg25
I75
sg26
I8
sg27
I68
sa(dp308
g21
VACCESSALLAREAS
p309
sg23
V374x6
p310
sg25
I65
sg26
I9
sg27
I61
sasg40
(lp311
sssI1542632400
(dp312
g2
Vhttp://www.skyracing.com.au/index.php?component=racing&task=race&id=108000158&meetingid=107033805&Itemid=89
p313
sg4
V29016354.1300
p314
sg6
(dp315
g8
(lp316
(lp317
I1
aI4
aI2
aI3
aa(lp318
I2
aI4
aI1
aI3
aa(lp319
I2
aI4
aI1
aI3
aa(lp320
I4
aI2
aI3
aI1
aa(lp321
I4
aI2
aI1
aI3
aa(lp322
I4
aI1
aI2
aI3
aa(lp323
I1
aI4
aI2
aI3
aa(lp324
I4
aI2
aI1
aI3
aasg18
(lp325
(dp326
g21
VCHOSEN PATH
p327
sg23
Vx318x
p328
sg25
I100
sg26
I1
sg27
I100
sa(dp329
g21
VLARRY
p330
sg23
V311x4
p331
sg25
I90
sg26
I2
sg27
I93
sa(dp332
g21
VMISTER MALARKY
p333
sg23
V7320x
p334
sg25
I89
sg26
I3
sg27
I86
sa(dp335
g21
VRISK AND ROLL
p336
sg23
V15x20
p337
sg25
I96
sg26
I4
sg27
I97
sasg40
(lp338
sssI1542637800
(dp339
g2
Vhttp://www.skyracing.com.au/index.php?component=racing&task=race&id=108000161&meetingid=107033805&Itemid=89
p340
sg4
V29016354.1430
p341
sg6
(dp342
g8
(lp343
(lp344
I5
aI3
aI4
aI6
aa(lp345
I4
aI6
aI5
aI2
aa(lp346
I4
aI5
aI7
aI8
aa(lp347
I2
aI5
aI6
aI7
aa(lp348
I5
aI4
aI6
aI2
aa(lp349
I5
aI4
aI3
aI7
aa(lp350
I3
aI5
aI4
aI6
aa(lp351
I5
aI4
aI6
aI3
aasg18
(lp352
(dp353
g21
VHOKE COLBURN
p354
sg23
V25311
p355
sg25
I95
sg26
I1
sg27
I95
sa(dp356
g21
VRI AN RIAN
p357
sg23
V201x6
p358
sg25
I77
sg26
I2
sg27
I70
sa(dp359
g21
VMR RAJ
p360
sg23
V3111x
p361
sg25
I100
sg26
I3
sg27
I89
sa(dp362
g21
VDR DUNRAVEN
p363
sg23
V35533
p364
sg25
I89
sg26
I4
sg27
I86
sa(dp365
g21
VBOY IN A BENTLEY
p366
sg23
V8x252
p367
sg25
I92
sg26
I5
sg27
I100
sa(dp368
g21
VLEG LOCK LUKE
p369
sg23
V1x636
p370
sg25
I81
sg26
I6
sg27
I78
sa(dp371
g21
VORTENZIA
p372
sg23
V84713
p373
sg25
I79
sg26
I7
sg27
I76
sa(dp374
g21
VMISTER MISTER
p375
sg23
V74863
p376
sg25
I70
sg26
I8
sg27
I68
sasg40
(lp377
sssI1542642600
(dp378
g2
Vhttp://www.skyracing.com.au/index.php?component=racing&task=race&id=108000178&meetingid=107810698&Itemid=89
p379
sg4
V29016351.1550
p380
sg6
(dp381
g8
(lp382
(lp383
I9
aI1
aI4
aI3
aa(lp384
I2
aI9
aI1
aI5
aa(lp385
I9
aI4
aI8
aI2
aa(lp386
I9
aI2
aI1
aI5
aa(lp387
I9
aI2
aI4
aI5
aa(lp388
I9
aI1
aI4
aI7
aa(lp389
I9
aI4
aI1
aI3
aa(lp390
I9
aI2
aI1
aI4
aasg18
(lp391
(dp392
g21
VDANCINGWITH STORMS
p393
sg23
V471x
p394
sg25
I91
sg26
I1
sg27
I97
sa(dp395
g21
VDAYDREAM AULMES
p396
sg23
V1x4x0
p397
sg25
I79
sg26
I2
sg27
I74
sa(dp398
g21
VFIRST FIGARO
p399
sg23
V9394x
p400
sg25
I85
sg26
I3
sg27
I86
sa(dp401
g21
VGREY DIAMOND
p402
sg23
V1x4
p403
sg25
I98
sg26
I4
sg27
I91
sa(dp404
g21
VMID DAY GUN
p405
sg23
V5x350
p406
sg25
I69
sg26
I5
sg27
I72
sa(dp407
g21
VPLENTY OF BUTTY
p408
sg23
V9x88x
p409
sg25
I64
sg26
I6
sg27
I67
sa(dp410
g21
VTIM ROCCO
p411
sg23
V30x0x
p412
sg25
I82
sg26
I7
sg27
I82
sa(dp413
g21
VANOTHER THEATRE
p414
sg23
Vx32x4
p415
sg25
I75
sg26
I8
sg27
I80
sa(dp416
g21
VETAMINE DU COCHET
p417
sg23
V2x2
p418
sg25
I100
sg26
I9
sg27
I100
sasg40
(lp419
sssI1542633300
(dp420
g2
Vhttp://www.skyracing.com.au/index.php?component=racing&task=race&id=108000173&meetingid=107810698&Itemid=89
p421
sg4
V29016351.1315
p422
sg6
(dp423
g8
(lp424
(lp425
I1
aI3
aI4
aI2
aa(lp426
I3
aI4
aI1
aI5
aa(lp427
I3
aI4
aI1
aI5
aa(lp428
I3
aI4
aI1
aI2
aa(lp429
I1
aI4
aI3
aI2
aa(lp430
I1
aI4
aI2
aI3
aa(lp431
I1
aI3
aI4
aI2
aa(lp432
I1
aI3
aI4
aI2
aasg18
(lp433
(dp434
g21
VGIVING GLANCES
p435
sg23
V51125
p436
sg25
I100
sg26
I1
sg27
I100
sa(dp437
g21
VOENOPHILE
p438
sg23
V066x0
p439
sg25
I87
sg26
I2
sg27
I87
sa(dp440
g21
VPILGRIM SOUL
p441
sg23
V32x47
p442
sg25
I98
sg26
I3
sg27
I99
sa(dp443
g21
VQUEEN ADELAIDE
p444
sg23
V72713
p445
sg25
I91
sg26
I4
sg27
I92
sa(dp446
g21
VTRAFALGAR GIRL
p447
sg23
V70790
p448
sg25
I82
sg26
I5
sg27
I84
sasg40
(lp449
sssI1542643200
(dp450
g2
Vhttp://www.skyracing.com.au/index.php?component=racing&task=race&id=108000232&meetingid=107033773&Itemid=89
p451
sg4
V29014952.1600
p452
sg6
(dp453
g8
(lp454
(lp455
I3
aI2
aI1
aI10
aa(lp456
I3
aI2
aI1
aI10
aa(lp457
I3
aI2
aI1
aI10
aa(lp458
I3
aI1
aI10
aI2
aa(lp459
I3
aI10
aI1
aI2
aa(lp460
I3
aI1
aI2
aI10
aa(lp461
I2
aI3
aI1
aI10
aa(lp462
I3
aI1
aI2
aI10
aasg18
(lp463
(dp464
g21
VYOLO AGAIN
p465
sg23
V37168
p466
sg25
I97
sg26
I1
sg27
I92
sa(dp467
g21
VWEDDING DATE
p468
sg23
V63x02
p469
sg25
I100
sg26
I2
sg27
I98
sa(dp470
g21
VINVINCIBELLA
p471
sg23
V4124
p472
sg25
I93
sg26
I3
sg27
I100
sa(dp473
g21
VPAINTED DREAM
p474
sg23
V4
p475
sg25
I84
sg26
I4
sg27
I81
sa(dp476
g21
VSECRET ACE
p477
sg23
g196
sg25
I89
sg26
I5
sg27
I0
sa(dp478
g21
VMILISTORM
p479
sg23
V0
p480
sg25
I76
sg26
I6
sg27
I70
sa(dp481
g21
VUPONASTAR
p482
sg23
V7
p483
sg25
I78
sg26
I7
sg27
I74
sa(dp484
g21
VBREEZING
p485
sg23
V9
p486
sg25
I74
sg26
I8
sg27
I67
sa(dp487
g21
VCOUTTS DE VILLE
p488
sg23
V8x
p489
sg25
I81
sg26
I9
sg27
I80
sa(dp490
g21
VLOCAL HISTORY
p491
sg23
V5
p492
sg25
I91
sg26
I10
sg27
I85
sa(dp493
g21
VSHADOW FORCE
p494
sg23
V00
p495
sg25
I71
sg26
I11
sg27
I61
sasg40
(lp496
sssI1542634200
(dp497
g2
Vhttp://www.skyracing.com.au/index.php?component=racing&task=race&id=108000159&meetingid=107033805&Itemid=89
p498
sg4
V29016354.1330
p499
sg6
(dp500
g8
(lp501
(lp502
I5
aI8
aI4
aI9
aa(lp503
I1
aI2
aI3
aI10
aa(lp504
I8
aI1
aI2
aI5
aa(lp505
I4
aI3
aI10
aI8
aa(lp506
I8
aI3
aI10
aI11
aa(lp507
I5
aI8
aI9
aI1
aa(lp508
I5
aI8
aI4
aI2
aa(lp509
I8
aI5
aI1
aI3
aasg18
(lp510
(dp511
g21
VCRACKING DESTINY
p512
sg23
V46x57
p513
sg25
I81
sg26
I1
sg27
I87
sa(dp514
g21
VGANNICUS
p515
sg23
V04625
p516
sg25
I92
sg26
I2
sg27
I84
sa(dp517
g21
VDREAM BAIE
p518
sg23
V8306x
p519
sg25
I73
sg26
I3
sg27
I76
sa(dp520
g21
VZANTE
p521
sg23
V6479x
p522
sg25
I95
sg26
I4
sg27
I95
sa(dp523
g21
VKRISTAL HART
p524
sg23
V64112
p525
sg25
I100
sg26
I5
sg27
I100
sa(dp526
g21
VHIGHLY LIKELY
p527
sg23
V7857x
p528
sg25
I76
sg26
I6
sg27
I72
sa(dp529
g21
VPACOFILHA
p530
sg23
Vx508x
p531
sg25
I79
sg26
I7
sg27
I78
sa(dp532
g21
VTOP ROCK TALULA
p533
sg23
V582x4
p534
sg25
I96
sg26
I8
sg27
I98
sa(dp535
g21
VERMYN'S EMERALD
p536
sg23
Vx8x8x
p537
sg25
I89
sg26
I9
sg27
I92
sa(dp538
g21
VBROTHER BENNETT
p539
sg23
V510x5
p540
sg25
I85
sg26
I10
sg27
I82
sa(dp541
g21
VGOLDEN CANNON
p542
sg23
V650x4
p543
sg25
I72
sg26
I11
sg27
I74
sasg40
(lp544
sssI1542636900
(dp545
g2
Vhttp://www.skyracing.com.au/index.php?component=racing&task=race&id=108000175&meetingid=107810698&Itemid=89
p546
sg4
V29016351.1415
p547
sg6
(dp548
g8
(lp549
(lp550
I5
aI1
aI6
aI3
aa(lp551
I5
aI3
aI2
aI8
aa(lp552
I4
aI3
aI2
aI8
aa(lp553
I5
aI6
aI3
aI8
aa(lp554
I8
aI5
aI2
aI3
aa(lp555
I5
aI1
aI3
aI8
aa(lp556
I5
aI1
aI6
aI3
aa(lp557
I5
aI3
aI8
aI1
aasg18
(lp558
(dp559
g21
VCOMMANDER MILLER
p560
sg23
V0x
p561
sg25
I97
sg26
I1
sg27
I98
sa(dp562
g21
VMUSTAAQEEM
p563
sg23
V70060
p564
sg25
I82
sg26
I2
sg27
I75
sa(dp565
g21
VNIFTY AT FIFTY
p566
sg23
V56x5
p567
sg25
I86
sg26
I3
sg27
I85
sa(dp568
g21
VNOMINATION GAME
p569
sg23
V6x664
p570
sg25
I73
sg26
I4
sg27
I79
sa(dp571
g21
VRENWICK
p572
sg23
V6x2x
p573
sg25
I100
sg26
I5
sg27
I100
sa(dp574
g21
VSHAMILAN
p575
sg23
V3x0
p576
sg25
I94
sg26
I6
sg27
I90
sa(dp577
g21
VZORLU
p578
sg23
V00x57
p579
sg25
I71
sg26
I7
sg27
I72
sa(dp580
g21
VWILLOW MAY
p581
sg23
V38x60
p582
sg25
I78
sg26
I8
sg27
I83
sasg40
(lp583
sssI1542635100
(dp584
g2
Vhttp://www.skyracing.com.au/index.php?component=racing&task=race&id=108000174&meetingid=107810698&Itemid=89
p585
sg4
V29016351.1345
p586
sg6
(dp587
g8
(lp588
(lp589
I3
aI2
aI1
aa(lp590
I3
aI2
aI1
aa(lp591
I2
aI1
aI3
aa(lp592
I3
aI1
aI2
aa(lp593
I3
aI2
aI1
aa(lp594
I3
aI1
aI2
aa(lp595
I3
aI2
aI1
aa(lp596
I3
aI2
aI1
aasg18
(lp597
(dp598
g21
VLONG CALL
p599
sg23
Vx6130
p600
sg25
I91
sg26
I1
sg27
I93
sa(dp601
g21
VEMBOLE
p602
sg23
V103x4
p603
sg25
I95
sg26
I2
sg27
I99
sa(dp604
g21
VSTYLE DE GARDE
p605
sg23
V1420x
p606
sg25
I100
sg26
I3
sg27
I100
sasg40
(lp607
sssI1542645000
(dp608
g2
Vhttp://www.skyracing.com.au/index.php?component=racing&task=race&id=108000233&meetingid=107033773&Itemid=89
p609
sg4
V29014952.1630
p610
sg6
(dp611
g8
(lp612
(lp613
I5
aI2
aI4
aI1
aa(lp614
I1
aI3
aI2
aI5
aa(lp615
I2
aI1
aI8
aI7
aa(lp616
I1
aI2
aI5
aI4
aa(lp617
I1
aI2
aI5
aI3
aa(lp618
I5
aI2
aI4
aI7
aa(lp619
I5
aI2
aI4
aI1
aa(lp620
I2
aI1
aI5
aI4
aasg18
(lp621
(dp622
g21
VARCH MY BOY
p623
sg23
V320x1
p624
sg25
I90
sg26
I1
sg27
I86
sa(dp625
g21
VSILVER RIVER
p626
sg23
V31
p627
sg25
I99
sg26
I2
sg27
I95
sa(dp628
g21
VESSGEE NICS
p629
sg23
V6385
p630
sg25
I72
sg26
I3
sg27
I60
sa(dp631
g21
VMUGATOO
p632
sg23
V71x
p633
sg25
I93
sg26
I4
sg27
I94
sa(dp634
g21
VQUICKSAND
p635
sg23
V3x1x
p636
sg25
I100
sg26
I5
sg27
I100
sa(dp637
g21
VBRECQHOU ISLAND
p638
sg23
V6
p639
sg25
I76
sg26
I6
sg27
I70
sa(dp640
g21
VCONFEDERATE
p641
sg23
V6
p642
sg25
I88
sg26
I7
sg27
I84
sa(dp643
g21
VECHO COVE
p644
sg23
V5x557
p645
sg25
I82
sg26
I8
sg27
I74
sa(dp646
g21
VFLASHDANZA
p647
sg23
V87x
p648
sg25
I74
sg26
I9
sg27
I68
sa(dp649
g21
VVIENTO DE CONDOR
p650
sg23
g196
sg25
I78
sg26
I10
sg27
I0
sa(dp651
g21
VCHETWYND ABBEY
p652
sg23
V83
p653
sg25
I86
sg26
I11
sg27
I80
sasg40
(lp654
sss.