(dp0
I1544534400
(dp1
S'skyracing_url'
p2
Vhttp://www.skyracing.com.au/index.php?component=racing&task=race&id=108720951&meetingid=108213883&Itemid=89
p3
sS'betfair_raceid'
p4
V29043785.1320
p5
sS'dat2'
p6
(dp7
S'ratings_auto'
p8
(lp9
(lp10
I10
aI2
aI5
aI9
aa(lp11
I1
aI3
aI2
aI4
aa(lp12
I2
aI5
aI7
aI4
aa(lp13
I4
aI9
aI1
aI5
aa(lp14
I3
aI2
aI8
aI10
aa(lp15
I2
aI10
aI5
aI9
aa(lp16
I2
aI10
aI9
aI5
aa(lp17
I2
aI5
aI10
aI3
aasS'horse_details'
p18
(lp19
(dp20
S'horse_name'
p21
VGABRIAL'S STAR
p22
sS'horse_form'
p23
Vx6x77
p24
sS'rating_2'
p25
I70
sS'horse_number'
p26
I1
sS'rating_1'
p27
I63
sa(dp28
g21
VSOCIOLOGIST
p29
sg23
V45x81
p30
sg25
I100
sg26
I2
sg27
I96
sa(dp31
g21
VEPITAPH
p32
sg23
V8x945
p33
sg25
I68
sg26
I3
sg27
I75
sa(dp34
g21
VCOUNTRY'N'WESTERN
p35
sg23
V71906
p36
sg25
I81
sg26
I4
sg27
I57
sa(dp37
g21
VPRINCESS HARLEY
p38
sg23
V63421
p39
sg25
I89
sg26
I5
sg27
I88
sa(dp40
g21
VSCRAFTON
p41
sg23
V59586
p42
sg25
I79
sg26
I6
sg27
I0
sa(dp43
g21
VPRINCIPIA
p44
sg23
V8x42
p45
sg25
I61
sg26
I7
sg27
I71
sa(dp46
g21
VRARE
p47
sg23
V35634
p48
sg25
I75
sg26
I8
sg27
I81
sa(dp49
g21
VSBRAASE
p50
sg23
V52521
p51
sg25
I93
sg26
I9
sg27
I84
sa(dp52
g21
VANNA JAMMEELA
p53
sg23
V52631
p54
sg25
I98
sg26
I10
sg27
I100
sasS'ratings_manual'
p55
(lp56
sssI1544536200
(dp57
g2
Vhttp://www.skyracing.com.au/index.php?component=racing&task=race&id=108720952&meetingid=108213883&Itemid=89
p58
sg4
V29043785.1350
p59
sg6
(dp60
g8
(lp61
(lp62
I1
aI7
aI6
aI3
aa(lp63
I2
aI4
aI1
aI3
aa(lp64
I2
aI1
aI5
aI6
aa(lp65
I7
aI1
aI2
aI3
aa(lp66
I1
aI4
aI9
aI5
aa(lp67
I1
aI7
aI6
aI3
aa(lp68
I1
aI9
aI3
aI2
aa(lp69
I1
aI7
aI2
aI4
aasg18
(lp70
(dp71
g21
VHONEY GG
p72
sg23
V91221
p73
sg25
I100
sg26
I1
sg27
I100
sa(dp74
g21
VARCHIMEDES
p75
sg23
V02405
p76
sg25
I92
sg26
I2
sg27
I79
sa(dp77
g21
VWANEEN
p78
sg23
V212x8
p79
sg25
I93
sg26
I3
sg27
I90
sa(dp80
g21
VDECISION MAKER
p81
sg23
V060x0
p82
sg25
I78
sg26
I4
sg27
I83
sa(dp83
g21
VCARLOVIAN
p84
sg23
V34230
p85
sg25
I83
sg26
I5
sg27
I86
sa(dp86
g21
VASTRAEA
p87
sg23
V0x037
p88
sg25
I84
sg26
I6
sg27
I93
sa(dp89
g21
VDIVINE CALL
p90
sg23
V96619
p91
sg25
I87
sg26
I7
sg27
I96
sa(dp92
g21
VCARDAW LILY
p93
sg23
V63350
p94
sg25
I75
sg26
I8
sg27
I73
sa(dp95
g21
VSIR GEOFFREY
p96
sg23
V0x064
p97
sg25
I99
sg26
I9
sg27
I89
sa(dp98
g21
VFOREIGN LEGION
p99
sg23
V085
p100
sg25
I71
sg26
I10
sg27
I71
sa(dp101
g21
VROBBIAN
p102
sg23
V29x08
p103
sg25
I70
sg26
I11
sg27
I68
sa(dp104
g21
VEXCEL MATE
p105
sg23
V087x
p106
sg25
I73
sg26
I12
sg27
I76
sa(dp107
g21
VMOUNTAIN OF STARS
p108
sg23
V05x00
p109
sg25
I62
sg26
I13
sg27
I62
sa(dp110
g21
VRITAS LEGACY
p111
sg23
V7080x
p112
sg25
I64
sg26
I14
sg27
I64
sasg55
(lp113
sssI1544538000
(dp114
g2
Vhttp://www.skyracing.com.au/index.php?component=racing&task=race&id=108720953&meetingid=108213883&Itemid=89
p115
sg4
V29043785.1420
p116
sg6
(dp117
g8
(lp118
(lp119
I3
aI6
aI11
aI12
aa(lp120
I10
aI4
aI8
aI3
aa(lp121
I3
aI6
aI5
aI11
aa(lp122
I2
aI6
aI7
aI10
aa(lp123
I11
aI10
aI6
aI3
aa(lp124
I3
aI6
aI12
aI2
aa(lp125
I3
aI7
aI6
aI9
aa(lp126
I6
aI3
aI10
aI11
aasg18
(lp127
(dp128
g21
VBLACKLOOKS
p129
sg23
V81x00
p130
sg25
I78
sg26
I1
sg27
I64
sa(dp131
g21
VESPRIT DE CORPS
p132
sg23
V20x8x
p133
sg25
I71
sg26
I2
sg27
I86
sa(dp134
g21
VWELD AL EMARAT
p135
sg23
V28451
p136
sg25
I100
sg26
I3
sg27
I100
sa(dp137
g21
VHAMMER GUN
p138
sg23
V00780
p139
sg25
I86
sg26
I4
sg27
I74
sa(dp140
g21
VGENTLEMEN
p141
sg23
V97127
p142
sg25
I76
sg26
I5
sg27
I80
sa(dp143
g21
VMR MINERALS
p144
sg23
V55x92
p145
sg25
I92
sg26
I6
sg27
I98
sa(dp146
g21
VGUARDIA SVIZZERA
p147
sg23
V11000
p148
sg25
I99
sg26
I7
sg27
I76
sa(dp149
g21
VMAJESTIC MOON
p150
sg23
V4645x
p151
sg25
I66
sg26
I8
sg27
I70
sa(dp152
g21
VMONKS STAND
p153
sg23
V7600x
p154
sg25
I95
sg26
I9
sg27
I71
sa(dp155
g21
VLONDON
p156
sg23
V02247
p157
sg25
I70
sg26
I10
sg27
I78
sa(dp158
g21
VANGEL PALANAS
p159
sg23
V53x91
p160
sg25
I89
sg26
I11
sg27
I94
sa(dp161
g21
VART ECHO
p162
sg23
V2x070
p163
sg25
I83
sg26
I12
sg27
I92
sa(dp164
g21
VGIBENO
p165
sg23
V44039
p166
sg25
I74
sg26
I13
sg27
I87
sasg55
(lp167
sssI1544539800
(dp168
g2
Vhttp://www.skyracing.com.au/index.php?component=racing&task=race&id=108720954&meetingid=108213883&Itemid=89
p169
sg4
V29043785.1450
p170
sg6
(dp171
g8
(lp172
(lp173
I7
aI8
aI1
aI5
aa(lp174
I4
aI5
aI8
aI10
aa(lp175
I1
aI8
aI7
aI5
aa(lp176
I11
aI1
aI3
aI5
aa(lp177
I8
aI9
aI5
aI10
aa(lp178
I8
aI1
aI7
aI5
aa(lp179
I7
aI2
aI1
aI5
aa(lp180
I8
aI1
aI5
aI7
aasg18
(lp181
(dp182
g21
VMOTAJAASID
p183
sg23
V36318
p184
sg25
I93
sg26
I1
sg27
I92
sa(dp185
g21
VSUNBREAK
p186
sg23
V1190x
p187
sg25
I96
sg26
I2
sg27
I86
sa(dp188
g21
VREGULAR INCOME
p189
sg23
V475x0
p190
sg25
I79
sg26
I3
sg27
I74
sa(dp191
g21
VHELEN SHERBET
p192
sg23
Vx8x00
p193
sg25
I85
sg26
I4
sg27
I80
sa(dp194
g21
VROMAN DE BRUT
p195
sg23
V5x383
p196
sg25
I90
sg26
I5
sg27
I90
sa(dp197
g21
VLOVE RAT
p198
sg23
V309x5
p199
sg25
I73
sg26
I6
sg27
I71
sa(dp200
g21
VEARL OF BUNNACURRY
p201
sg23
V99117
p202
sg25
I100
sg26
I7
sg27
I100
sa(dp203
g21
VMR COCO BEAN
p204
sg23
V40x33
p205
sg25
I87
sg26
I8
sg27
I96
sa(dp206
g21
VADMIRAL ROOKE
p207
sg23
V22680
p208
sg25
I81
sg26
I9
sg27
I82
sa(dp209
g21
VGREY DESTINY
p210
sg23
V56558
p211
sg25
I76
sg26
I10
sg27
I76
sa(dp212
g21
VHAVELOCK
p213
sg23
V7900x
p214
sg25
I70
sg26
I11
sg27
I70
sa(dp215
g21
VGOLDEN GUIDE
p216
sg23
V6x637
p217
sg25
I68
sg26
I12
sg27
I68
sasg55
(lp218
sssI1544532000
(dp219
g2
Vhttp://www.skyracing.com.au/index.php?component=racing&task=race&id=108720978&meetingid=108213915&Itemid=89
p220
sg4
V29044837.1240
p221
sg6
(dp222
g8
(lp223
(lp224
I6
aI7
aI3
aI2
aa(lp225
I5
aI3
aI2
aI1
aa(lp226
I5
aI13
aI1
aI2
aa(lp227
I3
aI1
aI5
aI2
aa(lp228
I13
aI3
aI2
aI5
aa(lp229
I7
aI6
aI3
aI12
aa(lp230
I3
aI6
aI7
aI2
aa(lp231
I3
aI5
aI6
aI7
aasg18
(lp232
(dp233
g21
VREALT OR
p234
sg23
V6x898
p235
sg25
I69
sg26
I1
sg27
I70
sa(dp236
g21
VNO NO JULIET
p237
sg23
V534x4
p238
sg25
I90
sg26
I2
sg27
I88
sa(dp239
g21
VLEE SIDE LADY
p240
sg23
V34x49
p241
sg25
I96
sg26
I3
sg27
I92
sa(dp242
g21
VSIXTIES IDOL
p243
sg23
V1x057
p244
sg25
I87
sg26
I4
sg27
I83
sa(dp245
g21
VBALLYANTICS
p246
sg23
V2x277
p247
sg25
I86
sg26
I5
sg27
I86
sa(dp248
g21
VSNAZZ MAN
p249
sg23
V5x71x
p250
sg25
I100
sg26
I6
sg27
I100
sa(dp251
g21
VHIER ENCORE
p252
sg23
V75x22
p253
sg25
I95
sg26
I7
sg27
I96
sa(dp254
g21
VJIMMY
p255
sg23
Vx6x08
p256
sg25
I76
sg26
I8
sg27
I72
sa(dp257
g21
VWILLSHEBETRYING
p258
sg23
V7670x
p259
sg25
I71
sg26
I9
sg27
I68
sa(dp260
g21
VCOCKNEY SEAGULL
p261
sg23
Vx08x5
p262
sg25
I65
sg26
I10
sg27
I64
sa(dp263
g21
VEDDIES PEARL
p264
sg23
Vx607x
p265
sg25
I81
sg26
I11
sg27
I68
sa(dp266
g21
VREMEMBER ME WELL
p267
sg23
V87x00
p268
sg25
I78
sg26
I12
sg27
I80
sa(dp269
g21
VMICQUUS
p270
sg23
V07x35
p271
sg25
I74
sg26
I13
sg27
I76
sasg55
(lp272
sssI1544540400
(dp273
g2
Vhttp://www.skyracing.com.au/index.php?component=racing&task=race&id=108720968&meetingid=108213899&Itemid=89
p274
sg4
V29044835.1500
p275
sg6
(dp276
g8
(lp277
(lp278
I4
aI1
aI5
aI2
aa(lp279
I1
aI3
aI2
aI4
aa(lp280
I1
aI2
aI4
aI9
aa(lp281
I2
aI5
aI1
aI4
aa(lp282
I4
aI2
aI6
aI1
aa(lp283
I4
aI1
aI5
aI2
aa(lp284
I4
aI2
aI1
aI5
aa(lp285
I1
aI4
aI2
aI5
aasg18
(lp286
(dp287
g21
VCOUGAR'S GOLD
p288
sg23
V42x54
p289
sg25
I96
sg26
I1
sg27
I98
sa(dp290
g21
VPADDOCKS LOUNGE
p291
sg23
V6x0x3
p292
sg25
I94
sg26
I2
sg27
I85
sa(dp293
g21
VHURRICANE RITA
p294
sg23
V02548
p295
sg25
I81
sg26
I3
sg27
I81
sa(dp296
g21
VGLOBAL DOMINATION
p297
sg23
V212x3
p298
sg25
I100
sg26
I4
sg27
I100
sa(dp299
g21
VKALASKADESEMILLEY
p300
sg23
V979x3
p301
sg25
I89
sg26
I5
sg27
I90
sa(dp302
g21
VTHE JUGOPOLIST
p303
sg23
V9x049
p304
sg25
I79
sg26
I6
sg27
I79
sa(dp305
g21
VBALLYDARSI
p306
sg23
V3x076
p307
sg25
I65
sg26
I7
sg27
I66
sa(dp308
g21
VWISH IN A WELL
p309
sg23
V363x8
p310
sg25
I73
sg26
I8
sg27
I72
sa(dp311
g21
VMIDNIGHT OWLE
p312
sg23
V0x237
p313
sg25
I69
sg26
I9
sg27
I76
sasg55
(lp314
sssI1544533800
(dp315
g2
Vhttp://www.skyracing.com.au/index.php?component=racing&task=race&id=108720979&meetingid=108213915&Itemid=89
p316
sg4
V29044837.1310
p317
sg6
(dp318
g8
(lp319
(lp320
I2
aI3
aI1
aI6
aa(lp321
I2
aI4
aI3
aI6
aa(lp322
I2
aI3
aI6
aI1
aa(lp323
I2
aI3
aI6
aI1
aa(lp324
I2
aI6
aI3
aI4
aa(lp325
I2
aI3
aI6
aI1
aa(lp326
I2
aI3
aI6
aI1
aa(lp327
I2
aI3
aI6
aI1
aasg18
(lp328
(dp329
g21
VCINTEX
p330
sg23
Vx20x3
p331
sg25
I86
sg26
I1
sg27
I92
sa(dp332
g21
VTHE OGLE GOGLE MAN
p333
sg23
V63x22
p334
sg25
I100
sg26
I2
sg27
I100
sa(dp335
g21
VROBIN DEUZ POIS
p336
sg23
V4x442
p337
sg25
I96
sg26
I3
sg27
I97
sa(dp338
g21
VMURPHY'S NAILS
p339
sg23
Vx390x
p340
sg25
I84
sg26
I4
sg27
I81
sa(dp341
g21
VFUTURE BOY
p342
sg23
V00x70
p343
sg25
I79
sg26
I5
sg27
I78
sa(dp344
g21
VFINDUSATGORCOMBE
p345
sg23
V20992
p346
sg25
I93
sg26
I6
sg27
I86
sasg55
(lp347
sssI1544535600
(dp348
g2
Vhttp://www.skyracing.com.au/index.php?component=racing&task=race&id=108720980&meetingid=108213915&Itemid=89
p349
sg4
V29044837.1340
p350
sg6
(dp351
g8
(lp352
(lp353
I9
aI2
aI6
aI5
aa(lp354
I9
aI6
aI2
aI3
aa(lp355
I9
aI6
aI1
aI3
aa(lp356
I9
aI6
aI3
aI1
aa(lp357
I6
aI9
aI3
aI10
aa(lp358
I9
aI2
aI6
aI3
aa(lp359
I9
aI2
aI6
aI3
aa(lp360
I9
aI6
aI2
aI3
aasg18
(lp361
(dp362
g21
VBUNCH OF THYME
p363
sg23
V6x357
p364
sg25
I75
sg26
I1
sg27
I75
sa(dp365
g21
VCAROUSE
p366
sg23
V44x29
p367
sg25
I97
sg26
I2
sg27
I96
sa(dp368
g21
VDE BRUYNE HORSE
p369
sg23
V67069
p370
sg25
I88
sg26
I3
sg27
I87
sa(dp371
g21
VFLASHDANZA
p372
sg23
V87x
p373
sg25
I72
sg26
I4
sg27
I70
sa(dp374
g21
VFRESNO EMERY
p375
sg23
V3x
p376
sg25
I91
sg26
I5
sg27
I92
sa(dp377
g21
VJUST PERFECT
p378
sg23
V2
p379
sg25
I93
sg26
I6
sg27
I95
sa(dp380
g21
VLITTLE RICH
p381
sg23
V7
p382
sg25
I73
sg26
I7
sg27
I74
sa(dp383
g21
VPLAYA BLANCA
p384
sg23
V32x0x
p385
sg25
I79
sg26
I8
sg27
I81
sa(dp386
g21
VTAZKA
p387
sg23
V53x31
p388
sg25
I100
sg26
I9
sg27
I100
sa(dp389
g21
VPOLAR LIGHT
p390
sg23
V00705
p391
sg25
I82
sg26
I10
sg27
I86
sa(dp392
g21
VSHOW OF FORCE
p393
sg23
V68804
p394
sg25
I84
sg26
I11
sg27
I79
sasg55
(lp395
sssI1544541000
(dp396
g2
Vhttp://www.skyracing.com.au/index.php?component=racing&task=race&id=108720983&meetingid=108213915&Itemid=89
p397
sg4
V29044837.1510
p398
sg6
(dp399
g8
(lp400
(lp401
I1
aI2
aI4
aI5
aa(lp402
I2
aI1
aI8
aI5
aa(lp403
I2
aI4
aI3
aI1
aa(lp404
I1
aI2
aI3
aI4
aa(lp405
I2
aI6
aI8
aI9
aa(lp406
I4
aI1
aI2
aI5
aa(lp407
I6
aI1
aI5
aI9
aa(lp408
I2
aI1
aI4
aI8
aasg18
(lp409
(dp410
g21
VBEARS RAILS
p411
sg23
V641x8
p412
sg25
I100
sg26
I1
sg27
I100
sa(dp413
g21
VMORTENS LEAM
p414
sg23
V8x615
p415
sg25
I84
sg26
I2
sg27
I98
sa(dp416
g21
VHERE I AM
p417
sg23
V8x2x4
p418
sg25
I75
sg26
I3
sg27
I68
sa(dp419
g21
VOPECHEE
p420
sg23
V10424
p421
sg25
I78
sg26
I4
sg27
I90
sa(dp422
g21
VMARKET ROAD
p423
sg23
V4x094
p424
sg25
I94
sg26
I5
sg27
I83
sa(dp425
g21
VBREDON HILL LAD
p426
sg23
V833x4
p427
sg25
I97
sg26
I6
sg27
I77
sa(dp428
g21
VORCHESTRATED
p429
sg23
Vx2478
p430
sg25
I63
sg26
I7
sg27
I59
sa(dp431
g21
VINVICTA LAKE
p432
sg23
V5x085
p433
sg25
I70
sg26
I8
sg27
I70
sa(dp434
g21
VREMEMBER FOREVER
p435
sg23
V6x310
p436
sg25
I89
sg26
I9
sg27
I75
sasg55
(lp437
sssI1544537400
(dp438
g2
Vhttp://www.skyracing.com.au/index.php?component=racing&task=race&id=108720981&meetingid=108213915&Itemid=89
p439
sg4
V29044837.1410
p440
sg6
(dp441
g8
(lp442
(lp443
I1
aI2
aI3
aa(lp444
I1
aI2
aI3
aa(lp445
I1
aI2
aI3
aa(lp446
I1
aI2
aI3
aa(lp447
I1
aI2
aI3
aa(lp448
I1
aI2
aI3
aa(lp449
I2
aI1
aI3
aa(lp450
I1
aI2
aI3
aasg18
(lp451
(dp452
g21
VSCOOP THE POT
p453
sg23
V04231
p454
sg25
I100
sg26
I1
sg27
I100
sa(dp455
g21
VBRAMBLE BROOK
p456
sg23
V316x3
p457
sg25
I97
sg26
I2
sg27
I98
sa(dp458
g21
VLIKE THE SOUND
p459
sg23
V12x26
p460
sg25
I92
sg26
I3
sg27
I94
sasg55
(lp461
sssI1544539200
(dp462
g2
Vhttp://www.skyracing.com.au/index.php?component=racing&task=race&id=108720982&meetingid=108213915&Itemid=89
p463
sg4
V29044837.1440
p464
sg6
(dp465
g8
(lp466
(lp467
I1
aI7
aI8
aI2
aa(lp468
I1
aI7
aI8
aI6
aa(lp469
I1
aI8
aI3
aI2
aa(lp470
I1
aI7
aI8
aI3
aa(lp471
I1
aI7
aI6
aI8
aa(lp472
I7
aI1
aI8
aI2
aa(lp473
I1
aI7
aI8
aI6
aa(lp474
I1
aI7
aI8
aI2
aasg18
(lp475
(dp476
g21
VOUTOFTHISWORLD
p477
sg23
Vx0x91
p478
sg25
I100
sg26
I1
sg27
I100
sa(dp479
g21
VAMETHEA
p480
sg23
V99x76
p481
sg25
I81
sg26
I2
sg27
I86
sa(dp482
g21
VELSKA
p483
sg23
Vx60x7
p484
sg25
I69
sg26
I3
sg27
I74
sa(dp485
g21
VEOS
p486
sg23
V0x9
p487
sg25
I62
sg26
I4
sg27
I63
sa(dp488
g21
VGLENS COUNTY
p489
sg23
V
p490
sg25
I79
sg26
I5
sg27
I0
sa(dp491
g21
VMADAM ANNA
p492
sg23
V5x9x0
p493
sg25
I85
sg26
I6
sg27
I83
sa(dp494
g21
VMIDNIGHTREFERENDUM
p495
sg23
Vx12x7
p496
sg25
I95
sg26
I7
sg27
I95
sa(dp497
g21
VPARDON ME
p498
sg23
Vx9x62
p499
sg25
I94
sg26
I8
sg27
I93
sa(dp500
g21
VPRESENTING LUCINA
p501
sg23
V46x6x
p502
sg25
I73
sg26
I9
sg27
I79
sa(dp503
g21
VTHAT'S EXACTLY
p504
sg23
V56x
p505
sg25
I67
sg26
I10
sg27
I72
sasg55
(lp506
sssI1544541600
(dp507
g2
Vhttp://www.skyracing.com.au/index.php?component=racing&task=race&id=108720955&meetingid=108213883&Itemid=89
p508
sg4
V29043785.1520
p509
sg6
(dp510
g8
(lp511
(lp512
I3
aI2
aI1
aI7
aa(lp513
I7
aI5
aI8
aI2
aa(lp514
I2
aI1
aI3
aI5
aa(lp515
I3
aI1
aI2
aI5
aa(lp516
I7
aI9
aI1
aI10
aa(lp517
I3
aI2
aI1
aI9
aa(lp518
I3
aI2
aI1
aI9
aa(lp519
I3
aI2
aI1
aI7
aasg18
(lp520
(dp521
g21
VMAMETZ WOOD
p522
sg23
V6x202
p523
sg25
I94
sg26
I1
sg27
I95
sa(dp524
g21
VSHEARIAN
p525
sg23
V00621
p526
sg25
I98
sg26
I2
sg27
I98
sa(dp527
g21
VDECORATION OF WAR
p528
sg23
V12193
p529
sg25
I100
sg26
I3
sg27
I100
sa(dp530
g21
VTHE GROOVE
p531
sg23
V24295
p532
sg25
I71
sg26
I4
sg27
I0
sa(dp533
g21
VSHOWBOATING
p534
sg23
V53572
p535
sg25
I73
sg26
I5
sg27
I74
sa(dp536
g21
VGLOBAL MELODY
p537
sg23
V53067
p538
sg25
I75
sg26
I6
sg27
I78
sa(dp539
g21
VZODIAKOS
p540
sg23
V86412
p541
sg25
I90
sg26
I7
sg27
I92
sa(dp542
g21
VSOOQAAN
p543
sg23
V80062
p544
sg25
I85
sg26
I8
sg27
I75
sa(dp545
g21
VBREAK THE SILENCE
p546
sg23
V74622
p547
sg25
I87
sg26
I9
sg27
I88
sa(dp548
g21
VODDS ON OLI
p549
sg23
V60790
p550
sg25
I83
sg26
I10
sg27
I81
sa(dp551
g21
VBOOTS AND SPURS
p552
sg23
V70328
p553
sg25
I78
sg26
I11
sg27
I85
sasg55
(lp554
sssI1544531400
(dp555
g2
Vhttp://www.skyracing.com.au/index.php?component=racing&task=race&id=108720963&meetingid=108213899&Itemid=89
p556
sg4
V29044835.1230
p557
sg6
(dp558
g8
(lp559
(lp560
I1
aI2
aI6
aI4
aa(lp561
I3
aI12
aI2
aI8
aa(lp562
I2
aI1
aI5
aI8
aa(lp563
I3
aI2
aI12
aI4
aa(lp564
I12
aI1
aI8
aI2
aa(lp565
I1
aI6
aI4
aI2
aa(lp566
I1
aI6
aI2
aI4
aa(lp567
I1
aI2
aI12
aI3
aasg18
(lp568
(dp569
g21
VSTOP TALKING
p570
sg23
V75211
p571
sg25
I100
sg26
I1
sg27
I100
sa(dp572
g21
VROCOCO STYLE
p573
sg23
V0x393
p574
sg25
I96
sg26
I2
sg27
I99
sa(dp575
g21
VDIVA DU MAQUIS
p576
sg23
V4670x
p577
sg25
I67
sg26
I3
sg27
I70
sa(dp578
g21
VCOSTANTE VIA
p579
sg23
V0645x
p580
sg25
I92
sg26
I4
sg27
I90
sa(dp581
g21
VSIENNA ROYALE
p582
sg23
V74x56
p583
sg25
I73
sg26
I5
sg27
I75
sa(dp584
g21
VKATEBIRD
p585
sg23
V0933x
p586
sg25
I93
sg26
I6
sg27
I95
sa(dp587
g21
VBEAN LIATH
p588
sg23
V355x9
p589
sg25
I75
sg26
I7
sg27
I65
sa(dp590
g21
VNEETSIDE
p591
sg23
V45x65
p592
sg25
I80
sg26
I8
sg27
I80
sa(dp593
g21
VDEFINITE WINNER
p594
sg23
V0x013
p595
sg25
I88
sg26
I9
sg27
I87
sa(dp596
g21
VMARONETTE
p597
sg23
V85x93
p598
sg25
I78
sg26
I10
sg27
I78
sa(dp599
g21
VDAUPHINESS
p600
sg23
V695x0
p601
sg25
I86
sg26
I11
sg27
I85
sa(dp602
g21
VTALKINGPICTURESTV
p603
sg23
V78954
p604
sg25
I69
sg26
I12
sg27
I69
sa(dp605
g21
VRULE THE OCEAN
p606
sg23
V0x602
p607
sg25
I70
sg26
I13
sg27
I73
sasg55
(lp608
sssI1544533200
(dp609
g2
Vhttp://www.skyracing.com.au/index.php?component=racing&task=race&id=108720964&meetingid=108213899&Itemid=89
p610
sg4
V29044835.1300
p611
sg6
(dp612
g8
(lp613
(lp614
I2
aI6
aI1
aI3
aa(lp615
I3
aI1
aI7
aI6
aa(lp616
I1
aI6
aI2
aI4
aa(lp617
I3
aI1
aI6
aI2
aa(lp618
I7
aI3
aI2
aI1
aa(lp619
I6
aI2
aI1
aI3
aa(lp620
I1
aI2
aI6
aI5
aa(lp621
I1
aI6
aI3
aI2
aasg18
(lp622
(dp623
g21
VSOLO SAXOPHONE
p624
sg23
V6x608
p625
sg25
I96
sg26
I1
sg27
I90
sa(dp626
g21
VANTUNES
p627
sg23
Vx23x0
p628
sg25
I100
sg26
I2
sg27
I100
sa(dp629
g21
VFREEDOM CHIMES
p630
sg23
V7x06x
p631
sg25
I84
sg26
I3
sg27
I83
sa(dp632
g21
VSECRET MELODY
p633
sg23
Vx80x0
p634
sg25
I74
sg26
I4
sg27
I71
sa(dp635
g21
VDEEP RESOLVE
p636
sg23
V37x08
p637
sg25
I87
sg26
I5
sg27
I82
sa(dp638
g21
VALLITERATION
p639
sg23
V40562
p640
sg25
I91
sg26
I6
sg27
I95
sa(dp641
g21
VGEORGIAN FIREBIRD
p642
sg23
V30x08
p643
sg25
I79
sg26
I7
sg27
I78
sasg55
(lp644
sssI1544542200
(dp645
g2
Vhttp://www.skyracing.com.au/index.php?component=racing&task=race&id=108720969&meetingid=108213899&Itemid=89
p646
sg4
V29044835.1530
p647
sg6
(dp648
g8
(lp649
(lp650
I6
aI8
aI1
aI2
aa(lp651
I8
aI6
aI3
aI9
aa(lp652
I8
aI3
aI9
aI5
aa(lp653
I8
aI6
aI3
aI9
aa(lp654
I8
aI3
aI6
aI1
aa(lp655
I6
aI8
aI1
aI2
aa(lp656
I6
aI8
aI1
aI4
aa(lp657
I8
aI6
aI3
aI1
aasg18
(lp658
(dp659
g21
VDONATELLO MAIL
p660
sg23
V00x1x
p661
sg25
I94
sg26
I1
sg27
I91
sa(dp662
g21
VEQUUS DANCER
p663
sg23
V7x
p664
sg25
I84
sg26
I2
sg27
I85
sa(dp665
g21
VFORTESCUE
p666
sg23
V03
p667
sg25
I80
sg26
I3
sg27
I83
sa(dp668
g21
VGET IN THE QUEUE
p669
sg23
g490
sg25
I86
sg26
I4
sg27
I0
sa(dp670
g21
VJAMESSAINTPATRICK
p671
sg23
V41x7
p672
sg25
I73
sg26
I5
sg27
I71
sa(dp673
g21
VJUST ROCKY
p674
sg23
V4x
p675
sg25
I100
sg26
I6
sg27
I100
sa(dp676
g21
VMANOFTHEMOUNTAIN
p677
sg23
V3x
p678
sg25
I66
sg26
I7
sg27
I74
sa(dp679
g21
VNORTH STAR OSCAR
p680
sg23
V4
p681
sg25
I97
sg26
I8
sg27
I95
sa(dp682
g21
VSMARTY WILD
p683
sg23
V6
p684
sg25
I72
sg26
I9
sg27
I79
sa(dp685
g21
VMRS BELLAMY
p686
sg23
V5x
p687
sg25
I60
sg26
I10
sg27
I63
sasg55
(lp688
sssI1544535000
(dp689
g2
Vhttp://www.skyracing.com.au/index.php?component=racing&task=race&id=108720965&meetingid=108213899&Itemid=89
p690
sg4
V29044835.1330
p691
sg6
(dp692
g8
(lp693
(lp694
I3
aI16
aI9
aI4
aa(lp695
I3
aI14
aI4
aI10
aa(lp696
I8
aI4
aI16
aI14
aa(lp697
I2
aI5
aI12
aI4
aa(lp698
I3
aI4
aI8
aI14
aa(lp699
I3
aI9
aI4
aI16
aa(lp700
I11
aI3
aI9
aI12
aa(lp701
I3
aI4
aI16
aI8
aasg18
(lp702
(dp703
g21
VALMINAR
p704
sg23
V7569x
p705
sg25
I64
sg26
I1
sg27
I64
sa(dp706
g21
VANY DRAMA
p707
sg23
Vx110x
p708
sg25
I78
sg26
I2
sg27
I71
sa(dp709
g21
VCHEF DES OBEAUX
p710
sg23
V1100x
p711
sg25
I97
sg26
I3
sg27
I100
sa(dp712
g21
VCRUCIAL ROLE
p713
sg23
V120x3
p714
sg25
I83
sg26
I4
sg27
I94
sa(dp715
g21
VFORZA MILAN
p716
sg23
V22x0x
p717
sg25
I77
sg26
I5
sg27
I87
sa(dp718
g21
VGOLDEN SUNRISE
p719
sg23
V4132x
p720
sg25
I69
sg26
I6
sg27
I77
sa(dp721
g21
VGROUNDUNDERREPAIR
p722
sg23
V23x1x
p723
sg25
I70
sg26
I7
sg27
I81
sa(dp724
g21
VHUNTSMAN SON
p725
sg23
V424x2
p726
sg25
I88
sg26
I8
sg27
I75
sa(dp727
g21
VJUST DON'T ASK
p728
sg23
V3211x
p729
sg25
I100
sg26
I9
sg27
I95
sa(dp730
g21
VKILFILUM CROSS
p731
sg23
V7211x
p732
sg25
I92
sg26
I10
sg27
I68
sa(dp733
g21
VLOVENORMONEY
p734
sg23
V1710x
p735
sg25
I95
sg26
I11
sg27
I90
sa(dp736
g21
VMIDNIGHT MAESTRO
p737
sg23
V5x21x
p738
sg25
I94
sg26
I12
sg27
I89
sa(dp739
g21
VMISTERCOBAR
p740
sg23
V2112x
p741
sg25
I73
sg26
I13
sg27
I84
sa(dp742
g21
VNOW MCGINTY
p743
sg23
V12x27
p744
sg25
I66
sg26
I14
sg27
I66
sa(dp745
g21
VPIRI MASSINI
p746
sg23
V1532x
p747
sg25
I80
sg26
I15
sg27
I78
sa(dp748
g21
VRIVER FROST
p749
sg23
Vx00x9
p750
sg25
I87
sg26
I16
sg27
I99
sasg55
(lp751
sssI1544536800
(dp752
g2
Vhttp://www.skyracing.com.au/index.php?component=racing&task=race&id=108720966&meetingid=108213899&Itemid=89
p753
sg4
V29044835.1400
p754
sg6
(dp755
g8
(lp756
(lp757
I7
aI3
aI4
aI9
aa(lp758
I7
aI4
aI8
aI9
aa(lp759
I4
aI2
aI1
aI3
aa(lp760
I7
aI9
aI4
aI6
aa(lp761
I7
aI9
aI4
aI2
aa(lp762
I4
aI7
aI3
aI9
aa(lp763
I7
aI8
aI3
aI4
aa(lp764
I7
aI4
aI9
aI3
aasg18
(lp765
(dp766
g21
VDR OAKLEY
p767
sg23
V03x40
p768
sg25
I73
sg26
I1
sg27
I74
sa(dp769
g21
VESPRIT DU LARGE
p770
sg23
V7
p771
sg25
I82
sg26
I2
sg27
I87
sa(dp772
g21
VEUR GONE WEST
p773
sg23
Vx68x4
p774
sg25
I96
sg26
I3
sg27
I99
sa(dp775
g21
VFROM THE HEART
p776
sg23
V80x37
p777
sg25
I93
sg26
I4
sg27
I93
sa(dp778
g21
VJOHNNY OCEAN
p779
sg23
Vx96x4
p780
sg25
I84
sg26
I5
sg27
I83
sa(dp781
g21
VJUSTTHEGREY
p782
sg23
V5x200
p783
sg25
I70
sg26
I6
sg27
I70
sa(dp784
g21
VKITIKAT
p785
sg23
V1x27
p786
sg25
I100
sg26
I7
sg27
I100
sa(dp787
g21
VLEADER WRITER
p788
sg23
V60x99
p789
sg25
I88
sg26
I8
sg27
I86
sa(dp790
g21
VLITTLE RORY MAC
p791
sg23
V2x5
p792
sg25
I92
sg26
I9
sg27
I90
sa(dp793
g21
VSTAR OF RORY
p794
sg23
Vx0x04
p795
sg25
I79
sg26
I10
sg27
I79
sa(dp796
g21
VSUNDANCE BOY
p797
sg23
V0x4x8
p798
sg25
I62
sg26
I11
sg27
I62
sa(dp799
g21
VTANRUDY
p800
sg23
V424x4
p801
sg25
I77
sg26
I12
sg27
I77
sa(dp802
g21
VLADY NATASHA
p803
sg23
V5806x
p804
sg25
I64
sg26
I13
sg27
I64
sa(dp805
g21
VMOSSING
p806
sg23
V7x
p807
sg25
I71
sg26
I14
sg27
I71
sasg55
(lp808
sssI1544542800
(dp809
g2
Vhttp://www.skyracing.com.au/index.php?component=racing&task=race&id=108720984&meetingid=108213915&Itemid=89
p810
sg4
V29044837.1540
p811
sg6
(dp812
g8
(lp813
(lp814
I5
aI3
aI1
aI4
aa(lp815
I5
aI6
aI2
aI10
aa(lp816
I10
aI9
aI3
aI5
aa(lp817
I5
aI6
aI4
aI3
aa(lp818
I5
aI6
aI10
aI1
aa(lp819
I5
aI3
aI1
aI11
aa(lp820
I5
aI4
aI1
aI3
aa(lp821
I5
aI3
aI6
aI10
aasg18
(lp822
(dp823
g21
VBRIAC
p824
sg23
V3x0x0
p825
sg25
I92
sg26
I1
sg27
I93
sa(dp826
g21
VSNOWY OSCAR
p827
sg23
V748x0
p828
sg25
I77
sg26
I2
sg27
I80
sa(dp829
g21
VDAN GUN
p830
sg23
V50065
p831
sg25
I93
sg26
I3
sg27
I98
sa(dp832
g21
VZANTE
p833
sg23
V479x6
p834
sg25
I97
sg26
I4
sg27
I92
sa(dp835
g21
VSKY FULL OF STARS
p836
sg23
V422x3
p837
sg25
I100
sg26
I5
sg27
I100
sa(dp838
g21
VMAZALTO
p839
sg23
V505x9
p840
sg25
I71
sg26
I6
sg27
I72
sa(dp841
g21
VL'ATTESA
p842
sg23
V08800
p843
sg25
I74
sg26
I7
sg27
I70
sa(dp844
g21
VLAKETOUR LEADER
p845
sg23
V5706x
p846
sg25
I86
sg26
I8
sg27
I76
sa(dp847
g21
VOWNERS DAY
p848
sg23
V69x50
p849
sg25
I89
sg26
I9
sg27
I79
sa(dp850
g21
VFADING ICON
p851
sg23
V00466
p852
sg25
I79
sg26
I10
sg27
I84
sa(dp853
g21
VBLUE APRIL
p854
sg23
V9260x
p855
sg25
I83
sg26
I11
sg27
I87
sa(dp856
g21
VKINGSTON MIMOSA
p857
sg23
V7060x
p858
sg25
I68
sg26
I12
sg27
I74
sa(dp859
g21
VDONT CALL ME DORIS
p860
sg23
V090x0
p861
sg25
I66
sg26
I13
sg27
I64
sasg55
(lp862
sssI1544538600
(dp863
g2
Vhttp://www.skyracing.com.au/index.php?component=racing&task=race&id=108720967&meetingid=108213899&Itemid=89
p864
sg4
V29044835.1430
p865
sg6
(dp866
g8
(lp867
(lp868
I4
aI6
aI3
aI5
aa(lp869
I2
aI1
aI4
aI8
aa(lp870
I4
aI3
aI5
aI7
aa(lp871
I4
aI9
aI8
aI1
aa(lp872
I2
aI8
aI4
aI1
aa(lp873
I3
aI4
aI6
aI1
aa(lp874
I1
aI4
aI6
aI10
aa(lp875
I4
aI3
aI2
aI1
aasg18
(lp876
(dp877
g21
VQUICK PICK
p878
sg23
V930x9
p879
sg25
I99
sg26
I1
sg27
I80
sa(dp880
g21
VWESTERN CLIMATE
p881
sg23
V47x00
p882
sg25
I74
sg26
I2
sg27
I66
sa(dp883
g21
VSIZING CUSIMANO
p884
sg23
V21x50
p885
sg25
I85
sg26
I3
sg27
I88
sa(dp886
g21
VVOLCANO
p887
sg23
Vx0x33
p888
sg25
I100
sg26
I4
sg27
I100
sa(dp889
g21
VTHREE STAR GENERAL
p890
sg23
Vx5803
p891
sg25
I80
sg26
I5
sg27
I83
sa(dp892
g21
VFLYNNVINCIBLE
p893
sg23
V34x3x
p894
sg25
I92
sg26
I6
sg27
I96
sa(dp895
g21
VCLASSIC TUNE
p896
sg23
V0x0x4
p897
sg25
I60
sg26
I7
sg27
I58
sa(dp898
g21
VCOMPADRE
p899
sg23
V5854x
p900
sg25
I70
sg26
I8
sg27
I74
sa(dp901
g21
VSILENT ENCORE
p902
sg23
V243x7
p903
sg25
I63
sg26
I9
sg27
I70
sa(dp904
g21
VDISCAY
p905
sg23
Vx17x6
p906
sg25
I81
sg26
I10
sg27
I78
sasg55
(lp907
sssI1544530800
(dp908
g2
Vhttp://www.skyracing.com.au/index.php?component=racing&task=race&id=108720949&meetingid=108213883&Itemid=89
p909
sg4
V29043785.1220
p910
sg6
(dp911
g8
(lp912
(lp913
I6
aI7
aI4
aI2
aa(lp914
I6
aI7
aI2
aI4
aa(lp915
I6
aI2
aI7
aI4
aa(lp916
I2
aI7
aI6
aI1
aa(lp917
I7
aI4
aI6
aI2
aa(lp918
I6
aI7
aI4
aI2
aa(lp919
I6
aI4
aI7
aI11
aa(lp920
I6
aI7
aI2
aI4
aasg18
(lp921
(dp922
g21
VABSOLUTIO
p923
sg23
V460
p924
sg25
I83
sg26
I1
sg27
I82
sa(dp925
g21
VALLEN A DALE
p926
sg23
V5x4
p927
sg25
I88
sg26
I2
sg27
I86
sa(dp928
g21
VFORT BENTON
p929
sg23
g490
sg25
I74
sg26
I3
sg27
I0
sa(dp930
g21
VFOX KASPER
p931
sg23
V3
p932
sg25
I95
sg26
I4
sg27
I94
sa(dp933
g21
VFRENCHMANS CREEK
p934
sg23
V0
p935
sg25
I68
sg26
I5
sg27
I70
sa(dp936
g21
VST PETERS BASILICA
p937
sg23
V95438
p938
sg25
I100
sg26
I6
sg27
I100
sa(dp939
g21
VZIP
p940
sg23
V72522
p941
sg25
I96
sg26
I7
sg27
I97
sa(dp942
g21
VEVE HARRINGTON
p943
sg23
g490
sg25
I84
sg26
I8
sg27
I0
sa(dp944
g21
VGET US ON
p945
sg23
V000
p946
sg25
I65
sg26
I9
sg27
I66
sa(dp947
g21
VMARTHA MCEWAN
p948
sg23
g490
sg25
I77
sg26
I10
sg27
I0
sa(dp949
g21
VPLATINUM COAST
p950
sg23
g490
sg25
I91
sg26
I11
sg27
I0
sa(dp951
g21
VQUDURAAT
p952
sg23
V46x0
p953
sg25
I78
sg26
I12
sg27
I78
sa(dp954
g21
VSANTANA SLEW
p955
sg23
V6
p956
sg25
I71
sg26
I13
sg27
I77
sasg55
(lp957
sssI1544529000
(dp958
g2
Vhttp://www.skyracing.com.au/index.php?component=racing&task=race&id=108720948&meetingid=108213883&Itemid=89
p959
sg4
V29043785.1150
p960
sg6
(dp961
g8
(lp962
(lp963
I7
aI5
aI11
aI4
aa(lp964
I4
aI12
aI1
aI13
aa(lp965
I1
aI13
aI2
aI7
aa(lp966
I12
aI8
aI5
aI1
aa(lp967
I12
aI1
aI13
aI7
aa(lp968
I7
aI5
aI11
aI2
aa(lp969
I7
aI4
aI5
aI11
aa(lp970
I12
aI1
aI7
aI5
aasg18
(lp971
(dp972
g21
VCOASTGUARD WATCH
p973
sg23
V00350
p974
sg25
I83
sg26
I1
sg27
I83
sa(dp975
g21
VLIBERATA BELLA
p976
sg23
V808
p977
sg25
I84
sg26
I2
sg27
I86
sa(dp978
g21
VSYLVIACLIFFS
p979
sg23
V500
p980
sg25
I79
sg26
I3
sg27
I79
sa(dp981
g21
VGO ANNIE GO
p982
sg23
V22793
p983
sg25
I92
sg26
I4
sg27
I88
sa(dp984
g21
VFENJAL
p985
sg23
V5588
p986
sg25
I94
sg26
I5
sg27
I93
sa(dp987
g21
VCASTING
p988
sg23
V08973
p989
sg25
I97
sg26
I6
sg27
I0
sa(dp990
g21
VFFLUR
p991
sg23
V08643
p992
sg25
I100
sg26
I7
sg27
I100
sa(dp993
g21
VSILK ISLAND
p994
sg23
V749x
p995
sg25
I73
sg26
I8
sg27
I74
sa(dp996
g21
VCHAMPYOWNEZ
p997
sg23
V880x8
p998
sg25
I65
sg26
I9
sg27
I62
sa(dp999
g21
VGEORGE HASTINGS
p1000
sg23
V090x6
p1001
sg25
I77
sg26
I10
sg27
I77
sa(dp1002
g21
VLEXIKON
p1003
sg23
V483x2
p1004
sg25
I87
sg26
I11
sg27
I92
sa(dp1005
g21
VSINGE DU NORD
p1006
sg23
V99887
p1007
sg25
I68
sg26
I12
sg27
I71
sa(dp1008
g21
VMARGARET J
p1009
sg23
V60557
p1010
sg25
I72
sg26
I13
sg27
I68
sa(dp1011
g21
VROMANY ROSE
p1012
sg23
V900
p1013
sg25
I62
sg26
I14
sg27
I64
sasg55
(lp1014
sssI1544532600
(dp1015
g2
Vhttp://www.skyracing.com.au/index.php?component=racing&task=race&id=108720950&meetingid=108213883&Itemid=89
p1016
sg4
V29043785.1250
p1017
sg6
(dp1018
g8
(lp1019
(lp1020
I4
aI5
aI1
aI2
aa(lp1021
I6
aI1
aI2
aI8
aa(lp1022
I8
aI1
aI2
aI6
aa(lp1023
I2
aI4
aI8
aI1
aa(lp1024
I8
aI1
aI2
aI5
aa(lp1025
I4
aI5
aI1
aI2
aa(lp1026
I4
aI1
aI5
aI2
aa(lp1027
I1
aI2
aI8
aI4
aasg18
(lp1028
(dp1029
g21
VKOMMANDER KIRKUP
p1030
sg23
V75761
p1031
sg25
I96
sg26
I1
sg27
I93
sa(dp1032
g21
VTHE RIGHT CHOICE
p1033
sg23
V33447
p1034
sg25
I83
sg26
I2
sg27
I86
sa(dp1035
g21
VCHEZ VEGAS
p1036
sg23
Vx68x4
p1037
sg25
I85
sg26
I3
sg27
I78
sa(dp1038
g21
VCAPLA DEMON
p1039
sg23
V5127x
p1040
sg25
I100
sg26
I4
sg27
I100
sa(dp1041
g21
VPOINT ZERO
p1042
sg23
V32x29
p1043
sg25
I90
sg26
I5
sg27
I97
sa(dp1044
g21
VSULTAN BAYBARS
p1045
sg23
V06736
p1046
sg25
I60
sg26
I6
sg27
I72
sa(dp1047
g21
VDREAM ALLY
p1048
sg23
V163x0
p1049
sg25
I74
sg26
I7
sg27
I66
sa(dp1050
g21
VEPEIUS
p1051
sg23
V46862
p1052
sg25
I78
sg26
I8
sg27
I81
sa(dp1053
g21
VFIRST BREATH
p1054
sg23
V0x863
p1055
sg25
I64
sg26
I9
sg27
I0
sa(dp1056
g21
VFORTINBRASS
p1057
sg23
V20x05
p1058
sg25
I69
sg26
I10
sg27
I61
sasg55
(lp1059
sss.