(dp0
I1543070400
(dp1
S'skyracing_url'
p2
Vhttp://www.skyracing.com.au/index.php?component=racing&task=race&id=108173318&meetingid=107038106&Itemid=89
p3
sS'betfair_raceid'
p4
V29023040.1440
p5
sS'dat2'
p6
(dp7
S'ratings_auto'
p8
(lp9
(lp10
I2
aI4
aI1
aI5
aa(lp11
I5
aI3
aI6
aI1
aa(lp12
I1
aI4
aI2
aI3
aa(lp13
I3
aI5
aI1
aI2
aa(lp14
I5
aI1
aI4
aI2
aa(lp15
I4
aI2
aI5
aI1
aa(lp16
I2
aI4
aI6
aI1
aa(lp17
I5
aI1
aI4
aI2
aasS'horse_details'
p18
(lp19
(dp20
S'horse_name'
p21
VOLD GUARD
p22
sS'horse_form'
p23
V4x223
p24
sS'rating_2'
p25
I92
sS'horse_number'
p26
I1
sS'rating_1'
p27
I88
sa(dp28
g21
VWE HAVE A DREAM
p29
sg23
V1x1x3
p30
sg25
I100
sg26
I2
sg27
I100
sa(dp31
g21
VBABBLING STREAM
p32
sg23
V41743
p33
sg25
I79
sg26
I3
sg27
I78
sa(dp34
g21
VIF THE CAP FITS
p35
sg23
V111x2
p36
sg25
I97
sg26
I4
sg27
I94
sa(dp37
g21
VRAYVIN BLACK
p38
sg23
V1315x
p39
sg25
I82
sg26
I5
sg27
I84
sa(dp40
g21
VTOMNGERRY
p41
sg23
V4410x
p42
sg25
I85
sg26
I6
sg27
I82
sasS'ratings_manual'
p43
(lp44
sssI1543067400
(dp45
g2
Vhttp://www.skyracing.com.au/index.php?component=racing&task=race&id=108173287&meetingid=107038122&Itemid=89
p46
sg4
V29021851.1350
p47
sg6
(dp48
g8
(lp49
(lp50
I1
aI8
aI5
aI4
aa(lp51
I4
aI1
aI6
aI10
aa(lp52
I3
aI4
aI6
aI7
aa(lp53
I1
aI9
aI3
aI7
aa(lp54
I4
aI1
aI9
aI6
aa(lp55
I8
aI1
aI5
aI3
aa(lp56
I1
aI4
aI3
aI5
aa(lp57
I1
aI4
aI8
aI3
aasg18
(lp58
(dp59
g21
VCYRUS DARIUS
p60
sg23
V4315x
p61
sg25
I100
sg26
I1
sg27
I100
sa(dp62
g21
VJOHN CONSTABLE
p63
sg23
Vx5306
p64
sg25
I73
sg26
I2
sg27
I71
sa(dp65
g21
VCH'TIBELLO
p66
sg23
V80x56
p67
sg25
I88
sg26
I3
sg27
I82
sa(dp68
g21
VCHTI BALKO
p69
sg23
V392x2
p70
sg25
I90
sg26
I4
sg27
I89
sa(dp71
g21
VCLIFFS OF DOVER
p72
sg23
V81360
p73
sg25
I97
sg26
I5
sg27
I93
sa(dp74
g21
VMR ANTOLINI
p75
sg23
V212x5
p76
sg25
I80
sg26
I6
sg27
I86
sa(dp77
g21
VGARO DE JUILLEY
p78
sg23
V0x241
p79
sg25
I85
sg26
I7
sg27
I74
sa(dp80
g21
VBLACK MISCHIEF
p81
sg23
V3x1x9
p82
sg25
I95
sg26
I8
sg27
I96
sa(dp83
g21
VADMIRAL BARRATRY
p84
sg23
Vx52x2
p85
sg25
I79
sg26
I9
sg27
I79
sa(dp86
g21
VSAKHEE'S CITY
p87
sg23
V401x6
p88
sg25
I70
sg26
I10
sg27
I70
sa(dp89
g21
VMAGIC DANCER
p90
sg23
V81x26
p91
sg25
I75
sg26
I11
sg27
I77
sasg43
(lp92
sssI1543068300
(dp93
g2
Vhttp://www.skyracing.com.au/index.php?component=racing&task=race&id=108173317&meetingid=107038106&Itemid=89
p94
sg4
V29023040.1405
p95
sg6
(dp96
g8
(lp97
(lp98
I1
aI3
aI4
aI5
aa(lp99
I1
aI5
aI4
aI6
aa(lp100
I4
aI3
aI6
aI5
aa(lp101
I5
aI4
aI3
aI1
aa(lp102
I1
aI5
aI4
aI2
aa(lp103
I1
aI3
aI4
aI5
aa(lp104
I1
aI4
aI3
aI6
aa(lp105
I1
aI4
aI5
aI3
aasg18
(lp106
(dp107
g21
VPOLITOLOGUE
p108
sg23
V1241x
p109
sg25
I100
sg26
I1
sg27
I100
sa(dp110
g21
VGOLD PRESENT
p111
sg23
V1x00x
p112
sg25
I83
sg26
I2
sg27
I83
sa(dp113
g21
VBENATAR
p114
sg23
V1x3x4
p115
sg25
I97
sg26
I3
sg27
I98
sa(dp116
g21
VCHARBEL
p117
sg23
Vx9x31
p118
sg25
I92
sg26
I4
sg27
I94
sa(dp119
g21
VHAMMERSLY LAKE
p120
sg23
V31217
p121
sg25
I85
sg26
I5
sg27
I85
sa(dp122
g21
VSIZING GRANITE
p123
sg23
V60x66
p124
sg25
I80
sg26
I6
sg27
I80
sasg43
(lp125
sssI1543069200
(dp126
g2
Vhttp://www.skyracing.com.au/index.php?component=racing&task=race&id=108173274&meetingid=107408940&Itemid=89
p127
sg4
V29023038.1420
p128
sg6
(dp129
g8
(lp130
(lp131
I2
aI1
aI4
aI5
aa(lp132
I1
aI4
aI2
aI3
aa(lp133
I4
aI3
aI6
aI1
aa(lp134
I1
aI2
aI5
aI3
aa(lp135
I1
aI4
aI2
aI3
aa(lp136
I1
aI2
aI4
aI3
aa(lp137
I1
aI4
aI2
aI5
aa(lp138
I1
aI2
aI4
aI3
aasg18
(lp139
(dp140
g21
VLAST GOODBYE
p141
sg23
Vx100x
p142
sg25
I92
sg26
I1
sg27
I96
sa(dp143
g21
VJETT
p144
sg23
V9124x
p145
sg25
I95
sg26
I2
sg27
I100
sa(dp146
g21
VDRUMCONNOR LAD
p147
sg23
V67034
p148
sg25
I81
sg26
I3
sg27
I81
sa(dp149
g21
VTYCOON PRINCE
p150
sg23
V090x2
p151
sg25
I100
sg26
I4
sg27
I88
sa(dp152
g21
VWISHMOOR
p153
sg23
V2411x
p154
sg25
I87
sg26
I5
sg27
I83
sa(dp155
g21
VOH ME OH MY
p156
sg23
V6x714
p157
sg25
I79
sg26
I6
sg27
I78
sasg43
(lp158
sssI1543071000
(dp159
g2
Vhttp://www.skyracing.com.au/index.php?component=racing&task=race&id=108173259&meetingid=107038138&Itemid=89
p160
sg4
V29023036.1450
p161
sg6
(dp162
g8
(lp163
(lp164
I4
aI1
aI7
aI3
aa(lp165
I6
aI3
aI4
aI5
aa(lp166
I3
aI1
aI2
aI7
aa(lp167
I3
aI4
aI6
aI1
aa(lp168
I6
aI4
aI3
aI1
aa(lp169
I4
aI1
aI7
aI6
aa(lp170
I1
aI4
aI7
aI3
aa(lp171
I4
aI3
aI1
aI6
aasg18
(lp172
(dp173
g21
VMAMOO
p174
sg23
V14396
p175
sg25
I99
sg26
I1
sg27
I96
sa(dp176
g21
VAQUARIAN
p177
sg23
V65x74
p178
sg25
I80
sg26
I2
sg27
I81
sa(dp179
g21
VDOWNLOADTHEAPP
p180
sg23
V77x32
p181
sg25
I88
sg26
I3
sg27
I85
sa(dp182
g21
VPRAY FOR A RAINBOW
p183
sg23
V3324x
p184
sg25
I100
sg26
I4
sg27
I100
sa(dp185
g21
VARTHUR'S REUBEN
p186
sg23
V459x4
p187
sg25
I76
sg26
I5
sg27
I78
sa(dp188
g21
VINDIAN REEL
p189
sg23
V64060
p190
sg25
I82
sg26
I6
sg27
I76
sa(dp191
g21
VTIR DUBH
p192
sg23
V30602
p193
sg25
I94
sg26
I7
sg27
I90
sa(dp194
g21
VJONJOELA
p195
sg23
Vx0536
p196
sg25
I71
sg26
I8
sg27
I69
sasg43
(lp197
sssI1543070100
(dp198
g2
Vhttp://www.skyracing.com.au/index.php?component=racing&task=race&id=108173304&meetingid=107038154&Itemid=89
p199
sg4
V29022064.1435
p200
sg6
(dp201
g8
(lp202
(lp203
I4
aI5
aI9
aI7
aa(lp204
I1
aI2
aI7
aI3
aa(lp205
I1
aI2
aI4
aI7
aa(lp206
I1
aI2
aI7
aI9
aa(lp207
I5
aI4
aI9
aI6
aa(lp208
I7
aI4
aI5
aI9
aa(lp209
I5
aI4
aI6
aI9
aa(lp210
I4
aI1
aI7
aI5
aasg18
(lp211
(dp212
g21
VEQUIMOU
p213
sg23
V76160
p214
sg25
I68
sg26
I1
sg27
I60
sa(dp215
g21
VWASEEM FARIS
p216
sg23
V20725
p217
sg25
I62
sg26
I2
sg27
I58
sa(dp218
g21
VJUST GLAMOROUS
p219
sg23
V06905
p220
sg25
I70
sg26
I3
sg27
I65
sa(dp221
g21
VCAPTAIN LARS
p222
sg23
V15322
p223
sg25
I100
sg26
I4
sg27
I100
sa(dp224
g21
VJASHMA
p225
sg23
V23071
p226
sg25
I98
sg26
I5
sg27
I95
sa(dp227
g21
VPRINCELY
p228
sg23
Vx143x
p229
sg25
I94
sg26
I6
sg27
I71
sa(dp230
g21
VHARRY HURRICANE
p231
sg23
V54204
p232
sg25
I80
sg26
I7
sg27
I75
sa(dp233
g21
VPEGGY'S ANGEL
p234
sg23
V8x5x0
p235
sg25
I74
sg26
I8
sg27
I50
sa(dp236
g21
VJACK TAYLOR
p237
sg23
V47632
p238
sg25
I86
sg26
I9
sg27
I90
sa(dp239
g21
VCRYSTAL DEAUVILLE
p240
sg23
V2572x
p241
sg25
I83
sg26
I10
sg27
I70
sasg43
(lp242
sssI1543061400
(dp243
g2
Vhttp://www.skyracing.com.au/index.php?component=racing&task=race&id=108173284&meetingid=107038122&Itemid=89
p244
sg4
V29021851.1210
p245
sg6
(dp246
g8
(lp247
(lp248
I4
aI1
aI2
aI3
aa(lp249
I1
aI4
aI2
aI3
aa(lp250
I2
aI4
aI3
aI1
aa(lp251
I4
aI2
aI3
aI1
aa(lp252
I4
aI1
aI2
aI3
aa(lp253
I1
aI4
aI2
aI3
aa(lp254
I1
aI4
aI3
aI2
aa(lp255
I4
aI1
aI2
aI3
aasg18
(lp256
(dp257
g21
VBLACK KEY
p258
sg23
V6131x
p259
sg25
I99
sg26
I1
sg27
I95
sa(dp260
g21
VCAUSE TOUJOURS
p261
sg23
V11x42
p262
sg25
I91
sg26
I2
sg27
I94
sa(dp263
g21
VDENMEAD
p264
sg23
V30413
p265
sg25
I86
sg26
I3
sg27
I85
sa(dp266
g21
VGRAND SANCY
p267
sg23
V0x121
p268
sg25
I100
sg26
I4
sg27
I100
sa(dp269
g21
VLOUGH DERG DIAMOND
p270
sg23
V33x
p271
sg25
I82
sg26
I5
sg27
I81
sasg43
(lp272
sssI1543061700
(dp273
g2
Vhttp://www.skyracing.com.au/index.php?component=racing&task=race&id=108173300&meetingid=107038154&Itemid=89
p274
sg4
V29022064.1215
p275
sg6
(dp276
g8
(lp277
(lp278
I1
aI9
aI3
aI8
aa(lp279
I9
aI1
aI4
aI3
aa(lp280
I1
aI3
aI8
aI4
aa(lp281
I1
aI3
aI4
aI9
aa(lp282
I1
aI8
aI4
aI7
aa(lp283
I8
aI9
aI1
aI3
aa(lp284
I1
aI9
aI3
aI8
aa(lp285
I1
aI9
aI3
aI8
aasg18
(lp286
(dp287
g21
VARCHIES LAD
p288
sg23
V62395
p289
sg25
I100
sg26
I1
sg27
I100
sa(dp290
g21
VCASTING
p291
sg23
V0897
p292
sg25
I78
sg26
I2
sg27
I78
sa(dp293
g21
VPETERS PUDDING
p294
sg23
V84724
p295
sg25
I91
sg26
I3
sg27
I92
sa(dp296
g21
VROYAL DANCER
p297
sg23
V96209
p298
sg25
I81
sg26
I4
sg27
I82
sa(dp299
g21
VBRIDLEMERE COURT
p300
sg23
V068
p301
sg25
I67
sg26
I5
sg27
I68
sa(dp302
g21
VCHARLINE
p303
sg23
V0
p304
sg25
I70
sg26
I6
sg27
I69
sa(dp305
g21
VFEEL THE NOIZE
p306
sg23
V55767
p307
sg25
I75
sg26
I7
sg27
I75
sa(dp308
g21
VJEWEL OF THE SEA
p309
sg23
V84846
p310
sg25
I87
sg26
I8
sg27
I87
sa(dp311
g21
VUM SHAMA
p312
sg23
V5x958
p313
sg25
I96
sg26
I9
sg27
I98
sasg43
(lp314
sssI1543063200
(dp315
g2
Vhttp://www.skyracing.com.au/index.php?component=racing&task=race&id=108173285&meetingid=107038122&Itemid=89
p316
sg4
V29021851.1240
p317
sg6
(dp318
g8
(lp319
(lp320
I5
aI2
aI7
aI8
aa(lp321
I1
aI2
aI3
aI4
aa(lp322
I1
aI7
aI8
aI6
aa(lp323
I2
aI6
aI3
aI4
aa(lp324
I2
aI3
aI6
aI4
aa(lp325
I2
aI7
aI5
aI3
aa(lp326
I5
aI2
aI8
aI7
aa(lp327
I2
aI7
aI3
aI1
aasg18
(lp328
(dp329
g21
VBISHOPS ROAD
p330
sg23
V7x063
p331
sg25
I82
sg26
I1
sg27
I70
sa(dp332
g21
VDAWSON CITY
p333
sg23
V3126x
p334
sg25
I92
sg26
I2
sg27
I90
sa(dp335
g21
VRED INFANTRY
p336
sg23
V210x9
p337
sg25
I80
sg26
I3
sg27
I74
sa(dp338
g21
VVERY FIRST TIME
p339
sg23
V1200x
p340
sg25
I71
sg26
I4
sg27
I64
sa(dp341
g21
VTWO SMOKIN BARRELS
p342
sg23
V2175x
p343
sg25
I100
sg26
I5
sg27
I100
sa(dp344
g21
VALVARADO
p345
sg23
Vx32x9
p346
sg25
I74
sg26
I6
sg27
I69
sa(dp347
g21
VSAM RED
p348
sg23
Vx0510
p349
sg25
I88
sg26
I7
sg27
I84
sa(dp350
g21
VLITTLE BRUCE
p351
sg23
V814x1
p352
sg25
I99
sg26
I8
sg27
I77
sasg43
(lp353
sssI1543062000
(dp354
g2
Vhttp://www.skyracing.com.au/index.php?component=racing&task=race&id=108173314&meetingid=107038106&Itemid=89
p355
sg4
V29023040.1220
p356
sg6
(dp357
g8
(lp358
(lp359
I1
aI4
aI7
aI3
aa(lp360
I4
aI1
aI3
aI6
aa(lp361
I4
aI3
aI6
aI5
aa(lp362
I4
aI1
aI3
aI6
aa(lp363
I4
aI3
aI6
aI1
aa(lp364
I4
aI1
aI7
aI3
aa(lp365
I7
aI1
aI4
aI3
aa(lp366
I4
aI1
aI3
aI6
aasg18
(lp367
(dp368
g21
VDOUX PRETENDER
p369
sg23
V62x1x
p370
sg25
I99
sg26
I1
sg27
I100
sa(dp371
g21
VHILLARY JOHN
p372
sg23
V4x11x
p373
sg25
I83
sg26
I2
sg27
I79
sa(dp374
g21
VSENIOR CITIZEN
p375
sg23
V3x3x1
p376
sg25
I88
sg26
I3
sg27
I83
sa(dp377
g21
VSTONEY MOUNTAIN
p378
sg23
V101x1
p379
sg25
I92
sg26
I4
sg27
I94
sa(dp380
g21
VCLONDAW ACE
p381
sg23
V019x6
p382
sg25
I74
sg26
I5
sg27
I73
sa(dp383
g21
VTHE RAVEN'S RETURN
p384
sg23
V40x1
p385
sg25
I80
sg26
I6
sg27
I76
sa(dp386
g21
VTREVELYN'S CORN
p387
sg23
V1x
p388
sg25
I100
sg26
I7
sg27
I90
sasg43
(lp389
sssI1543073700
(dp390
g2
Vhttp://www.skyracing.com.au/index.php?component=racing&task=race&id=108173290&meetingid=107038122&Itemid=89
p391
sg4
V29021851.1535
p392
sg6
(dp393
g8
(lp394
(lp395
I4
aI2
aI1
aI6
aa(lp396
I1
aI2
aI5
aI3
aa(lp397
I4
aI5
aI3
aI1
aa(lp398
I1
aI2
aI3
aI5
aa(lp399
I2
aI5
aI6
aI4
aa(lp400
I2
aI4
aI1
aI6
aa(lp401
I2
aI1
aI4
aI6
aa(lp402
I2
aI1
aI4
aI5
aasg18
(lp403
(dp404
g21
VCAPTAIN REDBEARD
p405
sg23
V210x3
p406
sg25
I93
sg26
I1
sg27
I90
sa(dp407
g21
VVINTAGE CLOUDS
p408
sg23
V4233x
p409
sg25
I97
sg26
I2
sg27
I94
sa(dp410
g21
VBUYWISE
p411
sg23
V0x0x6
p412
sg25
I81
sg26
I3
sg27
I78
sa(dp413
g21
VBRAQUEUR D'OR
p414
sg23
Vx0x91
p415
sg25
I100
sg26
I4
sg27
I100
sa(dp416
g21
VDELUSIONOFGRANDEUR
p417
sg23
V08x55
p418
sg25
I80
sg26
I5
sg27
I77
sa(dp419
g21
VTAKINGRISKS
p420
sg23
V135x1
p421
sg25
I87
sg26
I6
sg27
I85
sasg43
(lp422
sssI1543074600
(dp423
g2
Vhttp://www.skyracing.com.au/index.php?component=racing&task=race&id=108173320&meetingid=107038106&Itemid=89
p424
sg4
V29023040.1550
p425
sg6
(dp426
g8
(lp427
(lp428
I5
aI1
aI8
aI11
aa(lp429
I5
aI11
aI1
aI8
aa(lp430
I1
aI8
aI4
aI2
aa(lp431
I5
aI11
aI8
aI1
aa(lp432
I5
aI1
aI8
aI11
aa(lp433
I8
aI5
aI1
aI11
aa(lp434
I5
aI1
aI8
aI3
aa(lp435
I5
aI1
aI8
aI11
aasg18
(lp436
(dp437
g21
VDE FORGOTTEN ONE
p438
sg23
V1
p439
sg25
I96
sg26
I1
sg27
I97
sa(dp440
g21
VHAZZAAR
p441
sg23
V
p442
sg25
I84
sg26
I2
sg27
I0
sa(dp443
g21
VJELSKI
p444
sg23
g442
sg25
I90
sg26
I3
sg27
I0
sa(dp445
g21
VKALOOKI
p446
sg23
V0
p447
sg25
I82
sg26
I4
sg27
I74
sa(dp448
g21
VMANOFTHEMOMENT
p449
sg23
V1x
p450
sg25
I100
sg26
I5
sg27
I100
sa(dp451
g21
VONLY MONEY
p452
sg23
g442
sg25
I72
sg26
I6
sg27
I0
sa(dp453
g21
VPRINCE LLYWELYN
p454
sg23
g442
sg25
I79
sg26
I7
sg27
I0
sa(dp455
g21
VROBYNDZONE
p456
sg23
V1x0
p457
sg25
I94
sg26
I8
sg27
I89
sa(dp458
g21
VROCCOWITHLOVE
p459
sg23
g442
sg25
I87
sg26
I9
sg27
I0
sa(dp460
g21
VWATAR ALLSTAR
p461
sg23
V5x
p462
sg25
I74
sg26
I10
sg27
I80
sa(dp463
g21
VMADAM ANNA
p464
sg23
V15x9x
p465
sg25
I75
sg26
I11
sg27
I85
sasg43
(lp466
sssI1543065900
(dp467
g2
Vhttp://www.skyracing.com.au/index.php?component=racing&task=race&id=108173302&meetingid=107038154&Itemid=89
p468
sg4
V29022064.1325
p469
sg6
(dp470
g8
(lp471
(lp472
I8
aI1
aI6
aI2
aa(lp473
I4
aI1
aI3
aI6
aa(lp474
I1
aI7
aI8
aI6
aa(lp475
I1
aI7
aI3
aI6
aa(lp476
I4
aI8
aI1
aI6
aa(lp477
I6
aI8
aI1
aI2
aa(lp478
I2
aI8
aI6
aI1
aa(lp479
I1
aI8
aI6
aI4
aasg18
(lp480
(dp481
g21
VSALATEEN
p482
sg23
V24444
p483
sg25
I86
sg26
I1
sg27
I97
sa(dp484
g21
VSIR THOMAS GRESHAM
p485
sg23
V11
p486
sg25
I94
sg26
I2
sg27
I86
sa(dp487
g21
VFIRMAMENT
p488
sg23
V32058
p489
sg25
I77
sg26
I3
sg27
I77
sa(dp490
g21
VTROPICS
p491
sg23
V10350
p492
sg25
I84
sg26
I4
sg27
I72
sa(dp493
g21
VALBISHR
p494
sg23
V67x08
p495
sg25
I71
sg26
I5
sg27
I67
sa(dp496
g21
VBREATHLESS TIMES
p497
sg23
V80x13
p498
sg25
I99
sg26
I6
sg27
I87
sa(dp499
g21
VGREAT PROSPECTOR
p500
sg23
V40x36
p501
sg25
I80
sg26
I7
sg27
I79
sa(dp502
g21
VGHAZAWAAT
p503
sg23
V655x2
p504
sg25
I100
sg26
I8
sg27
I100
sasg43
(lp505
sssI1543066800
(dp506
g2
Vhttp://www.skyracing.com.au/index.php?component=racing&task=race&id=108173257&meetingid=107038138&Itemid=89
p507
sg4
V29023036.1340
p508
sg6
(dp509
g8
(lp510
(lp511
I3
aI2
aI8
aI6
aa(lp512
I5
aI4
aI3
aI8
aa(lp513
I8
aI1
aI3
aI2
aa(lp514
I5
aI1
aI3
aI2
aa(lp515
I3
aI4
aI2
aI6
aa(lp516
I3
aI2
aI8
aI6
aa(lp517
I3
aI1
aI8
aI6
aa(lp518
I3
aI2
aI8
aI5
aasg18
(lp519
(dp520
g21
VMISTER UNIVERSUM
p521
sg23
V15260
p522
sg25
I99
sg26
I1
sg27
I75
sa(dp523
g21
VCUBSWIN
p524
sg23
V2x264
p525
sg25
I88
sg26
I2
sg27
I96
sa(dp526
g21
VBEACH BREAK
p527
sg23
V11342
p528
sg25
I100
sg26
I3
sg27
I100
sa(dp529
g21
VSNAPDRAGON FIRE
p530
sg23
V24x10
p531
sg25
I79
sg26
I4
sg27
I78
sa(dp532
g21
VMINELLAFORLEISURE
p533
sg23
V75x89
p534
sg25
I72
sg26
I5
sg27
I72
sa(dp535
g21
VCOLLODI
p536
sg23
V13160
p537
sg25
I83
sg26
I6
sg27
I87
sa(dp538
g21
VMONDAY CLUB
p539
sg23
V23133
p540
sg25
I77
sg26
I7
sg27
I82
sa(dp541
g21
VSOLSTALLA
p542
sg23
V13414
p543
sg25
I93
sg26
I8
sg27
I93
sasg43
(lp544
sssI1543072200
(dp545
g2
Vhttp://www.skyracing.com.au/index.php?component=racing&task=race&id=108173305&meetingid=107038154&Itemid=89
p546
sg4
V29022064.1510
p547
sg6
(dp548
g8
(lp549
(lp550
I3
aI10
aI4
aI8
aa(lp551
I1
aI9
aI6
aI3
aa(lp552
I1
aI4
aI6
aI2
aa(lp553
I7
aI1
aI2
aI6
aa(lp554
I7
aI4
aI6
aI1
aa(lp555
I3
aI4
aI10
aI8
aa(lp556
I10
aI3
aI5
aI4
aa(lp557
I1
aI4
aI3
aI7
aasg18
(lp558
(dp559
g21
VNARJES
p560
sg23
V12238
p561
sg25
I76
sg26
I1
sg27
I80
sa(dp562
g21
VDIVINE MESSENGER
p563
sg23
V212x7
p564
sg25
I87
sg26
I2
sg27
I88
sa(dp565
g21
VTHE NIGHT KING
p566
sg23
V52441
p567
sg25
I100
sg26
I3
sg27
I100
sa(dp568
g21
VBAN SHOOF
p569
sg23
V42622
p570
sg25
I94
sg26
I4
sg27
I95
sa(dp571
g21
VPACIFIC SALT
p572
sg23
V7x860
p573
sg25
I92
sg26
I5
sg27
I79
sa(dp574
g21
VFANFAIR
p575
sg23
V84356
p576
sg25
I73
sg26
I6
sg27
I69
sa(dp577
g21
VSETTLE PETAL
p578
sg23
V59354
p579
sg25
I70
sg26
I7
sg27
I74
sa(dp580
g21
VPARA MIO
p581
sg23
Vx8x65
p582
sg25
I84
sg26
I8
sg27
I91
sa(dp583
g21
VMUSIC MAJOR
p584
sg23
Vx8078
p585
sg25
I82
sg26
I9
sg27
I70
sa(dp586
g21
VTOPOLOGY
p587
sg23
V33231
p588
sg25
I98
sg26
I10
sg27
I97
sa(dp589
g21
VCLASSIC CHARM
p590
sg23
V6x002
p591
sg25
I72
sg26
I11
sg27
I76
sa(dp592
g21
VTESORINA
p593
sg23
V4x942
p594
sg25
I79
sg26
I12
sg27
I86
sa(dp595
g21
VDAWN OF RECKONING
p596
sg23
V90840
p597
sg25
I65
sg26
I13
sg27
I67
sasg43
(lp598
sssI1543072500
(dp599
g2
Vhttp://www.skyracing.com.au/index.php?component=racing&task=race&id=108173319&meetingid=107038106&Itemid=89
p600
sg4
V29023040.1515
p601
sg6
(dp602
g8
(lp603
(lp604
I1
aI5
aI4
aI9
aa(lp605
I5
aI3
aI2
aI1
aa(lp606
I4
aI5
aI9
aI7
aa(lp607
I3
aI2
aI8
aI1
aa(lp608
I10
aI5
aI7
aI13
aa(lp609
I9
aI1
aI5
aI4
aa(lp610
I4
aI1
aI7
aI3
aa(lp611
I5
aI1
aI4
aI9
aasg18
(lp612
(dp613
g21
VOZZIE THE OSCAR
p614
sg23
V11x32
p615
sg25
I100
sg26
I1
sg27
I100
sa(dp616
g21
VSAN BENEDETO
p617
sg23
V23x63
p618
sg25
I76
sg26
I2
sg27
I73
sa(dp619
g21
VSPEREDEK
p620
sg23
V27x8x
p621
sg25
I82
sg26
I3
sg27
I62
sa(dp622
g21
VMODUS
p623
sg23
V185x1
p624
sg25
I96
sg26
I4
sg27
I94
sa(dp625
g21
VCYRNAME
p626
sg23
V214x3
p627
sg25
I93
sg26
I5
sg27
I98
sa(dp628
g21
VTHEINVAL
p629
sg23
V4241x
p630
sg25
I78
sg26
I6
sg27
I76
sa(dp631
g21
VDUKE OF NAVAN
p632
sg23
V1x3x2
p633
sg25
I84
sg26
I7
sg27
I77
sa(dp634
g21
VVALDEZ
p635
sg23
V0x30x
p636
sg25
I92
sg26
I8
sg27
I69
sa(dp637
g21
VONE FOR BILLY
p638
sg23
V11227
p639
sg25
I89
sg26
I9
sg27
I81
sa(dp640
g21
VCHAMPAGNE AT TARA
p641
sg23
V311x2
p642
sg25
I73
sg26
I10
sg27
I66
sa(dp643
g21
VGARDEFORT
p644
sg23
V12x4x
p645
sg25
I65
sg26
I11
sg27
I57
sa(dp646
g21
VCAID DU LIN
p647
sg23
Vx1272
p648
sg25
I69
sg26
I12
sg27
I59
sa(dp649
g21
VMARRACUDJA
p650
sg23
V4x676
p651
sg25
I71
sg26
I13
sg27
I64
sasg43
(lp652
sssI1543069500
(dp653
g2
Vhttp://www.skyracing.com.au/index.php?component=racing&task=race&id=108173288&meetingid=107038122&Itemid=89
p654
sg4
V29021851.1425
p655
sg6
(dp656
g8
(lp657
(lp658
I6
aI1
aI2
aI5
aa(lp659
I7
aI3
aI5
aI4
aa(lp660
I4
aI1
aI6
aI2
aa(lp661
I3
aI4
aI6
aI1
aa(lp662
I7
aI4
aI6
aI1
aa(lp663
I1
aI6
aI5
aI2
aa(lp664
I6
aI2
aI1
aI5
aa(lp665
I6
aI1
aI4
aI7
aasg18
(lp666
(dp667
g21
VPAISLEY PARK
p668
sg23
V220x1
p669
sg25
I95
sg26
I1
sg27
I94
sa(dp670
g21
VCAPTAIN CATTISTOCK
p671
sg23
V414x6
p672
sg25
I91
sg26
I2
sg27
I88
sa(dp673
g21
VSHADES OF MIDNIGHT
p674
sg23
V308x3
p675
sg25
I80
sg26
I3
sg27
I75
sa(dp676
g21
VBOBO MAC
p677
sg23
V741x2
p678
sg25
I76
sg26
I4
sg27
I77
sa(dp679
g21
VTHEO'S CHARM
p680
sg23
V2204x
p681
sg25
I86
sg26
I5
sg27
I85
sa(dp682
g21
VFIRST ASSIGNMENT
p683
sg23
V13x11
p684
sg25
I100
sg26
I6
sg27
I100
sa(dp685
g21
VFOLSOM BLUE
p686
sg23
V4140x
p687
sg25
I83
sg26
I7
sg27
I80
sa(dp688
g21
VMILROW
p689
sg23
V2x060
p690
sg25
I70
sg26
I8
sg27
I70
sasg43
(lp691
sssI1543060800
(dp692
g2
Vhttp://www.skyracing.com.au/index.php?component=racing&task=race&id=108173254&meetingid=107038138&Itemid=89
p693
sg4
V29023036.1200
p694
sg6
(dp695
g8
(lp696
(lp697
I4
aI5
aI6
aI3
aa(lp698
I5
aI3
aI1
aI4
aa(lp699
I3
aI5
aI4
aI1
aa(lp700
I3
aI5
aI6
aI4
aa(lp701
I5
aI3
aI4
aI1
aa(lp702
I5
aI4
aI6
aI1
aa(lp703
I4
aI5
aI6
aI3
aa(lp704
I5
aI3
aI4
aI6
aasg18
(lp705
(dp706
g21
VBUILDING FUTURES
p707
sg23
V6x9x0
p708
sg25
I84
sg26
I1
sg27
I77
sa(dp709
g21
VCOCKNEY SEAGULL
p710
sg23
V0x08x
p711
sg25
I79
sg26
I2
sg27
I73
sa(dp712
g21
VENRICHISSANT
p713
sg23
V49x53
p714
sg25
I87
sg26
I3
sg27
I82
sa(dp715
g21
VESPOIR DE LOIRE
p716
sg23
V1x2
p717
sg25
I100
sg26
I4
sg27
I100
sa(dp718
g21
VLARKBARROW LAD
p719
sg23
Vx32x4
p720
sg25
I98
sg26
I5
sg27
I94
sa(dp721
g21
VMONKEY PUZZLE
p722
sg23
Vx2x7x
p723
sg25
I94
sg26
I6
sg27
I86
sasg43
(lp724
sssI1543071300
(dp725
g2
Vhttp://www.skyracing.com.au/index.php?component=racing&task=race&id=108173275&meetingid=107408940&Itemid=89
p726
sg4
V29023038.1455
p727
sg6
(dp728
g8
(lp729
(lp730
I15
aI3
aI13
aI5
aa(lp731
I2
aI3
aI8
aI11
aa(lp732
I2
aI3
aI8
aI14
aa(lp733
I2
aI3
aI8
aI13
aa(lp734
I2
aI1
aI3
aI8
aa(lp735
I15
aI13
aI3
aI5
aa(lp736
I3
aI13
aI15
aI2
aa(lp737
I3
aI2
aI15
aI8
aasg18
(lp738
(dp739
g21
VANOTHER BARNEY
p740
sg23
V1555x
p741
sg25
I83
sg26
I1
sg27
I67
sa(dp742
g21
VBURGAS
p743
sg23
V342x2
p744
sg25
I88
sg26
I2
sg27
I88
sa(dp745
g21
VBURREN LIFE
p746
sg23
V00x23
p747
sg25
I93
sg26
I3
sg27
I99
sa(dp748
g21
VCRAZYHEART
p749
sg23
V002x4
p750
sg25
I71
sg26
I4
sg27
I71
sa(dp751
g21
VDERRINROSS
p752
sg23
Vx422x
p753
sg25
I91
sg26
I5
sg27
I90
sa(dp754
g21
VDR MIKEY
p755
sg23
Vx7466
p756
sg25
I79
sg26
I6
sg27
I78
sa(dp757
g21
VGUN DIGGER
p758
sg23
V1250x
p759
sg25
I73
sg26
I7
sg27
I80
sa(dp760
g21
VGUSTY ROCKY
p761
sg23
V20822
p762
sg25
I84
sg26
I8
sg27
I85
sa(dp763
g21
VIT HAS TO BE
p764
sg23
V3x000
p765
sg25
I61
sg26
I9
sg27
I60
sa(dp766
g21
VMON LINO
p767
sg23
V909x9
p768
sg25
I64
sg26
I10
sg27
I70
sa(dp769
g21
VMONOTYPE
p770
sg23
V191x6
p771
sg25
I77
sg26
I11
sg27
I77
sa(dp772
g21
VSEEDORF
p773
sg23
V30x3x
p774
sg25
I71
sg26
I12
sg27
I74
sa(dp775
g21
VSPEAK EASY
p776
sg23
V1532x
p777
sg25
I97
sg26
I13
sg27
I95
sa(dp778
g21
VMINNIES SECRET
p779
sg23
V85420
p780
sg25
I63
sg26
I14
sg27
I62
sa(dp781
g21
VA PLUS TARD
p782
sg23
V2x31x
p783
sg25
I100
sg26
I15
sg27
I100
sasg43
(lp784
sssI1543062600
(dp785
g2
Vhttp://www.skyracing.com.au/index.php?component=racing&task=race&id=108173255&meetingid=107038138&Itemid=89
p786
sg4
V29023036.1230
p787
sg6
(dp788
g8
(lp789
(lp790
I1
aI3
aI2
aI4
aa(lp791
I1
aI3
aI2
aI4
aa(lp792
I1
aI2
aI3
aI4
aa(lp793
I1
aI2
aI3
aI4
aa(lp794
I3
aI2
aI1
aI4
aa(lp795
I1
aI3
aI2
aI5
aa(lp796
I1
aI3
aI4
aI2
aa(lp797
I1
aI3
aI2
aI4
aasg18
(lp798
(dp799
g21
VMAJESTIC MOLL
p800
sg23
Vx1415
p801
sg25
I100
sg26
I1
sg27
I100
sa(dp802
g21
VREBEL YEATS
p803
sg23
V12313
p804
sg25
I86
sg26
I2
sg27
I90
sa(dp805
g21
VGRACEFUL LEGEND
p806
sg23
V330x3
p807
sg25
I97
sg26
I3
sg27
I96
sa(dp808
g21
VJET SET
p809
sg23
Vx901x
p810
sg25
I92
sg26
I4
sg27
I88
sa(dp811
g21
VSTONEBRIGG LEGEND
p812
sg23
V7385x
p813
sg25
I84
sg26
I5
sg27
I82
sasg43
(lp814
sssI1543073100
(dp815
g2
Vhttp://www.skyracing.com.au/index.php?component=racing&task=race&id=108173260&meetingid=107038138&Itemid=89
p816
sg4
V29023036.1525
p817
sg6
(dp818
g8
(lp819
(lp820
I6
aI1
aI4
aI3
aa(lp821
I6
aI3
aI4
aI1
aa(lp822
I6
aI2
aI1
aI3
aa(lp823
I6
aI3
aI1
aI2
aa(lp824
I6
aI4
aI1
aI5
aa(lp825
I6
aI1
aI3
aI2
aa(lp826
I6
aI1
aI3
aI4
aa(lp827
I6
aI1
aI3
aI4
aasg18
(lp828
(dp829
g21
VCOLLOONEY
p830
sg23
V2x
p831
sg25
I98
sg26
I1
sg27
I95
sa(dp832
g21
VHERO'S CREEK
p833
sg23
V6x9x8
p834
sg25
I82
sg26
I2
sg27
I82
sa(dp835
g21
VLE LIGERIEN
p836
sg23
V97x
p837
sg25
I92
sg26
I3
sg27
I89
sa(dp838
g21
VAVONMORE
p839
sg23
V634x
p840
sg25
I85
sg26
I4
sg27
I93
sa(dp841
g21
VROSE OF DUBAI
p842
sg23
g442
sg25
I79
sg26
I5
sg27
I0
sa(dp843
g21
VSIMPLY LOVELEH
p844
sg23
V4x2
p845
sg25
I100
sg26
I6
sg27
I100
sasg43
(lp846
sssI1543074000
(dp847
g2
Vhttp://www.skyracing.com.au/index.php?component=racing&task=race&id=108173306&meetingid=107038154&Itemid=89
p848
sg4
V29022064.1540
p849
sg6
(dp850
g8
(lp851
(lp852
I7
aI2
aI5
aI4
aa(lp853
I2
aI10
aI1
aI11
aa(lp854
I4
aI10
aI1
aI6
aa(lp855
I2
aI9
aI4
aI1
aa(lp856
I2
aI4
aI11
aI6
aa(lp857
I2
aI7
aI4
aI3
aa(lp858
I7
aI2
aI3
aI4
aa(lp859
I2
aI4
aI7
aI10
aasg18
(lp860
(dp861
g21
VLIGHT OF AIR
p862
sg23
V27347
p863
sg25
I86
sg26
I1
sg27
I83
sa(dp864
g21
VSWAFFHAM BULBECK
p865
sg23
V25x2x
p866
sg25
I95
sg26
I2
sg27
I98
sa(dp867
g21
VHACKBRIDGE
p868
sg23
Vx1401
p869
sg25
I99
sg26
I3
sg27
I88
sa(dp870
g21
VRAKEMATIZ
p871
sg23
Vx9123
p872
sg25
I92
sg26
I4
sg27
I91
sa(dp873
g21
VVISOR
p874
sg23
V8x773
p875
sg25
I87
sg26
I5
sg27
I94
sa(dp876
g21
VPACT OF STEEL
p877
sg23
V21020
p878
sg25
I79
sg26
I6
sg27
I75
sa(dp879
g21
VROSS RAITH ROVER
p880
sg23
V00511
p881
sg25
I100
sg26
I7
sg27
I100
sa(dp882
g21
VBAASHA
p883
sg23
V0x543
p884
sg25
I81
sg26
I8
sg27
I79
sa(dp885
g21
VINTERMODAL
p886
sg23
V55x26
p887
sg25
I76
sg26
I9
sg27
I77
sa(dp888
g21
VHAWRIDGE GLORY
p889
sg23
V05207
p890
sg25
I74
sg26
I10
sg27
I70
sa(dp891
g21
VMULLARKEY
p892
sg23
V90653
p893
sg25
I65
sg26
I11
sg27
I70
sa(dp894
g21
VBOOKMAKER
p895
sg23
V880x9
p896
sg25
I71
sg26
I12
sg27
I66
sa(dp897
g21
VLA MERNANCIA
p898
sg23
V49000
p899
sg25
I68
sg26
I13
sg27
I72
sasg43
(lp900
sssI1543065300
(dp901
g2
Vhttp://www.skyracing.com.au/index.php?component=racing&task=race&id=108173286&meetingid=107038122&Itemid=89
p902
sg4
V29021851.1315
p903
sg6
(dp904
g8
(lp905
(lp906
I5
aI3
aI4
aI1
aa(lp907
I2
aI4
aI1
aI6
aa(lp908
I4
aI2
aI1
aI3
aa(lp909
I2
aI4
aI1
aI5
aa(lp910
I2
aI5
aI1
aI4
aa(lp911
I4
aI3
aI5
aI1
aa(lp912
I5
aI4
aI3
aI2
aa(lp913
I4
aI2
aI5
aI1
aasg18
(lp914
(dp915
g21
VFULL GLASS
p916
sg23
V93x3x
p917
sg25
I85
sg26
I1
sg27
I88
sa(dp918
g21
VKALONDRA
p919
sg23
V3x0x0
p920
sg25
I82
sg26
I2
sg27
I84
sa(dp921
g21
VRIVER WYLDE
p922
sg23
V5x12x
p923
sg25
I95
sg26
I3
sg27
I98
sa(dp924
g21
VACTIVIAL
p925
sg23
V083x2
p926
sg25
I93
sg26
I4
sg27
I90
sa(dp927
g21
VMAGIC SAINT
p928
sg23
Vx135x
p929
sg25
I100
sg26
I5
sg27
I100
sa(dp930
g21
VCRUCIAL ROLE
p931
sg23
V2120x
p932
sg25
I79
sg26
I6
sg27
I78
sasg43
(lp933
sssI1543066200
(dp934
g2
Vhttp://www.skyracing.com.au/index.php?component=racing&task=race&id=108173316&meetingid=107038106&Itemid=89
p935
sg4
V29023040.1330
p936
sg6
(dp937
g8
(lp938
(lp939
I1
aI6
aI3
aI4
aa(lp940
I2
aI3
aI7
aI6
aa(lp941
I1
aI5
aI8
aI4
aa(lp942
I2
aI3
aI7
aI6
aa(lp943
I5
aI2
aI8
aI6
aa(lp944
I1
aI6
aI3
aI4
aa(lp945
I3
aI1
aI4
aI7
aa(lp946
I1
aI2
aI3
aI6
aasg18
(lp947
(dp948
g21
VLITTLE MISS POET
p949
sg23
V331x4
p950
sg25
I100
sg26
I1
sg27
I100
sa(dp951
g21
VSENSULANO
p952
sg23
V1302x
p953
sg25
I86
sg26
I2
sg27
I89
sa(dp954
g21
VPETTICOAT TAILS
p955
sg23
V155x4
p956
sg25
I98
sg26
I3
sg27
I94
sa(dp957
g21
VMISS MASH
p958
sg23
Vx3212
p959
sg25
I87
sg26
I4
sg27
I90
sa(dp960
g21
VTALENT TO AMUSE
p961
sg23
Vx45x3
p962
sg25
I82
sg26
I5
sg27
I83
sa(dp963
g21
VOSCAR ROSE
p964
sg23
V63x15
p965
sg25
I93
sg26
I6
sg27
I98
sa(dp966
g21
VJUBILYMPICS
p967
sg23
V1534x
p968
sg25
I90
sg26
I7
sg27
I84
sa(dp969
g21
VKENTFORD HEIRESS
p970
sg23
V47543
p971
sg25
I76
sg26
I8
sg27
I75
sa(dp972
g21
VPETRONELLA MANNERS
p973
sg23
V520x7
p974
sg25
I72
sg26
I9
sg27
I73
sa(dp975
g21
VPERFECT SUMMER
p976
sg23
V5x572
p977
sg25
I73
sg26
I10
sg27
I78
sa(dp978
g21
VMALINDI BAY
p979
sg23
V04x55
p980
sg25
I78
sg26
I11
sg27
I72
sasg43
(lp981
sssI1543064100
(dp982
g2
Vhttp://www.skyracing.com.au/index.php?component=racing&task=race&id=108173315&meetingid=107038106&Itemid=89
p983
sg4
V29023040.1255
p984
sg6
(dp985
g8
(lp986
(lp987
I2
aI4
aI7
aI5
aa(lp988
I2
aI4
aI8
aI3
aa(lp989
I2
aI4
aI7
aI1
aa(lp990
I2
aI4
aI1
aI8
aa(lp991
I7
aI9
aI2
aI8
aa(lp992
I2
aI4
aI7
aI5
aa(lp993
I4
aI2
aI5
aI7
aa(lp994
I2
aI4
aI7
aI8
aasg18
(lp995
(dp996
g21
VCLASSIC BEN
p997
sg23
V26x42
p998
sg25
I84
sg26
I1
sg27
I89
sa(dp999
g21
VCRESSWELL LEGEND
p1000
sg23
Vx0x22
p1001
sg25
I100
sg26
I2
sg27
I100
sa(dp1002
g21
VKING OF REALMS
p1003
sg23
V21x0x
p1004
sg25
I87
sg26
I3
sg27
I82
sa(dp1005
g21
VDINOS BENEFIT
p1006
sg23
V133x1
p1007
sg25
I96
sg26
I4
sg27
I98
sa(dp1008
g21
VBOB MAHLER
p1009
sg23
V2212x
p1010
sg25
I94
sg26
I5
sg27
I91
sa(dp1011
g21
VSPIDER'S BITE
p1012
sg23
V610x5
p1013
sg25
I79
sg26
I6
sg27
I75
sa(dp1014
g21
VCALL TO ORDER
p1015
sg23
V32132
p1016
sg25
I92
sg26
I7
sg27
I95
sa(dp1017
g21
VCARLOS DU FRUITIER
p1018
sg23
V2x063
p1019
sg25
I73
sg26
I8
sg27
I78
sa(dp1020
g21
VLIKE THE SOUND
p1021
sg23
V412x2
p1022
sg25
I77
sg26
I9
sg27
I86
sa(dp1023
g21
VMERRY MILAN
p1024
sg23
Vx612x
p1025
sg25
I83
sg26
I10
sg27
I74
sa(dp1026
g21
VJAUNTY FLYER
p1027
sg23
V143x4
p1028
sg25
I72
sg26
I11
sg27
I72
sasg43
(lp1029
sssI1543067100
(dp1030
g2
Vhttp://www.skyracing.com.au/index.php?component=racing&task=race&id=108173273&meetingid=107408940&Itemid=89
p1031
sg4
V29023038.1345
p1032
sg6
(dp1033
g8
(lp1034
(lp1035
I3
aI4
aI2
aI6
aa(lp1036
I2
aI1
aI5
aI14
aa(lp1037
I1
aI7
aI9
aI3
aa(lp1038
I2
aI1
aI3
aI7
aa(lp1039
I14
aI9
aI2
aI5
aa(lp1040
I4
aI3
aI2
aI6
aa(lp1041
I2
aI4
aI3
aI6
aa(lp1042
I2
aI3
aI1
aI4
aasg18
(lp1043
(dp1044
g21
VMISTY MILLIE
p1045
sg23
V1x020
p1046
sg25
I84
sg26
I1
sg27
I79
sa(dp1047
g21
VPAT'S OSCAR
p1048
sg23
V6186x
p1049
sg25
I100
sg26
I2
sg27
I94
sa(dp1050
g21
VBRIDGE NATIVE
p1051
sg23
Vx0372
p1052
sg25
I96
sg26
I3
sg27
I100
sa(dp1053
g21
VDRAKAINA
p1054
sg23
V24072
p1055
sg25
I99
sg26
I4
sg27
I97
sa(dp1056
g21
VGOAHEADMAKEMYDAY
p1057
sg23
V3x84x
p1058
sg25
I90
sg26
I5
sg27
I82
sa(dp1059
g21
VMAG BRADY
p1060
sg23
Vx832x
p1061
sg25
I94
sg26
I6
sg27
I93
sa(dp1062
g21
VAR EAGLA NA HEAGLA
p1063
sg23
V33039
p1064
sg25
I71
sg26
I7
sg27
I74
sa(dp1065
g21
VREINE FEE
p1066
sg23
V9930x
p1067
sg25
I69
sg26
I8
sg27
I63
sa(dp1068
g21
VLUCKY PHIL
p1069
sg23
V03253
p1070
sg25
I86
sg26
I9
sg27
I89
sa(dp1071
g21
VTALSARA
p1072
sg23
V05344
p1073
sg25
I81
sg26
I10
sg27
I87
sa(dp1074
g21
VSEAPOINT
p1075
sg23
V74690
p1076
sg25
I78
sg26
I11
sg27
I85
sa(dp1077
g21
VALLORA YEATS
p1078
sg23
V50737
p1079
sg25
I67
sg26
I12
sg27
I65
sa(dp1080
g21
VFU'S ISLAND
p1081
sg23
V0008x
p1082
sg25
I89
sg26
I13
sg27
I71
sa(dp1083
g21
VKILKEASKIN MOLLY
p1084
sg23
V02004
p1085
sg25
I77
sg26
I14
sg27
I78
sa(dp1086
g21
VI'M NOT ALONE
p1087
sg23
V05x6x
p1088
sg25
I65
sg26
I15
sg27
I68
sa(dp1089
g21
VFILLY MULLINS
p1090
sg23
V34009
p1091
sg25
I75
sg26
I16
sg27
I76
sa(dp1092
g21
VONEMOREASK
p1093
sg23
V065x0
p1094
sg25
I63
sg26
I17
sg27
I59
sa(dp1095
g21
VGREY HABIT
p1096
sg23
V80x08
p1097
sg25
I60
sg26
I18
sg27
I61
sasg43
(lp1098
sssI1543068000
(dp1099
g2
Vhttp://www.skyracing.com.au/index.php?component=racing&task=race&id=108173303&meetingid=107038154&Itemid=89
p1100
sg4
V29022064.1400
p1101
sg6
(dp1102
g8
(lp1103
(lp1104
I1
aI4
aI7
aI2
aa(lp1105
I1
aI4
aI5
aI9
aa(lp1106
I1
aI4
aI5
aI9
aa(lp1107
I1
aI5
aI8
aI4
aa(lp1108
I1
aI5
aI9
aI3
aa(lp1109
I1
aI7
aI4
aI2
aa(lp1110
I1
aI4
aI3
aI6
aa(lp1111
I1
aI4
aI5
aI7
aasg18
(lp1112
(dp1113
g21
VRED IMPRESSION
p1114
sg23
V1
p1115
sg25
I100
sg26
I1
sg27
I100
sa(dp1116
g21
VBRAINS
p1117
sg23
V79
p1118
sg25
I80
sg26
I2
sg27
I89
sa(dp1119
g21
VJAILBREAK
p1120
sg23
g442
sg25
I92
sg26
I3
sg27
I0
sa(dp1121
g21
VJOURNEY OF LIFE
p1122
sg23
V67x5
p1123
sg25
I97
sg26
I4
sg27
I96
sa(dp1124
g21
VMOLIVALIENTE
p1125
sg23
V7
p1126
sg25
I73
sg26
I5
sg27
I83
sa(dp1127
g21
VNO NONSENSE
p1128
sg23
g442
sg25
I86
sg26
I6
sg27
I0
sa(dp1129
g21
VON THE BOB
p1130
sg23
V77x
p1131
sg25
I83
sg26
I7
sg27
I94
sa(dp1132
g21
VCATHEADANS FIYAH
p1133
sg23
V06
p1134
sg25
I63
sg26
I8
sg27
I74
sa(dp1135
g21
VLIBERATA BELLA
p1136
sg23
V80
p1137
sg25
I72
sg26
I9
sg27
I79
sa(dp1138
g21
VVELVET VIXEN
p1139
sg23
V9
p1140
sg25
I62
sg26
I10
sg27
I69
sasg43
(lp1141
sssI1543068900
(dp1142
g2
Vhttp://www.skyracing.com.au/index.php?component=racing&task=race&id=108173258&meetingid=107038138&Itemid=89
p1143
sg4
V29023036.1415
p1144
sg6
(dp1145
g8
(lp1146
(lp1147
I3
aI1
aI2
aI4
aa(lp1148
I1
aI2
aI3
aI5
aa(lp1149
I1
aI3
aI2
aI5
aa(lp1150
I1
aI2
aI4
aI3
aa(lp1151
I1
aI3
aI5
aI4
aa(lp1152
I3
aI1
aI2
aI5
aa(lp1153
I1
aI2
aI3
aI4
aa(lp1154
I1
aI3
aI2
aI5
aasg18
(lp1155
(dp1156
g21
VBOAGRIUS
p1157
sg23
V023x3
p1158
sg25
I100
sg26
I1
sg27
I97
sa(dp1159
g21
VTRUCKERS HIGHWAY
p1160
sg23
Vx25x4
p1161
sg25
I92
sg26
I2
sg27
I94
sa(dp1162
g21
VBOY IN A BENTLEY
p1163
sg23
Vx2522
p1164
sg25
I96
sg26
I3
sg27
I100
sa(dp1165
g21
VHERE I AM
p1166
sg23
V78x2x
p1167
sg25
I87
sg26
I4
sg27
I86
sa(dp1168
g21
VBARTON ROSE
p1169
sg23
V33447
p1170
sg25
I83
sg26
I5
sg27
I84
sasg43
(lp1171
sssI1543059900
(dp1172
g2
Vhttp://www.skyracing.com.au/index.php?component=racing&task=race&id=108173299&meetingid=107038154&Itemid=89
p1173
sg4
V29022064.1145
p1174
sg6
(dp1175
g8
(lp1176
(lp1177
I1
aI3
aI2
aI10
aa(lp1178
I4
aI5
aI2
aI1
aa(lp1179
I2
aI1
aI4
aI3
aa(lp1180
I4
aI5
aI2
aI1
aa(lp1181
I4
aI1
aI3
aI9
aa(lp1182
I3
aI1
aI10
aI2
aa(lp1183
I2
aI1
aI10
aI3
aa(lp1184
I1
aI4
aI2
aI3
aasg18
(lp1185
(dp1186
g21
VCONTRIVE
p1187
sg23
V46121
p1188
sg25
I95
sg26
I1
sg27
I100
sa(dp1189
g21
VCARING TOUCH
p1190
sg23
V16x52
p1191
sg25
I100
sg26
I2
sg27
I92
sa(dp1192
g21
VGOLDEN IRIS
p1193
sg23
V22712
p1194
sg25
I86
sg26
I3
sg27
I95
sa(dp1195
g21
VVENTURA BLUES
p1196
sg23
V5x974
p1197
sg25
I71
sg26
I4
sg27
I66
sa(dp1198
g21
VBINT DANDY
p1199
sg23
V61540
p1200
sg25
I62
sg26
I5
sg27
I61
sa(dp1201
g21
VZORAYA
p1202
sg23
V330x8
p1203
sg25
I63
sg26
I6
sg27
I72
sa(dp1204
g21
VAUTUMN LEAVES
p1205
sg23
V58158
p1206
sg25
I82
sg26
I7
sg27
I76
sa(dp1207
g21
VSWEET LADY ROSE
p1208
sg23
V6x25x
p1209
sg25
I78
sg26
I8
sg27
I81
sa(dp1210
g21
VPRIVATE VIEW
p1211
sg23
Vx7223
p1212
sg25
I75
sg26
I9
sg27
I79
sa(dp1213
g21
VSWEET NATURE
p1214
sg23
V0x51
p1215
sg25
I94
sg26
I10
sg27
I87
sasg43
(lp1216
sssI1543061100
(dp1217
g2
Vhttp://www.skyracing.com.au/index.php?component=racing&task=race&id=108173270&meetingid=107408940&Itemid=89
p1218
sg4
V29023038.1205
p1219
sg6
(dp1220
g8
(lp1221
(lp1222
I6
aI7
aI15
aI16
aa(lp1223
I1
aI7
aI4
aI15
aa(lp1224
I1
aI4
aI15
aI6
aa(lp1225
I1
aI4
aI7
aI6
aa(lp1226
I15
aI6
aI7
aI12
aa(lp1227
I15
aI7
aI6
aI5
aa(lp1228
I6
aI7
aI15
aI16
aa(lp1229
I7
aI15
aI1
aI6
aasg18
(lp1230
(dp1231
g21
VCORAL BLUE
p1232
sg23
V50
p1233
sg25
I87
sg26
I1
sg27
I89
sa(dp1234
g21
VDALLUNA
p1235
sg23
V500
p1236
sg25
I68
sg26
I2
sg27
I69
sa(dp1237
g21
VDANI'S BOY
p1238
sg23
V18000
p1239
sg25
I88
sg26
I3
sg27
I87
sa(dp1240
g21
VEASKEY LAD
p1241
sg23
V89388
p1242
sg25
I79
sg26
I4
sg27
I73
sa(dp1243
g21
VFAR REACH
p1244
sg23
V00463
p1245
sg25
I91
sg26
I5
sg27
I91
sa(dp1246
g21
VFUTURE PROOF
p1247
sg23
V53x73
p1248
sg25
I100
sg26
I6
sg27
I100
sa(dp1249
g21
VLEVER DU SOLEIL
p1250
sg23
V33320
p1251
sg25
I97
sg26
I7
sg27
I98
sa(dp1252
g21
VREFORMED MAN
p1253
sg23
g442
sg25
I81
sg26
I8
sg27
I0
sa(dp1254
g21
VRIP ROCKS PADDY OK
p1255
sg23
Vx878x
p1256
sg25
I65
sg26
I9
sg27
I62
sa(dp1257
g21
VWAY BACK HOME
p1258
sg23
V9x90x
p1259
sg25
I83
sg26
I10
sg27
I84
sa(dp1260
g21
VALLEZ SECRETE
p1261
sg23
V0000
p1262
sg25
I63
sg26
I11
sg27
I65
sa(dp1263
g21
VCOMERAGH HAZE
p1264
sg23
V4x500
p1265
sg25
I77
sg26
I12
sg27
I77
sa(dp1266
g21
VDALY AN SCEIL
p1267
sg23
V4440x
p1268
sg25
I73
sg26
I13
sg27
I79
sa(dp1269
g21
VHER APPROVAL
p1270
sg23
V5x08x
p1271
sg25
I70
sg26
I14
sg27
I81
sa(dp1272
g21
VLADY CAMELOT
p1273
sg23
V34229
p1274
sg25
I93
sg26
I15
sg27
I96
sa(dp1275
g21
VOCEAN VOYAGE
p1276
sg23
V2x06x
p1277
sg25
I95
sg26
I16
sg27
I93
sa(dp1278
g21
VSWEET CASSIE
p1279
sg23
V0x005
p1280
sg25
I66
sg26
I17
sg27
I72
sa(dp1281
g21
VWAR CHILD
p1282
sg23
V0x0x0
p1283
sg25
I60
sg26
I18
sg27
I67
sasg43
(lp1284
sssI1543071600
(dp1285
g2
Vhttp://www.skyracing.com.au/index.php?component=racing&task=race&id=108173289&meetingid=107038122&Itemid=89
p1286
sg4
V29021851.1500
p1287
sg6
(dp1288
g8
(lp1289
(lp1290
I3
aI4
aI1
aI5
aa(lp1291
I4
aI3
aI5
aI1
aa(lp1292
I1
aI2
aI3
aI4
aa(lp1293
I4
aI3
aI5
aI1
aa(lp1294
I4
aI3
aI2
aI1
aa(lp1295
I4
aI3
aI1
aI5
aa(lp1296
I4
aI1
aI5
aI3
aa(lp1297
I4
aI3
aI1
aI5
aasg18
(lp1298
(dp1299
g21
VBRISTOL DE MAI
p1300
sg23
V63x2x
p1301
sg25
I87
sg26
I1
sg27
I89
sa(dp1302
g21
VCLAN DES OBEAUX
p1303
sg23
V12x3x
p1304
sg25
I83
sg26
I2
sg27
I81
sa(dp1305
g21
VMIGHT BITE
p1306
sg23
V1x21x
p1307
sg25
I100
sg26
I3
sg27
I100
sa(dp1308
g21
VNATIVE RIVER
p1309
sg23
V3x11x
p1310
sg25
I96
sg26
I4
sg27
I95
sa(dp1311
g21
VTHISTLECRACK
p1312
sg23
V2x54x
p1313
sg25
I91
sg26
I5
sg27
I82
sasg43
(lp1314
sssI1543065000
(dp1315
g2
Vhttp://www.skyracing.com.au/index.php?component=racing&task=race&id=108173272&meetingid=107408940&Itemid=89
p1316
sg4
V29023038.1310
p1317
sg6
(dp1318
g8
(lp1319
(lp1320
I3
aI8
aI2
aI4
aa(lp1321
I2
aI12
aI5
aI3
aa(lp1322
I3
aI7
aI5
aI4
aa(lp1323
I2
aI12
aI5
aI3
aa(lp1324
I12
aI2
aI3
aI4
aa(lp1325
I3
aI8
aI2
aI4
aa(lp1326
I8
aI3
aI4
aI12
aa(lp1327
I3
aI2
aI12
aI8
aasg18
(lp1328
(dp1329
g21
VEPSWELL
p1330
sg23
V32x18
p1331
sg25
I85
sg26
I1
sg27
I87
sa(dp1332
g21
VKURAKA
p1333
sg23
V6156x
p1334
sg25
I87
sg26
I2
sg27
I95
sa(dp1335
g21
VSATOSHI
p1336
sg23
V9x1
p1337
sg25
I97
sg26
I3
sg27
I100
sa(dp1338
g21
VBUTTONS AND BOWS
p1339
sg23
V1
p1340
sg25
I95
sg26
I4
sg27
I91
sa(dp1341
g21
VCHALLOW
p1342
sg23
V28384
p1343
sg25
I77
sg26
I5
sg27
I78
sa(dp1344
g21
VDE MAZZARO
p1345
sg23
Vx8005
p1346
sg25
I74
sg26
I6
sg27
I76
sa(dp1347
g21
VEDELWEIS DE L'AUBE
p1348
sg23
V00x9
p1349
sg25
I71
sg26
I7
sg27
I70
sa(dp1350
g21
VENTOUCAS
p1351
sg23
V1x
p1352
sg25
I100
sg26
I8
sg27
I98
sa(dp1353
g21
VFALCO DE CANDALE AA
p1354
sg23
g442
sg25
I79
sg26
I9
sg27
I0
sa(dp1355
g21
VINCA GOLD
p1356
sg23
V2x74x
p1357
sg25
I83
sg26
I10
sg27
I81
sa(dp1358
g21
VPERCY B SHELLEY
p1359
sg23
V277x4
p1360
sg25
I70
sg26
I11
sg27
I73
sa(dp1361
g21
VSIZING POTTSIE
p1362
sg23
V14x
p1363
sg25
I90
sg26
I12
sg27
I85
sasg43
(lp1364
sssI1543062900
(dp1365
g2
Vhttp://www.skyracing.com.au/index.php?component=racing&task=race&id=108173271&meetingid=107408940&Itemid=89
p1366
sg4
V29023038.1235
p1367
sg6
(dp1368
g8
(lp1369
(lp1370
I7
aI18
aI1
aI11
aa(lp1371
I7
aI13
aI1
aI3
aa(lp1372
I13
aI16
aI15
aI4
aa(lp1373
I7
aI13
aI1
aI3
aa(lp1374
I1
aI13
aI3
aI7
aa(lp1375
I7
aI18
aI19
aI11
aa(lp1376
I7
aI1
aI18
aI11
aa(lp1377
I7
aI13
aI1
aI18
aasg18
(lp1378
(dp1379
g21
VBALLYNEETY
p1380
sg23
V3x
p1381
sg25
I96
sg26
I1
sg27
I96
sa(dp1382
g21
VBUCKIE CULLEN
p1383
sg23
V1x74x
p1384
sg25
I89
sg26
I2
sg27
I68
sa(dp1385
g21
VCALICOJACK
p1386
sg23
V22x4x
p1387
sg25
I92
sg26
I3
sg27
I90
sa(dp1388
g21
VENQUIRE
p1389
sg23
V6
p1390
sg25
I70
sg26
I4
sg27
I77
sa(dp1391
g21
VFEAGREEN NATIVE
p1392
sg23
V5837
p1393
sg25
I77
sg26
I5
sg27
I82
sa(dp1394
g21
VHOME PLACE
p1395
sg23
V433x0
p1396
sg25
I65
sg26
I6
sg27
I65
sa(dp1397
g21
VINVINCIBLE CAVE
p1398
sg23
Vx1x4x
p1399
sg25
I100
sg26
I7
sg27
I100
sa(dp1400
g21
VMYTH BUSTER
p1401
sg23
V7x0x
p1402
sg25
I79
sg26
I8
sg27
I83
sa(dp1403
g21
VNO SHOW JONES
p1404
sg23
V08
p1405
sg25
I58
sg26
I9
sg27
I61
sa(dp1406
g21
VRAGIN CAJUN
p1407
sg23
V04x0
p1408
sg25
I62
sg26
I10
sg27
I67
sa(dp1409
g21
VSHANROE AL C
p1410
sg23
V33x1x
p1411
sg25
I94
sg26
I11
sg27
I93
sa(dp1412
g21
VTARA MILL
p1413
sg23
V6x40x
p1414
sg25
I60
sg26
I12
sg27
I62
sa(dp1415
g21
VTHOSEDAYSAREGONE
p1416
sg23
V8x287
p1417
sg25
I83
sg26
I13
sg27
I86
sa(dp1418
g21
VA GIRL LIKE ME
p1419
sg23
V7x
p1420
sg25
I66
sg26
I14
sg27
I71
sa(dp1421
g21
VLADY WRITER
p1422
sg23
V40x05
p1423
sg25
I81
sg26
I15
sg27
I73
sa(dp1424
g21
VLATOYAH OF NORTH
p1425
sg23
V5755
p1426
sg25
I75
sg26
I16
sg27
I78
sa(dp1427
g21
VLEE VALLEY LEGACY
p1428
sg23
g442
sg25
I69
sg26
I17
sg27
I0
sa(dp1429
g21
VSINORIA
p1430
sg23
V1x
p1431
sg25
I97
sg26
I18
sg27
I97
sa(dp1432
g21
VTAKE A PUNT
p1433
sg23
V3x
p1434
sg25
I87
sg26
I19
sg27
I89
sasg43
(lp1435
sssI1543063800
(dp1436
g2
Vhttp://www.skyracing.com.au/index.php?component=racing&task=race&id=108173301&meetingid=107038154&Itemid=89
p1437
sg4
V29022064.1250
p1438
sg6
(dp1439
g8
(lp1440
(lp1441
I2
aI1
aI6
aI3
aa(lp1442
I2
aI11
aI1
aI3
aa(lp1443
I2
aI1
aI4
aI3
aa(lp1444
I10
aI2
aI8
aI6
aa(lp1445
I13
aI8
aI1
aI11
aa(lp1446
I6
aI2
aI1
aI3
aa(lp1447
I2
aI9
aI1
aI3
aa(lp1448
I2
aI1
aI6
aI8
aasg18
(lp1449
(dp1450
g21
VNUTINI
p1451
sg23
V66921
p1452
sg25
I91
sg26
I1
sg27
I99
sa(dp1453
g21
VBRIYOUNI
p1454
sg23
V7x871
p1455
sg25
I99
sg26
I2
sg27
I100
sa(dp1456
g21
VDEEDS NOT WORDS
p1457
sg23
V69641
p1458
sg25
I93
sg26
I3
sg27
I87
sa(dp1459
g21
VMERCERS
p1460
sg23
V6x348
p1461
sg25
I78
sg26
I4
sg27
I59
sa(dp1462
g21
VAMARANTH
p1463
sg23
V6309x
p1464
sg25
I66
sg26
I5
sg27
I67
sa(dp1465
g21
VCHICA DE LA NOCHE
p1466
sg23
V64323
p1467
sg25
I87
sg26
I6
sg27
I91
sa(dp1468
g21
VPENWOOD
p1469
sg23
V3289x
p1470
sg25
I73
sg26
I7
sg27
I75
sa(dp1471
g21
VJEOPARDY JOHN
p1472
sg23
V64583
p1473
sg25
I70
sg26
I8
sg27
I71
sa(dp1474
g21
VJABAROUT
p1475
sg23
Vx7513
p1476
sg25
I100
sg26
I9
sg27
I84
sa(dp1477
g21
VPASS THE CRISTAL
p1478
sg23
V048x0
p1479
sg25
I84
sg26
I10
sg27
I67
sa(dp1480
g21
VSWISS CROSS
p1481
sg23
V76187
p1482
sg25
I81
sg26
I11
sg27
I81
sa(dp1483
g21
VLOCOMMOTION
p1484
sg23
V60x26
p1485
sg25
I70
sg26
I12
sg27
I70
sa(dp1486
g21
VBABY GAL
p1487
sg23
V29x24
p1488
sg25
I75
sg26
I13
sg27
I76
sa(dp1489
g21
VAMOR FATI
p1490
sg23
Vx9x25
p1491
sg25
I62
sg26
I14
sg27
I63
sasg43
(lp1492
sssI1543059300
(dp1493
g2
Vhttp://www.skyracing.com.au/index.php?component=racing&task=race&id=108173269&meetingid=107408940&Itemid=89
p1494
sg4
V29023038.1135
p1495
sg6
(dp1496
g8
(lp1497
(lp1498
I7
aI2
aI3
aI4
aa(lp1499
I7
aI8
aI2
aI4
aa(lp1500
I8
aI2
aI4
aI12
aa(lp1501
I7
aI8
aI2
aI4
aa(lp1502
I7
aI3
aI17
aI6
aa(lp1503
I7
aI2
aI3
aI8
aa(lp1504
I2
aI4
aI3
aI7
aa(lp1505
I7
aI2
aI8
aI3
aasg18
(lp1506
(dp1507
g21
VBALGOWLAH
p1508
sg23
V797x8
p1509
sg25
I79
sg26
I1
sg27
I74
sa(dp1510
g21
VFLAT TO THE MAX
p1511
sg23
V1x09
p1512
sg25
I100
sg26
I2
sg27
I99
sa(dp1513
g21
VHERE IN THE DARK
p1514
sg23
V733x4
p1515
sg25
I94
sg26
I3
sg27
I96
sa(dp1516
g21
VNIBIRU
p1517
sg23
Vx5x80
p1518
sg25
I96
sg26
I4
sg27
I93
sa(dp1519
g21
VPAUL PATTERSON
p1520
sg23
V08x
p1521
sg25
I71
sg26
I5
sg27
I65
sa(dp1522
g21
VPOWER SAIL
p1523
sg23
V33210
p1524
sg25
I92
sg26
I6
sg27
I88
sa(dp1525
g21
VTIGER VOICE
p1526
sg23
V5x12x
p1527
sg25
I97
sg26
I7
sg27
I100
sa(dp1528
g21
VUNION GAP
p1529
sg23
V6x904
p1530
sg25
I88
sg26
I8
sg27
I90
sa(dp1531
g21
VWALKING ON GLASS
p1532
sg23
V0000
p1533
sg25
I69
sg26
I9
sg27
I66
sa(dp1534
g21
VCAILIN RUA
p1535
sg23
V0
p1536
sg25
I63
sg26
I10
sg27
I62
sa(dp1537
g21
VCOLOUR ME IN
p1538
sg23
Vx0000
p1539
sg25
I67
sg26
I11
sg27
I69
sa(dp1540
g21
VEXTRASENSORY
p1541
sg23
V8x040
p1542
sg25
I86
sg26
I12
sg27
I85
sa(dp1543
g21
VFLYING MARY
p1544
sg23
V800
p1545
sg25
I77
sg26
I13
sg27
I77
sa(dp1546
g21
VGRASPING AT STRAWS
p1547
sg23
V42057
p1548
sg25
I83
sg26
I14
sg27
I86
sa(dp1549
g21
VPAULA'S PRAYER
p1550
sg23
V086
p1551
sg25
I75
sg26
I15
sg27
I79
sa(dp1552
g21
VSTORMY FALLS
p1553
sg23
V80x00
p1554
sg25
I64
sg26
I16
sg27
I70
sa(dp1555
g21
VULURU PARK
p1556
sg23
V38500
p1557
sg25
I82
sg26
I17
sg27
I82
sasg43
(lp1558
sssI1543064700
(dp1559
g2
Vhttp://www.skyracing.com.au/index.php?component=racing&task=race&id=108173256&meetingid=107038138&Itemid=89
p1560
sg4
V29023036.1305
p1561
sg6
(dp1562
g8
(lp1563
(lp1564
I2
aI3
aI7
aI1
aa(lp1565
I7
aI1
aI6
aI5
aa(lp1566
I7
aI1
aI5
aI2
aa(lp1567
I7
aI4
aI6
aI1
aa(lp1568
I7
aI1
aI5
aI2
aa(lp1569
I2
aI3
aI1
aI7
aa(lp1570
I7
aI2
aI3
aI6
aa(lp1571
I7
aI1
aI2
aI3
aasg18
(lp1572
(dp1573
g21
VCERVARO MIX
p1574
sg23
V9x25
p1575
sg25
I84
sg26
I1
sg27
I85
sa(dp1576
g21
VESPRIT DE BAILEYS
p1577
sg23
V16122
p1578
sg25
I97
sg26
I2
sg27
I100
sa(dp1579
g21
VHATS OFF TO LARRY
p1580
sg23
V341x6
p1581
sg25
I91
sg26
I3
sg27
I95
sa(dp1582
g21
VJUSTTHEGREY
p1583
sg23
V5x20
p1584
sg25
I64
sg26
I4
sg27
I71
sa(dp1585
g21
VLUNAR JET
p1586
sg23
V5x230
p1587
sg25
I80
sg26
I5
sg27
I79
sa(dp1588
g21
VPEACHEY
p1589
sg23
V5x
p1590
sg25
I85
sg26
I6
sg27
I82
sa(dp1591
g21
VSTARJAC
p1592
sg23
V5x32
p1593
sg25
I100
sg26
I7
sg27
I94
sa(dp1594
g21
VLITTLE RICH
p1595
sg23
g442
sg25
I77
sg26
I8
sg27
I0
sa(dp1596
g21
VTHUNDERHOOVES
p1597
sg23
V85580
p1598
sg25
I72
sg26
I9
sg27
I77
sa(dp1599
g21
VARABIAN FAIRYTALE
p1600
sg23
V9x000
p1601
sg25
I61
sg26
I10
sg27
I65
sasg43
(lp1602
sss.