(dp0
I1543927200
(dp1
S'skyracing_url'
p2
Vhttp://www.skyracing.com.au/index.php?component=racing&task=race&id=108421327&meetingid=107745508&Itemid=89
p3
sS'betfair_raceid'
p4
V29035820.1240
p5
sS'dat2'
p6
(dp7
S'ratings_auto'
p8
(lp9
(lp10
I6
aI3
aI2
aI9
aa(lp11
I4
aI5
aI1
aI7
aa(lp12
I5
aI3
aI6
aI2
aa(lp13
I5
aI8
aI3
aI2
aa(lp14
I9
aI2
aI3
aI6
aa(lp15
I9
aI6
aI3
aI2
aa(lp16
I6
aI2
aI3
aI1
aa(lp17
I3
aI5
aI6
aI9
aasS'horse_details'
p18
(lp19
(dp20
S'horse_name'
p21
VSAUCYSIOUX
p22
sS'horse_form'
p23
V226x4
p24
sS'rating_2'
p25
I82
sS'horse_number'
p26
I1
sS'rating_1'
p27
I77
sa(dp28
g21
VDEMON FOU
p29
sg23
V991
p30
sg25
I96
sg26
I2
sg27
I92
sa(dp31
g21
VTODD
p32
sg23
Vx1623
p33
sg25
I90
sg26
I3
sg27
I99
sa(dp34
g21
VTHE CAPTAIN
p35
sg23
V653x0
p36
sg25
I70
sg26
I4
sg27
I68
sa(dp37
g21
VFROZON
p38
sg23
V7x454
p39
sg25
I67
sg26
I5
sg27
I65
sa(dp40
g21
VYEATS BABY
p41
sg23
Vx00x1
p42
sg25
I100
sg26
I6
sg27
I100
sa(dp43
g21
VGAMEKEEPER BILL
p44
sg23
V7x026
p45
sg25
I62
sg26
I7
sg27
I57
sa(dp46
g21
VSCRUTINISE
p47
sg23
V60x8x
p48
sg25
I79
sg26
I8
sg27
I78
sa(dp49
g21
VWILLYEGOLASSIEGO
p50
sg23
V50284
p51
sg25
I87
sg26
I9
sg27
I86
sa(dp52
g21
VBISOUBISOU
p53
sg23
V347x3
p54
sg25
I74
sg26
I10
sg27
I71
sasS'ratings_manual'
p55
(lp56
sssI1543934400
(dp57
g2
Vhttp://www.skyracing.com.au/index.php?component=racing&task=race&id=108421331&meetingid=107745508&Itemid=89
p58
sg4
V29035820.1440
p59
sg6
(dp60
g8
(lp61
(lp62
I2
aI5
aI1
aI3
aa(lp63
I3
aI7
aI1
aI2
aa(lp64
I2
aI5
aI1
aI7
aa(lp65
I3
aI4
aI1
aI2
aa(lp66
I2
aI3
aI7
aI6
aa(lp67
I2
aI5
aI1
aI3
aa(lp68
I3
aI4
aI2
aI1
aa(lp69
I2
aI3
aI1
aI5
aasg18
(lp70
(dp71
g21
VBY RAIL
p72
sg23
V83224
p73
sg25
I89
sg26
I1
sg27
I92
sa(dp74
g21
VSHOW'S OVER
p75
sg23
Vx2521
p76
sg25
I100
sg26
I2
sg27
I100
sa(dp77
g21
VLITTLE JIMMY
p78
sg23
V3330x
p79
sg25
I92
sg26
I3
sg27
I85
sa(dp80
g21
VANTI COOL
p81
sg23
V111x6
p82
sg25
I99
sg26
I4
sg27
I83
sa(dp83
g21
VWISECRACKER
p84
sg23
Vx0622
p85
sg25
I81
sg26
I5
sg27
I96
sa(dp86
g21
VNO NO CARDINAL
p87
sg23
V32940
p88
sg25
I75
sg26
I6
sg27
I73
sa(dp89
g21
VYOURHOLIDAYISOVER
p90
sg23
V47x52
p91
sg25
I80
sg26
I7
sg27
I79
sasg55
(lp92
sssI1543936800
(dp93
g2
Vhttp://www.skyracing.com.au/index.php?component=racing&task=race&id=108421304&meetingid=107745524&Itemid=89
p94
sg4
V29034706.1520
p95
sg6
(dp96
g8
(lp97
(lp98
I5
aI1
aI9
aI7
aa(lp99
I3
aI4
aI9
aI7
aa(lp100
I1
aI7
aI5
aI9
aa(lp101
I2
aI7
aI8
aI1
aa(lp102
I9
aI7
aI5
aI8
aa(lp103
I5
aI1
aI9
aI6
aa(lp104
I5
aI1
aI7
aI2
aa(lp105
I5
aI1
aI9
aI7
aasg18
(lp106
(dp107
g21
VHOLLANDER
p108
sg23
V5x193
p109
sg25
I96
sg26
I1
sg27
I97
sa(dp110
g21
VHIT THE BEAT
p111
sg23
Vx5x90
p112
sg25
I88
sg26
I2
sg27
I60
sa(dp113
g21
VCOME ON DAVE
p114
sg23
V4x090
p115
sg25
I73
sg26
I3
sg27
I66
sa(dp116
g21
VKING CRIMSON
p117
sg23
V76807
p118
sg25
I70
sg26
I4
sg27
I70
sa(dp119
g21
VKATH'S LUSTRE
p120
sg23
V42842
p121
sg25
I100
sg26
I5
sg27
I100
sa(dp122
g21
VGOLD STONE
p123
sg23
V2040x
p124
sg25
I79
sg26
I6
sg27
I84
sa(dp125
g21
VMEERPAT
p126
sg23
V67735
p127
sg25
I91
sg26
I7
sg27
I88
sa(dp128
g21
VENTERTAINING BEN
p129
sg23
V31207
p130
sg25
I68
sg26
I8
sg27
I80
sa(dp131
g21
VANGEL OF THE SOUTH
p132
sg23
V98020
p133
sg25
I81
sg26
I9
sg27
I91
sa(dp134
g21
VINDEPENDENCE DAY
p135
sg23
V10x5x
p136
sg25
I61
sg26
I10
sg27
I77
sasg55
(lp137
sssI1543930800
(dp138
g2
Vhttp://www.skyracing.com.au/index.php?component=racing&task=race&id=108421329&meetingid=107745508&Itemid=89
p139
sg4
V29035820.1340
p140
sg6
(dp141
g8
(lp142
(lp143
I5
aI3
aI6
aI4
aa(lp144
I5
aI4
aI3
aI1
aa(lp145
I4
aI3
aI1
aI5
aa(lp146
I4
aI1
aI3
aI5
aa(lp147
I4
aI5
aI3
aI1
aa(lp148
I3
aI5
aI6
aI4
aa(lp149
I5
aI3
aI6
aI4
aa(lp150
I4
aI3
aI5
aI1
aasg18
(lp151
(dp152
g21
VCELTIC JOY
p153
sg23
V5x6x5
p154
sg25
I83
sg26
I1
sg27
I82
sa(dp155
g21
VPARSONAL
p156
sg23
V353x8
p157
sg25
I80
sg26
I2
sg27
I77
sa(dp158
g21
VSKANDIBURG
p159
sg23
V4x13
p160
sg25
I99
sg26
I3
sg27
I96
sa(dp161
g21
VTHREE BULLET GATE
p162
sg23
V36
p163
sg25
I85
sg26
I4
sg27
I87
sa(dp164
g21
VBANG BANG ROSIE
p165
sg23
V2342x
p166
sg25
I100
sg26
I5
sg27
I100
sa(dp167
g21
VCOPPER GONE WEST
p168
sg23
V1x
p169
sg25
I94
sg26
I6
sg27
I92
sasg55
(lp170
sssI1543924200
(dp171
g2
Vhttp://www.skyracing.com.au/index.php?component=racing&task=race&id=108421297&meetingid=107745524&Itemid=89
p172
sg4
V29034706.1150
p173
sg6
(dp174
g8
(lp175
(lp176
I2
aI9
aI7
aI8
aa(lp177
I5
aI1
aI3
aI10
aa(lp178
I2
aI3
aI10
aI7
aa(lp179
I1
aI10
aI5
aI2
aa(lp180
I7
aI3
aI1
aI2
aa(lp181
I7
aI2
aI9
aI3
aa(lp182
I7
aI2
aI9
aI8
aa(lp183
I2
aI7
aI3
aI1
aasg18
(lp184
(dp185
g21
VWELOOF
p186
sg23
V9700x
p187
sg25
I82
sg26
I1
sg27
I81
sa(dp188
g21
VLADY MARIGOLD
p189
sg23
V35522
p190
sg25
I95
sg26
I2
sg27
I100
sa(dp191
g21
VSTOSUR
p192
sg23
V82983
p193
sg25
I85
sg26
I3
sg27
I87
sa(dp194
g21
VAFRICAN TRADER
p195
sg23
V5760x
p196
sg25
I70
sg26
I4
sg27
I71
sa(dp197
g21
VDARING GUEST
p198
sg23
V6786x
p199
sg25
I88
sg26
I5
sg27
I73
sa(dp200
g21
VESCAPE TO THE CITY
p201
sg23
V865
p202
sg25
I77
sg26
I6
sg27
I86
sa(dp203
g21
VLORD MURPHY
p204
sg23
V33624
p205
sg25
I98
sg26
I7
sg27
I93
sa(dp206
g21
VAINNE
p207
sg23
V54517
p208
sg25
I91
sg26
I8
sg27
I92
sa(dp209
g21
VSHARP OPERATOR
p210
sg23
V1244x
p211
sg25
I100
sg26
I9
sg27
I99
sa(dp212
g21
VDELICATE KISS
p213
sg23
V03590
p214
sg25
I74
sg26
I10
sg27
I77
sa(dp215
g21
VCOLLATE
p216
sg23
Vx9900
p217
sg25
I79
sg26
I11
sg27
I78
sa(dp218
g21
VAEGEUS
p219
sg23
V56x0x
p220
sg25
I68
sg26
I12
sg27
I69
sasg55
(lp221
sssI1543932000
(dp222
g2
Vhttp://www.skyracing.com.au/index.php?component=racing&task=race&id=108421315&meetingid=107745540&Itemid=89
p223
sg4
V29035821.1400
p224
sg6
(dp225
g8
(lp226
(lp227
I8
aI2
aI5
aI7
aa(lp228
I4
aI3
aI8
aI2
aa(lp229
I8
aI6
aI5
aI3
aa(lp230
I4
aI8
aI2
aI3
aa(lp231
I4
aI8
aI3
aI2
aa(lp232
I2
aI8
aI6
aI7
aa(lp233
I8
aI2
aI7
aI5
aa(lp234
I8
aI4
aI2
aI6
aasg18
(lp235
(dp236
g21
VHENRYVILLE
p237
sg23
Vx806x
p238
sg25
I72
sg26
I1
sg27
I73
sa(dp239
g21
VSAINTE LADYLIME
p240
sg23
V2221x
p241
sg25
I95
sg26
I2
sg27
I96
sa(dp242
g21
VWOTZIZNAME
p243
sg23
V153x8
p244
sg25
I81
sg26
I3
sg27
I79
sa(dp245
g21
VSMOOTH STEPPER
p246
sg23
V1610x
p247
sg25
I68
sg26
I4
sg27
I64
sa(dp248
g21
VWEMYSS POINT
p249
sg23
V08x11
p250
sg25
I88
sg26
I5
sg27
I91
sa(dp251
g21
VJEANNOT DE NONANT
p252
sg23
V013x5
p253
sg25
I79
sg26
I6
sg27
I83
sa(dp254
g21
VTOMNGERRY
p255
sg23
V410x5
p256
sg25
I94
sg26
I7
sg27
I85
sa(dp257
g21
VCROSSPARK
p258
sg23
V344x1
p259
sg25
I100
sg26
I8
sg27
I100
sa(dp260
g21
VPRESENT TIMES
p261
sg23
V2x84x
p262
sg25
I74
sg26
I9
sg27
I70
sasg55
(lp263
sssI1543932600
(dp264
g2
Vhttp://www.skyracing.com.au/index.php?component=racing&task=race&id=108421330&meetingid=107745508&Itemid=89
p265
sg4
V29035820.1410
p266
sg6
(dp267
g8
(lp268
(lp269
I1
aI6
aI3
aI8
aa(lp270
I1
aI2
aI6
aI3
aa(lp271
I1
aI2
aI6
aI3
aa(lp272
I1
aI2
aI6
aI3
aa(lp273
I6
aI8
aI3
aI5
aa(lp274
I1
aI6
aI3
aI2
aa(lp275
I3
aI1
aI6
aI8
aa(lp276
I1
aI6
aI2
aI3
aasg18
(lp277
(dp278
g21
VSONG FOR SOMEONE
p279
sg23
V131x2
p280
sg25
I100
sg26
I1
sg27
I100
sa(dp281
g21
VBANKSY'S ART
p282
sg23
V44734
p283
sg25
I78
sg26
I2
sg27
I82
sa(dp284
g21
VFOR PLEASURE
p285
sg23
V82x03
p286
sg25
I97
sg26
I3
sg27
I90
sa(dp287
g21
VHIGHLAND BOBBY
p288
sg23
Vx7806
p289
sg25
I83
sg26
I4
sg27
I77
sa(dp290
g21
VSAN SEB
p291
sg23
V39
p292
sg25
I77
sg26
I5
sg27
I79
sa(dp293
g21
VTHE LINCOLN LAWYER
p294
sg23
V4x243
p295
sg25
I94
sg26
I6
sg27
I95
sa(dp296
g21
VTHUNDERHOOVES
p297
sg23
V55809
p298
sg25
I69
sg26
I7
sg27
I69
sa(dp299
g21
VWESTBROOK BERTIE
p300
sg23
V0x806
p301
sg25
I86
sg26
I8
sg27
I85
sa(dp302
g21
VELUSIVEVISION
p303
sg23
V87
p304
sg25
I66
sg26
I9
sg27
I63
sasg55
(lp305
sssI1543926600
(dp306
g2
Vhttp://www.skyracing.com.au/index.php?component=racing&task=race&id=108421312&meetingid=107745540&Itemid=89
p307
sg4
V29035821.1230
p308
sg6
(dp309
g8
(lp310
(lp311
I3
aI1
aI2
aI4
aa(lp312
I2
aI1
aI3
aI5
aa(lp313
I1
aI2
aI3
aI4
aa(lp314
I1
aI2
aI3
aI5
aa(lp315
I3
aI2
aI1
aI5
aa(lp316
I3
aI1
aI2
aI4
aa(lp317
I1
aI3
aI2
aI4
aa(lp318
I1
aI3
aI2
aI4
aasg18
(lp319
(dp320
g21
VHOO BALLY DIVA
p321
sg23
Vx1x22
p322
sg25
I95
sg26
I1
sg27
I98
sa(dp323
g21
VSILENT STEPS
p324
sg23
V73x35
p325
sg25
I90
sg26
I2
sg27
I91
sa(dp326
g21
VDAWNIERIVER
p327
sg23
V36211
p328
sg25
I100
sg26
I3
sg27
I100
sa(dp329
g21
VARCHVIEW SUNSHINE
p330
sg23
V9x081
p331
sg25
I88
sg26
I4
sg27
I86
sa(dp332
g21
VMEGABOOST
p333
sg23
V99x76
p334
sg25
I81
sg26
I5
sg27
I81
sasg55
(lp335
sssI1543933200
(dp336
g2
Vhttp://www.skyracing.com.au/index.php?component=racing&task=race&id=108421302&meetingid=107745524&Itemid=89
p337
sg4
V29034706.1420
p338
sg6
(dp339
g8
(lp340
(lp341
I1
aI8
aI6
aI9
aa(lp342
I2
aI3
aI1
aI5
aa(lp343
I1
aI2
aI5
aI7
aa(lp344
I1
aI3
aI2
aI7
aa(lp345
I3
aI8
aI2
aI7
aa(lp346
I1
aI6
aI8
aI4
aa(lp347
I1
aI8
aI9
aI4
aa(lp348
I1
aI2
aI3
aI8
aasg18
(lp349
(dp350
g21
VCORINTHIA KNIGHT
p351
sg23
V94236
p352
sg25
I100
sg26
I1
sg27
I100
sa(dp353
g21
VGRACIOUS JOHN
p354
sg23
V07749
p355
sg25
I70
sg26
I2
sg27
I69
sa(dp356
g21
VTOMILY
p357
sg23
V07x40
p358
sg25
I64
sg26
I3
sg27
I67
sa(dp359
g21
VCOX BAZAR
p360
sg23
V71106
p361
sg25
I91
sg26
I4
sg27
I84
sa(dp362
g21
VTERUNTUM STAR
p363
sg23
V08402
p364
sg25
I75
sg26
I5
sg27
I73
sa(dp365
g21
VVERNE CASTLE
p366
sg23
V45113
p367
sg25
I80
sg26
I6
sg27
I91
sa(dp368
g21
VALSVINDER
p369
sg23
V26571
p370
sg25
I81
sg26
I7
sg27
I80
sa(dp371
g21
VCAPTAIN LARS
p372
sg23
V53221
p373
sg25
I95
sg26
I8
sg27
I98
sa(dp374
g21
VJUST THAT LORD
p375
sg23
V4334x
p376
sg25
I89
sg26
I9
sg27
I88
sasg55
(lp377
sssI1543935600
(dp378
g2
Vhttp://www.skyracing.com.au/index.php?component=racing&task=race&id=108421317&meetingid=107745540&Itemid=89
p379
sg4
V29035821.1500
p380
sg6
(dp381
g8
(lp382
(lp383
I11
aI6
aI2
aI3
aa(lp384
I2
aI1
aI4
aI14
aa(lp385
I1
aI6
aI2
aI11
aa(lp386
I7
aI4
aI1
aI14
aa(lp387
I4
aI14
aI8
aI11
aa(lp388
I11
aI6
aI1
aI2
aa(lp389
I11
aI3
aI2
aI6
aa(lp390
I1
aI11
aI6
aI2
aasg18
(lp391
(dp392
g21
VOREGON GOLD
p393
sg23
V87x83
p394
sg25
I89
sg26
I1
sg27
I92
sa(dp395
g21
VNICELY INDEED
p396
sg23
V6x873
p397
sg25
I95
sg26
I2
sg27
I96
sa(dp398
g21
VEXTREME APPEAL
p399
sg23
V6101x
p400
sg25
I97
sg26
I3
sg27
I94
sa(dp401
g21
VBARLEY HILL
p402
sg23
V5x600
p403
sg25
I84
sg26
I4
sg27
I83
sa(dp404
g21
VCONCEALED AMBITION
p405
sg23
V0968x
p406
sg25
I72
sg26
I5
sg27
I74
sa(dp407
g21
VOOLOGIST
p408
sg23
V863x2
p409
sg25
I93
sg26
I6
sg27
I99
sa(dp410
g21
VWINIDO
p411
sg23
Vx906x
p412
sg25
I87
sg26
I7
sg27
I88
sa(dp413
g21
VRIVIERE ARGENTEE
p414
sg23
V73x30
p415
sg25
I90
sg26
I8
sg27
I82
sa(dp416
g21
VBARE NECESSITIES
p417
sg23
V887x8
p418
sg25
I77
sg26
I9
sg27
I64
sa(dp419
g21
VTURBOTIM
p420
sg23
V496x7
p421
sg25
I67
sg26
I10
sg27
I66
sa(dp422
g21
VPOLARBROOK
p423
sg23
V2x453
p424
sg25
I100
sg26
I11
sg27
I100
sa(dp425
g21
VTOWER OF ALLEN
p426
sg23
V663x7
p427
sg25
I73
sg26
I12
sg27
I76
sa(dp428
g21
VBIRCH BANK
p429
sg23
V6635x
p430
sg25
I78
sg26
I13
sg27
I79
sa(dp431
g21
VSCARTARE
p432
sg23
V4544x
p433
sg25
I82
sg26
I14
sg27
I87
sa(dp434
g21
VNAASIK
p435
sg23
V0578x
p436
sg25
I65
sg26
I15
sg27
I69
sa(dp437
g21
VGRIMTHORPE
p438
sg23
V8x70x
p439
sg25
I68
sg26
I16
sg27
I72
sasg55
(lp440
sssI1543931400
(dp441
g2
Vhttp://www.skyracing.com.au/index.php?component=racing&task=race&id=108421301&meetingid=107745524&Itemid=89
p442
sg4
V29034706.1350
p443
sg6
(dp444
g8
(lp445
(lp446
I4
aI5
aI1
aI2
aa(lp447
I2
aI3
aI1
aI4
aa(lp448
I4
aI3
aI5
aI2
aa(lp449
I2
aI1
aI4
aI3
aa(lp450
I5
aI4
aI3
aI1
aa(lp451
I5
aI4
aI1
aI3
aa(lp452
I4
aI5
aI1
aI3
aa(lp453
I4
aI5
aI1
aI2
aasg18
(lp454
(dp455
g21
VNONIOS
p456
sg23
V7244x
p457
sg25
I91
sg26
I1
sg27
I90
sa(dp458
g21
VDRAGON MALL
p459
sg23
V127x9
p460
sg25
I83
sg26
I2
sg27
I83
sa(dp461
g21
VMOUNTAIN RESCUE
p462
sg23
V38067
p463
sg25
I85
sg26
I3
sg27
I81
sa(dp464
g21
VGLASSY WATERS
p465
sg23
Vx1x01
p466
sg25
I100
sg26
I4
sg27
I100
sa(dp467
g21
VRAMPANT LION
p468
sg23
V92021
p469
sg25
I95
sg26
I5
sg27
I94
sasg55
(lp470
sssI1543930200
(dp471
g2
Vhttp://www.skyracing.com.au/index.php?component=racing&task=race&id=108421314&meetingid=107745540&Itemid=89
p472
sg4
V29035821.1330
p473
sg6
(dp474
g8
(lp475
(lp476
I1
aI8
aI5
aI9
aa(lp477
I5
aI1
aI2
aI8
aa(lp478
I1
aI7
aI8
aI2
aa(lp479
I5
aI8
aI1
aI2
aa(lp480
I5
aI1
aI8
aI7
aa(lp481
I1
aI8
aI5
aI2
aa(lp482
I1
aI5
aI8
aI9
aa(lp483
I1
aI5
aI8
aI2
aasg18
(lp484
(dp485
g21
VCOMMODORE BARRY
p486
sg23
V31x12
p487
sg25
I100
sg26
I1
sg27
I100
sa(dp488
g21
VCAVALRY SCOUT
p489
sg23
V035x8
p490
sg25
I87
sg26
I2
sg27
I87
sa(dp491
g21
VFENJACK
p492
sg23
V42x6
p493
sg25
I77
sg26
I3
sg27
I79
sa(dp494
g21
VGATACRE STREET
p495
sg23
Vx353x
p496
sg25
I86
sg26
I4
sg27
I85
sa(dp497
g21
VGONALSTON CLOUD
p498
sg23
V1256x
p499
sg25
I90
sg26
I5
sg27
I93
sa(dp500
g21
VHAHADI
p501
sg23
Vx41x0
p502
sg25
I83
sg26
I6
sg27
I77
sa(dp503
g21
VNEARLY PERFECT
p504
sg23
V2x9x0
p505
sg25
I78
sg26
I7
sg27
I80
sa(dp506
g21
VNOTACHANCE
p507
sg23
V2x2
p508
sg25
I97
sg26
I8
sg27
I98
sa(dp509
g21
VROYAL REEF
p510
sg23
V6311x
p511
sg25
I94
sg26
I9
sg27
I92
sa(dp512
g21
VSTRIPE OF HONOUR
p513
sg23
V9x9x0
p514
sg25
I73
sg26
I10
sg27
I70
sa(dp515
g21
VTHE JUNIOR MAN
p516
sg23
V7x00x
p517
sg25
I70
sg26
I11
sg27
I74
sasg55
(lp518
sssI1543927800
(dp519
g2
Vhttp://www.skyracing.com.au/index.php?component=racing&task=race&id=108421299&meetingid=107745524&Itemid=89
p520
sg4
V29034706.1250
p521
sg6
(dp522
g8
(lp523
(lp524
I9
aI4
aI5
aI2
aa(lp525
I6
aI3
aI2
aI10
aa(lp526
I2
aI1
aI4
aI5
aa(lp527
I2
aI3
aI1
aI7
aa(lp528
I3
aI9
aI10
aI4
aa(lp529
I5
aI9
aI4
aI1
aa(lp530
I9
aI5
aI11
aI4
aa(lp531
I2
aI9
aI3
aI4
aasg18
(lp532
(dp533
g21
VKRAKA
p534
sg23
V39263
p535
sg25
I86
sg26
I1
sg27
I89
sa(dp536
g21
VYOUR CHOICE
p537
sg23
Vx3472
p538
sg25
I88
sg26
I2
sg27
I92
sa(dp539
g21
VVERY HONEST
p540
sg23
V53x04
p541
sg25
I77
sg26
I3
sg27
I74
sa(dp542
g21
VMAJORETTE
p543
sg23
V10x62
p544
sg25
I90
sg26
I4
sg27
I99
sa(dp545
g21
VDEEDS NOT WORDS
p546
sg23
V96415
p547
sg25
I96
sg26
I5
sg27
I94
sa(dp548
g21
VBELLEDESERT
p549
sg23
V53880
p550
sg25
I82
sg26
I6
sg27
I77
sa(dp551
g21
VSPENNY'S LASS
p552
sg23
V51642
p553
sg25
I78
sg26
I7
sg27
I86
sa(dp554
g21
VTAWAAFOQ
p555
sg23
V8350x
p556
sg25
I69
sg26
I8
sg27
I70
sa(dp557
g21
VWOTADOLL
p558
sg23
V23921
p559
sg25
I100
sg26
I9
sg27
I100
sa(dp560
g21
VGOLD CLUB
p561
sg23
V8937x
p562
sg25
I72
sg26
I10
sg27
I68
sa(dp563
g21
VCATHEADANS FURY
p564
sg23
V10x14
p565
sg25
I94
sg26
I11
sg27
I83
sa(dp566
g21
VGOLDEN DEAL
p567
sg23
V6988x
p568
sg25
I73
sg26
I12
sg27
I79
sasg55
(lp569
sssI1543935000
(dp570
g2
Vhttp://www.skyracing.com.au/index.php?component=racing&task=race&id=108421303&meetingid=107745524&Itemid=89
p571
sg4
V29034706.1450
p572
sg6
(dp573
g8
(lp574
(lp575
I6
aI2
aI1
aI4
aa(lp576
I7
aI1
aI2
aI4
aa(lp577
I1
aI2
aI4
aI3
aa(lp578
I1
aI7
aI4
aI2
aa(lp579
I1
aI2
aI4
aI6
aa(lp580
I2
aI6
aI1
aI4
aa(lp581
I1
aI2
aI6
aI4
aa(lp582
I1
aI2
aI4
aI6
aasg18
(lp583
(dp584
g21
VSANDRIDGE LAD
p585
sg23
V61821
p586
sg25
I100
sg26
I1
sg27
I92
sa(dp587
g21
VROCK BOTTOM
p588
sg23
V3
p589
sg25
I97
sg26
I2
sg27
I95
sa(dp590
g21
VSTORM BLITZ
p591
sg23
V7
p592
sg25
I78
sg26
I3
sg27
I79
sa(dp593
g21
VMADAME VITESSE
p594
sg23
V754
p595
sg25
I88
sg26
I4
sg27
I85
sa(dp596
g21
VMERCENARY ROSE
p597
sg23
V
p598
sg25
I82
sg26
I5
sg27
I0
sa(dp599
g21
VSOCIETY STAR
p600
sg23
V43
p601
sg25
I94
sg26
I6
sg27
I100
sa(dp602
g21
VSWISS CHIME
p603
sg23
V8x567
p604
sg25
I76
sg26
I7
sg27
I76
sasg55
(lp605
sssI1543928400
(dp606
g2
Vhttp://www.skyracing.com.au/index.php?component=racing&task=race&id=108421313&meetingid=107745540&Itemid=89
p607
sg4
V29035821.1300
p608
sg6
(dp609
g8
(lp610
(lp611
I1
aI7
aI5
aI2
aa(lp612
I1
aI2
aI4
aI5
aa(lp613
I1
aI2
aI7
aI6
aa(lp614
I1
aI2
aI4
aI5
aa(lp615
I4
aI5
aI1
aI7
aa(lp616
I1
aI7
aI5
aI8
aa(lp617
I1
aI5
aI2
aI7
aa(lp618
I1
aI7
aI2
aI4
aasg18
(lp619
(dp620
g21
VDESTRIER
p621
sg23
V152x3
p622
sg25
I100
sg26
I1
sg27
I100
sa(dp623
g21
VCASTAFIORE
p624
sg23
V86x04
p625
sg25
I87
sg26
I2
sg27
I82
sa(dp626
g21
VSWIFT CRUSADOR
p627
sg23
V2347x
p628
sg25
I97
sg26
I3
sg27
I93
sa(dp629
g21
VSUPER SID
p630
sg23
V4700x
p631
sg25
I79
sg26
I4
sg27
I77
sa(dp632
g21
VWALSINGHAM GRANGE
p633
sg23
V346x3
p634
sg25
I92
sg26
I5
sg27
I89
sa(dp635
g21
VDOC CARVER
p636
sg23
V549x8
p637
sg25
I71
sg26
I6
sg27
I70
sa(dp638
g21
VANOTHER CRICK
p639
sg23
V358x2
p640
sg25
I84
sg26
I7
sg27
I99
sa(dp641
g21
VEUREU DU BOULAY
p642
sg23
V627x4
p643
sg25
I74
sg26
I8
sg27
I80
sasg55
(lp644
sssI1543937400
(dp645
g2
Vhttp://www.skyracing.com.au/index.php?component=racing&task=race&id=108421318&meetingid=107745540&Itemid=89
p646
sg4
V29035821.1530
p647
sg6
(dp648
g8
(lp649
(lp650
I1
aI2
aI4
aI7
aa(lp651
I1
aI4
aI2
aI5
aa(lp652
I1
aI4
aI5
aI6
aa(lp653
I1
aI4
aI2
aI5
aa(lp654
I1
aI2
aI4
aI5
aa(lp655
I1
aI2
aI7
aI5
aa(lp656
I1
aI2
aI3
aI4
aa(lp657
I1
aI2
aI4
aI5
aasg18
(lp658
(dp659
g21
VBEN BUIE
p660
sg23
V2
p661
sg25
I100
sg26
I1
sg27
I100
sa(dp662
g21
VDAARIO NAHARIS
p663
sg23
V42x3x
p664
sg25
I95
sg26
I2
sg27
I99
sa(dp665
g21
VI'M WISER NOW
p666
sg23
g598
sg25
I92
sg26
I3
sg27
I0
sa(dp667
g21
VLANTIERN
p668
sg23
V5
p669
sg25
I87
sg26
I4
sg27
I90
sa(dp670
g21
VPHOENIX SONG
p671
sg23
V5
p672
sg25
I73
sg26
I5
sg27
I82
sa(dp673
g21
VLAHLOO
p674
sg23
V0x7
p675
sg25
I72
sg26
I6
sg27
I80
sa(dp676
g21
VMINNIE ESCAPE
p677
sg23
V7x
p678
sg25
I79
sg26
I7
sg27
I87
sa(dp679
g21
VWHITEHOTCHILLIFILI
p680
sg23
g598
sg25
I84
sg26
I8
sg27
I0
sasg55
(lp681
sssI1543933800
(dp682
g2
Vhttp://www.skyracing.com.au/index.php?component=racing&task=race&id=108421316&meetingid=107745540&Itemid=89
p683
sg4
V29035821.1430
p684
sg6
(dp685
g8
(lp686
(lp687
I10
aI1
aI5
aI9
aa(lp688
I1
aI9
aI10
aI7
aa(lp689
I1
aI9
aI7
aI3
aa(lp690
I1
aI10
aI9
aI7
aa(lp691
I1
aI9
aI10
aI5
aa(lp692
I10
aI1
aI5
aI9
aa(lp693
I10
aI1
aI5
aI7
aa(lp694
I1
aI10
aI9
aI5
aasg18
(lp695
(dp696
g21
VBOLD PLAN
p697
sg23
V1x2x3
p698
sg25
I97
sg26
I1
sg27
I99
sa(dp699
g21
VCLONDAW STORM
p700
sg23
V4x2x9
p701
sg25
I63
sg26
I2
sg27
I63
sa(dp702
g21
VDORKING COCK
p703
sg23
V4x37
p704
sg25
I78
sg26
I3
sg27
I80
sa(dp705
g21
VEOLIAN
p706
sg23
Vx5x0x
p707
sg25
I76
sg26
I4
sg27
I79
sa(dp708
g21
VGO AS YOU PLEASE
p709
sg23
V2x
p710
sg25
I95
sg26
I5
sg27
I95
sa(dp711
g21
VINCUS
p712
sg23
V00078
p713
sg25
I85
sg26
I6
sg27
I73
sa(dp714
g21
VLUNAR JET
p715
sg23
Vx2305
p716
sg25
I88
sg26
I7
sg27
I88
sa(dp717
g21
VNORTHOFTHEWALL
p718
sg23
V70
p719
sg25
I81
sg26
I8
sg27
I85
sa(dp720
g21
VOAKLEY
p721
sg23
V35x5
p722
sg25
I90
sg26
I9
sg27
I92
sa(dp723
g21
VROUGE VIF
p724
sg23
V1x52
p725
sg25
I100
sg26
I10
sg27
I100
sa(dp726
g21
VGOLDEN ETOILE
p727
sg23
V0800x
p728
sg25
I73
sg26
I11
sg27
I76
sa(dp729
g21
VGOLD RUNNER
p730
sg23
V02x67
p731
sg25
I66
sg26
I12
sg27
I65
sa(dp732
g21
VQUASHA
p733
sg23
V4x969
p734
sg25
I71
sg26
I13
sg27
I69
sa(dp735
g21
VSALLY CAN'T WAIT
p736
sg23
V2x4x7
p737
sg25
I72
sg26
I14
sg27
I70
sasg55
(lp738
sssI1543929000
(dp739
g2
Vhttp://www.skyracing.com.au/index.php?component=racing&task=race&id=108421328&meetingid=107745508&Itemid=89
p740
sg4
V29035820.1310
p741
sg6
(dp742
g8
(lp743
(lp744
I2
aI1
aI8
aI4
aa(lp745
I6
aI3
aI5
aI4
aa(lp746
I3
aI5
aI7
aI1
aa(lp747
I2
aI6
aI5
aI4
aa(lp748
I6
aI5
aI8
aI4
aa(lp749
I2
aI1
aI8
aI4
aa(lp750
I2
aI4
aI7
aI8
aa(lp751
I2
aI6
aI5
aI1
aasg18
(lp752
(dp753
g21
VZEN MASTER
p754
sg23
V922x4
p755
sg25
I83
sg26
I1
sg27
I98
sa(dp756
g21
VTHE GEEGEEZ GEEGEE
p757
sg23
V1314x
p758
sg25
I100
sg26
I2
sg27
I100
sa(dp759
g21
VBALIBOUR
p760
sg23
V20x30
p761
sg25
I69
sg26
I3
sg27
I76
sa(dp762
g21
VTARA MAC
p763
sg23
V8x516
p764
sg25
I95
sg26
I4
sg27
I88
sa(dp765
g21
VNATIVE ROBIN
p766
sg23
V450x4
p767
sg25
I79
sg26
I5
sg27
I84
sa(dp768
g21
VSHADY GLEN
p769
sg23
V676x5
p770
sg25
I77
sg26
I6
sg27
I78
sa(dp771
g21
VMR RAJ
p772
sg23
V111x4
p773
sg25
I92
sg26
I7
sg27
I70
sa(dp774
g21
VWOOD PIGEON
p775
sg23
V2924x
p776
sg25
I86
sg26
I8
sg27
I90
sasg55
(lp777
sssI1543936200
(dp778
g2
Vhttp://www.skyracing.com.au/index.php?component=racing&task=race&id=108421332&meetingid=107745508&Itemid=89
p779
sg4
V29035820.1510
p780
sg6
(dp781
g8
(lp782
(lp783
I1
aI3
aI5
aI4
aa(lp784
I5
aI3
aI2
aI1
aa(lp785
I2
aI3
aI5
aI4
aa(lp786
I3
aI5
aI1
aI4
aa(lp787
I3
aI2
aI4
aI5
aa(lp788
I5
aI1
aI3
aI2
aa(lp789
I1
aI5
aI3
aI4
aa(lp790
I3
aI5
aI1
aI2
aasg18
(lp791
(dp792
g21
VGENERAL BUX
p793
sg23
V674x7
p794
sg25
I100
sg26
I1
sg27
I100
sa(dp795
g21
VTHE LADY RULES
p796
sg23
V064x3
p797
sg25
I81
sg26
I2
sg27
I79
sa(dp798
g21
VDOWHATUDODOBEST
p799
sg23
Vx6644
p800
sg25
I92
sg26
I3
sg27
I95
sa(dp801
g21
VRING MINELLA
p802
sg23
V871x6
p803
sg25
I89
sg26
I4
sg27
I84
sa(dp804
g21
VMIDNIGHT QUEEN
p805
sg23
V10104
p806
sg25
I99
sg26
I5
sg27
I89
sa(dp807
g21
VSHALAMZAR
p808
sg23
V45650
p809
sg25
I80
sg26
I6
sg27
I75
sasg55
(lp810
sssI1543929600
(dp811
g2
Vhttp://www.skyracing.com.au/index.php?component=racing&task=race&id=108421300&meetingid=107745524&Itemid=89
p812
sg4
V29034706.1320
p813
sg6
(dp814
g8
(lp815
(lp816
I1
aI2
aI3
aI6
aa(lp817
I5
aI1
aI8
aI10
aa(lp818
I2
aI4
aI1
aI3
aa(lp819
I5
aI1
aI2
aI9
aa(lp820
I5
aI6
aI9
aI2
aa(lp821
I1
aI2
aI6
aI3
aa(lp822
I2
aI3
aI1
aI7
aa(lp823
I1
aI2
aI5
aI6
aasg18
(lp824
(dp825
g21
VHARRY HURRICANE
p826
sg23
V42042
p827
sg25
I90
sg26
I1
sg27
I100
sa(dp828
g21
VKAMRA
p829
sg23
V01215
p830
sg25
I95
sg26
I2
sg27
I96
sa(dp831
g21
VLA FORTUNA
p832
sg23
V51117
p833
sg25
I100
sg26
I3
sg27
I90
sa(dp834
g21
VJOEGOGO
p835
sg23
V43546
p836
sg25
I79
sg26
I4
sg27
I65
sa(dp837
g21
VSUZI'S CONNOISSEUR
p838
sg23
V95514
p839
sg25
I70
sg26
I5
sg27
I76
sa(dp840
g21
VMADRINHO
p841
sg23
V72802
p842
sg25
I74
sg26
I6
sg27
I85
sa(dp843
g21
VGOLDEN SALUTE
p844
sg23
V112x0
p845
sg25
I85
sg26
I7
sg27
I83
sa(dp846
g21
VHIGHLAND ACCLAIM
p847
sg23
V16606
p848
sg25
I64
sg26
I8
sg27
I69
sa(dp849
g21
VSEPRANI
p850
sg23
V27147
p851
sg25
I82
sg26
I9
sg27
I80
sa(dp852
g21
VDIAMOND LADY
p853
sg23
V25608
p854
sg25
I60
sg26
I10
sg27
I60
sasg55
(lp855
sssI1543926000
(dp856
g2
Vhttp://www.skyracing.com.au/index.php?component=racing&task=race&id=108421298&meetingid=107745524&Itemid=89
p857
sg4
V29034706.1220
p858
sg6
(dp859
g8
(lp860
(lp861
I6
aI9
aI8
aI10
aa(lp862
I10
aI1
aI3
aI12
aa(lp863
I10
aI1
aI5
aI9
aa(lp864
I10
aI1
aI2
aI3
aa(lp865
I9
aI10
aI1
aI5
aa(lp866
I6
aI9
aI10
aI8
aa(lp867
I6
aI10
aI1
aI2
aa(lp868
I10
aI9
aI1
aI6
aasg18
(lp869
(dp870
g21
VSHAMLAN
p871
sg23
V553x4
p872
sg25
I87
sg26
I1
sg27
I81
sa(dp873
g21
VMR MAC
p874
sg23
V08x16
p875
sg25
I93
sg26
I2
sg27
I78
sa(dp876
g21
VBROCKEY RISE
p877
sg23
V10970
p878
sg25
I69
sg26
I3
sg27
I71
sa(dp879
g21
VFORMIGA
p880
sg23
V44160
p881
sg25
I70
sg26
I4
sg27
I74
sa(dp882
g21
VWITH APPROVAL
p883
sg23
V16703
p884
sg25
I90
sg26
I5
sg27
I84
sa(dp885
g21
VCONFRERIE
p886
sg23
V25312
p887
sg25
I100
sg26
I6
sg27
I100
sa(dp888
g21
VBLUE WILLOW
p889
sg23
V4657
p890
sg25
I76
sg26
I7
sg27
I89
sa(dp891
g21
VSOLVEIG'S SONG
p892
sg23
V12801
p893
sg25
I81
sg26
I8
sg27
I95
sa(dp894
g21
VMOSSY'S LODGE
p895
sg23
V33125
p896
sg25
I85
sg26
I9
sg27
I98
sa(dp897
g21
VSOARING SPIRITS
p898
sg23
V20190
p899
sg25
I99
sg26
I10
sg27
I91
sa(dp900
g21
VHAABIS
p901
sg23
V0429x
p902
sg25
I74
sg26
I11
sg27
I77
sa(dp903
g21
VSHIFTING STAR
p904
sg23
V44990
p905
sg25
I79
sg26
I12
sg27
I69
sasg55
(lp906
sss.