(dp0
I1542722400
(dp1
S'skyracing_url'
p2
Vhttp://www.skyracing.com.au/index.php?component=racing&task=race&id=108047556&meetingid=107034526&Itemid=89
p3
sS'betfair_raceid'
p4
V29017561.1400
p5
sS'dat2'
p6
(dp7
S'ratings_auto'
p8
(lp9
(lp10
I1
aI4
aI2
aI5
aa(lp11
I2
aI1
aI3
aI4
aa(lp12
I1
aI3
aI4
aI5
aa(lp13
I5
aI1
aI3
aI2
aa(lp14
I1
aI2
aI4
aI3
aa(lp15
I1
aI4
aI2
aI5
aa(lp16
I5
aI1
aI2
aI4
aa(lp17
I1
aI2
aI4
aI3
aasS'horse_details'
p18
(lp19
(dp20
S'horse_name'
p21
VFOXTROT JULIET
p22
sS'horse_form'
p23
V4x821
p24
sS'rating_2'
p25
I100
sS'horse_number'
p26
I1
sS'rating_1'
p27
I100
sa(dp28
g21
VORMSKIRK
p29
sg23
V251x0
p30
sg25
I99
sg26
I2
sg27
I93
sa(dp31
g21
VHIGHWAY STAR
p32
sg23
Vx2637
p33
sg25
I83
sg26
I3
sg27
I84
sa(dp34
g21
VUNO MAS
p35
sg23
V05440
p36
sg25
I85
sg26
I4
sg27
I99
sa(dp37
g21
VSEVEN NATION ARMY
p38
sg23
Vx50x0
p39
sg25
I94
sg26
I5
sg27
I85
sasS'ratings_manual'
p40
(lp41
sssI1542723600
(dp42
g2
Vhttp://www.skyracing.com.au/index.php?component=racing&task=race&id=108047542&meetingid=107034558&Itemid=89
p43
sg4
V29017539.1420
p44
sg6
(dp45
g8
(lp46
(lp47
I1
aI7
aI2
aI3
aa(lp48
I7
aI2
aI6
aI1
aa(lp49
I2
aI6
aI1
aI7
aa(lp50
I2
aI6
aI4
aI7
aa(lp51
I7
aI2
aI1
aI6
aa(lp52
I2
aI7
aI1
aI5
aa(lp53
I7
aI1
aI2
aI4
aa(lp54
I2
aI7
aI1
aI6
aasg18
(lp55
(dp56
g21
VGENERAL CUSTARD
p57
sg23
V29x12
p58
sg25
I100
sg26
I1
sg27
I100
sa(dp59
g21
VNET DE TREVE
p60
sg23
Vx5x17
p61
sg25
I92
sg26
I2
sg27
I93
sa(dp62
g21
VFENJACK
p63
sg23
V42x
p64
sg25
I83
sg26
I3
sg27
I85
sa(dp65
g21
VJOHNNY OCEAN
p66
sg23
V1x96x
p67
sg25
I88
sg26
I4
sg27
I79
sa(dp68
g21
VRAINBOW STRIPES
p69
sg23
V008x6
p70
sg25
I73
sg26
I5
sg27
I77
sa(dp71
g21
VREVE
p72
sg23
V631x7
p73
sg25
I78
sg26
I6
sg27
I81
sa(dp74
g21
VSUPREMELY LUCKY
p75
sg23
V2x1x4
p76
sg25
I98
sg26
I7
sg27
I98
sasg40
(lp77
sssI1542724200
(dp78
g2
Vhttp://www.skyracing.com.au/index.php?component=racing&task=race&id=108047557&meetingid=107034526&Itemid=89
p79
sg4
V29017561.1430
p80
sg6
(dp81
g8
(lp82
(lp83
I3
aI1
aa(lp84
I3
aI1
aa(lp85
I3
aI1
aa(lp86
I1
aI3
aa(lp87
I3
aI1
aa(lp88
I3
aI1
aa(lp89
I3
aI1
aa(lp90
I3
aI1
aasg18
(lp91
(dp92
g21
VLEN BRENNAN
p93
sg23
V3x9x3
p94
sg25
I94
sg26
I1
sg27
I91
sa(dp95
g21
VPIRI MASSINI
p96
sg23
V1532x
p97
sg25
I96
sg26
I2
sg27
I98
sa(dp98
g21
VTHECLOCKISTICKING
p99
sg23
V4x254
p100
sg25
I100
sg26
I3
sg27
I100
sasg40
(lp101
sssI1542728400
(dp102
g2
Vhttp://www.skyracing.com.au/index.php?component=racing&task=race&id=108047531&meetingid=107034542&Itemid=89
p103
sg4
V29016356.1540
p104
sg6
(dp105
g8
(lp106
(lp107
I6
aI3
aI9
aI8
aa(lp108
I2
aI1
aI11
aI5
aa(lp109
I2
aI8
aI9
aI7
aa(lp110
I3
aI11
aI2
aI1
aa(lp111
I1
aI6
aI8
aI9
aa(lp112
I6
aI3
aI9
aI8
aa(lp113
I3
aI6
aI9
aI8
aa(lp114
I6
aI3
aI2
aI1
aasg18
(lp115
(dp116
g21
VUBLA
p117
sg23
V00105
p118
sg25
I92
sg26
I1
sg27
I78
sa(dp119
g21
VWILSON
p120
sg23
V55504
p121
sg25
I84
sg26
I2
sg27
I77
sa(dp122
g21
VCUTTIN' EDGE
p123
sg23
V07x04
p124
sg25
I99
sg26
I3
sg27
I98
sa(dp125
g21
VPARA MIO
p126
sg23
V9x8x6
p127
sg25
I81
sg26
I4
sg27
I89
sa(dp128
g21
VFAIR SELENE
p129
sg23
Vx1559
p130
sg25
I79
sg26
I5
sg27
I74
sa(dp131
g21
VBIG BAD LOL
p132
sg23
V83222
p133
sg25
I100
sg26
I6
sg27
I100
sa(dp134
g21
VTURN OF LUCK
p135
sg23
V4x50
p136
sg25
I74
sg26
I7
sg27
I82
sa(dp137
g21
VN OVER J
p138
sg23
V35236
p139
sg25
I88
sg26
I8
sg27
I90
sa(dp140
g21
VSILVERTURNSTOGOLD
p141
sg23
Vx2414
p142
sg25
I93
sg26
I9
sg27
I93
sa(dp143
g21
VLADY MARIGOLD
p144
sg23
V43552
p145
sg25
I75
sg26
I10
sg27
I84
sa(dp146
g21
VCLASSIFIED
p147
sg23
V56460
p148
sg25
I68
sg26
I11
sg27
I68
sa(dp149
g21
VZOUCH
p150
sg23
V55604
p151
sg25
I72
sg26
I12
sg27
I70
sasg40
(lp152
sssI1542717600
(dp153
g2
Vhttp://www.skyracing.com.au/index.php?component=racing&task=race&id=108047525&meetingid=107034542&Itemid=89
p154
sg4
V29016356.1240
p155
sg6
(dp156
g8
(lp157
(lp158
I5
aI4
aI2
aI8
aa(lp159
I6
aI2
aI1
aI3
aa(lp160
I6
aI2
aI4
aI5
aa(lp161
I6
aI3
aI2
aI1
aa(lp162
I6
aI4
aI2
aI7
aa(lp163
I4
aI5
aI2
aI8
aa(lp164
I5
aI4
aI2
aI1
aa(lp165
I6
aI2
aI4
aI5
aasg18
(lp166
(dp167
g21
VBETSALOTTIE
p168
sg23
V42500
p169
sg25
I89
sg26
I1
sg27
I81
sa(dp170
g21
VPLANETOID
p171
sg23
Vx3984
p172
sg25
I94
sg26
I2
sg27
I95
sa(dp173
g21
VHARBOUR FORCE
p174
sg23
V8x6x9
p175
sg25
I83
sg26
I3
sg27
I85
sa(dp176
g21
VALEXIS CARRINGTON
p177
sg23
V46622
p178
sg25
I99
sg26
I4
sg27
I96
sa(dp179
g21
VTRUE DESTINY
p180
sg23
Vx0x13
p181
sg25
I100
sg26
I5
sg27
I100
sa(dp182
g21
VSEA'S ARIA
p183
sg23
Vx2396
p184
sg25
I92
sg26
I6
sg27
I87
sa(dp185
g21
VCOLD FUSION
p186
sg23
Vx0038
p187
sg25
I76
sg26
I7
sg27
I77
sa(dp188
g21
VPOLLYISSIMO
p189
sg23
Vx5356
p190
sg25
I84
sg26
I8
sg27
I91
sa(dp191
g21
VMOUNT CLESHAR
p192
sg23
V34309
p193
sg25
I74
sg26
I9
sg27
I74
sa(dp194
g21
VCUE'S FOLLY
p195
sg23
V64530
p196
sg25
I79
sg26
I10
sg27
I78
sa(dp197
g21
VMISTRESS NELLIE
p198
sg23
V52697
p199
sg25
I70
sg26
I11
sg27
I71
sasg40
(lp200
sssI1542724800
(dp201
g2
Vhttp://www.skyracing.com.au/index.php?component=racing&task=race&id=108047529&meetingid=107034542&Itemid=89
p202
sg4
V29016356.1440
p203
sg6
(dp204
g8
(lp205
(lp206
I3
aI5
aI7
aI6
aa(lp207
I2
aI1
aI3
aI6
aa(lp208
I3
aI5
aI7
aI4
aa(lp209
I2
aI6
aI4
aI5
aa(lp210
I3
aI6
aI4
aI2
aa(lp211
I3
aI5
aI6
aI7
aa(lp212
I3
aI5
aI6
aI7
aa(lp213
I3
aI5
aI6
aI2
aasg18
(lp214
(dp215
g21
VBREDEN
p216
sg23
V6x150
p217
sg25
I84
sg26
I1
sg27
I84
sa(dp218
g21
VFAYEZ
p219
sg23
V00810
p220
sg25
I79
sg26
I2
sg27
I73
sa(dp221
g21
VBOBBY K
p222
sg23
V32x12
p223
sg25
I100
sg26
I3
sg27
I100
sa(dp224
g21
VMEDALLA DE ORO
p225
sg23
V22196
p226
sg25
I75
sg26
I4
sg27
I79
sa(dp227
g21
VKESWICK
p228
sg23
V76101
p229
sg25
I99
sg26
I5
sg27
I99
sa(dp230
g21
VDEREK DUVAL
p231
sg23
V217x8
p232
sg25
I92
sg26
I6
sg27
I85
sa(dp233
g21
VMAINSAIL ATLANTIC
p234
sg23
V32342
p235
sg25
I88
sg26
I7
sg27
I91
sasg40
(lp236
sssI1542718200
(dp237
g2
Vhttp://www.skyracing.com.au/index.php?component=racing&task=race&id=108047539&meetingid=107034558&Itemid=89
p238
sg4
V29017539.1250
p239
sg6
(dp240
g8
(lp241
(lp242
I1
aI8
aI6
aI2
aa(lp243
I2
aI1
aI5
aI7
aa(lp244
I2
aI4
aI7
aI6
aa(lp245
I2
aI1
aI4
aI8
aa(lp246
I12
aI4
aI2
aI1
aa(lp247
I8
aI1
aI6
aI7
aa(lp248
I1
aI6
aI8
aI7
aa(lp249
I2
aI1
aI8
aI4
aasg18
(lp250
(dp251
g21
VMANWELL
p252
sg23
V2222x
p253
sg25
I94
sg26
I1
sg27
I100
sa(dp254
g21
VBARTON ROSE
p255
sg23
V33344
p256
sg25
I87
sg26
I2
sg27
I91
sa(dp257
g21
VSOLEGLAD
p258
sg23
V6x879
p259
sg25
I74
sg26
I3
sg27
I75
sa(dp260
g21
VOVERTOUJAY
p261
sg23
V31473
p262
sg25
I77
sg26
I4
sg27
I77
sa(dp263
g21
VORCHESTRATED
p264
sg23
V1x247
p265
sg25
I79
sg26
I5
sg27
I73
sa(dp266
g21
VBANNY'S LAD
p267
sg23
Vx95x3
p268
sg25
I98
sg26
I6
sg27
I94
sa(dp269
g21
VULIS DE VASSY
p270
sg23
V56x43
p271
sg25
I90
sg26
I7
sg27
I83
sa(dp272
g21
VTROUFION
p273
sg23
V2x11x
p274
sg25
I100
sg26
I8
sg27
I96
sa(dp275
g21
VBOUGHTBEFORELUNCH
p276
sg23
V73x57
p277
sg25
I70
sg26
I9
sg27
I69
sa(dp278
g21
VBEN ARTHUR
p279
sg23
V4246x
p280
sg25
I86
sg26
I10
sg27
I87
sa(dp281
g21
VIT'S BUSTER
p282
sg23
V93x48
p283
sg25
I83
sg26
I11
sg27
I79
sa(dp284
g21
VSHININSTAR
p285
sg23
V33x53
p286
sg25
I71
sg26
I12
sg27
I68
sasg40
(lp287
sssI1542725400
(dp288
g2
Vhttp://www.skyracing.com.au/index.php?component=racing&task=race&id=108047543&meetingid=107034558&Itemid=89
p289
sg4
V29017539.1450
p290
sg6
(dp291
g8
(lp292
(lp293
I4
aI1
aI7
aI10
aa(lp294
I10
aI6
aI1
aI3
aa(lp295
I1
aI3
aI7
aI6
aa(lp296
I10
aI3
aI1
aI7
aa(lp297
I10
aI7
aI3
aI6
aa(lp298
I1
aI4
aI6
aI7
aa(lp299
I4
aI7
aI1
aI10
aa(lp300
I1
aI10
aI7
aI3
aasg18
(lp301
(dp302
g21
VKIMBERLEY POINT
p303
sg23
Vx0x21
p304
sg25
I93
sg26
I1
sg27
I94
sa(dp305
g21
VBRIERY BUNNY
p306
sg23
V0x
p307
sg25
I69
sg26
I2
sg27
I67
sa(dp308
g21
VCEARA BE
p309
sg23
V1x0x6
p310
sg25
I79
sg26
I3
sg27
I78
sa(dp311
g21
VENA BAIE
p312
sg23
V21x4x
p313
sg25
I100
sg26
I4
sg27
I100
sa(dp314
g21
VONELASTHAND
p315
sg23
V3208x
p316
sg25
I61
sg26
I5
sg27
I58
sa(dp317
g21
VPRINCESS ROXY
p318
sg23
V70x93
p319
sg25
I81
sg26
I6
sg27
I79
sa(dp320
g21
VPROPHETS PRAYER
p321
sg23
V41
p322
sg25
I97
sg26
I7
sg27
I88
sa(dp323
g21
VQUASHA
p324
sg23
V44x96
p325
sg25
I77
sg26
I8
sg27
I72
sa(dp326
g21
VQUIZZACLE NOMAD
p327
sg23
V613x9
p328
sg25
I66
sg26
I9
sg27
I61
sa(dp329
g21
VSEA STORY
p330
sg23
V1410x
p331
sg25
I86
sg26
I10
sg27
I87
sasg40
(lp332
sssI1542726000
(dp333
g2
Vhttp://www.skyracing.com.au/index.php?component=racing&task=race&id=108047558&meetingid=107034526&Itemid=89
p334
sg4
V29017561.1500
p335
sg6
(dp336
g8
(lp337
(lp338
I2
aI1
aI3
aa(lp339
I2
aI1
aI3
aa(lp340
I1
aI2
aI3
aa(lp341
I1
aI2
aI3
aa(lp342
I2
aI3
aI1
aa(lp343
I2
aI1
aI3
aa(lp344
I2
aI1
aI3
aa(lp345
I2
aI1
aI3
aasg18
(lp346
(dp347
g21
VONTOPOFTHEWORLD
p348
sg23
V11132
p349
sg25
I99
sg26
I1
sg27
I99
sa(dp350
g21
VDAREBIN
p351
sg23
V42x31
p352
sg25
I100
sg26
I2
sg27
I100
sa(dp353
g21
VMASTER OF FINANCE
p354
sg23
V13x36
p355
sg25
I91
sg26
I3
sg27
I90
sasg40
(lp356
sssI1542723000
(dp357
g2
Vhttp://www.skyracing.com.au/index.php?component=racing&task=race&id=108047528&meetingid=107034542&Itemid=89
p358
sg4
V29016356.1410
p359
sg6
(dp360
g8
(lp361
(lp362
I1
aI3
aI5
aI8
aa(lp363
I5
aI9
aI3
aI1
aa(lp364
I1
aI6
aI8
aI4
aa(lp365
I5
aI9
aI3
aI1
aa(lp366
I5
aI6
aI1
aI8
aa(lp367
I3
aI5
aI1
aI4
aa(lp368
I1
aI3
aI5
aI8
aa(lp369
I5
aI1
aI3
aI9
aasg18
(lp370
(dp371
g21
VRETICENT ANGEL
p372
sg23
V8371
p373
sg25
I100
sg26
I1
sg27
I100
sa(dp374
g21
VAEGEAN MIST
p375
sg23
V30101
p376
sg25
I91
sg26
I2
sg27
I78
sa(dp377
g21
VSHINING
p378
sg23
V63922
p379
sg25
I96
sg26
I3
sg27
I90
sa(dp380
g21
VKADIZ
p381
sg23
V47737
p382
sg25
I74
sg26
I4
sg27
I72
sa(dp383
g21
VGINVINCIBLE
p384
sg23
V33330
p385
sg25
I86
sg26
I5
sg27
I84
sa(dp386
g21
VSANDRIDGE LAD
p387
sg23
V55618
p388
sg25
I78
sg26
I6
sg27
I65
sa(dp389
g21
VDANDY LAD
p390
sg23
V23600
p391
sg25
I72
sg26
I7
sg27
I67
sa(dp392
g21
VLONDON ROCK
p393
sg23
V42549
p394
sg25
I84
sg26
I8
sg27
I75
sa(dp395
g21
VHEARTSTRING
p396
sg23
V6440
p397
sg25
I60
sg26
I9
sg27
I53
sa(dp398
g21
VCAPALA
p399
sg23
V4855x
p400
sg25
I67
sg26
I10
sg27
I58
sasg40
(lp401
sssI1542718800
(dp402
g2
Vhttp://www.skyracing.com.au/index.php?component=racing&task=race&id=108047554&meetingid=107034526&Itemid=89
p403
sg4
V29017561.1300
p404
sg6
(dp405
g8
(lp406
(lp407
I1
aI5
aI3
aI4
aa(lp408
I8
aI5
aI7
aI3
aa(lp409
I5
aI7
aI6
aI4
aa(lp410
I8
aI5
aI7
aI3
aa(lp411
I5
aI8
aI4
aI3
aa(lp412
I5
aI1
aI4
aI3
aa(lp413
I1
aI5
aI3
aI4
aa(lp414
I5
aI8
aI1
aI7
aasg18
(lp415
(dp416
g21
VMIZEN MASTER
p417
sg23
V2415x
p418
sg25
I100
sg26
I1
sg27
I100
sa(dp419
g21
VARGANTE
p420
sg23
V6388x
p421
sg25
I89
sg26
I2
sg27
I77
sa(dp422
g21
VLAZARUS
p423
sg23
V7x741
p424
sg25
I91
sg26
I3
sg27
I87
sa(dp425
g21
VTODD
p426
sg23
V3x162
p427
sg25
I82
sg26
I4
sg27
I84
sa(dp428
g21
VTOO MUCH TOO SOON
p429
sg23
V14x23
p430
sg25
I99
sg26
I5
sg27
I94
sa(dp431
g21
VSTONECOLDSOBA
p432
sg23
Vx8498
p433
sg25
I73
sg26
I6
sg27
I76
sa(dp434
g21
VFROZON
p435
sg23
V37x45
p436
sg25
I69
sg26
I7
sg27
I68
sa(dp437
g21
VMULLAGHBOY
p438
sg23
V26867
p439
sg25
I79
sg26
I8
sg27
I73
sasg40
(lp440
sssI1542719400
(dp441
g2
Vhttp://www.skyracing.com.au/index.php?component=racing&task=race&id=108047526&meetingid=107034542&Itemid=89
p442
sg4
V29016356.1310
p443
sg6
(dp444
g8
(lp445
(lp446
I1
aI7
aI5
aI9
aa(lp447
I1
aI2
aI8
aI6
aa(lp448
I1
aI8
aI5
aI3
aa(lp449
I2
aI1
aI4
aI3
aa(lp450
I1
aI2
aI6
aI8
aa(lp451
I7
aI1
aI5
aI9
aa(lp452
I1
aI7
aI3
aI2
aa(lp453
I1
aI2
aI7
aI5
aasg18
(lp454
(dp455
g21
VHUMAN NATURE
p456
sg23
V24123
p457
sg25
I100
sg26
I1
sg27
I100
sa(dp458
g21
VSWORD EXCEED
p459
sg23
V018x4
p460
sg25
I86
sg26
I2
sg27
I70
sa(dp461
g21
VDRAKEFELL
p462
sg23
Vx1x99
p463
sg25
I92
sg26
I3
sg27
I77
sa(dp464
g21
VGO FAR
p465
sg23
V8640x
p466
sg25
I63
sg26
I4
sg27
I62
sa(dp467
g21
VANONYMOUS JOHN
p468
sg23
V36551
p469
sg25
I82
sg26
I5
sg27
I88
sa(dp470
g21
VBERNIE'S BOY
p471
sg23
Vx0560
p472
sg25
I72
sg26
I6
sg27
I69
sa(dp473
g21
VSILCA MISTRESS
p474
sg23
V4227x
p475
sg25
I99
sg26
I7
sg27
I95
sa(dp476
g21
VHIGHLAND ACCLAIM
p477
sg23
V91660
p478
sg25
I74
sg26
I8
sg27
I81
sa(dp479
g21
VBIBBIDIBOBBIDIBOO
p480
sg23
V32292
p481
sg25
I78
sg26
I9
sg27
I85
sasg40
(lp482
sssI1542726600
(dp483
g2
Vhttp://www.skyracing.com.au/index.php?component=racing&task=race&id=108047530&meetingid=107034542&Itemid=89
p484
sg4
V29016356.1510
p485
sg6
(dp486
g8
(lp487
(lp488
I6
aI11
aI7
aI10
aa(lp489
I6
aI11
aI10
aI7
aa(lp490
I6
aI11
aI10
aI5
aa(lp491
I6
aI11
aI10
aI7
aa(lp492
I6
aI11
aI10
aI8
aa(lp493
I6
aI11
aI10
aI7
aa(lp494
I6
aI11
aI4
aI2
aa(lp495
I6
aI11
aI10
aI7
aasg18
(lp496
(dp497
g21
VBARTIMAEUS
p498
sg23
V
p499
sg25
I69
sg26
I1
sg27
I0
sa(dp500
g21
VDAWAAM
p501
sg23
g499
sg25
I92
sg26
I2
sg27
I0
sa(dp502
g21
VGLOBAL FREEDOM
p503
sg23
g499
sg25
I75
sg26
I3
sg27
I0
sa(dp504
g21
VKHUZAAM
p505
sg23
g499
sg25
I93
sg26
I4
sg27
I0
sa(dp506
g21
VKYBOSH
p507
sg23
V0
p508
sg25
I78
sg26
I5
sg27
I81
sa(dp509
g21
VORIGINAIRE
p510
sg23
V33
p511
sg25
I100
sg26
I6
sg27
I100
sa(dp512
g21
VPAST GLORIES
p513
sg23
V04
p514
sg25
I88
sg26
I7
sg27
I92
sa(dp515
g21
VQUEEN AND COUNTRY
p516
sg23
g499
sg25
I74
sg26
I8
sg27
I0
sa(dp517
g21
VQUE QUIERES
p518
sg23
g499
sg25
I72
sg26
I9
sg27
I0
sa(dp519
g21
VTIGERSKIN
p520
sg23
V0
p521
sg25
I85
sg26
I10
sg27
I87
sa(dp522
g21
VTOP TOP
p523
sg23
V5
p524
sg25
I99
sg26
I11
sg27
I95
sa(dp525
g21
VWATER'S EDGE
p526
sg23
g499
sg25
I80
sg26
I12
sg27
I0
sasg40
(lp527
sssI1542720000
(dp528
g2
Vhttp://www.skyracing.com.au/index.php?component=racing&task=race&id=108047540&meetingid=107034558&Itemid=89
p529
sg4
V29017539.1320
p530
sg6
(dp531
g8
(lp532
(lp533
I4
aI3
aI2
aI1
aa(lp534
I1
aI2
aI4
aI5
aa(lp535
I2
aI4
aI1
aI5
aa(lp536
I5
aI3
aI1
aI4
aa(lp537
I2
aI1
aI5
aI4
aa(lp538
I2
aI4
aI3
aI1
aa(lp539
I3
aI2
aI4
aI1
aa(lp540
I2
aI4
aI1
aI3
aasg18
(lp541
(dp542
g21
VVINO GRIEGO
p543
sg23
V065x8
p544
sg25
I86
sg26
I1
sg27
I84
sa(dp545
g21
VMONT ROYALE
p546
sg23
V91405
p547
sg25
I93
sg26
I2
sg27
I88
sa(dp548
g21
VVALLEYOFMILAN
p549
sg23
V3315x
p550
sg25
I95
sg26
I3
sg27
I98
sa(dp551
g21
VAZURE FLY
p552
sg23
Vx0x44
p553
sg25
I100
sg26
I4
sg27
I100
sa(dp554
g21
VTHOMAS CRAPPER
p555
sg23
V796x0
p556
sg25
I84
sg26
I5
sg27
I79
sasg40
(lp557
sssI1542727200
(dp558
g2
Vhttp://www.skyracing.com.au/index.php?component=racing&task=race&id=108047544&meetingid=107034558&Itemid=89
p559
sg4
V29017539.1520
p560
sg6
(dp561
g8
(lp562
(lp563
I2
aI5
aI3
aI6
aa(lp564
I2
aI6
aI4
aI9
aa(lp565
I2
aI5
aI8
aI6
aa(lp566
I2
aI6
aI7
aI5
aa(lp567
I2
aI6
aI9
aI4
aa(lp568
I2
aI5
aI3
aI6
aa(lp569
I2
aI5
aI3
aI6
aa(lp570
I2
aI6
aI5
aI3
aasg18
(lp571
(dp572
g21
VST GEORGE'S OVAL
p573
sg23
V240x0
p574
sg25
I75
sg26
I1
sg27
I76
sa(dp575
g21
VSAFFRON PRINCE
p576
sg23
V34641
p577
sg25
I100
sg26
I2
sg27
I100
sa(dp578
g21
VDOVE MOUNTAIN
p579
sg23
Vx735x
p580
sg25
I90
sg26
I3
sg27
I93
sa(dp581
g21
VOREGON GOLD
p582
sg23
Vx87x8
p583
sg25
I63
sg26
I4
sg27
I63
sa(dp584
g21
VSTOP TALKING
p585
sg23
V76752
p586
sg25
I98
sg26
I5
sg27
I96
sa(dp587
g21
VHURRICANE RITA
p588
sg23
V50254
p589
sg25
I83
sg26
I6
sg27
I89
sa(dp590
g21
VTHEREDBALLOON
p591
sg23
V2x2x7
p592
sg25
I85
sg26
I7
sg27
I78
sa(dp593
g21
VNEWQUAY CARDS
p594
sg23
V402x6
p595
sg25
I80
sg26
I8
sg27
I82
sa(dp596
g21
VTALKINGPICTURESTV
p597
sg23
V47895
p598
sg25
I71
sg26
I9
sg27
I70
sasg40
(lp599
sssI1542715800
(dp600
g2
Vhttp://www.skyracing.com.au/index.php?component=racing&task=race&id=108047524&meetingid=107034542&Itemid=89
p601
sg4
V29016356.1210
p602
sg6
(dp603
g8
(lp604
(lp605
I3
aI10
aI8
aI2
aa(lp606
I7
aI2
aI3
aI5
aa(lp607
I2
aI4
aI1
aI10
aa(lp608
I7
aI5
aI2
aI6
aa(lp609
I7
aI2
aI10
aI5
aa(lp610
I10
aI3
aI8
aI2
aa(lp611
I9
aI3
aI10
aI2
aa(lp612
I2
aI7
aI10
aI3
aasg18
(lp613
(dp614
g21
VINCUS
p615
sg23
Vx0007
p616
sg25
I80
sg26
I1
sg27
I70
sa(dp617
g21
VHATSAWAY
p618
sg23
V12934
p619
sg25
I87
sg26
I2
sg27
I91
sa(dp620
g21
VGOLDSLINGER
p621
sg23
V127x0
p622
sg25
I100
sg26
I3
sg27
I100
sa(dp623
g21
VNAFAAYES
p624
sg23
V04590
p625
sg25
I70
sg26
I4
sg27
I78
sa(dp626
g21
VKARAM ALBAARI
p627
sg23
V47x89
p628
sg25
I76
sg26
I5
sg27
I75
sa(dp629
g21
VMEETINGS MAN
p630
sg23
V5080x
p631
sg25
I90
sg26
I6
sg27
I87
sa(dp632
g21
VKNAB ROCK
p633
sg23
V3707
p634
sg25
I78
sg26
I7
sg27
I85
sa(dp635
g21
VTHRESHOLDOFADREAM
p636
sg23
V080x4
p637
sg25
I86
sg26
I8
sg27
I95
sa(dp638
g21
VBORU'S BROOK
p639
sg23
Vx07x9
p640
sg25
I97
sg26
I9
sg27
I73
sa(dp641
g21
VSHEILA'S EMPIRE
p642
sg23
V7x072
p643
sg25
I94
sg26
I10
sg27
I96
sa(dp644
g21
VLUMEN
p645
sg23
V09x00
p646
sg25
I73
sg26
I11
sg27
I81
sasg40
(lp647
sssI1542727800
(dp648
g2
Vhttp://www.skyracing.com.au/index.php?component=racing&task=race&id=108047559&meetingid=107034526&Itemid=89
p649
sg4
V29017561.1530
p650
sg6
(dp651
g8
(lp652
(lp653
I1
aI5
aI3
aI2
aa(lp654
I4
aI1
aI2
aI5
aa(lp655
I1
aI4
aI5
aI2
aa(lp656
I1
aI4
aI5
aI3
aa(lp657
I4
aI1
aI5
aI2
aa(lp658
I1
aI5
aI3
aI2
aa(lp659
I2
aI1
aI5
aI3
aa(lp660
I1
aI4
aI5
aI3
aasg18
(lp661
(dp662
g21
VSLAINTE AND THANKS
p663
sg23
V069x6
p664
sg25
I100
sg26
I1
sg27
I100
sa(dp665
g21
VGOLD CHAIN
p666
sg23
V97580
p667
sg25
I99
sg26
I2
sg27
I89
sa(dp668
g21
VYEATS BABY
p669
sg23
V0x00x
p670
sg25
I86
sg26
I3
sg27
I91
sa(dp671
g21
VMARONETTE
p672
sg23
Vx85x9
p673
sg25
I80
sg26
I4
sg27
I80
sa(dp674
g21
VROBBINA
p675
sg23
V70x05
p676
sg25
I94
sg26
I5
sg27
I95
sa(dp677
g21
VMOREHURRYLESSHASTE
p678
sg23
V3787x
p679
sg25
I83
sg26
I6
sg27
I83
sasg40
(lp680
sssI1542721200
(dp681
g2
Vhttp://www.skyracing.com.au/index.php?component=racing&task=race&id=108047527&meetingid=107034542&Itemid=89
p682
sg4
V29016356.1340
p683
sg6
(dp684
g8
(lp685
(lp686
I2
aI4
aI6
aI5
aa(lp687
I6
aI2
aI4
aI7
aa(lp688
I2
aI5
aI1
aI4
aa(lp689
I2
aI4
aI1
aI5
aa(lp690
I6
aI4
aI2
aI5
aa(lp691
I4
aI6
aI2
aI1
aa(lp692
I4
aI2
aI5
aI6
aa(lp693
I2
aI4
aI6
aI5
aasg18
(lp694
(dp695
g21
VZALSHAH
p696
sg23
V06284
p697
sg25
I75
sg26
I1
sg27
I77
sa(dp698
g21
VUNFORGIVING MINUTE
p699
sg23
V17296
p700
sg25
I100
sg26
I2
sg27
I100
sa(dp701
g21
VMISTY BIRNAM
p702
sg23
V50390
p703
sg25
I84
sg26
I3
sg27
I67
sa(dp704
g21
VMUJASSAM
p705
sg23
V65931
p706
sg25
I99
sg26
I4
sg27
I90
sa(dp707
g21
VLOS CAMACHOS
p708
sg23
V48329
p709
sg25
I92
sg26
I5
sg27
I80
sa(dp710
g21
VSUZI'S CONNOISSEUR
p711
sg23
V79551
p712
sg25
I86
sg26
I6
sg27
I86
sa(dp713
g21
VSCOFFLAW
p714
sg23
V80070
p715
sg25
I78
sg26
I7
sg27
I73
sasg40
(lp716
sssI1542720600
(dp717
g2
Vhttp://www.skyracing.com.au/index.php?component=racing&task=race&id=108047555&meetingid=107034526&Itemid=89
p718
sg4
V29017561.1330
p719
sg6
(dp720
g8
(lp721
(lp722
I2
aI3
aI1
aa(lp723
I1
aI2
aI3
aa(lp724
I1
aI2
aI3
aa(lp725
I2
aI3
aI1
aa(lp726
I3
aI2
aI1
aa(lp727
I3
aI2
aI1
aa(lp728
I2
aI3
aI1
aa(lp729
I2
aI3
aI1
aasg18
(lp730
(dp731
g21
VLILLIAN
p732
sg23
V54544
p733
sg25
I93
sg26
I1
sg27
I90
sa(dp734
g21
VSWEET DESTINATION
p735
sg23
V82341
p736
sg25
I100
sg26
I2
sg27
I100
sa(dp737
g21
VDAWNIERIVER
p738
sg23
V43621
p739
sg25
I98
sg26
I3
sg27
I95
sasg40
(lp740
sssI1542721800
(dp741
g2
Vhttp://www.skyracing.com.au/index.php?component=racing&task=race&id=108047541&meetingid=107034558&Itemid=89
p742
sg4
V29017539.1350
p743
sg6
(dp744
g8
(lp745
(lp746
I10
aI7
aI5
aI1
aa(lp747
I2
aI4
aI10
aI1
aa(lp748
I10
aI7
aI8
aI3
aa(lp749
I2
aI11
aI10
aI1
aa(lp750
I10
aI7
aI2
aI13
aa(lp751
I7
aI10
aI8
aI5
aa(lp752
I7
aI10
aI5
aI4
aa(lp753
I10
aI7
aI2
aI8
aasg18
(lp754
(dp755
g21
VWESTERN WAVE
p756
sg23
V306x2
p757
sg25
I78
sg26
I1
sg27
I90
sa(dp758
g21
VRECKLESS BEHAVIOR
p759
sg23
V927x5
p760
sg25
I75
sg26
I2
sg27
I76
sa(dp761
g21
VGAMBLING GAMUT
p762
sg23
Vx0x44
p763
sg25
I63
sg26
I3
sg27
I60
sa(dp764
g21
VBROWN BEAR
p765
sg23
V30x53
p766
sg25
I92
sg26
I4
sg27
I70
sa(dp767
g21
VDANSEUR DU LARGE
p768
sg23
V3151x
p769
sg25
I93
sg26
I5
sg27
I92
sa(dp770
g21
VKING COOL
p771
sg23
V321x5
p772
sg25
I74
sg26
I6
sg27
I75
sa(dp773
g21
VCAHILL
p774
sg23
V78312
p775
sg25
I100
sg26
I7
sg27
I97
sa(dp776
g21
VNEMEAN LION
p777
sg23
V57551
p778
sg25
I87
sg26
I8
sg27
I86
sa(dp779
g21
VMISS SPENT
p780
sg23
V59695
p781
sg25
I84
sg26
I9
sg27
I83
sa(dp782
g21
VTOOSEY
p783
sg23
V00212
p784
sg25
I98
sg26
I10
sg27
I100
sa(dp785
g21
VTHE TRIGGER
p786
sg23
V120x9
p787
sg25
I82
sg26
I11
sg27
I79
sa(dp788
g21
VEL SCORPIO
p789
sg23
V495x3
p790
sg25
I67
sg26
I12
sg27
I64
sa(dp791
g21
VYOUNG PHOENIX
p792
sg23
Vx650x
p793
sg25
I69
sg26
I13
sg27
I66
sa(dp794
g21
VEATON MILLER
p795
sg23
Vx23x3
p796
sg25
I72
sg26
I14
sg27
I71
sasg40
(lp797
sssI1542729000
(dp798
g2
Vhttp://www.skyracing.com.au/index.php?component=racing&task=race&id=108047545&meetingid=107034558&Itemid=89
p799
sg4
V29017539.1550
p800
sg6
(dp801
g8
(lp802
(lp803
I2
aI10
aI12
aI5
aa(lp804
I10
aI12
aI5
aI2
aa(lp805
I12
aI13
aI1
aI2
aa(lp806
I10
aI11
aI12
aI5
aa(lp807
I10
aI12
aI2
aI5
aa(lp808
I12
aI2
aI10
aI5
aa(lp809
I2
aI10
aI12
aI5
aa(lp810
I12
aI10
aI2
aI5
aasg18
(lp811
(dp812
g21
VELSKA
p813
sg23
V7x60x
p814
sg25
I70
sg26
I1
sg27
I76
sa(dp815
g21
VEMMAS JOY
p816
sg23
V1x
p817
sg25
I100
sg26
I2
sg27
I100
sa(dp818
g21
VFINNICK GLORY
p819
sg23
g499
sg25
I75
sg26
I3
sg27
I0
sa(dp820
g21
VFLOW AWAY
p821
sg23
g499
sg25
I74
sg26
I4
sg27
I0
sa(dp822
g21
VJUMBO DAVIS
p823
sg23
Vx2x5x
p824
sg25
I92
sg26
I5
sg27
I86
sa(dp825
g21
VMADAM MALINA
p826
sg23
g499
sg25
I89
sg26
I6
sg27
I0
sa(dp827
g21
VMELLO YELLO
p828
sg23
g499
sg25
I79
sg26
I7
sg27
I0
sa(dp829
g21
VNOISY NEIGHBOUR
p830
sg23
V0x
p831
sg25
I71
sg26
I8
sg27
I67
sa(dp832
g21
VNORTHERN PRINCESS
p833
sg23
g499
sg25
I80
sg26
I9
sg27
I0
sa(dp834
g21
VORGANDI
p835
sg23
V2x
p836
sg25
I96
sg26
I10
sg27
I98
sa(dp837
g21
VPOTTERS ANGELIQUE
p838
sg23
V63x
p839
sg25
I85
sg26
I11
sg27
I80
sa(dp840
g21
VROSE TO FAME
p841
sg23
V0x7x2
p842
sg25
I95
sg26
I12
sg27
I90
sa(dp843
g21
VTO THE CORE
p844
sg23
V8
p845
sg25
I65
sg26
I13
sg27
I75
sasg40
(lp846
sss.