(dp0
I1543147200
(dp1
S'skyracing_url'
p2
Vhttp://www.skyracing.com.au/index.php?component=racing&task=race&id=108177619&meetingid=107409586&Itemid=89
p3
sS'betfair_raceid'
p4
V29023039.1200
p5
sS'dat2'
p6
(dp7
S'ratings_auto'
p8
(lp9
(lp10
I2
aI7
aI3
aI4
aa(lp11
I2
aI7
aI3
aI1
aa(lp12
I13
aI14
aI2
aI7
aa(lp13
I7
aI2
aI13
aI1
aa(lp14
I2
aI13
aI7
aI3
aa(lp15
I7
aI2
aI3
aI4
aa(lp16
I2
aI7
aI3
aI6
aa(lp17
I2
aI7
aI13
aI3
aasS'horse_details'
p18
(lp19
(dp20
S'horse_name'
p21
VCURIOUS TIMES
p22
sS'horse_form'
p23
V43x2x
p24
sS'rating_2'
p25
I78
sS'horse_number'
p26
I1
sS'rating_1'
p27
I77
sa(dp28
g21
VDEFI BLEU
p29
sg23
V1x8x2
p30
sg25
I100
sg26
I2
sg27
I100
sa(dp31
g21
VDENWORK
p32
sg23
V336x4
p33
sg25
I95
sg26
I3
sg27
I90
sa(dp34
g21
VDOS GARDENIAS
p35
sg23
Vx3x2x
p36
sg25
I88
sg26
I4
sg27
I86
sa(dp37
g21
VFRANKLY ALL TALK
p38
sg23
V20x0x
p39
sg25
I69
sg26
I5
sg27
I59
sa(dp40
g21
VMING DYNASTY
p41
sg23
V089x9
p42
sg25
I92
sg26
I6
sg27
I73
sa(dp43
g21
VMOMUS
p44
sg23
V9x1x3
p45
sg25
I98
sg26
I7
sg27
I95
sa(dp46
g21
VMORMON
p47
sg23
V5x
p48
sg25
I84
sg26
I8
sg27
I83
sa(dp49
g21
VPOTTSIE
p50
sg23
V0009x
p51
sg25
I71
sg26
I9
sg27
I66
sa(dp52
g21
VQUICK GETAWAY
p53
sg23
V8x8x9
p54
sg25
I64
sg26
I10
sg27
I61
sa(dp55
g21
VSWAREZ
p56
sg23
V0x74x
p57
sg25
I61
sg26
I11
sg27
I57
sa(dp58
g21
VLOAD UP TIME
p59
sg23
V0
p60
sg25
I76
sg26
I12
sg27
I75
sa(dp61
g21
VMISTER FOGPATCHES
p62
sg23
V3x45
p63
sg25
I73
sg26
I13
sg27
I70
sa(dp64
g21
VCARA'S WAY
p65
sg23
V9x575
p66
sg25
I80
sg26
I14
sg27
I80
sa(dp67
g21
VKNOCKATOO HILL
p68
sg23
V0x0x8
p69
sg25
I62
sg26
I15
sg27
I65
sasS'ratings_manual'
p70
(lp71
sssI1543154400
(dp72
g2
Vhttp://www.skyracing.com.au/index.php?component=racing&task=race&id=108177623&meetingid=107409586&Itemid=89
p73
sg4
V29023039.1400
p74
sg6
(dp75
g8
(lp76
(lp77
I7
aI4
aI8
aI5
aa(lp78
I5
aI4
aI2
aI8
aa(lp79
I4
aI2
aI8
aI3
aa(lp80
I4
aI2
aI7
aI5
aa(lp81
I4
aI8
aI5
aI7
aa(lp82
I7
aI4
aI8
aI5
aa(lp83
I7
aI8
aI4
aI5
aa(lp84
I4
aI7
aI8
aI5
aasg18
(lp85
(dp86
g21
VART OF SECURITY
p87
sg23
V1x6x0
p88
sg25
I75
sg26
I1
sg27
I73
sa(dp89
g21
VCHATEAU CONTI
p90
sg23
V30x44
p91
sg25
I84
sg26
I2
sg27
I79
sa(dp92
g21
VCLASH OF D TITANS
p93
sg23
V26x66
p94
sg25
I65
sg26
I3
sg27
I66
sa(dp95
g21
VDUCA DE THAIX
p96
sg23
V0x232
p97
sg25
I94
sg26
I4
sg27
I96
sa(dp98
g21
VJETZ
p99
sg23
V228x9
p100
sg25
I86
sg26
I5
sg27
I85
sa(dp101
g21
VOR JAUNE DE SOMOZA
p102
sg23
V3150x
p103
sg25
I72
sg26
I6
sg27
I82
sa(dp104
g21
VPALOMA BLUE
p105
sg23
V1340x
p106
sg25
I100
sg26
I7
sg27
I100
sa(dp107
g21
VROARING BULL
p108
sg23
V660x1
p109
sg25
I97
sg26
I8
sg27
I92
sa(dp110
g21
VTHE JAM MAN
p111
sg23
Vx21x6
p112
sg25
I80
sg26
I9
sg27
I69
sasg70
(lp113
sssI1543156200
(dp114
g2
Vhttp://www.skyracing.com.au/index.php?component=racing&task=race&id=108177624&meetingid=107409586&Itemid=89
p115
sg4
V29023039.1430
p116
sg6
(dp117
g8
(lp118
(lp119
I3
aI15
aI5
aI12
aa(lp120
I4
aI1
aI2
aI16
aa(lp121
I5
aI3
aI8
aI12
aa(lp122
I16
aI5
aI9
aI6
aa(lp123
I13
aI5
aI17
aI24
aa(lp124
I15
aI3
aI5
aI12
aa(lp125
I15
aI3
aI2
aI1
aa(lp126
I5
aI3
aI15
aI16
aasg18
(lp127
(dp128
g21
VDOUNIKOS
p129
sg23
V4000x
p130
sg25
I98
sg26
I1
sg27
I75
sa(dp131
g21
VGENERAL PRINCIPLE
p132
sg23
V0461x
p133
sg25
I96
sg26
I2
sg27
I90
sa(dp134
g21
VOUT SAM
p135
sg23
V033x1
p136
sg25
I94
sg26
I3
sg27
I100
sa(dp137
g21
VRAZ DE MAREE
p138
sg23
Vx0x00
p139
sg25
I60
sg26
I4
sg27
I55
sa(dp140
g21
VROGUE ANGEL
p141
sg23
Vx1362
p142
sg25
I89
sg26
I5
sg27
I95
sa(dp143
g21
VSQUOUATEUR
p144
sg23
V0300x
p145
sg25
I76
sg26
I6
sg27
I82
sa(dp146
g21
VTOUT EST PERMIS
p147
sg23
V587x1
p148
sg25
I85
sg26
I7
sg27
I87
sa(dp149
g21
VWOODS WELL
p150
sg23
V506x1
p151
sg25
I82
sg26
I8
sg27
I85
sa(dp152
g21
VARKWRISHT
p153
sg23
Vx76x3
p154
sg25
I58
sg26
I9
sg27
I58
sa(dp155
g21
VMAGIC OF LIGHT
p156
sg23
V0241x
p157
sg25
I73
sg26
I10
sg27
I79
sa(dp158
g21
VSPACE CADET
p159
sg23
V4200x
p160
sg25
I66
sg26
I11
sg27
I68
sa(dp161
g21
VSPIDER WEB
p162
sg23
V2x0x1
p163
sg25
I87
sg26
I12
sg27
I92
sa(dp164
g21
VEIGHT TILL LATE
p165
sg23
V21313
p166
sg25
I67
sg26
I13
sg27
I70
sa(dp167
g21
VMR DIABLO
p168
sg23
V004x0
p169
sg25
I52
sg26
I14
sg27
I51
sa(dp170
g21
VMINELLA BEAU
p171
sg23
Vx1430
p172
sg25
I100
sg26
I15
sg27
I97
sa(dp173
g21
VTIMIYAN
p174
sg23
V60070
p175
sg25
I70
sg26
I16
sg27
I78
sa(dp176
g21
VNA TRACHTALAI ABU
p177
sg23
V23332
p178
sg25
I56
sg26
I17
sg27
I59
sa(dp179
g21
VOUR FATHER
p180
sg23
Vx92x0
p181
sg25
I65
sg26
I18
sg27
I69
sa(dp182
g21
VPOORMANS HILL
p183
sg23
V07x40
p184
sg25
I80
sg26
I19
sg27
I61
sa(dp185
g21
VMINE NOW
p186
sg23
V333x5
p187
sg25
I69
sg26
I20
sg27
I74
sa(dp188
g21
VNED STARK
p189
sg23
V52x0x
p190
sg25
I90
sg26
I21
sg27
I63
sa(dp191
g21
VYOUNG TURK
p192
sg23
Vx4518
p193
sg25
I71
sg26
I22
sg27
I65
sa(dp194
g21
VKYLECRUE
p195
sg23
V72368
p196
sg25
I51
sg26
I23
sg27
I48
sa(dp197
g21
VSWINGBRIDGE
p198
sg23
V36105
p199
sg25
I79
sg26
I24
sg27
I84
sa(dp200
g21
VGRAND PARTNER
p201
sg23
V06503
p202
sg25
I49
sg26
I25
sg27
I49
sa(dp203
g21
VNEDDYVAUGHAN
p204
sg23
V84112
p205
sg25
I63
sg26
I26
sg27
I66
sa(dp206
g21
VUNDRESSED
p207
sg23
V2259x
p208
sg25
I53
sg26
I27
sg27
I52
sa(dp209
g21
VPRESENTING JULIO
p210
sg23
V06330
p211
sg25
I54
sg26
I28
sg27
I54
sasg70
(lp212
sssI1543149000
(dp213
g2
Vhttp://www.skyracing.com.au/index.php?component=racing&task=race&id=108177620&meetingid=107409586&Itemid=89
p214
sg4
V29023039.1230
p215
sg6
(dp216
g8
(lp217
(lp218
I6
aI1
aI2
aI3
aa(lp219
I6
aI3
aI7
aI2
aa(lp220
I7
aI8
aI1
aI2
aa(lp221
I6
aI2
aI7
aI3
aa(lp222
I6
aI2
aI7
aI1
aa(lp223
I6
aI1
aI2
aI7
aa(lp224
I6
aI1
aI2
aI3
aa(lp225
I6
aI2
aI7
aI1
aasg18
(lp226
(dp227
g21
VPUT THE KETTLE ON
p228
sg23
V52
p229
sg25
I95
sg26
I1
sg27
I99
sa(dp230
g21
VWHATUCALLHER
p231
sg23
V52x2
p232
sg25
I93
sg26
I2
sg27
I92
sa(dp233
g21
VASK NEILUS
p234
sg23
V0x408
p235
sg25
I89
sg26
I3
sg27
I86
sa(dp236
g21
VDRAGON HOUDINI
p237
sg23
V8x8
p238
sg25
I67
sg26
I4
sg27
I76
sa(dp239
g21
VASK YOUR MOTHER
p240
sg23
V
p241
sg25
I77
sg26
I5
sg27
I0
sa(dp242
g21
VGYPSY ISLAND
p243
sg23
V1x
p244
sg25
I100
sg26
I6
sg27
I100
sa(dp245
g21
VHELLY HANSUM
p246
sg23
V60
p247
sg25
I80
sg26
I7
sg27
I83
sa(dp248
g21
VRETRACE
p249
sg23
V80x7
p250
sg25
I71
sg26
I8
sg27
I80
sa(dp251
g21
VSOME DAY JEMIMA
p252
sg23
g241
sg25
I82
sg26
I9
sg27
I0
sasg70
(lp253
sssI1543150200
(dp254
g2
Vhttp://www.skyracing.com.au/index.php?component=racing&task=race&id=108177634&meetingid=107039553&Itemid=89
p255
sg4
V29023042.1250
p256
sg6
(dp257
g8
(lp258
(lp259
I8
aI1
aI2
aI4
aa(lp260
I4
aI5
aI1
aI15
aa(lp261
I11
aI4
aI2
aI8
aa(lp262
I10
aI11
aI5
aI1
aa(lp263
I12
aI1
aI15
aI3
aa(lp264
I8
aI4
aI1
aI2
aa(lp265
I1
aI8
aI4
aI9
aa(lp266
I1
aI4
aI8
aI11
aasg18
(lp267
(dp268
g21
VLEE SIDE LADY
p269
sg23
V534x4
p270
sg25
I98
sg26
I1
sg27
I98
sa(dp271
g21
VSTONEMADFORSPEED
p272
sg23
V95253
p273
sg25
I93
sg26
I2
sg27
I96
sa(dp274
g21
VTACTICAL MANOEUVRE
p275
sg23
V307x6
p276
sg25
I68
sg26
I3
sg27
I72
sa(dp277
g21
VCRACKING DESTINY
p278
sg23
V46x57
p279
sg25
I96
sg26
I4
sg27
I94
sa(dp280
g21
VINSPIREUS
p281
sg23
V74x45
p282
sg25
I86
sg26
I5
sg27
I89
sa(dp283
g21
VVEILED SECRET
p284
sg23
V247x0
p285
sg25
I75
sg26
I6
sg27
I79
sa(dp286
g21
VMOUNTAIN OF MOURNE
p287
sg23
V2484x
p288
sg25
I71
sg26
I7
sg27
I77
sa(dp289
g21
VGONNABEGOOD
p290
sg23
V146x1
p291
sg25
I100
sg26
I8
sg27
I100
sa(dp292
g21
VJIGSAW FINANCIAL
p293
sg23
V2157x
p294
sg25
I92
sg26
I9
sg27
I73
sa(dp295
g21
VL'ATTESA
p296
sg23
V08800
p297
sg25
I62
sg26
I10
sg27
I60
sa(dp298
g21
VMICRAS
p299
sg23
V30590
p300
sg25
I60
sg26
I11
sg27
I63
sa(dp301
g21
VHILL FORT
p302
sg23
V2339x
p303
sg25
I66
sg26
I12
sg27
I69
sa(dp304
g21
VSLAYING THE DRAGON
p305
sg23
V20627
p306
sg25
I80
sg26
I13
sg27
I83
sa(dp307
g21
VKAYF CHARMER
p308
sg23
V0626x
p309
sg25
I79
sg26
I14
sg27
I66
sa(dp310
g21
VTIGER SAM
p311
sg23
Vx4005
p312
sg25
I65
sg26
I15
sg27
I65
sa(dp313
g21
VMOREHURRYLESSHASTE
p314
sg23
V3787x
p315
sg25
I77
sg26
I16
sg27
I80
sa(dp316
g21
VSHINTORI
p317
sg23
V9x7x3
p318
sg25
I84
sg26
I17
sg27
I86
sa(dp319
g21
VPRINCESS MIDNIGHT
p320
sg23
V00x04
p321
sg25
I89
sg26
I18
sg27
I91
sasg70
(lp322
sssI1543157400
(dp323
g2
Vhttp://www.skyracing.com.au/index.php?component=racing&task=race&id=108177638&meetingid=107039553&Itemid=89
p324
sg4
V29023042.1450
p325
sg6
(dp326
g8
(lp327
(lp328
I2
aI7
aI4
aI8
aa(lp329
I3
aI1
aI6
aI5
aa(lp330
I7
aI4
aI8
aI2
aa(lp331
I3
aI6
aI1
aI5
aa(lp332
I7
aI1
aI8
aI5
aa(lp333
I7
aI2
aI4
aI1
aa(lp334
I4
aI2
aI7
aI1
aa(lp335
I7
aI1
aI2
aI3
aasg18
(lp336
(dp337
g21
VUN PROPHETE
p338
sg23
V4917x
p339
sg25
I85
sg26
I1
sg27
I80
sa(dp340
g21
VWATCOMBE HEIGHTS
p341
sg23
V436x1
p342
sg25
I100
sg26
I2
sg27
I100
sa(dp343
g21
VVALSEUR DU GRANVAL
p344
sg23
V197x3
p345
sg25
I70
sg26
I3
sg27
I70
sa(dp346
g21
VNIGHT OF SIN
p347
sg23
V35x71
p348
sg25
I98
sg26
I4
sg27
I87
sa(dp349
g21
VADMIRAL'S SECRET
p350
sg23
V5911x
p351
sg25
I82
sg26
I5
sg27
I77
sa(dp352
g21
VENVOLE TOI
p353
sg23
V461x5
p354
sg25
I75
sg26
I6
sg27
I68
sa(dp355
g21
VNEW MILLENNIUM
p356
sg23
V332x1
p357
sg25
I94
sg26
I7
sg27
I94
sa(dp358
g21
VDARK INVADER
p359
sg23
V72351
p360
sg25
I79
sg26
I8
sg27
I84
sasg70
(lp361
sssI1543150800
(dp362
g2
Vhttp://www.skyracing.com.au/index.php?component=racing&task=race&id=108177621&meetingid=107409586&Itemid=89
p363
sg4
V29023039.1300
p364
sg6
(dp365
g8
(lp366
(lp367
I1
aI7
aI4
aI3
aa(lp368
I3
aI7
aI5
aI2
aa(lp369
I5
aI3
aI2
aI4
aa(lp370
I5
aI2
aI3
aI4
aa(lp371
I1
aI2
aI7
aI8
aa(lp372
I1
aI7
aI4
aI3
aa(lp373
I3
aI1
aI6
aI4
aa(lp374
I1
aI7
aI3
aI5
aasg18
(lp375
(dp376
g21
VDINONS
p377
sg23
V11111
p378
sg25
I100
sg26
I1
sg27
I100
sa(dp379
g21
VCHOUNGAYA
p380
sg23
V23x13
p381
sg25
I80
sg26
I2
sg27
I79
sa(dp382
g21
VFELIX DESJY
p383
sg23
V65x17
p384
sg25
I97
sg26
I3
sg27
I85
sa(dp385
g21
VFIRST APPROACH
p386
sg23
V9x121
p387
sg25
I92
sg26
I4
sg27
I94
sa(dp388
g21
VMAGNIUM
p389
sg23
V71x2
p390
sg25
I76
sg26
I5
sg27
I76
sa(dp391
g21
VSOMETIME SOON
p392
sg23
V45x21
p393
sg25
I87
sg26
I6
sg27
I83
sa(dp394
g21
VEASY GAME
p395
sg23
Vx1123
p396
sg25
I82
sg26
I7
sg27
I95
sa(dp397
g21
VUNDER SURVEILLANCE
p398
sg23
V14301
p399
sg25
I67
sg26
I8
sg27
I65
sa(dp400
g21
VWESTERN VICTORY
p401
sg23
V442x1
p402
sg25
I71
sg26
I9
sg27
I70
sasg70
(lp403
sssI1543158000
(dp404
g2
Vhttp://www.skyracing.com.au/index.php?component=racing&task=race&id=108177625&meetingid=107409586&Itemid=89
p405
sg4
V29023039.1500
p406
sg6
(dp407
g8
(lp408
(lp409
I2
aI7
aI8
aI6
aa(lp410
I1
aI2
aI4
aI14
aa(lp411
I2
aI4
aI13
aI12
aa(lp412
I12
aI4
aI8
aI2
aa(lp413
I7
aI2
aI8
aI13
aa(lp414
I2
aI7
aI6
aI8
aa(lp415
I7
aI2
aI6
aI10
aa(lp416
I2
aI7
aI4
aI8
aasg18
(lp417
(dp418
g21
VTIGRIS RIVER
p419
sg23
V6x50x
p420
sg25
I79
sg26
I1
sg27
I80
sa(dp421
g21
VDE NAME ESCAPES ME
p422
sg23
V0x3x1
p423
sg25
I100
sg26
I2
sg27
I100
sa(dp424
g21
VPRINCE GARYANTLE
p425
sg23
V0033x
p426
sg25
I73
sg26
I3
sg27
I77
sa(dp427
g21
VWALK TO FREEDOM
p428
sg23
V4x5x0
p429
sg25
I72
sg26
I4
sg27
I71
sa(dp430
g21
VWESTLAND ROW
p431
sg23
V1010x
p432
sg25
I76
sg26
I5
sg27
I79
sa(dp433
g21
VEDELPOUR
p434
sg23
Vx2x03
p435
sg25
I86
sg26
I6
sg27
I90
sa(dp436
g21
VHIGH SPARROW
p437
sg23
V23x34
p438
sg25
I97
sg26
I7
sg27
I99
sa(dp439
g21
VPASS THE BALL
p440
sg23
V11313
p441
sg25
I87
sg26
I8
sg27
I93
sa(dp442
g21
VSALTY BOY
p443
sg23
Vx3431
p444
sg25
I94
sg26
I9
sg27
I85
sa(dp445
g21
VAIR SUPREMACY
p446
sg23
V11150
p447
sg25
I91
sg26
I10
sg27
I73
sa(dp448
g21
VHARETH
p449
sg23
V13x00
p450
sg25
I69
sg26
I11
sg27
I71
sa(dp451
g21
VJIMMY BREEKIE
p452
sg23
V365x0
p453
sg25
I65
sg26
I12
sg27
I63
sa(dp454
g21
VRAIN IN SPAIN
p455
sg23
V66211
p456
sg25
I82
sg26
I13
sg27
I89
sa(dp457
g21
VNOBODY HOME
p458
sg23
Vx9848
p459
sg25
I62
sg26
I14
sg27
I64
sasg70
(lp460
sssI1543151400
(dp461
g2
Vhttp://www.skyracing.com.au/index.php?component=racing&task=race&id=108177649&meetingid=107039569&Itemid=89
p462
sg4
V29023041.1310
p463
sg6
(dp464
g8
(lp465
(lp466
I1
aI4
aI10
aI3
aa(lp467
I1
aI6
aI7
aI3
aa(lp468
I1
aI3
aI4
aI6
aa(lp469
I1
aI2
aI6
aI9
aa(lp470
I1
aI7
aI6
aI11
aa(lp471
I10
aI1
aI4
aI5
aa(lp472
I1
aI3
aI4
aI11
aa(lp473
I1
aI6
aI4
aI10
aasg18
(lp474
(dp475
g21
VQUIZ MASTER
p476
sg23
V222x2
p477
sg25
I99
sg26
I1
sg27
I100
sa(dp478
g21
VABLAZING
p479
sg23
V21x0x
p480
sg25
I86
sg26
I2
sg27
I78
sa(dp481
g21
VASYLO
p482
sg23
V9x1x7
p483
sg25
I100
sg26
I3
sg27
I92
sa(dp484
g21
VFRANKIE RAPPER
p485
sg23
Vx16x2
p486
sg25
I94
sg26
I4
sg27
I99
sa(dp487
g21
VJALINGO
p488
sg23
V95358
p489
sg25
I83
sg26
I5
sg27
I88
sa(dp490
g21
VCANNY TOM
p491
sg23
V23807
p492
sg25
I70
sg26
I6
sg27
I71
sa(dp493
g21
VPASSAM
p494
sg23
V5393x
p495
sg25
I78
sg26
I7
sg27
I75
sa(dp496
g21
VDESERT DE BRUYERE
p497
sg23
Vx633x
p498
sg25
I70
sg26
I8
sg27
I73
sa(dp499
g21
VSILENT ENCORE
p500
sg23
V5243x
p501
sg25
I76
sg26
I9
sg27
I80
sa(dp502
g21
VPERSHING MISSILE
p503
sg23
V7x22x
p504
sg25
I90
sg26
I10
sg27
I95
sa(dp505
g21
VDISCAY
p506
sg23
V5x17x
p507
sg25
I88
sg26
I11
sg27
I86
sa(dp508
g21
VBERTIE MOON
p509
sg23
V44089
p510
sg25
I73
sg26
I12
sg27
I65
sa(dp511
g21
VSUNDANCE BOY
p512
sg23
V70x4x
p513
sg25
I64
sg26
I13
sg27
I68
sasg70
(lp514
sssI1543155600
(dp515
g2
Vhttp://www.skyracing.com.au/index.php?component=racing&task=race&id=108177637&meetingid=107039553&Itemid=89
p516
sg4
V29023042.1420
p517
sg6
(dp518
g8
(lp519
(lp520
I1
aI5
aI4
aI3
aa(lp521
I1
aI4
aI5
aI6
aa(lp522
I1
aI6
aI5
aI4
aa(lp523
I1
aI4
aI5
aI6
aa(lp524
I4
aI1
aI5
aI6
aa(lp525
I1
aI5
aI3
aI6
aa(lp526
I1
aI4
aI5
aI3
aa(lp527
I1
aI5
aI4
aI6
aasg18
(lp528
(dp529
g21
VLIL ROCKERFELLER
p530
sg23
Vx1x11
p531
sg25
I100
sg26
I1
sg27
I100
sa(dp532
g21
VNORSE DA
p533
sg23
V0x07x
p534
sg25
I80
sg26
I2
sg27
I79
sa(dp535
g21
VST ERNEY
p536
sg23
V2x
p537
sg25
I86
sg26
I3
sg27
I86
sa(dp538
g21
VTOBEFAIR
p539
sg23
V9x3x8
p540
sg25
I98
sg26
I4
sg27
I94
sa(dp541
g21
VHOO BALLY DIVA
p542
sg23
V1x1x2
p543
sg25
I92
sg26
I5
sg27
I99
sa(dp544
g21
VTHE OVERFLOW
p545
sg23
V1x505
p546
sg25
I81
sg26
I6
sg27
I84
sasg70
(lp547
sssI1543158600
(dp548
g2
Vhttp://www.skyracing.com.au/index.php?component=racing&task=race&id=108177653&meetingid=107039569&Itemid=89
p549
sg4
V29023041.1510
p550
sg6
(dp551
g8
(lp552
(lp553
I10
aI6
aI14
aI1
aa(lp554
I1
aI2
aI3
aI6
aa(lp555
I1
aI6
aI12
aI13
aa(lp556
I1
aI2
aI5
aI6
aa(lp557
I1
aI6
aI8
aI10
aa(lp558
I6
aI10
aI1
aI14
aa(lp559
I6
aI10
aI14
aI8
aa(lp560
I1
aI6
aI10
aI2
aasg18
(lp561
(dp562
g21
VMORTENS LEAM
p563
sg23
V08x61
p564
sg25
I86
sg26
I1
sg27
I89
sa(dp565
g21
VZAYFIRE ARAMIS
p566
sg23
V134x0
p567
sg25
I74
sg26
I2
sg27
I71
sa(dp568
g21
VFRANKIE BALLOU
p569
sg23
V1218x
p570
sg25
I80
sg26
I3
sg27
I80
sa(dp571
g21
VON RAGLAN ROAD
p572
sg23
V24x27
p573
sg25
I77
sg26
I4
sg27
I86
sa(dp574
g21
VNOBEL LEADER
p575
sg23
V4x31x
p576
sg25
I91
sg26
I5
sg27
I73
sa(dp577
g21
VFINNEGAN'S GARDEN
p578
sg23
V161x2
p579
sg25
I94
sg26
I6
sg27
I94
sa(dp580
g21
VPRESENTING STREAK
p581
sg23
V77070
p582
sg25
I67
sg26
I7
sg27
I60
sa(dp583
g21
VROYAL ACT
p584
sg23
V110x0
p585
sg25
I87
sg26
I8
sg27
I77
sa(dp586
g21
VFACT FLOW
p587
sg23
V410x0
p588
sg25
I63
sg26
I9
sg27
I64
sa(dp589
g21
VGLOBAL DOMINATION
p590
sg23
V3212x
p591
sg25
I100
sg26
I10
sg27
I100
sa(dp592
g21
VJUST SPOT
p593
sg23
V7036x
p594
sg25
I69
sg26
I11
sg27
I68
sa(dp595
g21
VHEURTEVENT
p596
sg23
V15135
p597
sg25
I78
sg26
I12
sg27
I83
sa(dp598
g21
VLOCH GARMAN ARIS
p599
sg23
V50x63
p600
sg25
I71
sg26
I13
sg27
I68
sa(dp601
g21
VKAVANAGHS CORNER
p602
sg23
V4221x
p603
sg25
I99
sg26
I14
sg27
I91
sasg70
(lp604
sssI1543152000
(dp605
g2
Vhttp://www.skyracing.com.au/index.php?component=racing&task=race&id=108177635&meetingid=107039553&Itemid=89
p606
sg4
V29023042.1320
p607
sg6
(dp608
g8
(lp609
(lp610
I2
aI4
aI6
aI3
aa(lp611
I7
aI5
aI1
aI2
aa(lp612
I2
aI4
aI1
aI6
aa(lp613
I7
aI1
aI2
aI3
aa(lp614
I7
aI5
aI2
aI4
aa(lp615
I2
aI4
aI6
aI1
aa(lp616
I2
aI4
aI7
aI6
aa(lp617
I2
aI7
aI4
aI1
aasg18
(lp618
(dp619
g21
VTHREE STAR GENERAL
p620
sg23
V3x580
p621
sg25
I82
sg26
I1
sg27
I83
sa(dp622
g21
VNORSE LEGEND
p623
sg23
V453x1
p624
sg25
I100
sg26
I2
sg27
I100
sa(dp625
g21
VMIRO
p626
sg23
V43030
p627
sg25
I79
sg26
I3
sg27
I86
sa(dp628
g21
VFENLONS COURT
p629
sg23
V462x1
p630
sg25
I99
sg26
I4
sg27
I99
sa(dp631
g21
VTEA TIME FRED
p632
sg23
V24273
p633
sg25
I77
sg26
I5
sg27
I75
sa(dp634
g21
VVANGO DE VAIGE
p635
sg23
V060x3
p636
sg25
I88
sg26
I6
sg27
I93
sa(dp637
g21
VSYDNEY DE BAUNE
p638
sg23
Vx153x
p639
sg25
I91
sg26
I7
sg27
I80
sa(dp640
g21
VAVITHOS
p641
sg23
V0x7x3
p642
sg25
I70
sg26
I8
sg27
I70
sasg70
(lp643
sssI1543159200
(dp644
g2
Vhttp://www.skyracing.com.au/index.php?component=racing&task=race&id=108177639&meetingid=107039553&Itemid=89
p645
sg4
V29023042.1520
p646
sg6
(dp647
g8
(lp648
(lp649
I3
aI2
aI1
aI8
aa(lp650
I2
aI9
aI1
aI6
aa(lp651
I2
aI9
aI1
aI6
aa(lp652
I2
aI9
aI1
aI6
aa(lp653
I2
aI1
aI12
aI9
aa(lp654
I3
aI2
aI1
aI8
aa(lp655
I2
aI3
aI1
aI8
aa(lp656
I2
aI1
aI9
aI3
aasg18
(lp657
(dp658
g21
VCHEEKY RASCAL
p659
sg23
V82618
p660
sg25
I92
sg26
I1
sg27
I94
sa(dp661
g21
VFANFAN DU SEUIL
p662
sg23
V1x9
p663
sg25
I100
sg26
I2
sg27
I97
sa(dp664
g21
VOUR POWER
p665
sg23
V41261
p666
sg25
I99
sg26
I3
sg27
I100
sa(dp667
g21
VAMENHOTEPTHETHIRD
p668
sg23
Vx58x6
p669
sg25
I71
sg26
I4
sg27
I70
sa(dp670
g21
VBANKSY'S ART
p671
sg23
V34473
p672
sg25
I79
sg26
I5
sg27
I84
sa(dp673
g21
VBUNCH OF THYME
p674
sg23
V06x35
p675
sg25
I77
sg26
I6
sg27
I76
sa(dp676
g21
VJOHNI BOXIT
p677
sg23
V62623
p678
sg25
I81
sg26
I7
sg27
I89
sa(dp679
g21
VMANTOVANI
p680
sg23
V44x
p681
sg25
I94
sg26
I8
sg27
I91
sa(dp682
g21
VMETATRONS CUBE
p683
sg23
V14604
p684
sg25
I89
sg26
I9
sg27
I80
sa(dp685
g21
VTRUE THOUGHTS
p686
sg23
Vx400x
p687
sg25
I69
sg26
I10
sg27
I71
sa(dp688
g21
VGOLDEN FOOTSTEPS
p689
sg23
V6900x
p690
sg25
I74
sg26
I11
sg27
I74
sa(dp691
g21
VPOWERFUL SOCIETY
p692
sg23
V60552
p693
sg25
I84
sg26
I12
sg27
I78
sasg70
(lp694
sssI1543152600
(dp695
g2
Vhttp://www.skyracing.com.au/index.php?component=racing&task=race&id=108177622&meetingid=107409586&Itemid=89
p696
sg4
V29023039.1330
p697
sg6
(dp698
g8
(lp699
(lp700
I6
aI13
aI4
aI10
aa(lp701
I1
aI3
aI2
aI15
aa(lp702
I2
aI15
aI13
aI3
aa(lp703
I2
aI15
aI13
aI8
aa(lp704
I15
aI13
aI1
aI2
aa(lp705
I13
aI6
aI2
aI4
aa(lp706
I13
aI4
aI6
aI10
aa(lp707
I13
aI2
aI15
aI6
aasg18
(lp708
(dp709
g21
VSCHMIDT
p710
sg23
V29440
p711
sg25
I67
sg26
I1
sg27
I66
sa(dp712
g21
VANGE D'OR JAVILEX
p713
sg23
V3x0x0
p714
sg25
I90
sg26
I2
sg27
I90
sa(dp715
g21
VLINGER
p716
sg23
V55787
p717
sg25
I82
sg26
I3
sg27
I69
sa(dp718
g21
VWESTERN HONOUR
p719
sg23
V4x4x2
p720
sg25
I100
sg26
I4
sg27
I95
sa(dp721
g21
VSTANDER
p722
sg23
V00150
p723
sg25
I64
sg26
I5
sg27
I62
sa(dp724
g21
VKILKEASKINS FIRST
p725
sg23
V4011x
p726
sg25
I95
sg26
I6
sg27
I100
sa(dp727
g21
VBANJO
p728
sg23
V4x529
p729
sg25
I88
sg26
I7
sg27
I87
sa(dp730
g21
VCAPTAIN MORLEY
p731
sg23
V9x080
p732
sg25
I76
sg26
I8
sg27
I68
sa(dp733
g21
VKELTER'S DAWN
p734
sg23
Vx607x
p735
sg25
I79
sg26
I9
sg27
I79
sa(dp736
g21
VSHARE THE HONOUR
p737
sg23
V331x6
p738
sg25
I94
sg26
I10
sg27
I93
sa(dp739
g21
VBACK TO BATAAN
p740
sg23
V8x76x
p741
sg25
I72
sg26
I11
sg27
I76
sa(dp742
g21
VWINSTON WOLFE
p743
sg23
V83576
p744
sg25
I84
sg26
I12
sg27
I83
sa(dp745
g21
VWARNAQ
p746
sg23
V30441
p747
sg25
I98
sg26
I13
sg27
I97
sa(dp748
g21
VWADE HARPER
p749
sg23
V5590x
p750
sg25
I74
sg26
I14
sg27
I78
sa(dp751
g21
VFOLLY DAT
p752
sg23
V91x63
p753
sg25
I68
sg26
I15
sg27
I74
sa(dp754
g21
VTHE CHAPEL FIELD
p755
sg23
V005x
p756
sg25
I63
sg26
I16
sg27
I63
sa(dp757
g21
VEURO SO BRAVE
p758
sg23
V24602
p759
sg25
I87
sg26
I17
sg27
I86
sasg70
(lp760
sssI1543159800
(dp761
g2
Vhttp://www.skyracing.com.au/index.php?component=racing&task=race&id=108177626&meetingid=107409586&Itemid=89
p762
sg4
V29023039.1530
p763
sg6
(dp764
g8
(lp765
(lp766
I4
aI1
aI5
aI10
aa(lp767
I1
aI4
aI10
aI9
aa(lp768
I4
aI9
aI3
aI2
aa(lp769
I1
aI4
aI10
aI9
aa(lp770
I4
aI10
aI7
aI6
aa(lp771
I4
aI1
aI5
aI10
aa(lp772
I4
aI5
aI1
aI6
aa(lp773
I4
aI1
aI10
aI9
aasg18
(lp774
(dp775
g21
VQUEENS BOULEVARD
p776
sg23
V110
p777
sg25
I93
sg26
I1
sg27
I97
sa(dp778
g21
VCARAVATION
p779
sg23
V12x1
p780
sg25
I87
sg26
I2
sg27
I85
sa(dp781
g21
VGEMMA'S FLAME
p782
sg23
V1x801
p783
sg25
I77
sg26
I3
sg27
I75
sa(dp784
g21
VYUKON LIL
p785
sg23
V31x31
p786
sg25
I96
sg26
I4
sg27
I100
sa(dp787
g21
VBALLYDUNBLAZE
p788
sg23
V1x
p789
sg25
I100
sg26
I5
sg27
I94
sa(dp790
g21
VEMILY MOON
p791
sg23
V1x
p792
sg25
I92
sg26
I6
sg27
I83
sa(dp793
g21
VSILK AND SAND
p794
sg23
V31
p795
sg25
I81
sg26
I7
sg27
I89
sa(dp796
g21
VTENS OR BETTER
p797
sg23
V589x3
p798
sg25
I70
sg26
I8
sg27
I72
sa(dp799
g21
VWAIT FOR NO ONE
p800
sg23
V1x522
p801
sg25
I79
sg26
I9
sg27
I78
sa(dp802
g21
VBARRINGTON COURT
p803
sg23
V222x
p804
sg25
I86
sg26
I10
sg27
I90
sa(dp805
g21
VTWO SHOE TOM
p806
sg23
V54x2
p807
sg25
I74
sg26
I11
sg27
I74
sasg70
(lp808
sssI1543156800
(dp809
g2
Vhttp://www.skyracing.com.au/index.php?component=racing&task=race&id=108177652&meetingid=107039569&Itemid=89
p810
sg4
V29023041.1440
p811
sg6
(dp812
g8
(lp813
(lp814
I2
aI4
aI3
aI6
aa(lp815
I4
aI8
aI1
aI7
aa(lp816
I1
aI2
aI8
aI6
aa(lp817
I4
aI8
aI1
aI7
aa(lp818
I8
aI4
aI7
aI5
aa(lp819
I4
aI2
aI6
aI3
aa(lp820
I4
aI6
aI2
aI3
aa(lp821
I4
aI8
aI2
aI1
aasg18
(lp822
(dp823
g21
VOH LAND ABLOOM
p824
sg23
V207x4
p825
sg25
I71
sg26
I1
sg27
I75
sa(dp826
g21
VNOTWHATIAM
p827
sg23
Vx0x10
p828
sg25
I99
sg26
I2
sg27
I100
sa(dp829
g21
VOCEAN COVE
p830
sg23
V321x9
p831
sg25
I85
sg26
I3
sg27
I89
sa(dp832
g21
VMALAPIE
p833
sg23
V3931x
p834
sg25
I100
sg26
I4
sg27
I95
sa(dp835
g21
VLANDIN
p836
sg23
V00x00
p837
sg25
I78
sg26
I5
sg27
I70
sa(dp838
g21
VCRIXUS'S ESCAPE
p839
sg23
V1x1x7
p840
sg25
I92
sg26
I6
sg27
I87
sa(dp841
g21
VBRYDEN BOY
p842
sg23
V2708x
p843
sg25
I76
sg26
I7
sg27
I77
sa(dp844
g21
VSILVA ECLIPSE
p845
sg23
V228x4
p846
sg25
I84
sg26
I8
sg27
I81
sasg70
(lp847
sssI1543153200
(dp848
g2
Vhttp://www.skyracing.com.au/index.php?component=racing&task=race&id=108177650&meetingid=107039569&Itemid=89
p849
sg4
V29023041.1340
p850
sg6
(dp851
g8
(lp852
(lp853
I1
aI6
aI2
aI10
aa(lp854
I1
aI6
aI2
aI9
aa(lp855
I1
aI9
aI3
aI4
aa(lp856
I1
aI6
aI9
aI2
aa(lp857
I6
aI1
aI2
aI9
aa(lp858
I1
aI6
aI2
aI10
aa(lp859
I1
aI6
aI2
aI10
aa(lp860
I1
aI6
aI2
aI9
aasg18
(lp861
(dp862
g21
VOUR DOT'S BABY
p863
sg23
V88x19
p864
sg25
I100
sg26
I1
sg27
I100
sa(dp865
g21
VCODED MESSAGE
p866
sg23
Vx634x
p867
sg25
I94
sg26
I2
sg27
I95
sa(dp868
g21
VDIAMOND ROSE
p869
sg23
V55x7
p870
sg25
I84
sg26
I3
sg27
I85
sa(dp871
g21
VGOLD RUNNER
p872
sg23
V902x6
p873
sg25
I79
sg26
I4
sg27
I83
sa(dp874
g21
VHAVENTTHEFROGGIEST
p875
sg23
Vx00x0
p876
sg25
I73
sg26
I5
sg27
I72
sa(dp877
g21
VINDEFATIGABLE
p878
sg23
V3x1x7
p879
sg25
I96
sg26
I6
sg27
I96
sa(dp880
g21
VLADY AVERY
p881
sg23
V948x0
p882
sg25
I82
sg26
I7
sg27
I77
sa(dp883
g21
VOKMYWAY
p884
sg23
Vx8x94
p885
sg25
I77
sg26
I8
sg27
I79
sa(dp886
g21
VPARDON ME
p887
sg23
V3x9x6
p888
sg25
I87
sg26
I9
sg27
I88
sa(dp889
g21
VWHITEOAK STROLLER
p890
sg23
V6x44x
p891
sg25
I91
sg26
I10
sg27
I91
sa(dp892
g21
VYALLA HABIBTI
p893
sg23
V545x0
p894
sg25
I72
sg26
I11
sg27
I74
sasg70
(lp895
sssI1543160400
(dp896
g2
Vhttp://www.skyracing.com.au/index.php?component=racing&task=race&id=108177654&meetingid=107039569&Itemid=89
p897
sg4
V29023041.1540
p898
sg6
(dp899
g8
(lp900
(lp901
I2
aI4
aI5
aI6
aa(lp902
I8
aI4
aI2
aI7
aa(lp903
I8
aI4
aI1
aI3
aa(lp904
I6
aI4
aI1
aI9
aa(lp905
I8
aI4
aI3
aI1
aa(lp906
I2
aI6
aI5
aI4
aa(lp907
I2
aI4
aI7
aI6
aa(lp908
I4
aI8
aI2
aI6
aasg18
(lp909
(dp910
g21
VWESTERN SUNRISE
p911
sg23
V20123
p912
sg25
I74
sg26
I1
sg27
I79
sa(dp913
g21
VLITTLE MILLIE
p914
sg23
V7223x
p915
sg25
I100
sg26
I2
sg27
I100
sa(dp916
g21
VWHISPERING AFFAIR
p917
sg23
V725x2
p918
sg25
I68
sg26
I3
sg27
I81
sa(dp919
g21
VQURI
p920
sg23
V8x2x2
p921
sg25
I99
sg26
I4
sg27
I97
sa(dp922
g21
VDRILL BABY DRILL
p923
sg23
V243x
p924
sg25
I80
sg26
I5
sg27
I92
sa(dp925
g21
VROBINESSE
p926
sg23
Vx3x4x
p927
sg25
I87
sg26
I6
sg27
I89
sa(dp928
g21
VKENTFORD MALLARD
p929
sg23
V07x01
p930
sg25
I90
sg26
I7
sg27
I70
sa(dp931
g21
VCHEQUERED VIEW
p932
sg23
V0x318
p933
sg25
I83
sg26
I8
sg27
I75
sa(dp934
g21
VWHITE LILAC
p935
sg23
V60x5x
p936
sg25
I72
sg26
I9
sg27
I68
sasg70
(lp937
sssI1543153800
(dp938
g2
Vhttp://www.skyracing.com.au/index.php?component=racing&task=race&id=108177636&meetingid=107039553&Itemid=89
p939
sg4
V29023042.1350
p940
sg6
(dp941
g8
(lp942
(lp943
I7
aI1
aI4
aI3
aa(lp944
I2
aI6
aI3
aI1
aa(lp945
I2
aI4
aI6
aI8
aa(lp946
I3
aI5
aI1
aI2
aa(lp947
I2
aI1
aI6
aI3
aa(lp948
I1
aI7
aI4
aI2
aa(lp949
I7
aI1
aI4
aI2
aa(lp950
I2
aI1
aI3
aI7
aasg18
(lp951
(dp952
g21
VLOOKS LIKE POWER
p953
sg23
Vx141x
p954
sg25
I95
sg26
I1
sg27
I95
sa(dp955
g21
VDEAUVILLE DANCER
p956
sg23
V465x4
p957
sg25
I85
sg26
I2
sg27
I80
sa(dp958
g21
VABBREVIATE
p959
sg23
V320x6
p960
sg25
I81
sg26
I3
sg27
I84
sa(dp961
g21
VBELLS 'N' BANJOS
p962
sg23
V074x9
p963
sg25
I93
sg26
I4
sg27
I93
sa(dp964
g21
VROYAL PALLADIUM
p965
sg23
Vx9x6x
p966
sg25
I79
sg26
I5
sg27
I78
sa(dp967
g21
VCOURT FRONTIER
p968
sg23
V7x053
p969
sg25
I76
sg26
I6
sg27
I68
sa(dp970
g21
VMONBEG GOLD
p971
sg23
V547x4
p972
sg25
I100
sg26
I7
sg27
I100
sa(dp973
g21
VONLY GORGEOUS
p974
sg23
Vx6x52
p975
sg25
I70
sg26
I8
sg27
I75
sasg70
(lp976
sssI1543161000
(dp977
g2
Vhttp://www.skyracing.com.au/index.php?component=racing&task=race&id=108177640&meetingid=107039553&Itemid=89
p978
sg4
V29023042.1550
p979
sg6
(dp980
g8
(lp981
(lp982
I5
aI7
aI1
aI3
aa(lp983
I6
aI2
aI4
aI7
aa(lp984
I6
aI4
aI9
aI8
aa(lp985
I2
aI6
aI5
aI4
aa(lp986
I6
aI9
aI5
aI8
aa(lp987
I5
aI7
aI1
aI3
aa(lp988
I1
aI5
aI4
aI3
aa(lp989
I6
aI5
aI7
aI2
aasg18
(lp990
(dp991
g21
VBURROWS PARK
p992
sg23
V30x0x
p993
sg25
I100
sg26
I1
sg27
I95
sa(dp994
g21
VWORKING CLASS
p995
sg23
V502x6
p996
sg25
I71
sg26
I2
sg27
I69
sa(dp997
g21
VLIGHTLY SQUEEZE
p998
sg23
V4484x
p999
sg25
I91
sg26
I3
sg27
I90
sa(dp1000
g21
VPETERBOROUGH
p1001
sg23
Vx3x20
p1002
sg25
I95
sg26
I4
sg27
I88
sa(dp1003
g21
VSOULSAVER
p1004
sg23
V6174x
p1005
sg25
I97
sg26
I5
sg27
I100
sa(dp1006
g21
VREBEL COMMANDER
p1007
sg23
V8x3x5
p1008
sg25
I76
sg26
I6
sg27
I77
sa(dp1009
g21
VGET WISHING
p1010
sg23
V486x1
p1011
sg25
I87
sg26
I7
sg27
I98
sa(dp1012
g21
VCATCHIN TIME
p1013
sg23
V322x3
p1014
sg25
I84
sg26
I8
sg27
I85
sa(dp1015
g21
VIL SICARIO
p1016
sg23
V76350
p1017
sg25
I74
sg26
I9
sg27
I73
sa(dp1018
g21
VDAN GUN
p1019
sg23
V05006
p1020
sg25
I82
sg26
I10
sg27
I81
sa(dp1021
g21
VTIKKEN AWAY
p1022
sg23
V675x0
p1023
sg25
I70
sg26
I11
sg27
I71
sa(dp1024
g21
VMUTANAQEL
p1025
sg23
V43545
p1026
sg25
I79
sg26
I12
sg27
I79
sasg70
(lp1027
sssI1543155000
(dp1028
g2
Vhttp://www.skyracing.com.au/index.php?component=racing&task=race&id=108177651&meetingid=107039569&Itemid=89
p1029
sg4
V29023041.1410
p1030
sg6
(dp1031
g8
(lp1032
(lp1033
I8
aI1
aI4
aI3
aa(lp1034
I5
aI2
aI6
aI1
aa(lp1035
I3
aI5
aI6
aI7
aa(lp1036
I1
aI2
aI4
aI6
aa(lp1037
I2
aI6
aI5
aI1
aa(lp1038
I8
aI1
aI3
aI4
aa(lp1039
I4
aI8
aI6
aI3
aa(lp1040
I1
aI2
aI5
aI8
aasg18
(lp1041
(dp1042
g21
VSANDY BEACH
p1043
sg23
V7332x
p1044
sg25
I85
sg26
I1
sg27
I98
sa(dp1045
g21
VCAPARD KING
p1046
sg23
V38x4x
p1047
sg25
I69
sg26
I2
sg27
I72
sa(dp1048
g21
VLOUGH DERG FARMER
p1049
sg23
V70x53
p1050
sg25
I97
sg26
I3
sg27
I86
sa(dp1051
g21
VWESTSTREET
p1052
sg23
V6223x
p1053
sg25
I90
sg26
I4
sg27
I90
sa(dp1054
g21
VPERFECT PIRATE
p1055
sg23
V4x0x0
p1056
sg25
I83
sg26
I5
sg27
I77
sa(dp1057
g21
VNEWBERRY NEW
p1058
sg23
V323x7
p1059
sg25
I80
sg26
I6
sg27
I82
sa(dp1060
g21
VINDIROCCO
p1061
sg23
V647x4
p1062
sg25
I76
sg26
I7
sg27
I78
sa(dp1063
g21
VDYLANSEOGHAN
p1064
sg23
V2311x
p1065
sg25
I100
sg26
I8
sg27
I100
sasg70
(lp1066
sss.