(dp0
I1543584000
(dp1
S'skyracing_url'
p2
Vhttp://www.skyracing.com.au/index.php?component=racing&task=race&id=108338760&meetingid=107359673&Itemid=89
p3
sS'betfair_raceid'
p4
V29030631.1320
p5
sS'dat2'
p6
(dp7
S'ratings_auto'
p8
(lp9
(lp10
I1
aI10
aI7
aI8
aa(lp11
I1
aI10
aI5
aI11
aa(lp12
I1
aI5
aI11
aI12
aa(lp13
I1
aI10
aI11
aI5
aa(lp14
I1
aI5
aI8
aI10
aa(lp15
I7
aI1
aI10
aI8
aa(lp16
I1
aI8
aI7
aI10
aa(lp17
I1
aI10
aI5
aI7
aasS'horse_details'
p18
(lp19
(dp20
S'horse_name'
p21
VKATESON
p22
sS'horse_form'
p23
V2x2x1
p24
sS'rating_2'
p25
I100
sS'horse_number'
p26
I1
sS'rating_1'
p27
I100
sa(dp28
g21
VCAPTAINS RUN
p29
sg23
Vx206x
p30
sg25
I81
sg26
I2
sg27
I86
sa(dp31
g21
VCOLONEL KEATING
p32
sg23
V21x
p33
sg25
I88
sg26
I3
sg27
I88
sa(dp34
g21
VCONTINUUM
p35
sg23
V76398
p36
sg25
I70
sg26
I4
sg27
I69
sa(dp37
g21
VDRUNKEN PIRATE
p38
sg23
V6x1
p39
sg25
I84
sg26
I5
sg27
I78
sa(dp40
g21
VDUARIGLE
p41
sg23
V1x5x7
p42
sg25
I76
sg26
I6
sg27
I71
sa(dp43
g21
VECLAIR D'AINAY
p44
sg23
V2x
p45
sg25
I95
sg26
I7
sg27
I95
sa(dp46
g21
VHOOK LANE ROOBEE
p47
sg23
V1x
p48
sg25
I97
sg26
I8
sg27
I90
sa(dp49
g21
VIT'S FOR ALAN
p50
sg23
V0x1x3
p51
sg25
I73
sg26
I9
sg27
I76
sa(dp52
g21
VMORNING VICAR
p53
sg23
V17x2x
p54
sg25
I90
sg26
I10
sg27
I99
sa(dp55
g21
VMR PUMBLECHOOK
p56
sg23
V66x3
p57
sg25
I78
sg26
I11
sg27
I82
sa(dp58
g21
VTHE WOLF
p59
sg23
V4x3
p60
sg25
I72
sg26
I12
sg27
I73
sasS'ratings_manual'
p61
(lp62
sssI1543588800
(dp63
g2
Vhttp://www.skyracing.com.au/index.php?component=racing&task=race&id=108338719&meetingid=107359689&Itemid=89
p64
sg4
V29029467.1440
p65
sg6
(dp66
g8
(lp67
(lp68
I1
aI2
aI10
aI8
aa(lp69
I7
aI3
aI2
aI9
aa(lp70
I2
aI3
aI1
aI4
aa(lp71
I4
aI3
aI6
aI2
aa(lp72
I7
aI4
aI9
aI8
aa(lp73
I10
aI1
aI2
aI8
aa(lp74
I10
aI1
aI8
aI2
aa(lp75
I2
aI1
aI3
aI4
aasg18
(lp76
(dp77
g21
VEARL OF BUNNACURRY
p78
sg23
V09911
p79
sg25
I100
sg26
I1
sg27
I100
sa(dp80
g21
VFIELDSMAN
p81
sg23
V28432
p82
sg25
I95
sg26
I2
sg27
I98
sa(dp83
g21
VSULTAN BAYBARS
p84
sg23
V00673
p85
sg25
I77
sg26
I3
sg27
I83
sa(dp86
g21
VMR COCO BEAN
p87
sg23
Vx40x3
p88
sg25
I79
sg26
I4
sg27
I87
sa(dp89
g21
VODDS ON OLI
p90
sg23
V56079
p91
sg25
I84
sg26
I5
sg27
I86
sa(dp92
g21
VONE MORE CHANCE
p93
sg23
V884x7
p94
sg25
I87
sg26
I6
sg27
I78
sa(dp95
g21
VZODIAKOS
p96
sg23
V00864
p97
sg25
I82
sg26
I7
sg27
I76
sa(dp98
g21
VBREAK THE SILENCE
p99
sg23
V17462
p100
sg25
I91
sg26
I8
sg27
I90
sa(dp101
g21
VMAAZEL
p102
sg23
V44006
p103
sg25
I73
sg26
I9
sg27
I74
sa(dp104
g21
VBOND ANGEL
p105
sg23
V45031
p106
sg25
I98
sg26
I10
sg27
I93
sa(dp107
g21
VGENERAL TUFTO
p108
sg23
V0x4x9
p109
sg25
I72
sg26
I11
sg27
I68
sa(dp110
g21
VTOM'S ANNA
p111
sg23
V56000
p112
sg25
I68
sg26
I12
sg27
I71
sasg61
(lp113
sssI1543585800
(dp114
g2
Vhttp://www.skyracing.com.au/index.php?component=racing&task=race&id=108338761&meetingid=107359673&Itemid=89
p115
sg4
V29030631.1350
p116
sg6
(dp117
g8
(lp118
(lp119
I4
aI2
aI1
aI3
aa(lp120
I1
aI2
aI4
aI3
aa(lp121
I1
aI2
aI4
aI3
aa(lp122
I1
aI2
aI4
aI3
aa(lp123
I4
aI2
aI1
aI3
aa(lp124
I4
aI1
aI2
aI3
aa(lp125
I4
aI2
aI1
aI3
aa(lp126
I1
aI4
aI2
aI3
aasg18
(lp127
(dp128
g21
VSPIRITOFTHEGAMES
p129
sg23
V357x1
p130
sg25
I94
sg26
I1
sg27
I91
sa(dp131
g21
VLOSTINTRANSLATION
p132
sg23
V672x2
p133
sg25
I99
sg26
I2
sg27
I95
sa(dp134
g21
VTALKISCHEAP
p135
sg23
Vx10x3
p136
sg25
I85
sg26
I3
sg27
I86
sa(dp137
g21
VLA BAGUE AU ROI
p138
sg23
V177x1
p139
sg25
I100
sg26
I4
sg27
I100
sasg61
(lp140
sssI1543586700
(dp141
g2
Vhttp://www.skyracing.com.au/index.php?component=racing&task=race&id=108338718&meetingid=107359689&Itemid=89
p142
sg4
V29029467.1405
p143
sg6
(dp144
g8
(lp145
(lp146
I9
aI1
aI3
aI2
aa(lp147
I2
aI14
aI3
aI5
aa(lp148
I2
aI6
aI1
aI7
aa(lp149
I3
aI8
aI14
aI5
aa(lp150
I12
aI7
aI8
aI9
aa(lp151
I3
aI9
aI1
aI2
aa(lp152
I1
aI9
aI3
aI7
aa(lp153
I3
aI2
aI9
aI1
aasg18
(lp154
(dp155
g21
VPICKETT'S CHARGE
p156
sg23
V11235
p157
sg25
I100
sg26
I1
sg27
I99
sa(dp158
g21
VROBERO
p159
sg23
V50082
p160
sg25
I90
sg26
I2
sg27
I92
sa(dp161
g21
VMR MINERALS
p162
sg23
V655x9
p163
sg25
I93
sg26
I3
sg27
I93
sa(dp164
g21
VKATHEEFA
p165
sg23
V379x2
p166
sg25
I73
sg26
I4
sg27
I71
sa(dp167
g21
VKUPA RIVER
p168
sg23
V79053
p169
sg25
I72
sg26
I5
sg27
I74
sa(dp170
g21
VTHE GROOVE
p171
sg23
V22429
p172
sg25
I69
sg26
I6
sg27
I70
sa(dp173
g21
VDESERT DREAM
p174
sg23
V92328
p175
sg25
I88
sg26
I7
sg27
I88
sa(dp176
g21
VANGEL PALANAS
p177
sg23
V353x9
p178
sg25
I79
sg26
I8
sg27
I79
sa(dp179
g21
VBOBBY JOE LEG
p180
sg23
V08x02
p181
sg25
I96
sg26
I9
sg27
I100
sa(dp182
g21
VWINKLEMANN
p183
sg23
V24459
p184
sg25
I66
sg26
I10
sg27
I67
sa(dp185
g21
VBOLD SPIRIT
p186
sg23
V70008
p187
sg25
I63
sg26
I11
sg27
I62
sa(dp188
g21
VNEWSTEAD ABBEY
p189
sg23
V23033
p190
sg25
I85
sg26
I12
sg27
I82
sa(dp191
g21
VSTANLEY
p192
sg23
Vx6064
p193
sg25
I81
sg26
I13
sg27
I86
sa(dp194
g21
VLUCKY BEGGAR
p195
sg23
V56450
p196
sg25
I76
sg26
I14
sg27
I76
sasg61
(lp197
sssI1543579800
(dp198
g2
Vhttp://www.skyracing.com.au/index.php?component=racing&task=race&id=108338758&meetingid=107359673&Itemid=89
p199
sg4
V29030631.1210
p200
sg6
(dp201
g8
(lp202
(lp203
I17
aI18
aI3
aI1
aa(lp204
I17
aI1
aI7
aI18
aa(lp205
I17
aI1
aI18
aI7
aa(lp206
I3
aI17
aI7
aI1
aa(lp207
I17
aI1
aI18
aI7
aa(lp208
I1
aI17
aI18
aI3
aa(lp209
I3
aI17
aI18
aI1
aa(lp210
I17
aI1
aI18
aI3
aasg18
(lp211
(dp212
g21
VBANG ON FRANKIE
p213
sg23
Vx62x3
p214
sg25
I93
sg26
I1
sg27
I85
sa(dp215
g21
VBEAUFORT WEST
p216
sg23
V2x9
p217
sg25
I71
sg26
I2
sg27
I65
sa(dp218
g21
VBETAMECHE
p219
sg23
V1x1x
p220
sg25
I100
sg26
I3
sg27
I95
sa(dp221
g21
VBOLAND'S MILL
p222
sg23
V6x808
p223
sg25
I53
sg26
I4
sg27
I49
sa(dp224
g21
VBRIGADE OF GUARDS
p225
sg23
V59x3
p226
sg25
I74
sg26
I5
sg27
I69
sa(dp227
g21
VBRIGHT FORECAST
p228
sg23
V3x
p229
sg25
I89
sg26
I6
sg27
I81
sa(dp230
g21
VDASHEL DRASHER
p231
sg23
V106x3
p232
sg25
I81
sg26
I7
sg27
I79
sa(dp233
g21
VDISCKO DES PLAGES
p234
sg23
V67x
p235
sg25
I65
sg26
I8
sg27
I51
sa(dp236
g21
VFAT SAM
p237
sg23
V8
p238
sg25
I62
sg26
I9
sg27
I54
sa(dp239
g21
VHOWLING MILAN
p240
sg23
V29x
p241
sg25
I60
sg26
I10
sg27
I55
sa(dp242
g21
VICONIC MUDDLE
p243
sg23
V
p244
sg25
I69
sg26
I11
sg27
I0
sa(dp245
g21
VJAYTRACK PARKHOMES
p246
sg23
V10x5
p247
sg25
I86
sg26
I12
sg27
I73
sa(dp248
g21
VMEGALODON
p249
sg23
Vx24x0
p250
sg25
I59
sg26
I13
sg27
I57
sa(dp251
g21
VMELCHIOR KING
p252
sg23
V67x7
p253
sg25
I77
sg26
I14
sg27
I75
sa(dp254
g21
VMERE IRONMONGER
p255
sg23
V16x7
p256
sg25
I83
sg26
I15
sg27
I61
sa(dp257
g21
VSAVANNA ROAR
p258
sg23
Vx8x55
p259
sg25
I67
sg26
I16
sg27
I60
sa(dp260
g21
VSEVARANO
p261
sg23
V1x5x2
p262
sg25
I95
sg26
I17
sg27
I100
sa(dp263
g21
VSTRONG GLANCE
p264
sg23
V15x1
p265
sg25
I99
sg26
I18
sg27
I98
sa(dp266
g21
VTHE ROCKET PARK
p267
sg23
V15
p268
sg25
I92
sg26
I19
sg27
I67
sa(dp269
g21
VWEST TO THE BRIDGE
p270
sg23
V25x56
p271
sg25
I79
sg26
I20
sg27
I78
sasg61
(lp272
sssI1543589400
(dp273
g2
Vhttp://www.skyracing.com.au/index.php?component=racing&task=race&id=108338733&meetingid=107359657&Itemid=89
p274
sg4
V29030629.1450
p275
sg6
(dp276
g8
(lp277
(lp278
I6
aI5
aI1
aI3
aa(lp279
I1
aI3
aI4
aI2
aa(lp280
I1
aI3
aI7
aI6
aa(lp281
I1
aI3
aI4
aI2
aa(lp282
I7
aI1
aI6
aI4
aa(lp283
I5
aI6
aI3
aI1
aa(lp284
I6
aI1
aI2
aI5
aa(lp285
I1
aI3
aI6
aI5
aasg18
(lp286
(dp287
g21
VMON PALOIS
p288
sg23
V0x5x3
p289
sg25
I98
sg26
I1
sg27
I89
sa(dp290
g21
VSKIPTHESCALES
p291
sg23
V413x0
p292
sg25
I90
sg26
I2
sg27
I82
sa(dp293
g21
VTRAVERTINE
p294
sg23
V35344
p295
sg25
I82
sg26
I3
sg27
I86
sa(dp296
g21
VFLY RORY FLY
p297
sg23
Vx426x
p298
sg25
I75
sg26
I4
sg27
I73
sa(dp299
g21
VSCOOBY
p300
sg23
V051x2
p301
sg25
I87
sg26
I5
sg27
I95
sa(dp302
g21
VBLAKERIGG
p303
sg23
V270x1
p304
sg25
I100
sg26
I6
sg27
I100
sa(dp305
g21
VPINK GIN
p306
sg23
V795x4
p307
sg25
I79
sg26
I7
sg27
I78
sasg61
(lp308
sssI1543590300
(dp309
g2
Vhttp://www.skyracing.com.au/index.php?component=racing&task=race&id=108338778&meetingid=107750887&Itemid=89
p310
sg4
V29030627.1505
p311
sg6
(dp312
g8
(lp313
(lp314
I13
aI6
aI5
aI1
aa(lp315
I1
aI12
aI4
aI3
aa(lp316
I3
aI14
aI13
aI6
aa(lp317
I1
aI12
aI4
aI13
aa(lp318
I12
aI6
aI15
aI8
aa(lp319
I1
aI6
aI13
aI5
aa(lp320
I13
aI6
aI1
aI14
aa(lp321
I1
aI6
aI12
aI13
aasg18
(lp322
(dp323
g21
VFORCE OF FORCES
p324
sg23
V3055x
p325
sg25
I93
sg26
I1
sg27
I93
sa(dp326
g21
VCAPTAINOFTHEFLEET
p327
sg23
V606x0
p328
sg25
I86
sg26
I2
sg27
I64
sa(dp329
g21
VALL GOOD THINGS
p330
sg23
V08490
p331
sg25
I73
sg26
I3
sg27
I76
sa(dp332
g21
VCLONTARF
p333
sg23
V650x9
p334
sg25
I88
sg26
I4
sg27
I89
sa(dp335
g21
VFLEURYS FORT
p336
sg23
V78361
p337
sg25
I95
sg26
I5
sg27
I96
sa(dp338
g21
VSIR ECTOR
p339
sg23
Vx9242
p340
sg25
I98
sg26
I6
sg27
I98
sa(dp341
g21
VTHERELLALWAYSBEONE
p342
sg23
V2340x
p343
sg25
I64
sg26
I7
sg27
I66
sa(dp344
g21
VNATURALLY BLOND
p345
sg23
V30305
p346
sg25
I79
sg26
I8
sg27
I82
sa(dp347
g21
VKHUDHA
p348
sg23
V006x5
p349
sg25
I70
sg26
I9
sg27
I73
sa(dp350
g21
VSIZING JOSHUA
p351
sg23
V6x60x
p352
sg25
I77
sg26
I10
sg27
I78
sa(dp353
g21
VFACE VALUE
p354
sg23
V55x7x
p355
sg25
I69
sg26
I11
sg27
I72
sa(dp356
g21
VRIGHTBACK ATYA
p357
sg23
V7x49x
p358
sg25
I85
sg26
I12
sg27
I87
sa(dp359
g21
VSILVER PLANEUR
p360
sg23
V0x401
p361
sg25
I100
sg26
I13
sg27
I100
sa(dp362
g21
VTHE BALLYBOYS
p363
sg23
V02196
p364
sg25
I90
sg26
I14
sg27
I90
sa(dp365
g21
VNERUAL
p366
sg23
V863x7
p367
sg25
I80
sg26
I15
sg27
I83
sa(dp368
g21
VGLOBAL RACING
p369
sg23
V967x0
p370
sg25
I66
sg26
I16
sg27
I68
sa(dp371
g21
VKILCOLMAN DJ
p372
sg23
V0x780
p373
sg25
I62
sg26
I17
sg27
I62
sasg61
(lp374
sssI1543592100
(dp375
g2
Vhttp://www.skyracing.com.au/index.php?component=racing&task=race&id=108338764&meetingid=107359673&Itemid=89
p376
sg4
V29030631.1535
p377
sg6
(dp378
g8
(lp379
(lp380
I4
aI8
aI1
aI7
aa(lp381
I5
aI3
aI8
aI9
aa(lp382
I3
aI8
aI5
aI6
aa(lp383
I3
aI4
aI1
aI8
aa(lp384
I8
aI10
aI9
aI3
aa(lp385
I4
aI8
aI2
aI1
aa(lp386
I9
aI4
aI1
aI8
aa(lp387
I8
aI3
aI4
aI5
aasg18
(lp388
(dp389
g21
VAUX PTITS SOINS
p390
sg23
V1428x
p391
sg25
I96
sg26
I1
sg27
I93
sa(dp392
g21
VKAREZAK
p393
sg23
V224x0
p394
sg25
I82
sg26
I2
sg27
I85
sa(dp395
g21
VBOBO MAC
p396
sg23
V741x2
p397
sg25
I74
sg26
I3
sg27
I76
sa(dp398
g21
VDRAGON D'ESTRUVAL
p399
sg23
Vx8x1x
p400
sg25
I100
sg26
I4
sg27
I100
sa(dp401
g21
VCLONDAW CIAN
p402
sg23
V00x30
p403
sg25
I71
sg26
I5
sg27
I69
sa(dp404
g21
VCAPTAIN PEACOCK
p405
sg23
V11287
p406
sg25
I79
sg26
I6
sg27
I74
sa(dp407
g21
VVIVE LE ROI
p408
sg23
V22112
p409
sg25
I87
sg26
I7
sg27
I91
sa(dp410
g21
VDE NAME EVADES ME
p411
sg23
V43x21
p412
sg25
I94
sg26
I8
sg27
I96
sa(dp413
g21
VVIRGINIA CHICK
p414
sg23
V1121x
p415
sg25
I92
sg26
I9
sg27
I81
sa(dp416
g21
VJUGE ET PARTI
p417
sg23
V2x6x2
p418
sg25
I85
sg26
I10
sg27
I89
sa(dp419
g21
VROCKPOINT
p420
sg23
V7x2x0
p421
sg25
I75
sg26
I11
sg27
I79
sa(dp422
g21
VHIT THE HIGHWAY
p423
sg23
V7032x
p424
sg25
I68
sg26
I12
sg27
I72
sasg61
(lp425
sssI1543583400
(dp426
g2
Vhttp://www.skyracing.com.au/index.php?component=racing&task=race&id=108338730&meetingid=107359657&Itemid=89
p427
sg4
V29030629.1310
p428
sg6
(dp429
g8
(lp430
(lp431
I6
aI2
aI3
aI10
aa(lp432
I7
aI2
aI8
aI6
aa(lp433
I6
aI10
aI11
aI9
aa(lp434
I4
aI2
aI7
aI6
aa(lp435
I7
aI6
aI2
aI8
aa(lp436
I6
aI3
aI2
aI10
aa(lp437
I2
aI6
aI3
aI1
aa(lp438
I6
aI2
aI7
aI3
aasg18
(lp439
(dp440
g21
VROO ROO
p441
sg23
V415x0
p442
sg25
I92
sg26
I1
sg27
I89
sa(dp443
g21
VDORY
p444
sg23
V21x20
p445
sg25
I100
sg26
I2
sg27
I97
sa(dp446
g21
VTHE TANGLER BARRY
p447
sg23
V543x4
p448
sg25
I94
sg26
I3
sg27
I95
sa(dp449
g21
VGRAND ENTERPRISE
p450
sg23
V38x8x
p451
sg25
I76
sg26
I4
sg27
I71
sa(dp452
g21
VMINSTREL ROYAL
p453
sg23
Vx0x90
p454
sg25
I79
sg26
I5
sg27
I79
sa(dp455
g21
VROSES POSES
p456
sg23
V2x32
p457
sg25
I97
sg26
I6
sg27
I100
sa(dp458
g21
VBOMBER'S MOON
p459
sg23
V390x9
p460
sg25
I74
sg26
I7
sg27
I81
sa(dp461
g21
VSCOTTSHILL
p462
sg23
V6x058
p463
sg25
I84
sg26
I8
sg27
I86
sa(dp464
g21
VBENTONS LAD
p465
sg23
V579x0
p466
sg25
I83
sg26
I9
sg27
I74
sa(dp467
g21
VDUBH DES CHAMPS
p468
sg23
Vx7954
p469
sg25
I88
sg26
I10
sg27
I92
sa(dp470
g21
VBORDER VICTOR
p471
sg23
V220x5
p472
sg25
I71
sg26
I11
sg27
I75
sasg61
(lp473
sssI1543580700
(dp474
g2
Vhttp://www.skyracing.com.au/index.php?component=racing&task=race&id=108338715&meetingid=107359689&Itemid=89
p475
sg4
V29029467.1225
p476
sg6
(dp477
g8
(lp478
(lp479
I2
aI5
aI10
aI7
aa(lp480
I1
aI4
aI2
aI6
aa(lp481
I2
aI9
aI3
aI5
aa(lp482
I10
aI2
aI4
aI5
aa(lp483
I7
aI8
aI5
aI6
aa(lp484
I5
aI2
aI10
aI7
aa(lp485
I2
aI5
aI1
aI10
aa(lp486
I2
aI5
aI10
aI7
aasg18
(lp487
(dp488
g21
VRESTIVE
p489
sg23
V44169
p490
sg25
I89
sg26
I1
sg27
I80
sa(dp491
g21
VAMITIE WALTZ
p492
sg23
Vx0x17
p493
sg25
I100
sg26
I2
sg27
I100
sa(dp494
g21
VVIVERNUS
p495
sg23
V01016
p496
sg25
I70
sg26
I3
sg27
I76
sa(dp497
g21
VPURPLE ROCK
p498
sg23
V52537
p499
sg25
I62
sg26
I4
sg27
I71
sa(dp500
g21
VSTAR ASCENDING
p501
sg23
V5x744
p502
sg25
I96
sg26
I5
sg27
I94
sa(dp503
g21
VBOMBERO
p504
sg23
Vx5400
p505
sg25
I66
sg26
I6
sg27
I59
sa(dp506
g21
VEPITAPH
p507
sg23
V08x94
p508
sg25
I74
sg26
I7
sg27
I83
sa(dp509
g21
VESSENAITCH
p510
sg23
V55499
p511
sg25
I81
sg26
I8
sg27
I69
sa(dp512
g21
VSCRAFTON
p513
sg23
V05958
p514
sg25
I79
sg26
I9
sg27
I66
sa(dp515
g21
VLANDSCAPE
p516
sg23
V783x6
p517
sg25
I90
sg26
I10
sg27
I89
sasg61
(lp518
sssI1543584300
(dp519
g2
Vhttp://www.skyracing.com.au/index.php?component=racing&task=race&id=108338775&meetingid=107750887&Itemid=89
p520
sg4
V29030627.1325
p521
sg6
(dp522
g8
(lp523
(lp524
I6
aI3
aI2
aI1
aa(lp525
I2
aI8
aI6
aI7
aa(lp526
I6
aI5
aI9
aI1
aa(lp527
I2
aI3
aI6
aI4
aa(lp528
I8
aI2
aI6
aI9
aa(lp529
I6
aI3
aI1
aI2
aa(lp530
I6
aI2
aI1
aI4
aa(lp531
I6
aI2
aI3
aI8
aasg18
(lp532
(dp533
g21
VLAID BACK LUKE
p534
sg23
V0x007
p535
sg25
I91
sg26
I1
sg27
I90
sa(dp536
g21
VJUST GET CRACKING
p537
sg23
V2x02x
p538
sg25
I94
sg26
I2
sg27
I95
sa(dp539
g21
VGAGAS HORSE
p540
sg23
V4x23x
p541
sg25
I96
sg26
I3
sg27
I99
sa(dp542
g21
VOSCARS DEN
p543
sg23
Vx400x
p544
sg25
I88
sg26
I4
sg27
I76
sa(dp545
g21
VANTIMATTER
p546
sg23
V06288
p547
sg25
I81
sg26
I5
sg27
I87
sa(dp548
g21
VBAY HILL
p549
sg23
V21221
p550
sg25
I100
sg26
I6
sg27
I100
sa(dp551
g21
VREACH UP
p552
sg23
V0153x
p553
sg25
I85
sg26
I7
sg27
I81
sa(dp554
g21
VBENDANELLA
p555
sg23
V347x0
p556
sg25
I73
sg26
I8
sg27
I79
sa(dp557
g21
VLINGER
p558
sg23
V57875
p559
sg25
I75
sg26
I9
sg27
I72
sa(dp560
g21
VDRAKAINA
p561
sg23
V40726
p562
sg25
I71
sg26
I10
sg27
I73
sa(dp563
g21
VLITTLESTICKARUBARB
p564
sg23
V25725
p565
sg25
I79
sg26
I11
sg27
I84
sa(dp566
g21
VTHE REAPING RACE
p567
sg23
V6x70
p568
sg25
I68
sg26
I12
sg27
I69
sasg61
(lp569
sssI1543585200
(dp570
g2
Vhttp://www.skyracing.com.au/index.php?component=racing&task=race&id=108338731&meetingid=107359657&Itemid=89
p571
sg4
V29030629.1340
p572
sg6
(dp573
g8
(lp574
(lp575
I5
aI8
aI3
aI6
aa(lp576
I2
aI3
aI5
aI1
aa(lp577
I5
aI8
aI6
aI3
aa(lp578
I3
aI5
aI1
aI8
aa(lp579
I8
aI5
aI3
aI2
aa(lp580
I3
aI5
aI8
aI6
aa(lp581
I2
aI5
aI8
aI6
aa(lp582
I5
aI3
aI8
aI2
aasg18
(lp583
(dp584
g21
VBOUVREUIL
p585
sg23
V6x00x
p586
sg25
I77
sg26
I1
sg27
I68
sa(dp587
g21
VKAUTO RIKO
p588
sg23
V125x0
p589
sg25
I94
sg26
I2
sg27
I73
sa(dp590
g21
VTOO MANY DIAMONDS
p591
sg23
V22x67
p592
sg25
I83
sg26
I3
sg27
I87
sa(dp593
g21
VKATGARY
p594
sg23
V4244x
p595
sg25
I78
sg26
I4
sg27
I75
sa(dp596
g21
VNIGHTFLY
p597
sg23
V21x21
p598
sg25
I100
sg26
I5
sg27
I100
sa(dp599
g21
VSLANELOUGH
p600
sg23
V126x4
p601
sg25
I85
sg26
I6
sg27
I80
sa(dp602
g21
VGREYBOUGG
p603
sg23
Vx40x9
p604
sg25
I72
sg26
I7
sg27
I66
sa(dp605
g21
VBUSTER THOMAS
p606
sg23
V13x52
p607
sg25
I97
sg26
I8
sg27
I95
sasg61
(lp608
sssI1543586100
(dp609
g2
Vhttp://www.skyracing.com.au/index.php?component=racing&task=race&id=108338776&meetingid=107750887&Itemid=89
p610
sg4
V29030627.1355
p611
sg6
(dp612
g8
(lp613
(lp614
I2
aI1
aI6
aI3
aa(lp615
I1
aI3
aI2
aI8
aa(lp616
I1
aI3
aI2
aI6
aa(lp617
I1
aI2
aI8
aI7
aa(lp618
I1
aI8
aI3
aI6
aa(lp619
I1
aI2
aI6
aI3
aa(lp620
I2
aI1
aI6
aI5
aa(lp621
I1
aI2
aI3
aI6
aasg18
(lp622
(dp623
g21
VLEAP DEARG
p624
sg23
V38314
p625
sg25
I98
sg26
I1
sg27
I96
sa(dp626
g21
VCAIRNHILL
p627
sg23
V44x31
p628
sg25
I100
sg26
I2
sg27
I100
sa(dp629
g21
VA PLACE APART
p630
sg23
V02114
p631
sg25
I83
sg26
I3
sg27
I82
sa(dp632
g21
VCHURCHTOWN GLEN
p633
sg23
V5x710
p634
sg25
I80
sg26
I4
sg27
I69
sa(dp635
g21
VLIGHT OF MY LIFE
p636
sg23
V80214
p637
sg25
I85
sg26
I5
sg27
I81
sa(dp638
g21
VCOMMANDANT
p639
sg23
Vx0x10
p640
sg25
I92
sg26
I6
sg27
I89
sa(dp641
g21
VGUIDO RENI
p642
sg23
V52444
p643
sg25
I73
sg26
I7
sg27
I76
sa(dp644
g21
VKILLACOLLA
p645
sg23
Vx7434
p646
sg25
I70
sg26
I8
sg27
I72
sasg61
(lp647
sssI1543590900
(dp648
g2
Vhttp://www.skyracing.com.au/index.php?component=racing&task=race&id=108338720&meetingid=107359689&Itemid=89
p649
sg4
V29029467.1515
p650
sg6
(dp651
g8
(lp652
(lp653
I1
aI8
aI4
aI7
aa(lp654
I2
aI6
aI5
aI3
aa(lp655
I7
aI6
aI8
aI5
aa(lp656
I3
aI2
aI4
aI7
aa(lp657
I6
aI1
aI3
aI7
aa(lp658
I8
aI1
aI7
aI4
aa(lp659
I8
aI1
aI3
aI7
aa(lp660
I1
aI6
aI8
aI7
aasg18
(lp661
(dp662
g21
VTAGUR
p663
sg23
V00301
p664
sg25
I100
sg26
I1
sg27
I100
sa(dp665
g21
VAMOOD
p666
sg23
V43940
p667
sg25
I74
sg26
I2
sg27
I73
sa(dp668
g21
VQUEENS ROYALE
p669
sg23
V284x9
p670
sg25
I97
sg26
I3
sg27
I82
sa(dp671
g21
VMAAJMEH DAWN
p672
sg23
V469
p673
sg25
I90
sg26
I4
sg27
I93
sa(dp674
g21
VSOOQAAN
p675
sg23
V58006
p676
sg25
I78
sg26
I5
sg27
I71
sa(dp677
g21
VALPHA TAURI
p678
sg23
V688x2
p679
sg25
I83
sg26
I6
sg27
I79
sa(dp680
g21
VALJUNOOD
p681
sg23
V30027
p682
sg25
I89
sg26
I7
sg27
I89
sa(dp683
g21
VBOOTS AND SPURS
p684
sg23
V07032
p685
sg25
I95
sg26
I8
sg27
I97
sa(dp686
g21
VMIME DANCE
p687
sg23
V0028x
p688
sg25
I76
sg26
I9
sg27
I77
sa(dp689
g21
VTHEYDON SPIRIT
p690
sg23
V60x9x
p691
sg25
I70
sg26
I10
sg27
I69
sa(dp692
g21
VSUMMER ANGEL
p693
sg23
V90566
p694
sg25
I85
sg26
I11
sg27
I87
sa(dp695
g21
VWICKLOW WARRIOR
p696
sg23
V0x784
p697
sg25
I71
sg26
I12
sg27
I70
sasg61
(lp698
sssI1543587900
(dp699
g2
Vhttp://www.skyracing.com.au/index.php?component=racing&task=race&id=108338762&meetingid=107359673&Itemid=89
p700
sg4
V29030631.1425
p701
sg6
(dp702
g8
(lp703
(lp704
I2
aI5
aI7
aI1
aa(lp705
I2
aI1
aI4
aI6
aa(lp706
I1
aI5
aI7
aI6
aa(lp707
I2
aI1
aI4
aI3
aa(lp708
I5
aI7
aI4
aI2
aa(lp709
I2
aI5
aI1
aI4
aa(lp710
I2
aI1
aI7
aI3
aa(lp711
I2
aI5
aI1
aI7
aasg18
(lp712
(dp713
g21
VBEGGAR'S WISHES
p714
sg23
V211x1
p715
sg25
I90
sg26
I1
sg27
I86
sa(dp716
g21
VWILLOUGHBY COURT
p717
sg23
Vx113x
p718
sg25
I100
sg26
I2
sg27
I100
sa(dp719
g21
VASO
p720
sg23
V34x5x
p721
sg25
I78
sg26
I3
sg27
I77
sa(dp722
g21
VTHREE MUSKETEERS
p723
sg23
V2x0x7
p724
sg25
I83
sg26
I4
sg27
I82
sa(dp725
g21
VKING'S ODYSSEY
p726
sg23
V333x2
p727
sg25
I86
sg26
I5
sg27
I98
sa(dp728
g21
VBALLYBOLLEY
p729
sg23
V607x5
p730
sg25
I73
sg26
I6
sg27
I79
sa(dp731
g21
VTOUCH KICK
p732
sg23
V713x1
p733
sg25
I98
sg26
I7
sg27
I93
sasg61
(lp734
sssI1543579200
(dp735
g2
Vhttp://www.skyracing.com.au/index.php?component=racing&task=race&id=108338728&meetingid=107359657&Itemid=89
p736
sg4
V29030629.1200
p737
sg6
(dp738
g8
(lp739
(lp740
I6
aI3
aI10
aI7
aa(lp741
I5
aI3
aI6
aI2
aa(lp742
I3
aI6
aI5
aI10
aa(lp743
I3
aI5
aI2
aI10
aa(lp744
I5
aI3
aI6
aI2
aa(lp745
I6
aI3
aI10
aI7
aa(lp746
I6
aI3
aI10
aI7
aa(lp747
I3
aI6
aI5
aI10
aasg18
(lp748
(dp749
g21
VALFIE CORBITT
p750
sg23
Vx31x7
p751
sg25
I80
sg26
I1
sg27
I79
sa(dp752
g21
VBUDDING ROBIN
p753
sg23
V5x
p754
sg25
I64
sg26
I2
sg27
I65
sa(dp755
g21
VDRUMLEE WATAR
p756
sg23
V1x4
p757
sg25
I95
sg26
I3
sg27
I98
sa(dp758
g21
VECLAIR DE GUYE
p759
sg23
V4x6x
p760
sg25
I74
sg26
I4
sg27
I74
sa(dp761
g21
VHITMAN FRED
p762
sg23
V25x73
p763
sg25
I81
sg26
I5
sg27
I82
sa(dp764
g21
VMINELLA BOBO
p765
sg23
V1x6
p766
sg25
I100
sg26
I6
sg27
I100
sa(dp767
g21
VNADAITAK
p768
sg23
V726x4
p769
sg25
I89
sg26
I7
sg27
I87
sa(dp770
g21
VNINE O THREE
p771
sg23
V1x006
p772
sg25
I60
sg26
I8
sg27
I60
sa(dp773
g21
VPULLMAN BROWN
p774
sg23
Vx0650
p775
sg25
I72
sg26
I9
sg27
I70
sa(dp776
g21
VWEAKFIELD
p777
sg23
V1x6
p778
sg25
I94
sg26
I10
sg27
I92
sasg61
(lp779
sssI1543580100
(dp780
g2
Vhttp://www.skyracing.com.au/index.php?component=racing&task=race&id=108338773&meetingid=107750887&Itemid=89
p781
sg4
V29030627.1215
p782
sg6
(dp783
g8
(lp784
(lp785
I13
aI9
aI10
aI7
aa(lp786
I7
aI17
aI16
aI13
aa(lp787
I13
aI10
aI14
aI9
aa(lp788
I17
aI16
aI3
aI13
aa(lp789
I13
aI10
aI5
aI14
aa(lp790
I10
aI13
aI9
aI16
aa(lp791
I13
aI9
aI10
aI8
aa(lp792
I13
aI10
aI17
aI9
aasg18
(lp793
(dp794
g21
VCAPTAIN DORAN
p795
sg23
V9x000
p796
sg25
I78
sg26
I1
sg27
I81
sa(dp797
g21
VEREFORAGUDTIME
p798
sg23
V90x70
p799
sg25
I62
sg26
I2
sg27
I62
sa(dp800
g21
VGLENRUA
p801
sg23
V9557x
p802
sg25
I77
sg26
I3
sg27
I77
sa(dp803
g21
VLIAR'S DICE
p804
sg23
V360x5
p805
sg25
I81
sg26
I4
sg27
I83
sa(dp806
g21
VROCKY'S SILVER
p807
sg23
V2x805
p808
sg25
I85
sg26
I5
sg27
I87
sa(dp809
g21
VTIBETAN GOLD
p810
sg23
V0x065
p811
sg25
I73
sg26
I6
sg27
I74
sa(dp812
g21
VWIGS ON THE GREEN
p813
sg23
Vx006x
p814
sg25
I93
sg26
I7
sg27
I93
sa(dp815
g21
VTHE HUNTER HOE
p816
sg23
V864
p817
sg25
I89
sg26
I8
sg27
I88
sa(dp818
g21
VVINNWARR
p819
sg23
V004
p820
sg25
I97
sg26
I9
sg27
I97
sa(dp821
g21
VCARA'S WAY
p822
sg23
Vx5755
p823
sg25
I95
sg26
I10
sg27
I95
sa(dp824
g21
VINDIAN AIR
p825
sg23
V05059
p826
sg25
I65
sg26
I11
sg27
I64
sa(dp827
g21
VKILTORMER
p828
sg23
V69x8
p829
sg25
I70
sg26
I12
sg27
I68
sa(dp830
g21
VLILL SMITH
p831
sg23
V4544
p832
sg25
I100
sg26
I13
sg27
I100
sa(dp833
g21
VRUNNING SKEARD
p834
sg23
V0x0x8
p835
sg25
I66
sg26
I14
sg27
I67
sa(dp836
g21
VESTHERS PRESENT
p837
sg23
V86x80
p838
sg25
I87
sg26
I15
sg27
I79
sa(dp839
g21
VSMOKING GUN
p840
sg23
V449x
p841
sg25
I91
sg26
I16
sg27
I90
sa(dp842
g21
VWOLFOFALLSTREETS
p843
sg23
V67x9x
p844
sg25
I68
sg26
I17
sg27
I70
sasg61
(lp845
sssI1543581900
(dp846
g2
Vhttp://www.skyracing.com.au/index.php?component=racing&task=race&id=108338759&meetingid=107359673&Itemid=89
p847
sg4
V29030631.1245
p848
sg6
(dp849
g8
(lp850
(lp851
I5
aI1
aI2
aI3
aa(lp852
I1
aI3
aI5
aI7
aa(lp853
I1
aI3
aI5
aI7
aa(lp854
I1
aI3
aI5
aI7
aa(lp855
I7
aI5
aI1
aI3
aa(lp856
I5
aI1
aI2
aI3
aa(lp857
I5
aI1
aI2
aI3
aa(lp858
I1
aI5
aI3
aI7
aasg18
(lp859
(dp860
g21
VDELIRE D'ESTRUVAL
p861
sg23
V104x1
p862
sg25
I93
sg26
I1
sg27
I95
sa(dp863
g21
VDUSTIN DES MOTTES
p864
sg23
Vx311x
p865
sg25
I96
sg26
I2
sg27
I93
sa(dp866
g21
VKNOCKNANUSS
p867
sg23
V04x31
p868
sg25
I88
sg26
I3
sg27
I87
sa(dp869
g21
VCLONDAW CASTLE
p870
sg23
V1317x
p871
sg25
I78
sg26
I4
sg27
I76
sa(dp872
g21
VKUPATANA
p873
sg23
V121x1
p874
sg25
I100
sg26
I5
sg27
I100
sa(dp875
g21
VTHE LAST DAY
p876
sg23
V1341x
p877
sg25
I73
sg26
I6
sg27
I79
sa(dp878
g21
VAL SHAHIR
p879
sg23
V1x0x4
p880
sg25
I81
sg26
I7
sg27
I84
sasg61
(lp881
sssI1543591500
(dp882
g2
Vhttp://www.skyracing.com.au/index.php?component=racing&task=race&id=108338734&meetingid=107359657&Itemid=89
p883
sg4
V29030629.1525
p884
sg6
(dp885
g8
(lp886
(lp887
I8
aI12
aI3
aI6
aa(lp888
I3
aI8
aI6
aI5
aa(lp889
I3
aI8
aI5
aI7
aa(lp890
I3
aI6
aI8
aI5
aa(lp891
I12
aI6
aI8
aI3
aa(lp892
I3
aI8
aI12
aI6
aa(lp893
I12
aI3
aI11
aI8
aa(lp894
I3
aI8
aI6
aI12
aasg18
(lp895
(dp896
g21
VBIG BAD BEAR
p897
sg23
g244
sg25
I77
sg26
I1
sg27
I0
sa(dp898
g21
VBIG NASTY
p899
sg23
g244
sg25
I72
sg26
I2
sg27
I0
sa(dp900
g21
VCHAMPAGNE WELL
p901
sg23
V371x5
p902
sg25
I96
sg26
I3
sg27
I89
sa(dp903
g21
VDHOWIN
p904
sg23
g244
sg25
I83
sg26
I4
sg27
I0
sa(dp905
g21
VDR TIME
p906
sg23
V7
p907
sg25
I73
sg26
I5
sg27
I74
sa(dp908
g21
VENLIGHTEN
p909
sg23
V3x6x
p910
sg25
I88
sg26
I6
sg27
I84
sa(dp911
g21
VJIMMI CHEW
p912
sg23
V2x5
p913
sg25
I86
sg26
I7
sg27
I77
sa(dp914
g21
VLANTIERN
p915
sg23
V5
p916
sg25
I92
sg26
I8
sg27
I100
sa(dp917
g21
VMALLY COLLIER
p918
sg23
g244
sg25
I69
sg26
I9
sg27
I0
sa(dp919
g21
VMONTANA GREY
p920
sg23
g244
sg25
I78
sg26
I10
sg27
I0
sa(dp921
g21
VNINEOHTWOONEOH
p922
sg23
g244
sg25
I93
sg26
I11
sg27
I0
sa(dp923
g21
VTRIBESMANS GLORY
p924
sg23
V1x
p925
sg25
I100
sg26
I12
sg27
I97
sasg61
(lp926
sssI1543582800
(dp927
g2
Vhttp://www.skyracing.com.au/index.php?component=racing&task=race&id=108338716&meetingid=107359689&Itemid=89
p928
sg4
V29029467.1300
p929
sg6
(dp930
g8
(lp931
(lp932
I5
aI4
aI8
aI3
aa(lp933
I3
aI5
aI2
aI1
aa(lp934
I3
aI5
aI2
aI1
aa(lp935
I5
aI3
aI1
aI2
aa(lp936
I3
aI5
aI2
aI1
aa(lp937
I4
aI5
aI3
aI8
aa(lp938
I4
aI8
aI5
aI3
aa(lp939
I5
aI3
aI4
aI2
aasg18
(lp940
(dp941
g21
VMORNING WONDER
p942
sg23
V73x61
p943
sg25
I83
sg26
I1
sg27
I78
sa(dp944
g21
VBUSY STREET
p945
sg23
V12223
p946
sg25
I78
sg26
I2
sg27
I81
sa(dp947
g21
VNOT SO SLEEPY
p948
sg23
V42232
p949
sg25
I85
sg26
I3
sg27
I86
sa(dp950
g21
VCORELLI
p951
sg23
V1x13x
p952
sg25
I100
sg26
I4
sg27
I95
sa(dp953
g21
VMY LORD AND MASTER
p954
sg23
V6x820
p955
sg25
I93
sg26
I5
sg27
I100
sa(dp956
g21
VTHREE WEEKS
p957
sg23
V5x464
p958
sg25
I73
sg26
I6
sg27
I75
sa(dp959
g21
VNEW DREAM
p960
sg23
V698
p961
sg25
I72
sg26
I7
sg27
I68
sa(dp962
g21
VVICTORIA DRUMMOND
p963
sg23
V5x113
p964
sg25
I97
sg26
I8
sg27
I88
sasg61
(lp965
sssI1543584600
(dp966
g2
Vhttp://www.skyracing.com.au/index.php?component=racing&task=race&id=108338717&meetingid=107359689&Itemid=89
p967
sg4
V29029467.1330
p968
sg6
(dp969
g8
(lp970
(lp971
I6
aI4
aI3
aI1
aa(lp972
I7
aI1
aI5
aI3
aa(lp973
I1
aI5
aI6
aI4
aa(lp974
I7
aI1
aI2
aI3
aa(lp975
I7
aI1
aI3
aI4
aa(lp976
I4
aI6
aI1
aI3
aa(lp977
I4
aI3
aI7
aI6
aa(lp978
I1
aI7
aI6
aI4
aasg18
(lp979
(dp980
g21
VKOMMANDER KIRKUP
p981
sg23
V07576
p982
sg25
I76
sg26
I1
sg27
I85
sa(dp983
g21
VCHEZ VEGAS
p984
sg23
V5x68x
p985
sg25
I89
sg26
I2
sg27
I72
sa(dp986
g21
VEPONINA
p987
sg23
V16x97
p988
sg25
I100
sg26
I3
sg27
I90
sa(dp989
g21
VFIRST EXCEL
p990
sg23
V0x503
p991
sg25
I99
sg26
I4
sg27
I95
sa(dp992
g21
VARCHIMEDES
p993
sg23
V40240
p994
sg25
I79
sg26
I5
sg27
I66
sa(dp995
g21
VHUNTSMANS CLOSE
p996
sg23
V80792
p997
sg25
I92
sg26
I6
sg27
I100
sa(dp998
g21
VSATCHVILLE FLYER
p999
sg23
V60430
p1000
sg25
I84
sg26
I7
sg27
I78
sa(dp1001
g21
VCOISTE BODHAR
p1002
sg23
V03968
p1003
sg25
I70
sg26
I8
sg27
I76
sasg61
(lp1004
sssI1543576800
(dp1005
g2
Vhttp://www.skyracing.com.au/index.php?component=racing&task=race&id=108338713&meetingid=107359689&Itemid=89
p1006
sg4
V29029467.1120
p1007
sg6
(dp1008
g8
(lp1009
(lp1010
I3
aI4
aI5
aI6
aa(lp1011
I2
aI4
aI1
aI5
aa(lp1012
I7
aI3
aI4
aI6
aa(lp1013
I2
aI7
aI3
aI4
aa(lp1014
I7
aI5
aI6
aI2
aa(lp1015
I6
aI3
aI4
aI5
aa(lp1016
I3
aI4
aI5
aI7
aa(lp1017
I3
aI4
aI7
aI2
aasg18
(lp1018
(dp1019
g21
VDAHIK
p1020
sg23
V60000
p1021
sg25
I77
sg26
I1
sg27
I74
sa(dp1022
g21
VDECISION MAKER
p1023
sg23
Vx060x
p1024
sg25
I79
sg26
I2
sg27
I84
sa(dp1025
g21
VHONEY GG
p1026
sg23
V49122
p1027
sg25
I97
sg26
I3
sg27
I100
sa(dp1028
g21
VMININGGOLD
p1029
sg23
V35743
p1030
sg25
I100
sg26
I4
sg27
I99
sa(dp1031
g21
VSTAR CRACKER
p1032
sg23
V39201
p1033
sg25
I95
sg26
I5
sg27
I95
sa(dp1034
g21
VFURNI FACTORS
p1035
sg23
V36328
p1036
sg25
I88
sg26
I6
sg27
I92
sa(dp1037
g21
VPEARL NOIR
p1038
sg23
V92156
p1039
sg25
I92
sg26
I7
sg27
I88
sa(dp1040
g21
VARCHIE STEVENS
p1041
sg23
V9x590
p1042
sg25
I84
sg26
I8
sg27
I83
sa(dp1043
g21
VELLIOT THE DRAGON
p1044
sg23
V30x70
p1045
sg25
I65
sg26
I9
sg27
I62
sa(dp1046
g21
VGORGEOUS GENERAL
p1047
sg23
V97x43
p1048
sg25
I73
sg26
I10
sg27
I76
sa(dp1049
g21
VNUZHA
p1050
sg23
V20x56
p1051
sg25
I72
sg26
I11
sg27
I78
sa(dp1052
g21
VCAMANCHE GREY
p1053
sg23
V36036
p1054
sg25
I83
sg26
I12
sg27
I69
sa(dp1055
g21
VKODIMOOR
p1056
sg23
V44780
p1057
sg25
I69
sg26
I13
sg27
I72
sa(dp1058
g21
VMYSTICAL MOON
p1059
sg23
V47705
p1060
sg25
I62
sg26
I14
sg27
I67
sasg61
(lp1061
sssI1543592400
(dp1062
g2
Vhttp://www.skyracing.com.au/index.php?component=racing&task=race&id=108338779&meetingid=107750887&Itemid=89
p1063
sg4
V29030627.1540
p1064
sg6
(dp1065
g8
(lp1066
(lp1067
I8
aI12
aI9
aI11
aa(lp1068
I8
aI12
aI9
aI6
aa(lp1069
I8
aI12
aI4
aI7
aa(lp1070
I8
aI12
aI9
aI6
aa(lp1071
I8
aI12
aI11
aI9
aa(lp1072
I12
aI8
aI11
aI9
aa(lp1073
I8
aI12
aI9
aI11
aa(lp1074
I8
aI12
aI9
aI11
aasg18
(lp1075
(dp1076
g21
VCLEAR LEFT
p1077
sg23
V5
p1078
sg25
I79
sg26
I1
sg27
I84
sa(dp1079
g21
VDUTY GIRL
p1080
sg23
V00x
p1081
sg25
I67
sg26
I2
sg27
I73
sa(dp1082
g21
VEDITH COLLIER
p1083
sg23
V00
p1084
sg25
I63
sg26
I3
sg27
I71
sa(dp1085
g21
VKILBEG BERNIE
p1086
sg23
V77x5
p1087
sg25
I77
sg26
I4
sg27
I80
sa(dp1088
g21
VLADY MCCABE
p1089
sg23
V6x5
p1090
sg25
I72
sg26
I5
sg27
I75
sa(dp1091
g21
VMISS TULPAR
p1092
sg23
V5x
p1093
sg25
I83
sg26
I6
sg27
I86
sa(dp1094
g21
VANNIE ODDS
p1095
sg23
V8x4
p1096
sg25
I74
sg26
I7
sg27
I77
sa(dp1097
g21
VARION SKY
p1098
sg23
V3
p1099
sg25
I100
sg26
I8
sg27
I100
sa(dp1100
g21
VDOLLY DANCER
p1101
sg23
V4x
p1102
sg25
I95
sg26
I9
sg27
I93
sa(dp1103
g21
VGLINT IN HER EYE
p1104
sg23
g244
sg25
I68
sg26
I10
sg27
I0
sa(dp1105
g21
VGOTTHENOD
p1106
sg23
V2x
p1107
sg25
I92
sg26
I11
sg27
I89
sa(dp1108
g21
VMISS CEDILLE
p1109
sg23
V2
p1110
sg25
I96
sg26
I12
sg27
I95
sa(dp1111
g21
VSCARLET AND DOVE
p1112
sg23
g244
sg25
I89
sg26
I13
sg27
I0
sa(dp1113
g21
VTUDORS GLORY
p1114
sg23
g244
sg25
I86
sg26
I14
sg27
I0
sasg61
(lp1115
sssI1543587300
(dp1116
g2
Vhttp://www.skyracing.com.au/index.php?component=racing&task=race&id=108338732&meetingid=107359657&Itemid=89
p1117
sg4
V29030629.1415
p1118
sg6
(dp1119
g8
(lp1120
(lp1121
I1
aI2
aI6
aI3
aa(lp1122
I2
aI1
aI5
aI3
aa(lp1123
I5
aI1
aI6
aI3
aa(lp1124
I2
aI5
aI1
aI6
aa(lp1125
I2
aI7
aI1
aI6
aa(lp1126
I2
aI1
aI6
aI3
aa(lp1127
I1
aI2
aI3
aI6
aa(lp1128
I2
aI1
aI5
aI6
aasg18
(lp1129
(dp1130
g21
VNEACHELLS BRIDGE
p1131
sg23
V53x51
p1132
sg25
I100
sg26
I1
sg27
I100
sa(dp1133
g21
VJOUEUR BRESILIEN
p1134
sg23
Vx741x
p1135
sg25
I99
sg26
I2
sg27
I93
sa(dp1136
g21
VHOWTH SUMMIT
p1137
sg23
V9154
p1138
sg25
I93
sg26
I3
sg27
I81
sa(dp1139
g21
VMOUNTAIN RANGER
p1140
sg23
V06550
p1141
sg25
I79
sg26
I4
sg27
I68
sa(dp1142
g21
VCUT AND RUN
p1143
sg23
Vx9x55
p1144
sg25
I74
sg26
I5
sg27
I73
sa(dp1145
g21
VALMOST GOLD
p1146
sg23
V774x3
p1147
sg25
I89
sg26
I6
sg27
I88
sa(dp1148
g21
VALONG CAME THEO
p1149
sg23
V2227x
p1150
sg25
I82
sg26
I7
sg27
I76
sasg61
(lp1151
sssI1543578600
(dp1152
g2
Vhttp://www.skyracing.com.au/index.php?component=racing&task=race&id=108338714&meetingid=107359689&Itemid=89
p1153
sg4
V29029467.1150
p1154
sg6
(dp1155
g8
(lp1156
(lp1157
I4
aI1
aI6
aI3
aa(lp1158
I3
aI9
aI1
aI2
aa(lp1159
I4
aI1
aI5
aI7
aa(lp1160
I1
aI7
aI12
aI3
aa(lp1161
I3
aI9
aI4
aI6
aa(lp1162
I4
aI1
aI6
aI3
aa(lp1163
I4
aI1
aI9
aI2
aa(lp1164
I1
aI4
aI3
aI9
aasg18
(lp1165
(dp1166
g21
VFATHER MCKENZIE
p1167
sg23
V78x55
p1168
sg25
I96
sg26
I1
sg27
I97
sa(dp1169
g21
VFUEL INJECTION
p1170
sg23
V3088x
p1171
sg25
I90
sg26
I2
sg27
I80
sa(dp1172
g21
VGIVE EM A CLUMP
p1173
sg23
V44604
p1174
sg25
I86
sg26
I3
sg27
I91
sa(dp1175
g21
VNOVABRIDGE
p1176
sg23
V71x35
p1177
sg25
I100
sg26
I4
sg27
I100
sa(dp1178
g21
VPURPLE DRAGON
p1179
sg23
Vx3x97
p1180
sg25
I79
sg26
I5
sg27
I87
sa(dp1181
g21
VFIRST BREATH
p1182
sg23
V30x86
p1183
sg25
I80
sg26
I6
sg27
I95
sa(dp1184
g21
VDIVINE CALL
p1185
sg23
V88966
p1186
sg25
I87
sg26
I7
sg27
I85
sa(dp1187
g21
VSTORM TROOPER
p1188
sg23
Vx7068
p1189
sg25
I75
sg26
I8
sg27
I75
sa(dp1190
g21
VSIR GEOFFREY
p1191
sg23
V80x06
p1192
sg25
I94
sg26
I9
sg27
I79
sa(dp1193
g21
VFRANGARRY
p1194
sg23
V0x46x
p1195
sg25
I70
sg26
I10
sg27
I68
sa(dp1196
g21
VROBBIAN
p1197
sg23
V629x0
p1198
sg25
I72
sg26
I11
sg27
I72
sa(dp1199
g21
VGIFTED LADY
p1200
sg23
V05x9x
p1201
sg25
I74
sg26
I12
sg27
I73
sasg61
(lp1202
sssI1543590000
(dp1203
g2
Vhttp://www.skyracing.com.au/index.php?component=racing&task=race&id=108338763&meetingid=107359673&Itemid=89
p1204
sg4
V29030631.1500
p1205
sg6
(dp1206
g8
(lp1207
(lp1208
I2
aI1
aI7
aI8
aa(lp1209
I2
aI7
aI4
aI3
aa(lp1210
I2
aI7
aI5
aI6
aa(lp1211
I4
aI7
aI1
aI2
aa(lp1212
I2
aI7
aI3
aI4
aa(lp1213
I2
aI1
aI8
aI7
aa(lp1214
I2
aI7
aI1
aI3
aa(lp1215
I2
aI7
aI1
aI4
aasg18
(lp1216
(dp1217
g21
VSAM SPINNER
p1218
sg23
V1x53x
p1219
sg25
I96
sg26
I1
sg27
I99
sa(dp1220
g21
VWHOLESTONE
p1221
sg23
V323x1
p1222
sg25
I100
sg26
I2
sg27
I100
sa(dp1223
g21
VCLYNE
p1224
sg23
V4413x
p1225
sg25
I80
sg26
I3
sg27
I80
sa(dp1226
g21
VKRIS SPIN
p1227
sg23
V6011x
p1228
sg25
I70
sg26
I4
sg27
I72
sa(dp1229
g21
VMONBEG THEATRE
p1230
sg23
V11x13
p1231
sg25
I83
sg26
I5
sg27
I84
sa(dp1232
g21
VTHE MIGHTY DON
p1233
sg23
V95x41
p1234
sg25
I74
sg26
I6
sg27
I74
sa(dp1235
g21
VUNOWHATIMEANHARRY
p1236
sg23
V3x0x3
p1237
sg25
I87
sg26
I7
sg27
I90
sa(dp1238
g21
VMOMELLA
p1239
sg23
V21x3x
p1240
sg25
I90
sg26
I8
sg27
I85
sasg61
(lp1241
sssI1543588200
(dp1242
g2
Vhttp://www.skyracing.com.au/index.php?component=racing&task=race&id=108338777&meetingid=107750887&Itemid=89
p1243
sg4
V29030627.1430
p1244
sg6
(dp1245
g8
(lp1246
(lp1247
I5
aI3
aI10
aI1
aa(lp1248
I2
aI5
aI4
aI14
aa(lp1249
I5
aI1
aI10
aI12
aa(lp1250
I2
aI14
aI1
aI10
aa(lp1251
I5
aI14
aI12
aI13
aa(lp1252
I1
aI5
aI10
aI12
aa(lp1253
I3
aI1
aI6
aI5
aa(lp1254
I5
aI1
aI2
aI10
aasg18
(lp1255
(dp1256
g21
VDANALI
p1257
sg23
V85023
p1258
sg25
I95
sg26
I1
sg27
I89
sa(dp1259
g21
VAN'BALL
p1260
sg23
V207x4
p1261
sg25
I76
sg26
I2
sg27
I76
sa(dp1262
g21
VPLAN OF ATTACK
p1263
sg23
V3x346
p1264
sg25
I100
sg26
I3
sg27
I98
sa(dp1265
g21
VOPEN TO THE WORLD
p1266
sg23
Vx3720
p1267
sg25
I74
sg26
I4
sg27
I80
sa(dp1268
g21
VWHATSINTHECORNER
p1269
sg23
V02212
p1270
sg25
I98
sg26
I5
sg27
I100
sa(dp1271
g21
VBALLYMADUN
p1272
sg23
V0x40x
p1273
sg25
I92
sg26
I6
sg27
I83
sa(dp1274
g21
VOFFICERS MESS
p1275
sg23
V157x8
p1276
sg25
I78
sg26
I7
sg27
I62
sa(dp1277
g21
VNAPOLEON BLUE
p1278
sg23
V04x08
p1279
sg25
I84
sg26
I8
sg27
I63
sa(dp1280
g21
VLOCAL ROGUE
p1281
sg23
V3x00
p1282
sg25
I68
sg26
I9
sg27
I68
sa(dp1283
g21
VASKARI
p1284
sg23
V03332
p1285
sg25
I93
sg26
I10
sg27
I90
sa(dp1286
g21
VGALUPPI
p1287
sg23
V0x8x9
p1288
sg25
I72
sg26
I11
sg27
I71
sa(dp1289
g21
VRATHNALEEN GIRL
p1290
sg23
V33432
p1291
sg25
I86
sg26
I12
sg27
I86
sa(dp1292
g21
VWARRIOR ASSASSIN
p1293
sg23
V072x0
p1294
sg25
I64
sg26
I13
sg27
I60
sa(dp1295
g21
VLAMBS LANE
p1296
sg23
V0007x
p1297
sg25
I63
sg26
I14
sg27
I58
sa(dp1298
g21
VBANQUET HILL
p1299
sg23
V4400x
p1300
sg25
I81
sg26
I15
sg27
I82
sa(dp1301
g21
VTHE HORSECHESNUT
p1302
sg23
Vx889x
p1303
sg25
I88
sg26
I16
sg27
I73
sa(dp1304
g21
VALLDUCKORNODINNER
p1305
sg23
V6x60x
p1306
sg25
I66
sg26
I17
sg27
I67
sasg61
(lp1307
sssI1543581300
(dp1308
g2
Vhttp://www.skyracing.com.au/index.php?component=racing&task=race&id=108338729&meetingid=107359657&Itemid=89
p1309
sg4
V29030629.1235
p1310
sg6
(dp1311
g8
(lp1312
(lp1313
I3
aI1
aI2
aI4
aa(lp1314
I1
aI4
aI5
aI2
aa(lp1315
I1
aI4
aI2
aI3
aa(lp1316
I1
aI2
aI3
aI5
aa(lp1317
I3
aI2
aI4
aI1
aa(lp1318
I2
aI3
aI1
aI6
aa(lp1319
I1
aI3
aI2
aI4
aa(lp1320
I1
aI2
aI3
aI4
aasg18
(lp1321
(dp1322
g21
VCHARMANT
p1323
sg23
V424x1
p1324
sg25
I100
sg26
I1
sg27
I98
sa(dp1325
g21
VMERCIAN KING
p1326
sg23
V6x120
p1327
sg25
I93
sg26
I2
sg27
I90
sa(dp1328
g21
VPEPPAY LE PUGH
p1329
sg23
V21332
p1330
sg25
I95
sg26
I3
sg27
I100
sa(dp1331
g21
VREAL WARRIOR
p1332
sg23
V0x3x2
p1333
sg25
I89
sg26
I4
sg27
I83
sa(dp1334
g21
VINSTANT REPLAY
p1335
sg23
V27x08
p1336
sg25
I78
sg26
I5
sg27
I76
sa(dp1337
g21
VGET RHYTHM
p1338
sg23
V587x6
p1339
sg25
I82
sg26
I6
sg27
I78
sasg61
(lp1340
sssI1543582200
(dp1341
g2
Vhttp://www.skyracing.com.au/index.php?component=racing&task=race&id=108338774&meetingid=107750887&Itemid=89
p1342
sg4
V29030627.1250
p1343
sg6
(dp1344
g8
(lp1345
(lp1346
I6
aI2
aI1
aI9
aa(lp1347
I4
aI1
aI13
aI12
aa(lp1348
I1
aI4
aI6
aI8
aa(lp1349
I4
aI1
aI12
aI13
aa(lp1350
I4
aI11
aI17
aI2
aa(lp1351
I6
aI2
aI1
aI9
aa(lp1352
I6
aI1
aI11
aI2
aa(lp1353
I4
aI1
aI6
aI2
aasg18
(lp1354
(dp1355
g21
VEMPIRE BURLEQUE
p1356
sg23
Vx9x44
p1357
sg25
I99
sg26
I1
sg27
I94
sa(dp1358
g21
VAFOREMENTIONED
p1359
sg23
V3x0x
p1360
sg25
I95
sg26
I2
sg27
I99
sa(dp1361
g21
VBUCKBASIL
p1362
sg23
V00
p1363
sg25
I67
sg26
I3
sg27
I60
sa(dp1364
g21
VCLASSIC CONCORDE
p1365
sg23
V002x0
p1366
sg25
I74
sg26
I4
sg27
I73
sa(dp1367
g21
VENQUIRE
p1368
sg23
V60
p1369
sg25
I65
sg26
I5
sg27
I63
sa(dp1370
g21
VFREE RANGER
p1371
sg23
V22x32
p1372
sg25
I100
sg26
I6
sg27
I100
sa(dp1373
g21
VGLAMORGAN DUKE
p1374
sg23
g244
sg25
I77
sg26
I7
sg27
I0
sa(dp1375
g21
VHOME PLACE
p1376
sg23
V33x00
p1377
sg25
I62
sg26
I8
sg27
I66
sa(dp1378
g21
VILIKEDWAYURTHINKIN
p1379
sg23
V62x
p1380
sg25
I93
sg26
I9
sg27
I90
sa(dp1381
g21
VERINYES
p1382
sg23
V72x0x
p1383
sg25
I82
sg26
I10
sg27
I75
sa(dp1384
g21
VASK MARY
p1385
sg23
V110x5
p1386
sg25
I91
sg26
I11
sg27
I78
sa(dp1387
g21
VDUKE'S GIRL
p1388
sg23
V7x782
p1389
sg25
I86
sg26
I12
sg27
I85
sa(dp1390
g21
VHOLLOW CREST
p1391
sg23
V57x05
p1392
sg25
I84
sg26
I13
sg27
I80
sa(dp1393
g21
VUFFIZY
p1394
sg23
V0
p1395
sg25
I68
sg26
I14
sg27
I68
sa(dp1396
g21
VNEVERGURNY
p1397
sg23
g244
sg25
I79
sg26
I15
sg27
I0
sa(dp1398
g21
VI'M CHARLIE
p1399
sg23
V8
p1400
sg25
I71
sg26
I16
sg27
I71
sa(dp1401
g21
VDRIFTING BACK
p1402
sg23
V3x
p1403
sg25
I88
sg26
I17
sg27
I87
sasg61
(lp1404
sss.