(dp0
I1543412100
(dp1
S'skyracing_url'
p2
Vhttp://www.skyracing.com.au/index.php?component=racing&task=race&id=108287211&meetingid=107358090&Itemid=89
p3
sS'betfair_raceid'
p4
V29028208.1335
p5
sS'dat2'
p6
(dp7
S'ratings_auto'
p8
(lp9
(lp10
I3
aI7
aI1
aI11
aa(lp11
I1
aI7
aI10
aI8
aa(lp12
I7
aI1
aI8
aI11
aa(lp13
I1
aI4
aI10
aI7
aa(lp14
I11
aI1
aI7
aI8
aa(lp15
I1
aI3
aI7
aI11
aa(lp16
I3
aI7
aI4
aI11
aa(lp17
I1
aI7
aI3
aI11
aasS'horse_details'
p18
(lp19
(dp20
S'horse_name'
p21
VOMEGA SPRINGS
p22
sS'horse_form'
p23
V23615
p24
sS'rating_2'
p25
I88
sS'horse_number'
p26
I1
sS'rating_1'
p27
I93
sa(dp28
g21
VLE CAPRICIEUX
p29
sg23
V0385x
p30
sg25
I86
sg26
I2
sg27
I88
sa(dp31
g21
VWENCESLAUS
p32
sg23
Vx7311
p33
sg25
I100
sg26
I3
sg27
I100
sa(dp34
g21
VSHREWD TACTICS
p35
sg23
V842x5
p36
sg25
I94
sg26
I4
sg27
I85
sa(dp37
g21
VASKNOTWHAT
p38
sg23
Vx440x
p39
sg25
I73
sg26
I5
sg27
I78
sa(dp40
g21
VBRIAC
p41
sg23
V83x0x
p42
sg25
I77
sg26
I6
sg27
I76
sa(dp43
g21
VLORD FENDALE
p44
sg23
V2x322
p45
sg25
I99
sg26
I7
sg27
I98
sa(dp46
g21
VMOUNTAIN CHIMES
p47
sg23
V87834
p48
sg25
I81
sg26
I8
sg27
I83
sa(dp49
g21
VOVERAWED
p50
sg23
V0x55x
p51
sg25
I79
sg26
I9
sg27
I73
sa(dp52
g21
VSCRUPULEUX
p53
sg23
V516x0
p54
sg25
I72
sg26
I10
sg27
I68
sa(dp55
g21
VCENTREOFEXCELLENCE
p56
sg23
V85312
p57
sg25
I91
sg26
I11
sg27
I90
sa(dp58
g21
VDIABLERETS
p59
sg23
V09x02
p60
sg25
I71
sg26
I12
sg27
I70
sasS'ratings_manual'
p61
(lp62
sssI1543413000
(dp63
g2
Vhttp://www.skyracing.com.au/index.php?component=racing&task=race&id=108287227&meetingid=107358122&Itemid=89
p64
sg4
V29028251.1350
p65
sg6
(dp66
g8
(lp67
(lp68
I7
aI3
aI4
aI2
aa(lp69
I7
aI3
aI4
aI2
aa(lp70
I7
aI4
aI5
aI2
aa(lp71
I7
aI3
aI4
aI5
aa(lp72
I7
aI4
aI3
aI5
aa(lp73
I7
aI3
aI4
aI5
aa(lp74
I7
aI3
aI4
aI2
aa(lp75
I7
aI3
aI4
aI5
aasg18
(lp76
(dp77
g21
VDARRY DESBOIS
p78
sg23
V0x0x
p79
sg25
I66
sg26
I1
sg27
I66
sa(dp80
g21
VDEW POND
p81
sg23
Vx0685
p82
sg25
I89
sg26
I2
sg27
I88
sa(dp83
g21
VIMPERIAL ACOLYTE
p84
sg23
V5x
p85
sg25
I97
sg26
I3
sg27
I95
sa(dp86
g21
VLOPES DANCER
p87
sg23
V07601
p88
sg25
I90
sg26
I4
sg27
I93
sa(dp89
g21
VREGARDE MOI
p90
sg23
V95957
p91
sg25
I81
sg26
I5
sg27
I79
sa(dp92
g21
VSTECCANDO
p93
sg23
V2376x
p94
sg25
I76
sg26
I6
sg27
I76
sa(dp95
g21
VTHE VERY THING
p96
sg23
V4x3
p97
sg25
I100
sg26
I7
sg27
I100
sa(dp98
g21
VUP THE DRIVE
p99
sg23
V2x800
p100
sg25
I80
sg26
I8
sg27
I84
sa(dp101
g21
VDRUMOCHTER
p102
sg23
V464x5
p103
sg25
I71
sg26
I9
sg27
I72
sasg61
(lp104
sssI1543413900
(dp105
g2
Vhttp://www.skyracing.com.au/index.php?component=racing&task=race&id=108287212&meetingid=107358090&Itemid=89
p106
sg4
V29028208.1405
p107
sg6
(dp108
g8
(lp109
(lp110
I3
aI4
aI8
aI7
aa(lp111
I7
aI10
aI6
aI2
aa(lp112
I10
aI6
aI7
aI2
aa(lp113
I7
aI2
aI8
aI6
aa(lp114
I8
aI10
aI3
aI7
aa(lp115
I4
aI3
aI8
aI7
aa(lp116
I4
aI3
aI8
aI7
aa(lp117
I7
aI8
aI10
aI3
aasg18
(lp118
(dp119
g21
VAUMIT HILL
p120
sg23
V482x6
p121
sg25
I74
sg26
I1
sg27
I72
sa(dp122
g21
VBALACH MOR
p123
sg23
V9x0x5
p124
sg25
I77
sg26
I2
sg27
I76
sa(dp125
g21
VDANNY WHIZZBANG
p126
sg23
V0x1x
p127
sg25
I100
sg26
I3
sg27
I100
sa(dp128
g21
VFINANCIAL OUTCOME
p129
sg23
V0811x
p130
sg25
I97
sg26
I4
sg27
I98
sa(dp131
g21
VJOT'EM DOWN
p132
sg23
Vx510x
p133
sg25
I85
sg26
I5
sg27
I83
sa(dp134
g21
VMASTER CARD
p135
sg23
V7x4
p136
sg25
I87
sg26
I6
sg27
I88
sa(dp137
g21
VMASTER TRADESMAN
p138
sg23
Vx22x8
p139
sg25
I92
sg26
I7
sg27
I90
sa(dp140
g21
VSOME OPERATOR
p141
sg23
V1x5
p142
sg25
I95
sg26
I8
sg27
I93
sa(dp143
g21
VSTRIPE OF HONOUR
p144
sg23
V9x9x0
p145
sg25
I71
sg26
I9
sg27
I74
sa(dp146
g21
VTIMCODA
p147
sg23
V33x29
p148
sg25
I82
sg26
I10
sg27
I84
sa(dp149
g21
VYESANDNO
p150
sg23
V0x3x0
p151
sg25
I78
sg26
I11
sg27
I78
sasg61
(lp152
sssI1543414800
(dp153
g2
Vhttp://www.skyracing.com.au/index.php?component=racing&task=race&id=108287228&meetingid=107358122&Itemid=89
p154
sg4
V29028251.1420
p155
sg6
(dp156
g8
(lp157
(lp158
I2
aI9
aI4
aI1
aa(lp159
I4
aI2
aI3
aI1
aa(lp160
I2
aI5
aI9
aI3
aa(lp161
I4
aI2
aI1
aI6
aa(lp162
I2
aI9
aI1
aI4
aa(lp163
I2
aI9
aI4
aI5
aa(lp164
I1
aI4
aI2
aI9
aa(lp165
I2
aI4
aI9
aI1
aasg18
(lp166
(dp167
g21
VDEMI SANG
p168
sg23
V1400x
p169
sg25
I100
sg26
I1
sg27
I89
sa(dp170
g21
VTHEFLYINGPORTRAIT
p171
sg23
V25312
p172
sg25
I99
sg26
I2
sg27
I100
sa(dp173
g21
VROBBING THE PREY
p174
sg23
V631x9
p175
sg25
I75
sg26
I3
sg27
I75
sa(dp176
g21
VSPECIAL CATCH
p177
sg23
V28x4x
p178
sg25
I86
sg26
I4
sg27
I91
sa(dp179
g21
VOAK VINTAGE
p180
sg23
V16x14
p181
sg25
I79
sg26
I5
sg27
I83
sa(dp182
g21
VVENDOR
p183
sg23
Vx62x6
p184
sg25
I71
sg26
I6
sg27
I71
sa(dp185
g21
VFAIR LOCH
p186
sg23
V1637x
p187
sg25
I66
sg26
I7
sg27
I68
sa(dp188
g21
VHORST
p189
sg23
V11313
p190
sg25
I81
sg26
I8
sg27
I78
sa(dp191
g21
VSAVELLO
p192
sg23
V035x2
p193
sg25
I93
sg26
I9
sg27
I98
sasg61
(lp194
sssI1543415700
(dp195
g2
Vhttp://www.skyracing.com.au/index.php?component=racing&task=race&id=108287213&meetingid=107358090&Itemid=89
p196
sg4
V29028208.1435
p197
sg6
(dp198
g8
(lp199
(lp200
I2
aI3
aI1
aI4
aa(lp201
I3
aI2
aI6
aI4
aa(lp202
I3
aI2
aI1
aI4
aa(lp203
I2
aI6
aI3
aI1
aa(lp204
I3
aI4
aI7
aI1
aa(lp205
I3
aI2
aI1
aI4
aa(lp206
I3
aI2
aI1
aI6
aa(lp207
I3
aI2
aI1
aI4
aasg18
(lp208
(dp209
g21
VCUBSWIN
p210
sg23
Vx2646
p211
sg25
I90
sg26
I1
sg27
I89
sa(dp212
g21
VSULA ISLAND
p213
sg23
V34x14
p214
sg25
I96
sg26
I2
sg27
I100
sa(dp215
g21
VSHAMBRA
p216
sg23
V45x22
p217
sg25
I100
sg26
I3
sg27
I96
sa(dp218
g21
VSHE'S GINA
p219
sg23
V271x7
p220
sg25
I82
sg26
I4
sg27
I85
sa(dp221
g21
VHIJRAN
p222
sg23
V321x4
p223
sg25
I78
sg26
I5
sg27
I76
sa(dp224
g21
VEVERLANES
p225
sg23
Vx44x2
p226
sg25
I87
sg26
I6
sg27
I79
sa(dp227
g21
VSPIRIT OF ROME
p228
sg23
V4x53x
p229
sg25
I74
sg26
I7
sg27
I74
sa(dp230
g21
VLITTLE DOTTY
p231
sg23
V8x65x
p232
sg25
I70
sg26
I8
sg27
I66
sasg61
(lp233
sssI1543416600
(dp234
g2
Vhttp://www.skyracing.com.au/index.php?component=racing&task=race&id=108287229&meetingid=107358122&Itemid=89
p235
sg4
V29028251.1450
p236
sg6
(dp237
g8
(lp238
(lp239
I3
aI4
aI8
aI1
aa(lp240
I4
aI5
aI8
aI6
aa(lp241
I8
aI5
aI4
aI3
aa(lp242
I7
aI4
aI8
aI12
aa(lp243
I8
aI6
aI4
aI3
aa(lp244
I3
aI4
aI8
aI11
aa(lp245
I11
aI5
aI3
aI9
aa(lp246
I4
aI8
aI3
aI5
aasg18
(lp247
(dp248
g21
VZIG ZAG
p249
sg23
V26793
p250
sg25
I79
sg26
I1
sg27
I92
sa(dp251
g21
VGARS BAR DINE
p252
sg23
V09x4x
p253
sg25
I70
sg26
I2
sg27
I77
sa(dp254
g21
VWIND PLACE AND SHO
p255
sg23
V35312
p256
sg25
I100
sg26
I3
sg27
I100
sa(dp257
g21
VSLEEPY HAVEN
p258
sg23
V57x62
p259
sg25
I93
sg26
I4
sg27
I99
sa(dp260
g21
VVISERION
p261
sg23
V07x07
p262
sg25
I97
sg26
I5
sg27
I73
sa(dp263
g21
VCORZEAM
p264
sg23
Vx03x0
p265
sg25
I71
sg26
I6
sg27
I71
sa(dp266
g21
VBLUE HUSSAR
p267
sg23
V6x465
p268
sg25
I84
sg26
I7
sg27
I70
sa(dp269
g21
VSHERIFF GARRETT
p270
sg23
V82342
p271
sg25
I80
sg26
I8
sg27
I94
sa(dp272
g21
VALWAYS RESOLUTE
p273
sg23
V30248
p274
sg25
I92
sg26
I9
sg27
I83
sa(dp275
g21
VGLOBAL RULER
p276
sg23
V862x5
p277
sg25
I73
sg26
I10
sg27
I84
sa(dp278
g21
VAGE OF GLORY
p279
sg23
V7x51x
p280
sg25
I88
sg26
I11
sg27
I88
sa(dp281
g21
VOVERTHEEDGE
p282
sg23
V6394x
p283
sg25
I75
sg26
I12
sg27
I79
sasg61
(lp284
sssI1543421700
(dp285
g2
Vhttp://www.skyracing.com.au/index.php?component=racing&task=race&id=108287286&meetingid=107358106&Itemid=89
p286
sg4
V29026996.1615
p287
sg6
(dp288
g8
(lp289
(lp290
I10
aI2
aI9
aI8
aa(lp291
I10
aI9
aI8
aI5
aa(lp292
I10
aI9
aI8
aI5
aa(lp293
I10
aI9
aI8
aI5
aa(lp294
I10
aI9
aI8
aI3
aa(lp295
I10
aI2
aI9
aI8
aa(lp296
I10
aI2
aI9
aI8
aa(lp297
I10
aI9
aI8
aI2
aasg18
(lp298
(dp299
g21
VARRIBA DE TODA
p300
sg23
V8x
p301
sg25
I73
sg26
I1
sg27
I82
sa(dp302
g21
VDAARIK
p303
sg23
V0x
p304
sg25
I98
sg26
I2
sg27
I99
sa(dp305
g21
VGYLO
p306
sg23
V
p307
sg25
I80
sg26
I3
sg27
I0
sa(dp308
g21
VHALF FULL
p309
sg23
V0
p310
sg25
I68
sg26
I4
sg27
I77
sa(dp311
g21
VHIGH CONTRAST
p312
sg23
V69
p313
sg25
I86
sg26
I5
sg27
I88
sa(dp314
g21
VHOOFLEPUFF
p315
sg23
g307
sg25
I89
sg26
I6
sg27
I0
sa(dp316
g21
VWEARRAAH
p317
sg23
V05
p318
sg25
I66
sg26
I7
sg27
I71
sa(dp319
g21
VCAUSTIC LOVE
p320
sg23
V5
p321
sg25
I90
sg26
I8
sg27
I91
sa(dp322
g21
VDREAMING AWAY
p323
sg23
V6
p324
sg25
I95
sg26
I9
sg27
I95
sa(dp325
g21
VFABIOLLA
p326
sg23
V23
p327
sg25
I100
sg26
I10
sg27
I100
sa(dp328
g21
VGALLEY GOLD
p329
sg23
V00
p330
sg25
I72
sg26
I11
sg27
I79
sa(dp331
g21
VORA
p332
sg23
g307
sg25
I76
sg26
I12
sg27
I0
sa(dp333
g21
VPANDORA STAR
p334
sg23
V57
p335
sg25
I78
sg26
I13
sg27
I84
sa(dp336
g21
VREBELJUSTFORKICKS
p337
sg23
V00
p338
sg25
I63
sg26
I14
sg27
I74
sasg61
(lp339
sssI1543407900
(dp340
g2
Vhttp://www.skyracing.com.au/index.php?component=racing&task=race&id=108287194&meetingid=107749415&Itemid=89
p341
sg4
V29028212.1225
p342
sg6
(dp343
g8
(lp344
(lp345
I9
aI1
aI6
aI2
aa(lp346
I6
aI2
aI3
aI1
aa(lp347
I3
aI1
aI24
aI7
aa(lp348
I6
aI2
aI5
aI3
aa(lp349
I2
aI6
aI3
aI1
aa(lp350
I9
aI1
aI2
aI6
aa(lp351
I2
aI1
aI6
aI9
aa(lp352
I6
aI2
aI1
aI3
aasg18
(lp353
(dp354
g21
VACRONYM
p355
sg23
V4x21
p356
sg25
I100
sg26
I1
sg27
I99
sa(dp357
g21
VALIGHTED
p358
sg23
V1x
p359
sg25
I97
sg26
I2
sg27
I93
sa(dp360
g21
VBATCIO
p361
sg23
V42141
p362
sg25
I91
sg26
I3
sg27
I90
sa(dp363
g21
VBOLD GESTURE
p364
sg23
V0x7x4
p365
sg25
I86
sg26
I4
sg27
I88
sa(dp366
g21
VCOOL ROBIN
p367
sg23
V0x32x
p368
sg25
I82
sg26
I5
sg27
I84
sa(dp369
g21
VDALY TIGER
p370
sg23
Vx123x
p371
sg25
I94
sg26
I6
sg27
I96
sa(dp372
g21
VGYMKHANA
p373
sg23
V3x097
p374
sg25
I88
sg26
I7
sg27
I86
sa(dp375
g21
VHALSAFARI
p376
sg23
V8x6
p377
sg25
I74
sg26
I8
sg27
I79
sa(dp378
g21
VWHATCHAMACALLIT
p379
sg23
V2x
p380
sg25
I95
sg26
I9
sg27
I100
sa(dp381
g21
VAIR GOLD
p382
sg23
g307
sg25
I76
sg26
I10
sg27
I0
sa(dp383
g21
VASHTON COURT
p384
sg23
g307
sg25
I68
sg26
I11
sg27
I0
sa(dp385
g21
VBANTISS JACK
p386
sg23
V00
p387
sg25
I65
sg26
I12
sg27
I65
sa(dp388
g21
VEASY CASH D'ALEX
p389
sg23
V00
p390
sg25
I57
sg26
I13
sg27
I56
sa(dp391
g21
VFLAGSOFOURFATHERS
p392
sg23
g307
sg25
I78
sg26
I14
sg27
I0
sa(dp393
g21
VGOLDEN ZERO
p394
sg23
g307
sg25
I69
sg26
I15
sg27
I0
sa(dp395
g21
VKILMURRY
p396
sg23
g307
sg25
I70
sg26
I16
sg27
I0
sa(dp397
g21
VLOUGH GUR
p398
sg23
g307
sg25
I72
sg26
I17
sg27
I0
sa(dp399
g21
VNAM
p400
sg23
V26618
p401
sg25
I85
sg26
I18
sg27
I77
sa(dp402
g21
VPOLISHED STEEL
p403
sg23
V5x7
p404
sg25
I81
sg26
I19
sg27
I81
sa(dp405
g21
VTHE MCGREGORNATOR
p406
sg23
V0500x
p407
sg25
I63
sg26
I20
sg27
I67
sa(dp408
g21
VWAKE UP EARLY
p409
sg23
V7x70
p410
sg25
I60
sg26
I21
sg27
I68
sa(dp411
g21
VCADDY SHACK
p412
sg23
V200x0
p413
sg25
I55
sg26
I22
sg27
I60
sa(dp414
g21
VBELTRAME
p415
sg23
V0x60
p416
sg25
I53
sg26
I23
sg27
I63
sa(dp417
g21
VPEACE PARTY
p418
sg23
V86469
p419
sg25
I66
sg26
I24
sg27
I74
sa(dp420
g21
VDUCA DI MILANO
p421
sg23
V58
p422
sg25
I58
sg26
I25
sg27
I71
sasg61
(lp423
sssI1543418400
(dp424
g2
Vhttp://www.skyracing.com.au/index.php?component=racing&task=race&id=108287242&meetingid=107358138&Itemid=89
p425
sg4
V29026995.1520
p426
sg6
(dp427
g8
(lp428
(lp429
I3
aI1
aI10
aI6
aa(lp430
I5
aI7
aI1
aI3
aa(lp431
I5
aI7
aI3
aI1
aa(lp432
I5
aI3
aI1
aI6
aa(lp433
I3
aI1
aI6
aI10
aa(lp434
I1
aI3
aI10
aI6
aa(lp435
I3
aI1
aI10
aI6
aa(lp436
I3
aI1
aI5
aI7
aasg18
(lp437
(dp438
g21
VGLOBAL GODDESS
p439
sg23
V03433
p440
sg25
I99
sg26
I1
sg27
I96
sa(dp441
g21
VMELGATE MAGIC
p442
sg23
V55674
p443
sg25
I87
sg26
I2
sg27
I88
sa(dp444
g21
VGRANDEE DAISY
p445
sg23
V8901
p446
sg25
I100
sg26
I3
sg27
I100
sa(dp447
g21
VOOFY PROSSER
p448
sg23
V006
p449
sg25
I74
sg26
I4
sg27
I74
sa(dp450
g21
VMADE OF TALENT
p451
sg23
V060
p452
sg25
I76
sg26
I5
sg27
I75
sa(dp453
g21
VDELICIOUS
p454
sg23
V79853
p455
sg25
I92
sg26
I6
sg27
I90
sa(dp456
g21
VPRETTY EYES
p457
sg23
V768
p458
sg25
I78
sg26
I7
sg27
I78
sa(dp459
g21
VMILLY MONROE
p460
sg23
V400
p461
sg25
I84
sg26
I8
sg27
I85
sa(dp462
g21
VRUSPER DREAMS
p463
sg23
V9980
p464
sg25
I70
sg26
I9
sg27
I68
sa(dp465
g21
VFIGHTING SPIRIT
p466
sg23
V71682
p467
sg25
I94
sg26
I10
sg27
I95
sa(dp468
g21
VTREASURED COMPANY
p469
sg23
V097
p470
sg25
I69
sg26
I11
sg27
I70
sa(dp471
g21
VZEEBAD
p472
sg23
V80x8
p473
sg25
I82
sg26
I12
sg27
I83
sasg61
(lp474
sssI1543419300
(dp475
g2
Vhttp://www.skyracing.com.au/index.php?component=racing&task=race&id=108287200&meetingid=107749415&Itemid=89
p476
sg4
V29028212.1535
p477
sg6
(dp478
g8
(lp479
(lp480
I2
aI1
aI9
aI4
aa(lp481
I1
aI5
aI9
aI4
aa(lp482
I10
aI6
aI1
aI2
aa(lp483
I1
aI9
aI5
aI3
aa(lp484
I1
aI9
aI4
aI5
aa(lp485
I4
aI2
aI1
aI9
aa(lp486
I1
aI2
aI4
aI9
aa(lp487
I1
aI9
aI4
aI2
aasg18
(lp488
(dp489
g21
VACTIVE FORCE
p490
sg23
Vx4x2x
p491
sg25
I99
sg26
I1
sg27
I99
sa(dp492
g21
VBATTLEOVERDOYEN
p493
sg23
V1x
p494
sg25
I100
sg26
I2
sg27
I100
sa(dp495
g21
VIDIDITMYWAY
p496
sg23
V5x
p497
sg25
I76
sg26
I3
sg27
I69
sa(dp498
g21
VMINELLA BEAT
p499
sg23
V13x
p500
sg25
I92
sg26
I4
sg27
I83
sa(dp501
g21
VPILOT STATION
p502
sg23
Vx750x
p503
sg25
I80
sg26
I5
sg27
I74
sa(dp504
g21
VPUTRAS JEWEL
p505
sg23
V8x65
p506
sg25
I63
sg26
I6
sg27
I56
sa(dp507
g21
VRIO GOLD
p508
sg23
V0x
p509
sg25
I60
sg26
I7
sg27
I63
sa(dp510
g21
VASH HILL
p511
sg23
V5x
p512
sg25
I82
sg26
I8
sg27
I80
sa(dp513
g21
VPERES ET FILS
p514
sg23
V2x
p515
sg25
I89
sg26
I9
sg27
I93
sa(dp516
g21
VGROVE HILL
p517
sg23
V7
p518
sg25
I69
sg26
I10
sg27
I65
sasg61
(lp519
sssI1543417500
(dp520
g2
Vhttp://www.skyracing.com.au/index.php?component=racing&task=race&id=108287214&meetingid=107358090&Itemid=89
p521
sg4
V29028208.1505
p522
sg6
(dp523
g8
(lp524
(lp525
I7
aI8
aI5
aI6
aa(lp526
I5
aI3
aI6
aI4
aa(lp527
I8
aI9
aI3
aI2
aa(lp528
I3
aI4
aI5
aI7
aa(lp529
I5
aI6
aI9
aI4
aa(lp530
I7
aI5
aI8
aI6
aa(lp531
I7
aI5
aI8
aI2
aa(lp532
I5
aI7
aI8
aI3
aasg18
(lp533
(dp534
g21
VFIREBIRD FLYER
p535
sg23
V0889x
p536
sg25
I69
sg26
I1
sg27
I74
sa(dp537
g21
VAGAINN DUL AGHAIDH
p538
sg23
Vx21x4
p539
sg25
I91
sg26
I2
sg27
I80
sa(dp540
g21
VMOSS ON THE MILL
p541
sg23
V830x6
p542
sg25
I75
sg26
I3
sg27
I65
sa(dp543
g21
VMOORLANDS GEORGE
p544
sg23
Vx2x7x
p545
sg25
I82
sg26
I4
sg27
I83
sa(dp546
g21
VTHE BOSS'S DREAM
p547
sg23
V6565x
p548
sg25
I96
sg26
I5
sg27
I94
sa(dp549
g21
VCOPPERFACEJACK
p550
sg23
V45x00
p551
sg25
I80
sg26
I6
sg27
I85
sa(dp552
g21
VDONTMINDDBOYS
p553
sg23
V1216x
p554
sg25
I100
sg26
I7
sg27
I100
sa(dp555
g21
VCORNER CREEK
p556
sg23
V90x10
p557
sg25
I89
sg26
I8
sg27
I97
sa(dp558
g21
VCHILL IN THE WOOD
p559
sg23
Vx3935
p560
sg25
I63
sg26
I9
sg27
I72
sa(dp561
g21
VSPOCK
p562
sg23
V2470x
p563
sg25
I62
sg26
I10
sg27
I60
sasg61
(lp564
sssI1543411500
(dp565
g2
Vhttp://www.skyracing.com.au/index.php?component=racing&task=race&id=108287196&meetingid=107749415&Itemid=89
p566
sg4
V29028212.1325
p567
sg6
(dp568
g8
(lp569
(lp570
I3
aI4
aI5
aI2
aa(lp571
I1
aI4
aI5
aI2
aa(lp572
I4
aI5
aI11
aI2
aa(lp573
I4
aI5
aI2
aI7
aa(lp574
I8
aI7
aI9
aI5
aa(lp575
I3
aI4
aI5
aI2
aa(lp576
I4
aI2
aI5
aI1
aa(lp577
I4
aI5
aI3
aI2
aasg18
(lp578
(dp579
g21
VMYSLOEGIN
p580
sg23
V21760
p581
sg25
I87
sg26
I1
sg27
I89
sa(dp582
g21
VSUNSET SADIE
p583
sg23
V320x1
p584
sg25
I93
sg26
I2
sg27
I92
sa(dp585
g21
VDEMI PLIE
p586
sg23
V12681
p587
sg25
I97
sg26
I3
sg27
I100
sa(dp588
g21
VISABEL'S GOLD
p589
sg23
V59102
p590
sg25
I100
sg26
I4
sg27
I97
sa(dp591
g21
VLOCKEEN GIRL
p592
sg23
V01033
p593
sg25
I91
sg26
I5
sg27
I93
sa(dp594
g21
VCAERLEON KATE
p595
sg23
V40168
p596
sg25
I75
sg26
I6
sg27
I75
sa(dp597
g21
VSTUCKER HILL
p598
sg23
V920x7
p599
sg25
I84
sg26
I7
sg27
I79
sa(dp600
g21
VKILKEASKIN MOLLY
p601
sg23
V20040
p602
sg25
I80
sg26
I8
sg27
I85
sa(dp603
g21
VKRUJERS GIRL
p604
sg23
V09007
p605
sg25
I70
sg26
I9
sg27
I62
sa(dp606
g21
VMLILY
p607
sg23
Vx256x
p608
sg25
I74
sg26
I10
sg27
I74
sa(dp609
g21
VMAUREEN'S STAR
p610
sg23
V07498
p611
sg25
I67
sg26
I11
sg27
I67
sa(dp612
g21
VMOLLYS BOXTY
p613
sg23
V7408x
p614
sg25
I62
sg26
I12
sg27
I68
sa(dp615
g21
VAHGETAWAYOUTADAT
p616
sg23
V07000
p617
sg25
I70
sg26
I13
sg27
I70
sa(dp618
g21
VPIRANTO
p619
sg23
Vx70x4
p620
sg25
I78
sg26
I14
sg27
I83
sasg61
(lp621
sssI1543422600
(dp622
g2
Vhttp://www.skyracing.com.au/index.php?component=racing&task=race&id=108287244&meetingid=107358138&Itemid=89
p623
sg4
V29026995.1630
p624
sg6
(dp625
g8
(lp626
(lp627
I3
aI4
aI10
aI5
aa(lp628
I6
aI2
aI7
aI5
aa(lp629
I1
aI5
aI2
aI6
aa(lp630
I4
aI1
aI6
aI7
aa(lp631
I6
aI10
aI5
aI8
aa(lp632
I3
aI4
aI10
aI5
aa(lp633
I3
aI4
aI6
aI10
aa(lp634
I6
aI4
aI3
aI5
aasg18
(lp635
(dp636
g21
VGREY BRITAIN
p637
sg23
V01x40
p638
sg25
I60
sg26
I1
sg27
I61
sa(dp639
g21
VGORING
p640
sg23
V00x06
p641
sg25
I71
sg26
I2
sg27
I77
sa(dp642
g21
VGLENDEVON
p643
sg23
V48x22
p644
sg25
I100
sg26
I3
sg27
I100
sa(dp645
g21
VGRAFFITI MASTER
p646
sg23
V3x4x5
p647
sg25
I96
sg26
I4
sg27
I98
sa(dp648
g21
VMYTHICAL MADNESS
p649
sg23
V83072
p650
sg25
I75
sg26
I5
sg27
I89
sa(dp651
g21
VAZZECCAGARBUGLI
p652
sg23
Vx4938
p653
sg25
I89
sg26
I6
sg27
I78
sa(dp654
g21
VGREATEST JOURNEY
p655
sg23
Vx2078
p656
sg25
I81
sg26
I7
sg27
I81
sa(dp657
g21
VCONTRAST
p658
sg23
V977x0
p659
sg25
I66
sg26
I8
sg27
I63
sa(dp660
g21
VTHE THROSTLES
p661
sg23
V81110
p662
sg25
I79
sg26
I9
sg27
I71
sa(dp663
g21
VKESWICK
p664
sg23
V61013
p665
sg25
I93
sg26
I10
sg27
I92
sasg61
(lp666
sssI1543413300
(dp667
g2
Vhttp://www.skyracing.com.au/index.php?component=racing&task=race&id=108287197&meetingid=107749415&Itemid=89
p668
sg4
V29028212.1355
p669
sg6
(dp670
g8
(lp671
(lp672
I4
aI8
aI9
aI5
aa(lp673
I4
aI9
aI8
aI6
aa(lp674
I8
aI9
aI7
aI11
aa(lp675
I4
aI9
aI8
aI6
aa(lp676
I4
aI9
aI8
aI6
aa(lp677
I4
aI8
aI5
aI9
aa(lp678
I4
aI8
aI9
aI1
aa(lp679
I4
aI8
aI9
aI5
aasg18
(lp680
(dp681
g21
VCALL A CAB
p682
sg23
V4153x
p683
sg25
I89
sg26
I1
sg27
I85
sa(dp684
g21
VCONNARD
p685
sg23
V0x6x9
p686
sg25
I76
sg26
I2
sg27
I76
sa(dp687
g21
VDISCO MUSIK
p688
sg23
V000x7
p689
sg25
I70
sg26
I3
sg27
I70
sa(dp690
g21
VMENGLI KHAN
p691
sg23
V7233x
p692
sg25
I100
sg26
I4
sg27
I100
sa(dp693
g21
VPRINCELY CONN
p694
sg23
V34x3x
p695
sg25
I90
sg26
I5
sg27
I91
sa(dp696
g21
VRIDERS ONTHE STORM
p697
sg23
V1260x
p698
sg25
I86
sg26
I6
sg27
I87
sa(dp699
g21
VSPEAKER CONNOLLY
p700
sg23
V18x98
p701
sg25
I79
sg26
I7
sg27
I78
sa(dp702
g21
VTRAINWRECK
p703
sg23
V10x53
p704
sg25
I98
sg26
I8
sg27
I97
sa(dp705
g21
VFORGE MEADOW
p706
sg23
V108x3
p707
sg25
I93
sg26
I9
sg27
I94
sa(dp708
g21
VMANGER ET TROTTER
p709
sg23
Vx0x70
p710
sg25
I80
sg26
I10
sg27
I81
sa(dp711
g21
VTHATBEATSBANAGHER
p712
sg23
V40670
p713
sg25
I74
sg26
I11
sg27
I74
sasg61
(lp714
sssI1543408500
(dp715
g2
Vhttp://www.skyracing.com.au/index.php?component=racing&task=race&id=108287209&meetingid=107358090&Itemid=89
p716
sg4
V29028208.1235
p717
sg6
(dp718
g8
(lp719
(lp720
I1
aI5
aI3
aI2
aa(lp721
I12
aI10
aI4
aI1
aa(lp722
I10
aI7
aI1
aI15
aa(lp723
I12
aI10
aI11
aI4
aa(lp724
I10
aI12
aI9
aI1
aa(lp725
I5
aI1
aI3
aI2
aa(lp726
I5
aI3
aI2
aI11
aa(lp727
I10
aI1
aI12
aI5
aasg18
(lp728
(dp729
g21
VKINGSTON
p730
sg23
V21311
p731
sg25
I100
sg26
I1
sg27
I100
sa(dp732
g21
VSOULSAVER
p733
sg23
V6174x
p734
sg25
I94
sg26
I2
sg27
I94
sa(dp735
g21
VDESTINED TO SHINE
p736
sg23
V0x4x2
p737
sg25
I96
sg26
I3
sg27
I96
sa(dp738
g21
VBEST TO COME
p739
sg23
V6554x
p740
sg25
I87
sg26
I4
sg27
I88
sa(dp741
g21
VAGINCOURT REEF
p742
sg23
Vx5631
p743
sg25
I98
sg26
I5
sg27
I97
sa(dp744
g21
VJURYS OUT
p745
sg23
V8x7x0
p746
sg25
I78
sg26
I6
sg27
I76
sa(dp747
g21
VBETTER NEWS
p748
sg23
Vx49x5
p749
sg25
I81
sg26
I7
sg27
I80
sa(dp750
g21
VDON HERBAGER
p751
sg23
V54x0
p752
sg25
I70
sg26
I8
sg27
I72
sa(dp753
g21
VSIN SIN
p754
sg23
V35x59
p755
sg25
I83
sg26
I9
sg27
I87
sa(dp756
g21
VJUSTICE KNIGHT
p757
sg23
V800x2
p758
sg25
I76
sg26
I10
sg27
I78
sa(dp759
g21
VDOTHRAKI RAIDER
p760
sg23
V3x44x
p761
sg25
I91
sg26
I11
sg27
I90
sa(dp762
g21
VCHANGE UR TUNE
p763
sg23
V939x9
p764
sg25
I67
sg26
I12
sg27
I65
sa(dp765
g21
VFUTURE BOY
p766
sg23
Vx00x7
p767
sg25
I62
sg26
I13
sg27
I63
sa(dp768
g21
VNICE THOUGHTS
p769
sg23
V840x0
p770
sg25
I89
sg26
I14
sg27
I83
sa(dp771
g21
VBUCKEYE SHAN
p772
sg23
V84478
p773
sg25
I69
sg26
I15
sg27
I69
sa(dp774
g21
VKILMOGANNY
p775
sg23
V4879x
p776
sg25
I64
sg26
I16
sg27
I67
sa(dp777
g21
VCOOPERS SQUARE
p778
sg23
V0x0x0
p779
sg25
I75
sg26
I17
sg27
I74
sasg61
(lp780
sssI1543407300
(dp781
g2
Vhttp://www.skyracing.com.au/index.php?component=racing&task=race&id=108287224&meetingid=107358122&Itemid=89
p782
sg4
V29028251.1215
p783
sg6
(dp784
g8
(lp785
(lp786
I1
aI7
aI9
aI10
aa(lp787
I7
aI2
aI1
aI9
aa(lp788
I2
aI4
aI3
aI5
aa(lp789
I2
aI1
aI4
aI6
aa(lp790
I7
aI10
aI1
aI8
aa(lp791
I1
aI7
aI10
aI9
aa(lp792
I1
aI7
aI9
aI10
aa(lp793
I1
aI7
aI2
aI10
aasg18
(lp794
(dp795
g21
VALEXANDERTHEGREAT
p796
sg23
V4112x
p797
sg25
I100
sg26
I1
sg27
I100
sa(dp798
g21
VALLITERATION
p799
sg23
V84056
p800
sg25
I83
sg26
I2
sg27
I84
sa(dp801
g21
VBURNIEBOOZLE
p802
sg23
V60739
p803
sg25
I78
sg26
I3
sg27
I79
sa(dp804
g21
VKEYNOTE
p805
sg23
V60x99
p806
sg25
I61
sg26
I4
sg27
I61
sa(dp807
g21
VASTROFIRE
p808
sg23
V7x780
p809
sg25
I68
sg26
I5
sg27
I66
sa(dp810
g21
VDON'T FENCE ME IN
p811
sg23
V5x
p812
sg25
I77
sg26
I6
sg27
I75
sa(dp813
g21
VFABIANSKI
p814
sg23
Vx557x
p815
sg25
I96
sg26
I7
sg27
I98
sa(dp816
g21
VKHELEYF'S GIRL
p817
sg23
V679x0
p818
sg25
I72
sg26
I8
sg27
I70
sa(dp819
g21
VPEPPER STREET
p820
sg23
V5317x
p821
sg25
I91
sg26
I9
sg27
I90
sa(dp822
g21
VSWEET MARMALADE
p823
sg23
V3x
p824
sg25
I86
sg26
I10
sg27
I88
sasg61
(lp825
sssI1543409100
(dp826
g2
Vhttp://www.skyracing.com.au/index.php?component=racing&task=race&id=108287225&meetingid=107358122&Itemid=89
p827
sg4
V29028251.1245
p828
sg6
(dp829
g8
(lp830
(lp831
I3
aI1
aI5
aI8
aa(lp832
I4
aI5
aI1
aI3
aa(lp833
I3
aI5
aI4
aI7
aa(lp834
I4
aI1
aI5
aI8
aa(lp835
I9
aI5
aI1
aI8
aa(lp836
I1
aI3
aI5
aI8
aa(lp837
I3
aI1
aI5
aI9
aa(lp838
I5
aI1
aI3
aI4
aasg18
(lp839
(dp840
g21
VEVER SO MUCH
p841
sg23
V17254
p842
sg25
I99
sg26
I1
sg27
I95
sa(dp843
g21
VOUTNUMBERED
p844
sg23
V486x5
p845
sg25
I68
sg26
I2
sg27
I65
sa(dp846
g21
VWHIN PARK
p847
sg23
V13x18
p848
sg25
I100
sg26
I3
sg27
I100
sa(dp849
g21
VDALLAS COWBOY
p850
sg23
V60x44
p851
sg25
I75
sg26
I4
sg27
I78
sa(dp852
g21
VQUICK BREW
p853
sg23
V62062
p854
sg25
I91
sg26
I5
sg27
I91
sa(dp855
g21
VCASH TO ASH
p856
sg23
V346x5
p857
sg25
I69
sg26
I6
sg27
I73
sa(dp858
g21
VPOOKIE PEKAN
p859
sg23
V916x7
p860
sg25
I80
sg26
I7
sg27
I68
sa(dp861
g21
VLE DRAPEAU
p862
sg23
V49x99
p863
sg25
I81
sg26
I8
sg27
I87
sa(dp864
g21
VBOCASIEN DESBOIS
p865
sg23
V96x32
p866
sg25
I85
sg26
I9
sg27
I81
sasg61
(lp867
sssI1543419600
(dp868
g2
Vhttp://www.skyracing.com.au/index.php?component=racing&task=race&id=108287215&meetingid=107358090&Itemid=89
p869
sg4
V29028208.1540
p870
sg6
(dp871
g8
(lp872
(lp873
I1
aI2
aI6
aI9
aa(lp874
I2
aI1
aI7
aI10
aa(lp875
I2
aI7
aI12
aI1
aa(lp876
I2
aI1
aI7
aI10
aa(lp877
I2
aI1
aI10
aI12
aa(lp878
I2
aI1
aI6
aI9
aa(lp879
I1
aI2
aI8
aI6
aa(lp880
I2
aI1
aI7
aI6
aasg18
(lp881
(dp882
g21
VLEAVING HOME
p883
sg23
V01x
p884
sg25
I100
sg26
I1
sg27
I100
sa(dp885
g21
VAT ITS OWN EXPENSE
p886
sg23
V5x3
p887
sg25
I97
sg26
I2
sg27
I94
sa(dp888
g21
VDEBDEN BANK
p889
sg23
g307
sg25
I87
sg26
I3
sg27
I0
sa(dp890
g21
VDORADO DOLLAR
p891
sg23
g307
sg25
I76
sg26
I4
sg27
I0
sa(dp892
g21
VLAXEY
p893
sg23
g307
sg25
I82
sg26
I5
sg27
I0
sa(dp894
g21
VMETEORITE
p895
sg23
V4x3x
p896
sg25
I94
sg26
I6
sg27
I86
sa(dp897
g21
VMIX OF CLOVER
p898
sg23
V04
p899
sg25
I79
sg26
I7
sg27
I73
sa(dp900
g21
VNINEOHTWOONEOH
p901
sg23
g307
sg25
I95
sg26
I8
sg27
I0
sa(dp902
g21
VPAINT THE DREAM
p903
sg23
V257x
p904
sg25
I90
sg26
I9
sg27
I81
sa(dp905
g21
VSOME DETAIL
p906
sg23
V4452x
p907
sg25
I89
sg26
I10
sg27
I76
sa(dp908
g21
VTHOSE TIGER FEET
p909
sg23
g307
sg25
I83
sg26
I11
sg27
I0
sa(dp910
g21
VW S GILBERT
p911
sg23
V0
p912
sg25
I64
sg26
I12
sg27
I71
sa(dp913
g21
VEARCOMESALI
p914
sg23
g307
sg25
I66
sg26
I13
sg27
I0
sa(dp915
g21
VHIGHLAND WAY
p916
sg23
g307
sg25
I72
sg26
I14
sg27
I0
sa(dp917
g21
VLIGHT OF ATHENA
p918
sg23
g307
sg25
I75
sg26
I15
sg27
I0
sa(dp919
g21
VSUNNY GIRL
p920
sg23
g307
sg25
I68
sg26
I16
sg27
I0
sasg61
(lp921
sssI1543410900
(dp922
g2
Vhttp://www.skyracing.com.au/index.php?component=racing&task=race&id=108287226&meetingid=107358122&Itemid=89
p923
sg4
V29028251.1315
p924
sg6
(dp925
g8
(lp926
(lp927
I5
aI3
aI9
aI4
aa(lp928
I9
aI3
aI5
aI8
aa(lp929
I9
aI3
aI8
aI6
aa(lp930
I2
aI9
aI8
aI3
aa(lp931
I9
aI3
aI8
aI5
aa(lp932
I3
aI5
aI9
aI4
aa(lp933
I3
aI9
aI4
aI5
aa(lp934
I9
aI3
aI5
aI8
aasg18
(lp935
(dp936
g21
VCASIMIR DU CLOS
p937
sg23
V0x5x7
p938
sg25
I71
sg26
I1
sg27
I72
sa(dp939
g21
VCHARMING DREAM
p940
sg23
V063x
p941
sg25
I75
sg26
I2
sg27
I75
sa(dp942
g21
VENCORE CHAMPS
p943
sg23
V2x1
p944
sg25
I100
sg26
I3
sg27
I95
sa(dp945
g21
VEXTRA MAG
p946
sg23
V1x
p947
sg25
I98
sg26
I4
sg27
I89
sa(dp948
g21
VLORD YEATS
p949
sg23
V5x07x
p950
sg25
I87
sg26
I5
sg27
I100
sa(dp951
g21
VMISTIROC
p952
sg23
Vx5004
p953
sg25
I81
sg26
I6
sg27
I78
sa(dp954
g21
VROLLERBALL ROCCO
p955
sg23
Vx407x
p956
sg25
I67
sg26
I7
sg27
I65
sa(dp957
g21
VSMACKWATER JACK
p958
sg23
V2x6
p959
sg25
I80
sg26
I8
sg27
I83
sa(dp960
g21
VSMITHS CROSS
p961
sg23
V112x2
p962
sg25
I92
sg26
I9
sg27
I93
sasg61
(lp963
sssI1543409700
(dp964
g2
Vhttp://www.skyracing.com.au/index.php?component=racing&task=race&id=108287195&meetingid=107749415&Itemid=89
p965
sg4
V29028212.1255
p966
sg6
(dp967
g8
(lp968
(lp969
I3
aI6
aI8
aI10
aa(lp970
I10
aI6
aI5
aI3
aa(lp971
I6
aI5
aI11
aI1
aa(lp972
I10
aI6
aI5
aI8
aa(lp973
I10
aI5
aI6
aI12
aa(lp974
I8
aI6
aI3
aI12
aa(lp975
I3
aI12
aI8
aI10
aa(lp976
I6
aI10
aI5
aI3
aasg18
(lp977
(dp978
g21
VFIRST CLASS RETURN
p979
sg23
V0x6x6
p980
sg25
I72
sg26
I1
sg27
I70
sa(dp981
g21
VGALLANT JOHN JOE
p982
sg23
V7642x
p983
sg25
I75
sg26
I2
sg27
I79
sa(dp984
g21
VGROTESQUE
p985
sg23
V0x33x
p986
sg25
I100
sg26
I3
sg27
I100
sa(dp987
g21
VHOTEL DU NORD
p988
sg23
V1x5x
p989
sg25
I85
sg26
I4
sg27
I83
sa(dp990
g21
VMOUNT PELIER
p991
sg23
V224x1
p992
sg25
I80
sg26
I5
sg27
I88
sa(dp993
g21
VSCHOOL BOY HOURS
p994
sg23
V37x2
p995
sg25
I91
sg26
I6
sg27
I98
sa(dp996
g21
VSHANROE AL C
p997
sg23
V3x1x0
p998
sg25
I73
sg26
I7
sg27
I77
sa(dp999
g21
VSWEET FLIGHT
p1000
sg23
V126
p1001
sg25
I98
sg26
I8
sg27
I94
sa(dp1002
g21
VTHE DABBLER
p1003
sg23
V1x58x
p1004
sg25
I78
sg26
I9
sg27
I67
sa(dp1005
g21
VTHE GUNNER MURPHY
p1006
sg23
Vx2x9x
p1007
sg25
I89
sg26
I10
sg27
I90
sa(dp1008
g21
VTHE SHUNTER
p1009
sg23
V373x4
p1010
sg25
I69
sg26
I11
sg27
I73
sa(dp1011
g21
VPORTNABLAGH
p1012
sg23
V1x10x
p1013
sg25
I95
sg26
I12
sg27
I84
sa(dp1014
g21
VWILD RUMOUR
p1015
sg23
V0x03
p1016
sg25
I65
sg26
I13
sg27
I68
sasg61
(lp1017
sssI1543412700
(dp1018
g2
Vhttp://www.skyracing.com.au/index.php?component=racing&task=race&id=108287239&meetingid=107358138&Itemid=89
p1019
sg4
V29026995.1345
p1020
sg6
(dp1021
g8
(lp1022
(lp1023
I7
aI8
aI1
aI10
aa(lp1024
I4
aI8
aI7
aI1
aa(lp1025
I4
aI7
aI1
aI8
aa(lp1026
I4
aI7
aI5
aI2
aa(lp1027
I7
aI8
aI4
aI1
aa(lp1028
I7
aI8
aI1
aI10
aa(lp1029
I7
aI8
aI1
aI10
aa(lp1030
I7
aI4
aI8
aI1
aasg18
(lp1031
(dp1032
g21
VLYSANDER BELLE
p1033
sg23
V5684
p1034
sg25
I94
sg26
I1
sg27
I94
sa(dp1035
g21
VALBAN'S DREAM
p1036
sg23
V7x706
p1037
sg25
I83
sg26
I2
sg27
I80
sa(dp1038
g21
VBUDAIYA FORT
p1039
sg23
V799x
p1040
sg25
I75
sg26
I3
sg27
I75
sa(dp1041
g21
VSISTER OF THE SIGN
p1042
sg23
V60506
p1043
sg25
I89
sg26
I4
sg27
I89
sa(dp1044
g21
VSYMPHONY
p1045
sg23
V40478
p1046
sg25
I85
sg26
I5
sg27
I84
sa(dp1047
g21
VDREAMING OF LOVE
p1048
sg23
V59479
p1049
sg25
I78
sg26
I6
sg27
I78
sa(dp1050
g21
VNANANITA
p1051
sg23
V30522
p1052
sg25
I100
sg26
I7
sg27
I100
sa(dp1053
g21
VMICRONIZE
p1054
sg23
V58253
p1055
sg25
I97
sg26
I8
sg27
I97
sa(dp1056
g21
VRICH APPROACH
p1057
sg23
V597x
p1058
sg25
I73
sg26
I9
sg27
I74
sa(dp1059
g21
VCARAMEL CURVES
p1060
sg23
V9927x
p1061
sg25
I92
sg26
I10
sg27
I92
sa(dp1062
g21
VGREY HARE
p1063
sg23
V4070
p1064
sg25
I71
sg26
I11
sg27
I72
sa(dp1065
g21
VISABELLA RED
p1066
sg23
V09x8
p1067
sg25
I70
sg26
I12
sg27
I68
sa(dp1068
g21
VSTORM ATHENA
p1069
sg23
V896
p1070
sg25
I64
sg26
I13
sg27
I66
sasg61
(lp1071
sssI1543414500
(dp1072
g2
Vhttp://www.skyracing.com.au/index.php?component=racing&task=race&id=108287240&meetingid=107358138&Itemid=89
p1073
sg4
V29026995.1415
p1074
sg6
(dp1075
g8
(lp1076
(lp1077
I6
aI3
aI1
aI12
aa(lp1078
I6
aI1
aI3
aI12
aa(lp1079
I6
aI3
aI12
aI8
aa(lp1080
I6
aI1
aI12
aI3
aa(lp1081
I6
aI1
aI3
aI11
aa(lp1082
I6
aI1
aI3
aI12
aa(lp1083
I1
aI6
aI9
aI3
aa(lp1084
I6
aI1
aI3
aI12
aasg18
(lp1085
(dp1086
g21
VQUERELLE
p1087
sg23
V616x
p1088
sg25
I97
sg26
I1
sg27
I93
sa(dp1089
g21
VAMPLE PLENTY
p1090
sg23
V60
p1091
sg25
I75
sg26
I2
sg27
I80
sa(dp1092
g21
VBABA GHANOUJ
p1093
sg23
V4
p1094
sg25
I91
sg26
I3
sg27
I99
sa(dp1095
g21
VEBBRAAM
p1096
sg23
g307
sg25
I84
sg26
I4
sg27
I0
sa(dp1097
g21
VIRIS'S SPIRIT
p1098
sg23
V98
p1099
sg25
I70
sg26
I5
sg27
I77
sa(dp1100
g21
VLADY LIZZY
p1101
sg23
V22
p1102
sg25
I100
sg26
I6
sg27
I100
sa(dp1103
g21
VOPHELIA'S DREAM
p1104
sg23
g307
sg25
I89
sg26
I7
sg27
I0
sa(dp1105
g21
VPERFECIMPERFECTION
p1106
sg23
V75
p1107
sg25
I73
sg26
I8
sg27
I82
sa(dp1108
g21
VQUEEN OF MAYFAIR
p1109
sg23
g307
sg25
I93
sg26
I9
sg27
I0
sa(dp1110
g21
VRED HOT
p1111
sg23
g307
sg25
I83
sg26
I10
sg27
I0
sa(dp1112
g21
VSOCIAL NETWORK
p1113
sg23
g307
sg25
I71
sg26
I11
sg27
I0
sa(dp1114
g21
VTHERMAL
p1115
sg23
V96
p1116
sg25
I79
sg26
I12
sg27
I87
sasg61
(lp1117
sssI1543415400
(dp1118
g2
Vhttp://www.skyracing.com.au/index.php?component=racing&task=race&id=108287198&meetingid=107749415&Itemid=89
p1119
sg4
V29028212.1430
p1120
sg6
(dp1121
g8
(lp1122
(lp1123
I3
aI1
aI6
aI5
aa(lp1124
I2
aI1
aI3
aI4
aa(lp1125
I2
aI1
aI3
aI4
aa(lp1126
I1
aI6
aI3
aI4
aa(lp1127
I1
aI3
aI6
aI8
aa(lp1128
I1
aI3
aI6
aI2
aa(lp1129
I6
aI3
aI1
aI8
aa(lp1130
I1
aI3
aI6
aI2
aasg18
(lp1131
(dp1132
g21
VJUDGEMENT DAY
p1133
sg23
V32111
p1134
sg25
I91
sg26
I1
sg27
I94
sa(dp1135
g21
VKILDORRERY
p1136
sg23
V71514
p1137
sg25
I84
sg26
I2
sg27
I76
sa(dp1138
g21
VPOLI ROI
p1139
sg23
Vx85x1
p1140
sg25
I100
sg26
I3
sg27
I100
sa(dp1141
g21
VQUAMINO
p1142
sg23
V226x1
p1143
sg25
I73
sg26
I4
sg27
I72
sa(dp1144
g21
VALLETRIX
p1145
sg23
V1243x
p1146
sg25
I78
sg26
I5
sg27
I85
sa(dp1147
g21
VSHADY OPERATOR
p1148
sg23
V12x2x
p1149
sg25
I99
sg26
I6
sg27
I90
sa(dp1150
g21
VTARA MIA
p1151
sg23
V58007
p1152
sg25
I69
sg26
I7
sg27
I67
sa(dp1153
g21
VUISCE BEATHA
p1154
sg23
Vx127x
p1155
sg25
I87
sg26
I8
sg27
I81
sasg61
(lp1156
sssI1543410300
(dp1157
g2
Vhttp://www.skyracing.com.au/index.php?component=racing&task=race&id=108287210&meetingid=107358090&Itemid=89
p1158
sg4
V29028208.1305
p1159
sg6
(dp1160
g8
(lp1161
(lp1162
I1
aI3
aI2
aI12
aa(lp1163
I1
aI11
aI12
aI6
aa(lp1164
I1
aI12
aI3
aI4
aa(lp1165
I1
aI11
aI12
aI14
aa(lp1166
I1
aI12
aI11
aI3
aa(lp1167
I2
aI1
aI3
aI11
aa(lp1168
I1
aI12
aI2
aI3
aa(lp1169
I1
aI12
aI11
aI3
aasg18
(lp1170
(dp1171
g21
VDR SANDERSON
p1172
sg23
V1x1
p1173
sg25
I100
sg26
I1
sg27
I100
sa(dp1174
g21
VESPOIR DE GUYE
p1175
sg23
V51x
p1176
sg25
I96
sg26
I2
sg27
I91
sa(dp1177
g21
VHE'S A GOER
p1178
sg23
V4x412
p1179
sg25
I95
sg26
I3
sg27
I97
sa(dp1180
g21
VCOPPERHEAD
p1181
sg23
V779x0
p1182
sg25
I82
sg26
I4
sg27
I82
sa(dp1183
g21
VFRENCH PIECE
p1184
sg23
V6
p1185
sg25
I71
sg26
I5
sg27
I73
sa(dp1186
g21
VGALLOWS POINT
p1187
sg23
V6x0
p1188
sg25
I71
sg26
I6
sg27
I75
sa(dp1189
g21
VGOLDRAPPER
p1190
sg23
Vx580x
p1191
sg25
I66
sg26
I7
sg27
I68
sa(dp1192
g21
VMINERFORTYNINER
p1193
sg23
V1x4x6
p1194
sg25
I86
sg26
I8
sg27
I77
sa(dp1195
g21
VMOUSEINTHEHOUSE
p1196
sg23
g307
sg25
I74
sg26
I9
sg27
I0
sa(dp1197
g21
VPEDDLER
p1198
sg23
g307
sg25
I78
sg26
I10
sg27
I0
sa(dp1199
g21
VSHIVERMETIMBERS
p1200
sg23
V2x8x0
p1201
sg25
I87
sg26
I11
sg27
I84
sa(dp1202
g21
VSTAR OF LANKA
p1203
sg23
V133x4
p1204
sg25
I92
sg26
I12
sg27
I88
sa(dp1205
g21
VCANGODEMAYO
p1206
sg23
V050x0
p1207
sg25
I77
sg26
I13
sg27
I70
sa(dp1208
g21
VEDABEAN
p1209
sg23
V798x6
p1210
sg25
I62
sg26
I14
sg27
I65
sasg61
(lp1211
sssI1543416300
(dp1212
g2
Vhttp://www.skyracing.com.au/index.php?component=racing&task=race&id=108287241&meetingid=107358138&Itemid=89
p1213
sg4
V29026995.1445
p1214
sg6
(dp1215
g8
(lp1216
(lp1217
I3
aI2
aI10
aI4
aa(lp1218
I10
aI4
aI2
aI3
aa(lp1219
I10
aI4
aI2
aI1
aa(lp1220
I10
aI4
aI2
aI5
aa(lp1221
I10
aI2
aI4
aI1
aa(lp1222
I10
aI3
aI2
aI4
aa(lp1223
I3
aI2
aI4
aI10
aa(lp1224
I10
aI2
aI4
aI3
aasg18
(lp1225
(dp1226
g21
VBREEZING
p1227
sg23
V96
p1228
sg25
I78
sg26
I1
sg27
I83
sa(dp1229
g21
VFIREBIRD SONG
p1230
sg23
V3
p1231
sg25
I97
sg26
I2
sg27
I99
sa(dp1232
g21
VFRISELLA
p1233
sg23
V2x
p1234
sg25
I100
sg26
I3
sg27
I100
sa(dp1235
g21
VGIVE ME BREATH
p1236
sg23
V03
p1237
sg25
I95
sg26
I4
sg27
I88
sa(dp1238
g21
VNABVUTIKA
p1239
sg23
V800
p1240
sg25
I76
sg26
I5
sg27
I78
sa(dp1241
g21
VNARRATIVE
p1242
sg23
g307
sg25
I82
sg26
I6
sg27
I0
sa(dp1243
g21
VPERFECT SHOWDANCE
p1244
sg23
V9
p1245
sg25
I73
sg26
I7
sg27
I76
sa(dp1246
g21
VPROMISE OF SUCCESS
p1247
sg23
g307
sg25
I86
sg26
I8
sg27
I0
sa(dp1248
g21
VROMANY ROSE
p1249
sg23
V90
p1250
sg25
I71
sg26
I9
sg27
I71
sa(dp1251
g21
VSAY NOTHING
p1252
sg23
V82
p1253
sg25
I91
sg26
I10
sg27
I90
sa(dp1254
g21
VWHIMBREL
p1255
sg23
g307
sg25
I89
sg26
I11
sg27
I0
sasg61
(lp1256
sssI1543417200
(dp1257
g2
Vhttp://www.skyracing.com.au/index.php?component=racing&task=race&id=108287199&meetingid=107749415&Itemid=89
p1258
sg4
V29028212.1500
p1259
sg6
(dp1260
g8
(lp1261
(lp1262
I11
aI15
aI3
aI12
aa(lp1263
I1
aI5
aI4
aI2
aa(lp1264
I1
aI4
aI14
aI3
aa(lp1265
I6
aI1
aI5
aI2
aa(lp1266
I11
aI14
aI17
aI13
aa(lp1267
I11
aI15
aI3
aI12
aa(lp1268
I6
aI11
aI15
aI7
aa(lp1269
I11
aI1
aI15
aI3
aasg18
(lp1270
(dp1271
g21
VI'M AN IZZ WIZZ
p1272
sg23
V29485
p1273
sg25
I79
sg26
I1
sg27
I62
sa(dp1274
g21
VTYRRELL'S SUCCES
p1275
sg23
Vx77x6
p1276
sg25
I85
sg26
I2
sg27
I92
sa(dp1277
g21
VCRESUS DE GRISSAY
p1278
sg23
V646x2
p1279
sg25
I94
sg26
I3
sg27
I96
sa(dp1280
g21
VBOSCO DI ALCO
p1281
sg23
V85540
p1282
sg25
I80
sg26
I4
sg27
I87
sa(dp1283
g21
VCAPTURE THE DRAMA
p1284
sg23
V00670
p1285
sg25
I75
sg26
I5
sg27
I64
sa(dp1286
g21
VSWEET AS A NUT
p1287
sg23
V0x5x6
p1288
sg25
I95
sg26
I6
sg27
I83
sa(dp1289
g21
VGOLDEN JEWEL
p1290
sg23
V9x950
p1291
sg25
I92
sg26
I7
sg27
I82
sa(dp1292
g21
VOSCAR LANTERN
p1293
sg23
V40x70
p1294
sg25
I64
sg26
I8
sg27
I66
sa(dp1295
g21
VDUKE CASS
p1296
sg23
V00508
p1297
sg25
I77
sg26
I9
sg27
I72
sa(dp1298
g21
VNOMANBEHIND
p1299
sg23
Vx65x4
p1300
sg25
I72
sg26
I10
sg27
I77
sa(dp1301
g21
VSE MO LAOCH
p1302
sg23
V33312
p1303
sg25
I100
sg26
I11
sg27
I100
sa(dp1304
g21
VTHE TRIGGER
p1305
sg23
V20x92
p1306
sg25
I89
sg26
I12
sg27
I93
sa(dp1307
g21
VDON'T LET GO
p1308
sg23
V8x9x5
p1309
sg25
I63
sg26
I13
sg27
I68
sa(dp1310
g21
VMTADA SUPREME
p1311
sg23
Vx0x92
p1312
sg25
I86
sg26
I14
sg27
I89
sa(dp1313
g21
VGUNFIRE REEF
p1314
sg23
Vx5023
p1315
sg25
I99
sg26
I15
sg27
I98
sa(dp1316
g21
VASITSOHAPPENS
p1317
sg23
V733x0
p1318
sg25
I66
sg26
I16
sg27
I74
sa(dp1319
g21
VWITNESS OF FASHION
p1320
sg23
V3104x
p1321
sg25
I68
sg26
I17
sg27
I78
sasg61
(lp1322
sssI1543418100
(dp1323
g2
Vhttp://www.skyracing.com.au/index.php?component=racing&task=race&id=108287284&meetingid=107358106&Itemid=89
p1324
sg4
V29026996.1515
p1325
sg6
(dp1326
g8
(lp1327
(lp1328
I4
aI2
aI1
aI5
aa(lp1329
I4
aI1
aI7
aI2
aa(lp1330
I1
aI6
aI4
aI10
aa(lp1331
I11
aI1
aI6
aI7
aa(lp1332
I1
aI4
aI10
aI6
aa(lp1333
I4
aI1
aI2
aI5
aa(lp1334
I2
aI4
aI5
aI1
aa(lp1335
I1
aI4
aI2
aI6
aasg18
(lp1336
(dp1337
g21
VLETMESTOPYOUTHERE
p1338
sg23
V90440
p1339
sg25
I95
sg26
I1
sg27
I93
sa(dp1340
g21
VTUNDRA
p1341
sg23
V56x01
p1342
sg25
I100
sg26
I2
sg27
I96
sa(dp1343
g21
VGOWANBUSTER
p1344
sg23
V3889x
p1345
sg25
I84
sg26
I3
sg27
I70
sa(dp1346
g21
VROLAND ROCKS
p1347
sg23
V05361
p1348
sg25
I98
sg26
I4
sg27
I100
sa(dp1349
g21
VALBA DEL SOLE
p1350
sg23
V02416
p1351
sg25
I89
sg26
I5
sg27
I90
sa(dp1352
g21
VWIRRAL GIRL
p1353
sg23
V32656
p1354
sg25
I78
sg26
I6
sg27
I86
sa(dp1355
g21
VMUATADEL
p1356
sg23
V22306
p1357
sg25
I75
sg26
I7
sg27
I78
sa(dp1358
g21
VBURMESE BLAZER
p1359
sg23
V18040
p1360
sg25
I71
sg26
I8
sg27
I75
sa(dp1361
g21
VCUPPACOCO
p1362
sg23
V0457x
p1363
sg25
I92
sg26
I9
sg27
I81
sa(dp1364
g21
VMABLE LEE
p1365
sg23
V62524
p1366
sg25
I83
sg26
I10
sg27
I89
sa(dp1367
g21
VMOONSHINE DANCER
p1368
sg23
V6438x
p1369
sg25
I74
sg26
I11
sg27
I74
sasg61
(lp1370
sssI1543420500
(dp1371
g2
Vhttp://www.skyracing.com.au/index.php?component=racing&task=race&id=108287243&meetingid=107358138&Itemid=89
p1372
sg4
V29026995.1555
p1373
sg6
(dp1374
g8
(lp1375
(lp1376
I1
aI2
aI5
aI9
aa(lp1377
I5
aI1
aI2
aI9
aa(lp1378
I5
aI1
aI2
aI9
aa(lp1379
I1
aI5
aI2
aI9
aa(lp1380
I2
aI10
aI5
aI7
aa(lp1381
I2
aI1
aI5
aI9
aa(lp1382
I1
aI2
aI5
aI9
aa(lp1383
I1
aI2
aI5
aI9
aasg18
(lp1384
(dp1385
g21
VHEAVENLY HOLLY
p1386
sg23
V41
p1387
sg25
I100
sg26
I1
sg27
I100
sa(dp1388
g21
VSTAND N DELIVER
p1389
sg23
V4
p1390
sg25
I95
sg26
I2
sg27
I96
sa(dp1391
g21
VBIGSHOTTE
p1392
sg23
V66
p1393
sg25
I75
sg26
I3
sg27
I76
sa(dp1394
g21
VMY TOWN CHICAGO
p1395
sg23
g307
sg25
I81
sg26
I4
sg27
I0
sa(dp1396
g21
VSUNSHINE COAST
p1397
sg23
V40
p1398
sg25
I91
sg26
I5
sg27
I91
sa(dp1399
g21
VCRIMSON PRINCESS
p1400
sg23
V66x8
p1401
sg25
I65
sg26
I6
sg27
I69
sa(dp1402
g21
VFRECKLES
p1403
sg23
V0x6
p1404
sg25
I79
sg26
I7
sg27
I78
sa(dp1405
g21
VJAL MAHAL
p1406
sg23
V0x
p1407
sg25
I69
sg26
I8
sg27
I70
sa(dp1408
g21
VKELLINGTON KITTY
p1409
sg23
V58
p1410
sg25
I86
sg26
I9
sg27
I82
sa(dp1411
g21
VPREMIUM PINK
p1412
sg23
V8x7
p1413
sg25
I61
sg26
I10
sg27
I65
sasg61
(lp1414
sssI1543419900
(dp1415
g2
Vhttp://www.skyracing.com.au/index.php?component=racing&task=race&id=108287285&meetingid=107358106&Itemid=89
p1416
sg4
V29026996.1545
p1417
sg6
(dp1418
g8
(lp1419
(lp1420
I1
aI8
aI7
aI2
aa(lp1421
I1
aI8
aI2
aI7
aa(lp1422
I8
aI7
aI2
aI12
aa(lp1423
I1
aI8
aI2
aI7
aa(lp1424
I8
aI1
aI2
aI7
aa(lp1425
I8
aI1
aI7
aI2
aa(lp1426
I1
aI8
aI7
aI2
aa(lp1427
I8
aI1
aI7
aI2
aasg18
(lp1428
(dp1429
g21
VALEXA ROSE
p1430
sg23
V313
p1431
sg25
I100
sg26
I1
sg27
I100
sa(dp1432
g21
VABSOLUTIO
p1433
sg23
V46
p1434
sg25
I91
sg26
I2
sg27
I86
sa(dp1435
g21
VDIVIED
p1436
sg23
g307
sg25
I79
sg26
I3
sg27
I0
sa(dp1437
g21
VDUTCH PURSUIT
p1438
sg23
g307
sg25
I71
sg26
I4
sg27
I0
sa(dp1439
g21
VHAVANA BAY
p1440
sg23
V0x
p1441
sg25
I62
sg26
I5
sg27
I64
sa(dp1442
g21
VHEATH CHARNOCK
p1443
sg23
g307
sg25
I80
sg26
I6
sg27
I0
sa(dp1444
g21
VREVOLUTIONISE
p1445
sg23
V5
p1446
sg25
I95
sg26
I7
sg27
I87
sa(dp1447
g21
VST PETERS BASILICA
p1448
sg23
V9543
p1449
sg25
I98
sg26
I8
sg27
I95
sa(dp1450
g21
VUH OH CHONGO
p1451
sg23
V5
p1452
sg25
I75
sg26
I9
sg27
I76
sa(dp1453
g21
VYORKSHIRE FLYER
p1454
sg23
V8
p1455
sg25
I71
sg26
I10
sg27
I69
sa(dp1456
g21
VFIRSTEEN
p1457
sg23
g307
sg25
I65
sg26
I11
sg27
I0
sa(dp1458
g21
VI'LL BE BRIEF
p1459
sg23
V5
p1460
sg25
I85
sg26
I12
sg27
I78
sa(dp1461
g21
VIVORY CHARM
p1462
sg23
g307
sg25
I89
sg26
I13
sg27
I0
sa(dp1463
g21
VWEST DRIVE STORY
p1464
sg23
V9x9
p1465
sg25
I74
sg26
I14
sg27
I73
sasg61
(lp1466
sss.