(dp0
I1542518400
(dp1
S'skyracing_url'
p2
Vhttp://www.skyracing.com.au/index.php?component=racing&task=race&id=107993143&meetingid=105710026&Itemid=89
p3
sS'betfair_raceid'
p4
V29013581.0520
p5
sS'dat2'
p6
(dp7
S'ratings_auto'
p8
(lp9
(lp10
I7
aI3
aI1
aI8
aa(lp11
I2
aI4
aI1
aI3
aa(lp12
I2
aI4
aI1
aI3
aa(lp13
I2
aI1
aI4
aI3
aa(lp14
I7
aI13
aI9
aI11
aa(lp15
I7
aI3
aI1
aI8
aa(lp16
I3
aI7
aI9
aI1
aa(lp17
I2
aI7
aI1
aI3
aasS'horse_details'
p18
(lp19
(dp20
S'horse_name'
p21
VBART
p22
sS'horse_form'
p23
V78x01
p24
sS'rating_2'
p25
I93
sS'horse_number'
p26
I1
sS'rating_1'
p27
I95
sa(dp28
g21
VAPPOINT PERCY
p29
sg23
V66931
p30
sg25
I76
sg26
I2
sg27
I80
sa(dp31
g21
VBELLA AMANTE
p32
sg23
V710x6
p33
sg25
I96
sg26
I3
sg27
I98
sa(dp34
g21
VINCH PERFECT
p35
sg23
V72063
p36
sg25
I78
sg26
I4
sg27
I89
sa(dp37
g21
VJUST DYLAN
p38
sg23
V531x4
p39
sg25
I71
sg26
I5
sg27
I71
sa(dp40
g21
VFRISKEE ONE
p41
sg23
V0x401
p42
sg25
I81
sg26
I6
sg27
I78
sa(dp43
g21
VLAUGHING OR CRYING
p44
sg23
V3x421
p45
sg25
I100
sg26
I7
sg27
I100
sa(dp46
g21
VRED HEAT
p47
sg23
V26124
p48
sg25
I91
sg26
I8
sg27
I90
sa(dp49
g21
VSONNETS
p50
sg23
V53112
p51
sg25
I88
sg26
I9
sg27
I86
sa(dp52
g21
VTYRES ARE CRUCIAL
p53
sg23
Vx5983
p54
sg25
I67
sg26
I10
sg27
I0
sa(dp55
g21
VWHISPERED PRAYER
p56
sg23
V77042
p57
sg25
I71
sg26
I11
sg27
I68
sa(dp58
g21
VCONFIDENTIAL
p59
sg23
V1x566
p60
sg25
I74
sg26
I12
sg27
I73
sa(dp61
g21
VGREYFELL
p62
sg23
V61851
p63
sg25
I85
sg26
I13
sg27
I77
sa(dp64
g21
VCALL THE CLOCK
p65
sg23
V20792
p66
sg25
I62
sg26
I14
sg27
I0
sasS'ratings_manual'
p67
(lp68
(lp69
I3
aI7
aI6
aI4
aa(lp70
I7
aI2
aI3
aI1
aasssI1542519300
(dp71
g2
Vhttp://www.skyracing.com.au/index.php?component=racing&task=race&id=107993158&meetingid=105710122&Itemid=89
p72
sg4
V29013628.0535
p73
sg6
(dp74
g8
(lp75
(lp76
I3
aI2
aI7
aI5
aa(lp77
I4
aI2
aI1
aI6
aa(lp78
I2
aI7
aI9
aI12
aa(lp79
I4
aI1
aI7
aI2
aa(lp80
I6
aI7
aI5
aI2
aa(lp81
I2
aI3
aI5
aI7
aa(lp82
I3
aI2
aI7
aI5
aa(lp83
I2
aI7
aI4
aI3
aasg18
(lp84
(dp85
g21
VLITTLE AKIE
p86
sg23
V436x8
p87
sg25
I76
sg26
I1
sg27
I77
sa(dp88
g21
VOAMARU OWL
p89
sg23
V640x1
p90
sg25
I99
sg26
I2
sg27
I96
sa(dp91
g21
VTSARITSYN
p92
sg23
V01x1x
p93
sg25
I100
sg26
I3
sg27
I100
sa(dp94
g21
VFLAMING ACES
p95
sg23
V0x006
p96
sg25
I73
sg26
I4
sg27
I71
sa(dp97
g21
VANTIPAS
p98
sg23
V2100x
p99
sg25
I93
sg26
I5
sg27
I90
sa(dp100
g21
VENKI
p101
sg23
V0x977
p102
sg25
I80
sg26
I6
sg27
I78
sa(dp103
g21
VSNOWBROOK
p104
sg23
V13x65
p105
sg25
I88
sg26
I7
sg27
I95
sa(dp106
g21
VTABLE OF WISDOM
p107
sg23
V8140x
p108
sg25
I84
sg26
I8
sg27
I87
sa(dp109
g21
VSEE ME ROLLIN'
p110
sg23
V84543
p111
sg25
I92
sg26
I9
sg27
I82
sa(dp112
g21
VFORTIFY
p113
sg23
V9368x
p114
sg25
I69
sg26
I10
sg27
I0
sa(dp115
g21
VTIME ROGUE
p116
sg23
V72043
p117
sg25
I78
sg26
I11
sg27
I85
sa(dp118
g21
VSTRYKER FORTUNE
p119
sg23
V05729
p120
sg25
I72
sg26
I12
sg27
I65
sa(dp121
g21
VRED DAZZLE
p122
sg23
V36208
p123
sg25
I64
sg26
I13
sg27
I71
sasg67
(lp124
(lp125
I9
aI7
aI3
aI1
aa(lp126
I3
aI7
aI2
aI9
aasssI1542520200
(dp127
g2
Vhttp://www.skyracing.com.au/index.php?component=racing&task=race&id=107993219&meetingid=105710074&Itemid=89
p128
sg4
V29013769.0550
p129
sg6
(dp130
g8
(lp131
(lp132
I4
aI3
aI1
aI7
aa(lp133
I1
aI5
aI3
aI4
aa(lp134
I1
aI4
aI3
aI5
aa(lp135
I3
aI1
aI4
aI7
aa(lp136
I4
aI3
aI9
aI6
aa(lp137
I4
aI3
aI7
aI1
aa(lp138
I4
aI3
aI7
aI1
aa(lp139
I4
aI3
aI1
aI5
aasg18
(lp140
(dp141
g21
VOUR BOTTINO
p142
sg23
V5x817
p143
sg25
I84
sg26
I1
sg27
I92
sa(dp144
g21
VTATOOSH
p145
sg23
Vx4265
p146
sg25
I91
sg26
I2
sg27
I0
sa(dp147
g21
VVON COSTA GLASS
p148
sg23
Vx7416
p149
sg25
I97
sg26
I3
sg27
I93
sa(dp150
g21
VROYAL ACE
p151
sg23
V09211
p152
sg25
I100
sg26
I4
sg27
I100
sa(dp153
g21
VROMANCER
p154
sg23
V85756
p155
sg25
I77
sg26
I5
sg27
I86
sa(dp156
g21
VVIANDEN
p157
sg23
V1x083
p158
sg25
I88
sg26
I6
sg27
I79
sa(dp159
g21
VFASTNET LATINA
p160
sg23
V3x745
p161
sg25
I93
sg26
I7
sg27
I87
sa(dp162
g21
VFLORAL FEVER
p163
sg23
V6x390
p164
sg25
I79
sg26
I8
sg27
I0
sa(dp165
g21
VLA FLEURETTE
p166
sg23
Vx5947
p167
sg25
I74
sg26
I9
sg27
I74
sa(dp168
g21
VAZURITE
p169
sg23
V0x80x
p170
sg25
I64
sg26
I10
sg27
I65
sa(dp171
g21
VTHE MIGHTY JROD
p172
sg23
V09x60
p173
sg25
I68
sg26
I11
sg27
I0
sa(dp174
g21
VPOW WOW
p175
sg23
V060x8
p176
sg25
I80
sg26
I12
sg27
I75
sa(dp177
g21
VPENTHOUSE POET
p178
sg23
V00x94
p179
sg25
I71
sg26
I13
sg27
I0
sasg67
(lp180
(lp181
I4
aI7
aI9
aI3
aa(lp182
I4
aI7
aI5
aI3
aasssI1542521100
(dp183
g2
Vhttp://www.skyracing.com.au/index.php?component=racing&task=race&id=107993174&meetingid=105710058&Itemid=89
p184
sg4
V29013577.0605
p185
sg6
(dp186
g8
(lp187
(lp188
I1
aI6
aI5
aI7
aa(lp189
I3
aI2
aI1
aI8
aa(lp190
I2
aI6
aI1
aI5
aa(lp191
I2
aI1
aI7
aI6
aa(lp192
I6
aI1
aI2
aI8
aa(lp193
I1
aI6
aI3
aI5
aa(lp194
I1
aI5
aI3
aI6
aa(lp195
I1
aI6
aI2
aI3
aasg18
(lp196
(dp197
g21
VMISS LILLIAN
p198
sg23
V710x6
p199
sg25
I100
sg26
I1
sg27
I100
sa(dp200
g21
VDOMINANT WITNESS
p201
sg23
V0x367
p202
sg25
I73
sg26
I2
sg27
I73
sa(dp203
g21
VASSERTIVE STAR
p204
sg23
V3909x
p205
sg25
I80
sg26
I3
sg27
I80
sa(dp206
g21
VAVOID THE RUSH
p207
sg23
V3518x
p208
sg25
I98
sg26
I4
sg27
I0
sa(dp209
g21
VSTICKS
p210
sg23
V51356
p211
sg25
I92
sg26
I5
sg27
I85
sa(dp212
g21
VSMOOTH CELEBRATION
p213
sg23
V0x625
p214
sg25
I85
sg26
I6
sg27
I92
sa(dp215
g21
VROYAL ROULETTE
p216
sg23
V10x44
p217
sg25
I84
sg26
I7
sg27
I83
sa(dp218
g21
VTHE QUEENS REGENT
p219
sg23
V82973
p220
sg25
I69
sg26
I8
sg27
I72
sa(dp221
g21
VSPINNING SKIRT
p222
sg23
V000x6
p223
sg25
I61
sg26
I9
sg27
I62
sa(dp224
g21
VRED SCIMITAR
p225
sg23
V0x605
p226
sg25
I67
sg26
I10
sg27
I65
sasg67
(lp227
(lp228
I1
aI6
aI8
aI5
aasssI1542518160
(dp229
g2
Vhttp://www.skyracing.com.au/index.php?component=racing&task=race&id=107993333&meetingid=105710106&Itemid=89
p230
sg4
V29013787.0516
p231
sg6
(dp232
g8
(lp233
(lp234
I1
aI9
aI2
aI4
aa(lp235
I1
aI2
aI9
aI4
aa(lp236
I1
aI9
aI4
aI2
aa(lp237
I1
aI4
aI8
aI9
aa(lp238
I9
aI1
aI4
aI6
aa(lp239
I9
aI1
aI2
aI4
aa(lp240
I9
aI1
aI2
aI4
aa(lp241
I1
aI9
aI4
aI2
aasg18
(lp242
(dp243
g21
VMOUSSAMBANI
p244
sg23
V79632
p245
sg25
I99
sg26
I1
sg27
I100
sa(dp246
g21
VSNAPPY TIME
p247
sg23
V07665
p248
sg25
I94
sg26
I2
sg27
I90
sa(dp249
g21
VCORNERS CAN BE CUT
p250
sg23
V6
p251
sg25
I61
sg26
I3
sg27
I65
sa(dp252
g21
VKUMMERLINGS
p253
sg23
V3054
p254
sg25
I88
sg26
I4
sg27
I84
sa(dp255
g21
VMAC'N'RAZOR
p256
sg23
V068x
p257
sg25
I64
sg26
I5
sg27
I0
sa(dp258
g21
VSATIN ROAD
p259
sg23
V
p260
sg25
I82
sg26
I6
sg27
I0
sa(dp261
g21
VSTRYKING ASSASSIN
p262
sg23
V08x99
p263
sg25
I71
sg26
I7
sg27
I75
sa(dp264
g21
VTOM THUMB
p265
sg23
V7777
p266
sg25
I73
sg26
I8
sg27
I78
sa(dp267
g21
VMAIDEN GRACE
p268
sg23
V3x233
p269
sg25
I100
sg26
I9
sg27
I94
sa(dp270
g21
VMAMA JAY JAY
p271
sg23
V7x675
p272
sg25
I79
sg26
I10
sg27
I81
sasg67
(lp273
(lp274
I9
aI4
aI1
aI6
aasssI1542523800
(dp275
g2
Vhttp://www.skyracing.com.au/index.php?component=racing&task=race&id=107993264&meetingid=105710090&Itemid=89
p276
sg4
V29013520.0650
p277
sg6
(dp278
g8
(lp279
(lp280
I4
aI1
aI13
aI5
aa(lp281
I1
aI2
aI7
aI5
aa(lp282
I2
aI4
aI1
aI6
aa(lp283
I1
aI4
aI6
aI2
aa(lp284
I1
aI4
aI2
aI5
aa(lp285
I4
aI1
aI2
aI13
aa(lp286
I4
aI1
aI5
aI2
aa(lp287
I1
aI4
aI2
aI5
aasg18
(lp288
(dp289
g21
VHAPPY GO PLUCKY
p290
sg23
V50674
p291
sg25
I94
sg26
I1
sg27
I97
sa(dp292
g21
VMARTINELLI
p293
sg23
V83403
p294
sg25
I91
sg26
I2
sg27
I87
sa(dp295
g21
VCHARLES THE THIRD
p296
sg23
V11x95
p297
sg25
I82
sg26
I3
sg27
I0
sa(dp298
g21
VSHE GOES POP
p299
sg23
Vx3512
p300
sg25
I100
sg26
I4
sg27
I100
sa(dp301
g21
VTRAVISTEE
p302
sg23
V621x6
p303
sg25
I96
sg26
I5
sg27
I92
sa(dp304
g21
VFIRST STIMULUS
p305
sg23
V54234
p306
sg25
I71
sg26
I6
sg27
I72
sa(dp307
g21
VSHOCKFACTOR
p308
sg23
Vx9409
p309
sg25
I78
sg26
I7
sg27
I74
sa(dp310
g21
VSHELTER LADY
p311
sg23
Vx3468
p312
sg25
I71
sg26
I8
sg27
I0
sa(dp313
g21
VQUEEN GORGO
p314
sg23
V70x01
p315
sg25
I74
sg26
I9
sg27
I0
sa(dp316
g21
VWALK TO THE BAR
p317
sg23
Vx0452
p318
sg25
I75
sg26
I10
sg27
I0
sa(dp319
g21
VROMAN DOLL
p320
sg23
Vx7408
p321
sg25
I85
sg26
I11
sg27
I85
sa(dp322
g21
VSKYTASTIC
p323
sg23
V46x05
p324
sg25
I64
sg26
I12
sg27
I65
sa(dp325
g21
VLUCKY CAPTAIN
p326
sg23
V75314
p327
sg25
I88
sg26
I13
sg27
I95
sasg67
(lp328
(lp329
I4
aI1
aI5
aI13
aa(lp330
I4
aI5
aI2
aI13
aa(lp331
I11
aI4
aI5
aI7
aasssI1542517140
(dp332
g2
Vhttp://www.skyracing.com.au/index.php?component=racing&task=race&id=107993261&meetingid=105710090&Itemid=89
p333
sg4
V29013520.0459
p334
sg6
(dp335
g8
(lp336
(lp337
I3
aI7
aI11
aI8
aa(lp338
I3
aI7
aI11
aI8
aa(lp339
I11
aI8
aI6
aI9
aa(lp340
I3
aI8
aI11
aI6
aa(lp341
I3
aI7
aI8
aI11
aa(lp342
I3
aI7
aI11
aI8
aa(lp343
I3
aI7
aI12
aI11
aa(lp344
I3
aI11
aI7
aI8
aasg18
(lp345
(dp346
g21
VBIT OF ALRIGHT
p347
sg23
g260
sg25
I73
sg26
I1
sg27
I0
sa(dp348
g21
VBUB'S GOLD
p349
sg23
V0x
p350
sg25
I71
sg26
I2
sg27
I79
sa(dp351
g21
VCHURNING
p352
sg23
V365x
p353
sg25
I100
sg26
I3
sg27
I100
sa(dp354
g21
VENTERPRISE LOUISE
p355
sg23
g260
sg25
I77
sg26
I4
sg27
I0
sa(dp356
g21
VLOVE SQUIRRELS
p357
sg23
g260
sg25
I81
sg26
I5
sg27
I0
sa(dp358
g21
VLOVES WOGER WING
p359
sg23
V8
p360
sg25
I79
sg26
I6
sg27
I81
sa(dp361
g21
VMAHUSSEY
p362
sg23
V624x
p363
sg25
I98
sg26
I7
sg27
I97
sa(dp364
g21
VME AS I AM
p365
sg23
V6
p366
sg25
I85
sg26
I8
sg27
I89
sa(dp367
g21
VMERRINGLY
p368
sg23
V7
p369
sg25
I70
sg26
I9
sg27
I75
sa(dp370
g21
VQUEEN OF ARCHES
p371
sg23
g260
sg25
I87
sg26
I10
sg27
I0
sa(dp372
g21
VTAVEUNI
p373
sg23
V6x4
p374
sg25
I92
sg26
I11
sg27
I94
sa(dp375
g21
VWAY OF THE DRAGON
p376
sg23
g260
sg25
I95
sg26
I12
sg27
I0
sasg67
(lp377
(lp378
I3
aI11
aI7
aI8
aa(lp379
I3
aI11
aI8
aI7
aa(lp380
I3
aI7
aI11
aI8
aasssI1542514200
(dp381
g2
Vhttp://www.skyracing.com.au/index.php?component=racing&task=race&id=107993156&meetingid=105710122&Itemid=89
p382
sg4
V29013628.0410
p383
sg6
(dp384
g8
(lp385
(lp386
I2
aI1
aI3
aI8
aa(lp387
I4
aI1
aI9
aI2
aa(lp388
I4
aI1
aI3
aI8
aa(lp389
I5
aI1
aI2
aI7
aa(lp390
I11
aI2
aI4
aI1
aa(lp391
I1
aI3
aI2
aI8
aa(lp392
I1
aI4
aI2
aI8
aa(lp393
I1
aI2
aI4
aI3
aasg18
(lp394
(dp395
g21
VGRAND ARMADA
p396
sg23
V61253
p397
sg25
I97
sg26
I1
sg27
I92
sa(dp398
g21
VBIG BOY BLEV
p399
sg23
V2571x
p400
sg25
I100
sg26
I2
sg27
I100
sa(dp401
g21
VITZ A BULLET
p402
sg23
V060x1
p403
sg25
I91
sg26
I3
sg27
I87
sa(dp404
g21
VBON ELISE
p405
sg23
V67308
p406
sg25
I89
sg26
I4
sg27
I83
sa(dp407
g21
VDELLACQUA
p408
sg23
V50x88
p409
sg25
I76
sg26
I5
sg27
I72
sa(dp410
g21
VCLAIBORNE KING
p411
sg23
Vx4662
p412
sg25
I73
sg26
I6
sg27
I0
sa(dp413
g21
VBALLAST
p414
sg23
Vx2840
p415
sg25
I85
sg26
I7
sg27
I71
sa(dp416
g21
VFINNISS MOMENT
p417
sg23
V55144
p418
sg25
I93
sg26
I8
sg27
I84
sa(dp419
g21
VSIR CHARLESTON
p420
sg23
V86000
p421
sg25
I78
sg26
I9
sg27
I79
sa(dp422
g21
VAALI MIA
p423
sg23
V4389x
p424
sg25
I70
sg26
I10
sg27
I65
sa(dp425
g21
VDOWNUNDER PRINCE
p426
sg23
V8x873
p427
sg25
I83
sg26
I11
sg27
I76
sa(dp428
g21
VJARRVIS
p429
sg23
V79004
p430
sg25
I68
sg26
I12
sg27
I65
sa(dp431
g21
VVILLE DE BERNE
p432
sg23
V69708
p433
sg25
I66
sg26
I13
sg27
I58
sasg67
(lp434
(lp435
I4
aI5
aI7
aI11
aa(lp436
I4
aI2
aI8
aI1
aasssI1542514500
(dp437
g2
Vhttp://www.skyracing.com.au/index.php?component=racing&task=race&id=107993260&meetingid=105710090&Itemid=89
p438
sg4
V29013520.0415
p439
sg6
(dp440
g8
(lp441
(lp442
I4
aI1
aI9
aI2
aa(lp443
I5
aI4
aI1
aI2
aa(lp444
I4
aI1
aI2
aI3
aa(lp445
I5
aI4
aI1
aI9
aa(lp446
I4
aI1
aI2
aI9
aa(lp447
I1
aI4
aI9
aI2
aa(lp448
I4
aI1
aI3
aI9
aa(lp449
I4
aI1
aI5
aI9
aasg18
(lp450
(dp451
g21
VANGELS OF FENWAY
p452
sg23
V3324
p453
sg25
I96
sg26
I1
sg27
I96
sa(dp454
g21
VCLAIRVUE SPIRIT
p455
sg23
V57x
p456
sg25
I82
sg26
I2
sg27
I85
sa(dp457
g21
VGINGER BEER
p458
sg23
g260
sg25
I90
sg26
I3
sg27
I0
sa(dp459
g21
VHARD YAGA
p460
sg23
V2
p461
sg25
I100
sg26
I4
sg27
I100
sa(dp462
g21
VHINANO
p463
sg23
V450x
p464
sg25
I71
sg26
I5
sg27
I82
sa(dp465
g21
VLOVE YA BLUE
p466
sg23
g260
sg25
I80
sg26
I6
sg27
I0
sa(dp467
g21
VMARK OF THE CLASS
p468
sg23
g260
sg25
I73
sg26
I7
sg27
I0
sa(dp469
g21
VRICHETTI
p470
sg23
g260
sg25
I63
sg26
I8
sg27
I0
sa(dp471
g21
VSPEEDGUN
p472
sg23
V9x
p473
sg25
I85
sg26
I9
sg27
I90
sasg67
(lp474
(lp475
I4
aI9
aI5
aI1
aa(lp476
I4
aI1
aI8
aI3
aa(lp477
I4
aI9
aI1
aI3
aasssI1542524700
(dp478
g2
Vhttp://www.skyracing.com.au/index.php?component=racing&task=race&id=107993336&meetingid=105710106&Itemid=89
p479
sg4
V29013787.0705
p480
sg6
(dp481
g8
(lp482
(lp483
I1
aI3
aI2
aI4
aa(lp484
I1
aI2
aI5
aI4
aa(lp485
I1
aI2
aI5
aI4
aa(lp486
I1
aI4
aI2
aI6
aa(lp487
I5
aI4
aI2
aI1
aa(lp488
I1
aI3
aI2
aI5
aa(lp489
I1
aI4
aI3
aI5
aa(lp490
I1
aI2
aI4
aI5
aasg18
(lp491
(dp492
g21
VDOON BUGGY
p493
sg23
V18353
p494
sg25
I100
sg26
I1
sg27
I100
sa(dp495
g21
VCELEBRAKTI
p496
sg23
V7x648
p497
sg25
I86
sg26
I2
sg27
I92
sa(dp498
g21
VPLANET EARTH
p499
sg23
V3363x
p500
sg25
I98
sg26
I3
sg27
I99
sa(dp501
g21
VFINALS TIME
p502
sg23
V0x748
p503
sg25
I92
sg26
I4
sg27
I86
sa(dp504
g21
VCOPERNICUS
p505
sg23
V47557
p506
sg25
I82
sg26
I5
sg27
I83
sa(dp507
g21
VSEEK TO DESTROY
p508
sg23
Vx0558
p509
sg25
I78
sg26
I6
sg27
I79
sasg67
(lp510
(lp511
I1
aI2
aI3
aI6
aasssI1542516000
(dp512
g2
Vhttp://www.skyracing.com.au/index.php?component=racing&task=race&id=107993217&meetingid=105710074&Itemid=89
p513
sg4
V29013769.0440
p514
sg6
(dp515
g8
(lp516
(lp517
I6
aI4
aI7
aI5
aa(lp518
I3
aI2
aI6
aI5
aa(lp519
I2
aI3
aI5
aI6
aa(lp520
I4
aI3
aI2
aI6
aa(lp521
I6
aI5
aI2
aI3
aa(lp522
I6
aI4
aI7
aI5
aa(lp523
I6
aI4
aI2
aI5
aa(lp524
I6
aI2
aI3
aI4
aasg18
(lp525
(dp526
g21
VSEE WHAT I BRING
p527
sg23
Vx70x0
p528
sg25
I73
sg26
I1
sg27
I71
sa(dp529
g21
VLOCKDOWN JACK
p530
sg23
V86527
p531
sg25
I84
sg26
I2
sg27
I82
sa(dp532
g21
VTIGIDIG TIGIDIG
p533
sg23
Vx8947
p534
sg25
I80
sg26
I3
sg27
I80
sa(dp535
g21
VCASINO FOURTEEN
p536
sg23
V3x7x4
p537
sg25
I96
sg26
I4
sg27
I98
sa(dp538
g21
VMIDNIGHT COWBOY
p539
sg23
V12241
p540
sg25
I85
sg26
I5
sg27
I85
sa(dp541
g21
VDUECOURSE
p542
sg23
V6x323
p543
sg25
I100
sg26
I6
sg27
I100
sa(dp544
g21
VNATIONS
p545
sg23
V61x53
p546
sg25
I90
sg26
I7
sg27
I91
sa(dp547
g21
VJACKTHEGIANTSLAYER
p548
sg23
V24496
p549
sg25
I72
sg26
I8
sg27
I73
sasg67
(lp550
(lp551
I4
aI6
aI5
aI2
aa(lp552
I4
aI6
aI7
aI5
aasssI1542516900
(dp553
g2
Vhttp://www.skyracing.com.au/index.php?component=racing&task=race&id=107993157&meetingid=105710122&Itemid=89
p554
sg4
V29013628.0455
p555
sg6
(dp556
g8
(lp557
(lp558
I6
aI7
aI5
aI2
aa(lp559
I4
aI2
aI10
aI11
aa(lp560
I4
aI5
aI10
aI6
aa(lp561
I2
aI4
aI10
aI5
aa(lp562
I10
aI5
aI4
aI7
aa(lp563
I7
aI6
aI5
aI2
aa(lp564
I6
aI7
aI5
aI2
aa(lp565
I4
aI5
aI10
aI2
aasg18
(lp566
(dp567
g21
VBUBBLERAP
p568
sg23
V14
p569
sg25
I100
sg26
I1
sg27
I0
sa(dp570
g21
VFULTON STREET
p571
sg23
V1525x
p572
sg25
I81
sg26
I2
sg27
I86
sa(dp573
g21
VDUCHESS GRACE
p574
sg23
V17x54
p575
sg25
I88
sg26
I3
sg27
I0
sa(dp576
g21
VFORT NECESSITY
p577
sg23
V90x73
p578
sg25
I74
sg26
I4
sg27
I73
sa(dp579
g21
VTHE TROOPER
p580
sg23
V1
p581
sg25
I92
sg26
I5
sg27
I91
sa(dp582
g21
VARTISTIC FOCUS
p583
sg23
V1
p584
sg25
I98
sg26
I6
sg27
I100
sa(dp585
g21
VNO JOY
p586
sg23
V1x7
p587
sg25
I95
sg26
I7
sg27
I94
sa(dp588
g21
VYANKEE EYES
p589
sg23
V0x515
p590
sg25
I85
sg26
I8
sg27
I0
sa(dp591
g21
VVEIN CHOICE
p592
sg23
V45827
p593
sg25
I75
sg26
I9
sg27
I0
sa(dp594
g21
VARTISTIC ESCAPE
p595
sg23
V82848
p596
sg25
I78
sg26
I10
sg27
I81
sa(dp597
g21
VTATTOO YOU
p598
sg23
V05x06
p599
sg25
I70
sg26
I11
sg27
I71
sasg67
(lp600
(lp601
I7
aI6
aI5
aI4
aa(lp602
I7
aI6
aI5
aI4
aasssI1542521640
(dp603
g2
Vhttp://www.skyracing.com.au/index.php?component=racing&task=race&id=107993263&meetingid=105710090&Itemid=89
p604
sg4
V29013520.0614
p605
sg6
(dp606
g8
(lp607
(lp608
I2
aI3
aI11
aI4
aa(lp609
I3
aI16
aI2
aI13
aa(lp610
I3
aI13
aI16
aI11
aa(lp611
I2
aI16
aI3
aI13
aa(lp612
I3
aI2
aI16
aI13
aa(lp613
I2
aI3
aI4
aI13
aa(lp614
I2
aI7
aI6
aI3
aa(lp615
I3
aI2
aI16
aI13
aasg18
(lp616
(dp617
g21
VIRON DOME
p618
sg23
V3x
p619
sg25
I100
sg26
I1
sg27
I0
sa(dp620
g21
VTOO HARD TO RATTLE
p621
sg23
V34x3
p622
sg25
I99
sg26
I2
sg27
I100
sa(dp623
g21
VOUR RED JET
p624
sg23
V220x6
p625
sg25
I86
sg26
I3
sg27
I92
sa(dp626
g21
VHEAVENLY ARCHER
p627
sg23
V84
p628
sg25
I73
sg26
I4
sg27
I77
sa(dp629
g21
VHI ZERO
p630
sg23
g260
sg25
I88
sg26
I5
sg27
I0
sa(dp631
g21
VMOUNTBATTEN
p632
sg23
g260
sg25
I90
sg26
I6
sg27
I0
sa(dp633
g21
VSHISHAQ
p634
sg23
g260
sg25
I93
sg26
I7
sg27
I0
sa(dp635
g21
VGYPSY'S TIP
p636
sg23
V237x3
p637
sg25
I96
sg26
I8
sg27
I0
sa(dp638
g21
VHEKANSPLIT
p639
sg23
V87
p640
sg25
I61
sg26
I9
sg27
I0
sa(dp641
g21
VIAMPAIDFOR
p642
sg23
V9x70x
p643
sg25
I68
sg26
I10
sg27
I72
sa(dp644
g21
VPUMPKIN DIAMOND
p645
sg23
V35
p646
sg25
I76
sg26
I11
sg27
I81
sa(dp647
g21
VTOO HARD TO CALL
p648
sg23
V5
p649
sg25
I82
sg26
I12
sg27
I0
sa(dp650
g21
VALLEGRO VITA
p651
sg23
V4794
p652
sg25
I71
sg26
I13
sg27
I75
sa(dp653
g21
VAWESOME MO
p654
sg23
V67x73
p655
sg25
I78
sg26
I14
sg27
I0
sa(dp656
g21
VMCCULLOUGH
p657
sg23
V4532x
p658
sg25
I84
sg26
I15
sg27
I0
sa(dp659
g21
VSHOWSCAY
p660
sg23
V089x5
p661
sg25
I67
sg26
I16
sg27
I73
sa(dp662
g21
VTEMERITY
p663
sg23
V490x9
p664
sg25
I63
sg26
I17
sg27
I0
sa(dp665
g21
VSINGLE LASS
p666
sg23
V38959
p667
sg25
I65
sg26
I18
sg27
I0
sasg67
(lp668
(lp669
I7
aI6
aI5
aI3
aa(lp670
I5
aI6
aI7
aI11
aa(lp671
I5
aI6
aI4
aI7
aasssI1542518700
(dp672
g2
Vhttp://www.skyracing.com.au/index.php?component=racing&task=race&id=107993173&meetingid=105710058&Itemid=89
p673
sg4
V29013577.0525
p674
sg6
(dp675
g8
(lp676
(lp677
I2
aI1
aI3
aI7
aa(lp678
I3
aI2
aI6
aI1
aa(lp679
I3
aI2
aI1
aI6
aa(lp680
I3
aI1
aI8
aI2
aa(lp681
I7
aI9
aI2
aI1
aa(lp682
I2
aI1
aI3
aI7
aa(lp683
I2
aI1
aI3
aI7
aa(lp684
I2
aI3
aI1
aI7
aasg18
(lp685
(dp686
g21
VMY BOY GREG
p687
sg23
V3x1x3
p688
sg25
I97
sg26
I1
sg27
I96
sa(dp689
g21
VFROM THE CLOUDS
p690
sg23
V356x1
p691
sg25
I100
sg26
I2
sg27
I100
sa(dp692
g21
VSURPRISE HERO
p693
sg23
V0x468
p694
sg25
I94
sg26
I3
sg27
I93
sa(dp695
g21
VAQUILA REALE
p696
sg23
V8160x
p697
sg25
I88
sg26
I4
sg27
I0
sa(dp698
g21
VMINUTE BY MINUTE
p699
sg23
V0x805
p700
sg25
I68
sg26
I5
sg27
I65
sa(dp701
g21
VATUNNAH COURAGE
p702
sg23
V33057
p703
sg25
I71
sg26
I6
sg27
I70
sa(dp704
g21
VHOTHANDS LIZ
p705
sg23
V06642
p706
sg25
I78
sg26
I7
sg27
I85
sa(dp707
g21
VDAME VASSA
p708
sg23
V5544x
p709
sg25
I81
sg26
I8
sg27
I84
sa(dp710
g21
VLYONESSE
p711
sg23
V7x683
p712
sg25
I76
sg26
I9
sg27
I78
sasg67
(lp713
(lp714
I1
aI7
aI2
aI8
aasssI1542512340
(dp715
g2
Vhttp://www.skyracing.com.au/index.php?component=racing&task=race&id=107993259&meetingid=105710090&Itemid=89
p716
sg4
V29013520.0339
p717
sg6
(dp718
g8
(lp719
(lp720
I5
aI4
aI3
aI2
aa(lp721
I3
aI5
aI4
aI8
aa(lp722
I5
aI4
aI3
aI8
aa(lp723
I5
aI4
aI3
aI8
aa(lp724
I4
aI5
aI3
aI8
aa(lp725
I5
aI4
aI2
aI3
aa(lp726
I5
aI4
aI3
aI2
aa(lp727
I5
aI4
aI3
aI8
aasg18
(lp728
(dp729
g21
VACTION D'IMPULSION
p730
sg23
Vx4203
p731
sg25
I87
sg26
I1
sg27
I0
sa(dp732
g21
VMAGNETITE
p733
sg23
V5
p734
sg25
I83
sg26
I2
sg27
I84
sa(dp735
g21
VRATIONALE
p736
sg23
V52733
p737
sg25
I92
sg26
I3
sg27
I87
sa(dp738
g21
VBUXTON
p739
sg23
V22642
p740
sg25
I95
sg26
I4
sg27
I93
sa(dp741
g21
VHOLBROOK
p742
sg23
V53372
p743
sg25
I100
sg26
I5
sg27
I100
sa(dp744
g21
VSPEAKING BETTER
p745
sg23
V05
p746
sg25
I78
sg26
I6
sg27
I79
sa(dp747
g21
VROYAL YACHT
p748
sg23
V9x098
p749
sg25
I71
sg26
I7
sg27
I0
sa(dp750
g21
VRISEUPSKATING
p751
sg23
V70486
p752
sg25
I76
sg26
I8
sg27
I73
sasg67
(lp753
(lp754
I5
aI3
aI4
aI6
aa(lp755
I3
aI5
aI4
aI2
aa(lp756
I6
aI5
aI3
aI4
aasssI1542529800
(dp757
g2
Vhttp://www.skyracing.com.au/index.php?component=racing&task=race&id=107993308&meetingid=105710138&Itemid=89
p758
sg4
V29013564.0830
p759
sg6
(dp760
g8
(lp761
(lp762
I9
aI1
aI6
aI2
aa(lp763
I1
aI2
aI4
aI5
aa(lp764
I3
aI13
aI9
aI10
aa(lp765
I2
aI4
aI1
aI5
aa(lp766
I9
aI1
aI13
aI10
aa(lp767
I1
aI9
aI2
aI6
aa(lp768
I1
aI9
aI3
aI2
aa(lp769
I1
aI9
aI2
aI4
aasg18
(lp770
(dp771
g21
VCAPTIVATED POINT
p772
sg23
V760x4
p773
sg25
I100
sg26
I1
sg27
I97
sa(dp774
g21
VMONGOLIAN WARLORD
p775
sg23
V5084x
p776
sg25
I95
sg26
I2
sg27
I90
sa(dp777
g21
VSUNSET PETE
p778
sg23
V110x3
p779
sg25
I81
sg26
I3
sg27
I83
sa(dp780
g21
VTRANQUILLA SUNRISE
p781
sg23
V150x3
p782
sg25
I74
sg26
I4
sg27
I75
sa(dp783
g21
VFRIARFIGHTER
p784
sg23
V833x0
p785
sg25
I71
sg26
I5
sg27
I72
sa(dp786
g21
VPRIX D'EXCELLENCE
p787
sg23
V5312x
p788
sg25
I92
sg26
I6
sg27
I95
sa(dp789
g21
VCOUNT KALA
p790
sg23
Vx34x0
p791
sg25
I85
sg26
I7
sg27
I89
sa(dp792
g21
VQUEEN TORI
p793
sg23
V960x7
p794
sg25
I68
sg26
I8
sg27
I71
sa(dp795
g21
VANNA AMALIA
p796
sg23
V328x2
p797
sg25
I98
sg26
I9
sg27
I100
sa(dp798
g21
VCHENGDU
p799
sg23
V344x4
p800
sg25
I76
sg26
I10
sg27
I79
sa(dp801
g21
VEVERASREADY
p802
sg23
V615x9
p803
sg25
I67
sg26
I11
sg27
I64
sa(dp804
g21
VFORCE ELEMENT
p805
sg23
V3900x
p806
sg25
I60
sg26
I12
sg27
I60
sa(dp807
g21
VJESTER FERRARI
p808
sg23
V00212
p809
sg25
I89
sg26
I13
sg27
I86
sa(dp810
g21
VKRONSTADT
p811
sg23
V770x8
p812
sg25
I63
sg26
I14
sg27
I62
sa(dp813
g21
VREAL TARGET
p814
sg23
Vx878x
p815
sg25
I79
sg26
I15
sg27
I73
sasg67
(lp816
(lp817
I3
aI4
aI1
aI9
aasssI1542520500
(dp818
g2
Vhttp://www.skyracing.com.au/index.php?component=racing&task=race&id=107993334&meetingid=105710106&Itemid=89
p819
sg4
V29013787.0555
p820
sg6
(dp821
g8
(lp822
(lp823
I3
aI1
aI2
aI4
aa(lp824
I1
aI2
aI3
aI4
aa(lp825
I3
aI4
aI5
aI2
aa(lp826
I1
aI2
aI3
aI4
aa(lp827
I5
aI6
aI3
aI2
aa(lp828
I1
aI3
aI2
aI6
aa(lp829
I1
aI3
aI4
aI2
aa(lp830
I3
aI1
aI2
aI4
aasg18
(lp831
(dp832
g21
VLE COMMANDANT
p833
sg23
V436x6
p834
sg25
I91
sg26
I1
sg27
I95
sa(dp835
g21
VPYXIS
p836
sg23
Vx6x45
p837
sg25
I85
sg26
I2
sg27
I88
sa(dp838
g21
VSNOWTROOPER
p839
sg23
V13213
p840
sg25
I100
sg26
I3
sg27
I100
sa(dp841
g21
VNORDIC ECLIPSE
p842
sg23
V21115
p843
sg25
I95
sg26
I4
sg27
I83
sa(dp844
g21
VWINGARD'S MARK
p845
sg23
Vx2861
p846
sg25
I79
sg26
I5
sg27
I76
sa(dp847
g21
VDANCING POETESS
p848
sg23
V23331
p849
sg25
I83
sg26
I6
sg27
I79
sasg67
(lp850
(lp851
I1
aI3
aI2
aI4
aasssI1542521400
(dp852
g2
Vhttp://www.skyracing.com.au/index.php?component=racing&task=race&id=107993159&meetingid=105710122&Itemid=89
p853
sg4
V29013628.0610
p854
sg6
(dp855
g8
(lp856
(lp857
I1
aI2
aI4
aI9
aa(lp858
I8
aI2
aI5
aI9
aa(lp859
I9
aI8
aI3
aI10
aa(lp860
I6
aI5
aI8
aI2
aa(lp861
I8
aI9
aI1
aI2
aa(lp862
I1
aI4
aI2
aI9
aa(lp863
I1
aI2
aI4
aI8
aa(lp864
I8
aI2
aI9
aI1
aasg18
(lp865
(dp866
g21
VTAMBANG BESI
p867
sg23
V722x1
p868
sg25
I100
sg26
I1
sg27
I100
sa(dp869
g21
VVONRASANA
p870
sg23
V0x374
p871
sg25
I97
sg26
I2
sg27
I99
sa(dp872
g21
VEXACTING
p873
sg23
V2x537
p874
sg25
I79
sg26
I3
sg27
I88
sa(dp875
g21
VGETOUTTHEWAY
p876
sg23
V33515
p877
sg25
I94
sg26
I4
sg27
I93
sa(dp878
g21
VBIG CALL
p879
sg23
V84x42
p880
sg25
I87
sg26
I5
sg27
I73
sa(dp881
g21
VEPERDUMENT
p882
sg23
V0296x
p883
sg25
I75
sg26
I6
sg27
I82
sa(dp884
g21
VSYLVAN CREST
p885
sg23
V2187x
p886
sg25
I72
sg26
I7
sg27
I72
sa(dp887
g21
VHILUMIERE
p888
sg23
V03493
p889
sg25
I83
sg26
I8
sg27
I86
sa(dp890
g21
VON APPRO
p891
sg23
V43x26
p892
sg25
I90
sg26
I9
sg27
I92
sa(dp893
g21
VREGAL EAGLE
p894
sg23
Vx5349
p895
sg25
I73
sg26
I10
sg27
I77
sa(dp896
g21
VEXALTED GLORY
p897
sg23
V187x5
p898
sg25
I85
sg26
I11
sg27
I78
sa(dp899
g21
VSWIFT JET
p900
sg23
V98355
p901
sg25
I69
sg26
I12
sg27
I0
sa(dp902
g21
VFLYING FEATHERS
p903
sg23
V6570x
p904
sg25
I64
sg26
I13
sg27
I66
sasg67
(lp905
(lp906
I5
aI8
aI9
aI2
aa(lp907
I1
aI5
aI9
aI10
aasssI1542515700
(dp908
g2
Vhttp://www.skyracing.com.au/index.php?component=racing&task=race&id=107993202&meetingid=105710042&Itemid=89
p909
sg4
V29013559.0435
p910
sg6
(dp911
g8
(lp912
(lp913
I7
aI10
aI11
aI2
aa(lp914
I7
aI2
aI10
aI9
aa(lp915
I10
aI7
aI6
aI11
aa(lp916
I10
aI7
aI2
aI9
aa(lp917
I7
aI10
aI2
aI9
aa(lp918
I11
aI7
aI10
aI2
aa(lp919
I10
aI7
aI11
aI6
aa(lp920
I7
aI10
aI2
aI11
aasg18
(lp921
(dp922
g21
VBARON BOLD
p923
sg23
V88x
p924
sg25
I64
sg26
I1
sg27
I0
sa(dp925
g21
VKINGSTON HEATH
p926
sg23
Vx370x
p927
sg25
I79
sg26
I2
sg27
I81
sa(dp928
g21
VMR SUCKER
p929
sg23
g260
sg25
I71
sg26
I3
sg27
I0
sa(dp930
g21
VBOOYEAH
p931
sg23
V0
p932
sg25
I69
sg26
I4
sg27
I74
sa(dp933
g21
VSTRYKE THE GATES
p934
sg23
V5
p935
sg25
I73
sg26
I5
sg27
I0
sa(dp936
g21
VWIN 'N' GRIN
p937
sg23
V98x7
p938
sg25
I86
sg26
I6
sg27
I79
sa(dp939
g21
VBELLE OF CLONMEL
p940
sg23
V39x63
p941
sg25
I90
sg26
I7
sg27
I100
sa(dp942
g21
VBLIXAM
p943
sg23
g260
sg25
I75
sg26
I8
sg27
I0
sa(dp944
g21
VEMERALD EARTH
p945
sg23
V57x
p946
sg25
I82
sg26
I9
sg27
I76
sa(dp947
g21
VLUCKY LOUIE
p948
sg23
Vx57x2
p949
sg25
I100
sg26
I10
sg27
I92
sa(dp950
g21
VAMPLIFIED
p951
sg23
V7
p952
sg25
I87
sg26
I11
sg27
I90
sa(dp953
g21
VMIMIC
p954
sg23
V24x7
p955
sg25
I95
sg26
I12
sg27
I0
sa(dp956
g21
VRIVER BIRD
p957
sg23
V25x62
p958
sg25
I96
sg26
I13
sg27
I0
sasg67
(lp959
(lp960
I10
aI11
aI9
aI7
aa(lp961
I10
aI7
aI8
aI9
aa(lp962
I10
aI7
aI11
aI6
aasssI1542531900
(dp963
g2
Vhttp://www.skyracing.com.au/index.php?component=racing&task=race&id=107993309&meetingid=105710138&Itemid=89
p964
sg4
V29013564.0905
p965
sg6
(dp966
g8
(lp967
(lp968
I1
aI4
aI2
aI3
aa(lp969
I2
aI1
aI3
aI7
aa(lp970
I1
aI3
aI4
aI7
aa(lp971
I1
aI2
aI8
aI6
aa(lp972
I7
aI1
aI3
aI5
aa(lp973
I2
aI3
aI1
aI4
aa(lp974
I4
aI3
aI1
aI2
aa(lp975
I1
aI2
aI3
aI4
aasg18
(lp976
(dp977
g21
VLORD KRONOS
p978
sg23
V721x1
p979
sg25
I100
sg26
I1
sg27
I100
sa(dp980
g21
VCHASING CHAOS
p981
sg23
V00798
p982
sg25
I92
sg26
I2
sg27
I85
sa(dp983
g21
VGAUGED
p984
sg23
V116x3
p985
sg25
I95
sg26
I3
sg27
I81
sa(dp986
g21
VRED NOIRE
p987
sg23
V105x4
p988
sg25
I96
sg26
I4
sg27
I96
sa(dp989
g21
VJESTER ROCK
p990
sg23
V667x0
p991
sg25
I83
sg26
I5
sg27
I72
sa(dp992
g21
VTORU WAIMARIE
p993
sg23
V9974x
p994
sg25
I79
sg26
I6
sg27
I69
sa(dp995
g21
VPRINCE FRIAR
p996
sg23
V509x2
p997
sg25
I84
sg26
I7
sg27
I75
sa(dp998
g21
VSTEP RIGHT UP
p999
sg23
V049x8
p1000
sg25
I88
sg26
I8
sg27
I77
sa(dp1001
g21
VITS NOT TRADING
p1002
sg23
V439x0
p1003
sg25
I71
sg26
I9
sg27
I63
sa(dp1004
g21
VSONDHEIM
p1005
sg23
V98056
p1006
sg25
I75
sg26
I10
sg27
I60
sa(dp1007
g21
VVIGORHESTA
p1008
sg23
V06743
p1009
sg25
I74
sg26
I11
sg27
I65
sasg67
(lp1010
(lp1011
I4
aI1
aI3
aI7
aasssI1542513600
(dp1012
g2
Vhttp://www.skyracing.com.au/index.php?component=racing&task=race&id=107993216&meetingid=105710074&Itemid=89
p1013
sg4
V29013769.0400
p1014
sg6
(dp1015
g8
(lp1016
(lp1017
I5
aI7
aI4
aI3
aa(lp1018
I3
aI4
aI7
aI5
aa(lp1019
I7
aI5
aI4
aI3
aa(lp1020
I4
aI7
aI3
aI5
aa(lp1021
I5
aI7
aI4
aI3
aa(lp1022
I5
aI7
aI4
aI3
aa(lp1023
I5
aI7
aI4
aI3
aa(lp1024
I7
aI5
aI4
aI3
aasg18
(lp1025
(dp1026
g21
VROYAL SPINNER
p1027
sg23
V6x582
p1028
sg25
I89
sg26
I1
sg27
I0
sa(dp1029
g21
VTOORAK SMOCK
p1030
sg23
V5x11
p1031
sg25
I100
sg26
I2
sg27
I0
sa(dp1032
g21
VDOMINANT WAY
p1033
sg23
V4849x
p1034
sg25
I75
sg26
I3
sg27
I82
sa(dp1035
g21
VMISSANDEI
p1036
sg23
V13230
p1037
sg25
I78
sg26
I4
sg27
I87
sa(dp1038
g21
VTYCOON ROXY
p1039
sg23
V303x1
p1040
sg25
I99
sg26
I5
sg27
I100
sa(dp1041
g21
VMIGHTY MOSHE
p1042
sg23
V546x1
p1043
sg25
I93
sg26
I6
sg27
I0
sa(dp1044
g21
VHARDWICKE BAY
p1045
sg23
V06x22
p1046
sg25
I83
sg26
I7
sg27
I92
sasg67
(lp1047
(lp1048
I5
aI7
aI3
aI4
aa(lp1049
I5
aI3
aI7
aI4
aasssI1542525600
(dp1050
g2
Vhttp://www.skyracing.com.au/index.php?component=racing&task=race&id=107993265&meetingid=105710090&Itemid=89
p1051
sg4
V29013520.0720
p1052
sg6
(dp1053
g8
(lp1054
(lp1055
I14
aI2
aI12
aI16
aa(lp1056
I5
aI7
aI4
aI1
aa(lp1057
I4
aI5
aI7
aI2
aa(lp1058
I2
aI5
aI3
aI1
aa(lp1059
I1
aI16
aI4
aI3
aa(lp1060
I14
aI2
aI12
aI3
aa(lp1061
I14
aI4
aI16
aI2
aa(lp1062
I2
aI5
aI4
aI14
aasg18
(lp1063
(dp1064
g21
VSTAR SILK
p1065
sg23
V96272
p1066
sg25
I91
sg26
I1
sg27
I89
sa(dp1067
g21
VLOVE AND ROCK IT
p1068
sg23
V0x454
p1069
sg25
I96
sg26
I2
sg27
I98
sa(dp1070
g21
VTHE PERPETRATOR
p1071
sg23
V30x15
p1072
sg25
I78
sg26
I3
sg27
I84
sa(dp1073
g21
VTREASURE GALLERY
p1074
sg23
V74122
p1075
sg25
I89
sg26
I4
sg27
I87
sa(dp1076
g21
VFLAMIN' MOGUL
p1077
sg23
V03526
p1078
sg25
I65
sg26
I5
sg27
I64
sa(dp1079
g21
VHIDDEN GOLD
p1080
sg23
V10x50
p1081
sg25
I73
sg26
I6
sg27
I67
sa(dp1082
g21
VROTHABYE
p1083
sg23
V57538
p1084
sg25
I72
sg26
I7
sg27
I74
sa(dp1085
g21
VWAS IT WORTH IT
p1086
sg23
V57022
p1087
sg25
I84
sg26
I8
sg27
I82
sa(dp1088
g21
VLEGENDARY LUKE
p1089
sg23
V55793
p1090
sg25
I68
sg26
I9
sg27
I0
sa(dp1091
g21
VSAVVY ROCK
p1092
sg23
V1148x
p1093
sg25
I94
sg26
I10
sg27
I79
sa(dp1094
g21
VAL'S KINGDOM
p1095
sg23
V214
p1096
sg25
I100
sg26
I11
sg27
I0
sa(dp1097
g21
VIRON CRAFT
p1098
sg23
V064x2
p1099
sg25
I80
sg26
I12
sg27
I96
sa(dp1100
g21
VREAL STING
p1101
sg23
V7635x
p1102
sg25
I76
sg26
I13
sg27
I0
sa(dp1103
g21
VSPANKS
p1104
sg23
V17x03
p1105
sg25
I99
sg26
I14
sg27
I100
sa(dp1106
g21
VBARNEY
p1107
sg23
Vx3474
p1108
sg25
I67
sg26
I15
sg27
I69
sa(dp1109
g21
VLAVINGTON STAR
p1110
sg23
V4x561
p1111
sg25
I86
sg26
I16
sg27
I93
sasg67
(lp1112
(lp1113
I2
aI14
aI5
aI1
aa(lp1114
I3
aI2
aI14
aI1
aa(lp1115
I2
aI14
aI1
aI16
aasssI1542512580
(dp1116
g2
Vhttp://www.skyracing.com.au/index.php?component=racing&task=race&id=107993170&meetingid=105710058&Itemid=89
p1117
sg4
V29013577.0343
p1118
sg6
(dp1119
g8
(lp1120
(lp1121
I7
aI11
aI4
aI6
aa(lp1122
I6
aI7
aI4
aI11
aa(lp1123
I6
aI4
aI7
aI11
aa(lp1124
I6
aI4
aI7
aI9
aa(lp1125
I7
aI6
aI3
aI4
aa(lp1126
I7
aI4
aI11
aI6
aa(lp1127
I7
aI11
aI6
aI4
aa(lp1128
I7
aI6
aI4
aI11
aasg18
(lp1129
(dp1130
g21
VEKOFANITE
p1131
sg23
g260
sg25
I75
sg26
I1
sg27
I0
sa(dp1132
g21
VHOLY WAR
p1133
sg23
g260
sg25
I71
sg26
I2
sg27
I0
sa(dp1134
g21
VRALPH
p1135
sg23
V78545
p1136
sg25
I74
sg26
I3
sg27
I80
sa(dp1137
g21
VMALAWI GOLD
p1138
sg23
V0x9x4
p1139
sg25
I84
sg26
I4
sg27
I93
sa(dp1140
g21
VBE INSTANT
p1141
sg23
V24x27
p1142
sg25
I93
sg26
I5
sg27
I0
sa(dp1143
g21
VBON BON
p1144
sg23
V45827
p1145
sg25
I83
sg26
I6
sg27
I91
sa(dp1146
g21
VMAJESTIC HALO
p1147
sg23
V286x4
p1148
sg25
I92
sg26
I7
sg27
I100
sa(dp1149
g21
VMY SOUTHERN STAR
p1150
sg23
V869x7
p1151
sg25
I71
sg26
I8
sg27
I0
sa(dp1152
g21
VQUEEN KHALEESI
p1153
sg23
V77x0
p1154
sg25
I78
sg26
I9
sg27
I84
sa(dp1155
g21
VRAFFINE
p1156
sg23
V2
p1157
sg25
I100
sg26
I10
sg27
I0
sa(dp1158
g21
VBETTYGEE
p1159
sg23
V594
p1160
sg25
I88
sg26
I11
sg27
I96
sa(dp1161
g21
VONEIRA
p1162
sg23
V3x2
p1163
sg25
I98
sg26
I12
sg27
I0
sasg67
(lp1164
(lp1165
I7
aI11
aI6
aI4
aasssI1542520020
(dp1166
g2
Vhttp://www.skyracing.com.au/index.php?component=racing&task=race&id=107993204&meetingid=105710042&Itemid=89
p1167
sg4
V29013559.0547
p1168
sg6
(dp1169
g8
(lp1170
(lp1171
I6
aI8
aI2
aI9
aa(lp1172
I8
aI4
aI1
aI9
aa(lp1173
I4
aI6
aI9
aI8
aa(lp1174
I8
aI1
aI2
aI4
aa(lp1175
I4
aI8
aI9
aI2
aa(lp1176
I6
aI2
aI8
aI5
aa(lp1177
I6
aI5
aI2
aI9
aa(lp1178
I8
aI4
aI6
aI2
aasg18
(lp1179
(dp1180
g21
VBOCHY
p1181
sg23
V700x8
p1182
sg25
I68
sg26
I1
sg27
I65
sa(dp1183
g21
VCHALMERS
p1184
sg23
V210x8
p1185
sg25
I85
sg26
I2
sg27
I89
sa(dp1186
g21
VDER MEISTER
p1187
sg23
V8x4x8
p1188
sg25
I61
sg26
I3
sg27
I61
sa(dp1189
g21
VGENERAL ARTIE
p1190
sg23
V29x02
p1191
sg25
I70
sg26
I4
sg27
I72
sa(dp1192
g21
VHIGH POWER
p1193
sg23
V101x6
p1194
sg25
I97
sg26
I5
sg27
I79
sa(dp1195
g21
VKING HEWITT
p1196
sg23
V214x4
p1197
sg25
I100
sg26
I6
sg27
I100
sa(dp1198
g21
VNERUDA
p1199
sg23
V15213
p1200
sg25
I77
sg26
I7
sg27
I0
sa(dp1201
g21
VPLAISIR
p1202
sg23
V370x4
p1203
sg25
I81
sg26
I8
sg27
I93
sa(dp1204
g21
VI AM AWESOME
p1205
sg23
V80x41
p1206
sg25
I91
sg26
I9
sg27
I81
sa(dp1207
g21
VHERMOSA REWARD
p1208
sg23
V12373
p1209
sg25
I80
sg26
I10
sg27
I0
sasg67
(lp1210
(lp1211
I5
aI6
aI8
aI2
aa(lp1212
I6
aI8
aI2
aI9
aa(lp1213
I2
aI5
aI8
aI6
aasssI1542525900
(dp1214
g2
Vhttp://www.skyracing.com.au/index.php?component=racing&task=race&id=107993306&meetingid=105710138&Itemid=89
p1215
sg4
V29013564.0725
p1216
sg6
(dp1217
g8
(lp1218
(lp1219
I4
aI5
aI2
aI6
aa(lp1220
I3
aI2
aI6
aI1
aa(lp1221
I4
aI2
aI1
aI5
aa(lp1222
I3
aI1
aI4
aI8
aa(lp1223
I5
aI4
aI9
aI6
aa(lp1224
I4
aI5
aI2
aI6
aa(lp1225
I4
aI5
aI6
aI2
aa(lp1226
I4
aI5
aI2
aI3
aasg18
(lp1227
(dp1228
g21
VPOTENT SECRET
p1229
sg23
V098x5
p1230
sg25
I81
sg26
I1
sg27
I81
sa(dp1231
g21
VBOMBS AWAY
p1232
sg23
V54446
p1233
sg25
I90
sg26
I2
sg27
I94
sa(dp1234
g21
VLONG KNIFE
p1235
sg23
V668x7
p1236
sg25
I80
sg26
I3
sg27
I69
sa(dp1237
g21
VTANGO ORA
p1238
sg23
V296x1
p1239
sg25
I100
sg26
I4
sg27
I100
sa(dp1240
g21
VARRUM BOY
p1241
sg23
V257x2
p1242
sg25
I97
sg26
I5
sg27
I98
sa(dp1243
g21
VOUR BUDDY BOY
p1244
sg23
V2825x
p1245
sg25
I85
sg26
I6
sg27
I85
sa(dp1246
g21
VCARALABEK
p1247
sg23
Vx889x
p1248
sg25
I73
sg26
I7
sg27
I80
sa(dp1249
g21
VROWIE
p1250
sg23
V866x8
p1251
sg25
I63
sg26
I8
sg27
I67
sa(dp1252
g21
VTWISTED MOUNTAIN
p1253
sg23
Vx6737
p1254
sg25
I72
sg26
I9
sg27
I74
sasg67
(lp1255
(lp1256
I4
aI5
aI9
aI6
aasssI1542519000
(dp1257
g2
Vhttp://www.skyracing.com.au/index.php?component=racing&task=race&id=107993262&meetingid=105710090&Itemid=89
p1258
sg4
V29013520.0530
p1259
sg6
(dp1260
g8
(lp1261
(lp1262
I7
aI9
aI5
aI4
aa(lp1263
I1
aI3
aI8
aI2
aa(lp1264
I2
aI4
aI3
aI11
aa(lp1265
I4
aI7
aI2
aI8
aa(lp1266
I7
aI4
aI5
aI2
aa(lp1267
I9
aI7
aI5
aI6
aa(lp1268
I7
aI9
aI4
aI5
aa(lp1269
I7
aI4
aI2
aI9
aasg18
(lp1270
(dp1271
g21
VMISTOFFELEES
p1272
sg23
V66x90
p1273
sg25
I73
sg26
I1
sg27
I74
sa(dp1274
g21
VJUSTIFY
p1275
sg23
V4x429
p1276
sg25
I81
sg26
I2
sg27
I82
sa(dp1277
g21
VPRIDE OF DESTINY
p1278
sg23
V46x74
p1279
sg25
I85
sg26
I3
sg27
I85
sa(dp1280
g21
VTREVELLO
p1281
sg23
V40x1
p1282
sg25
I94
sg26
I4
sg27
I92
sa(dp1283
g21
VBOOM BOY
p1284
sg23
V3136x
p1285
sg25
I92
sg26
I5
sg27
I93
sa(dp1286
g21
VTHE ADMINISTRATOR
p1287
sg23
V5331x
p1288
sg25
I87
sg26
I6
sg27
I89
sa(dp1289
g21
VVIRAL
p1290
sg23
V1x
p1291
sg25
I100
sg26
I7
sg27
I100
sa(dp1292
g21
VDUELLATOR
p1293
sg23
V18x00
p1294
sg25
I70
sg26
I8
sg27
I71
sa(dp1295
g21
VVALARIO
p1296
sg23
V1x
p1297
sg25
I98
sg26
I9
sg27
I98
sa(dp1298
g21
VUPPEMBAK
p1299
sg23
Vx7945
p1300
sg25
I77
sg26
I10
sg27
I76
sa(dp1301
g21
VFLIP DE GLOIRE
p1302
sg23
V75x54
p1303
sg25
I79
sg26
I11
sg27
I79
sasg67
(lp1304
(lp1305
I7
aI9
aI5
aI2
aa(lp1306
I7
aI9
aI5
aI3
aa(lp1307
I7
aI5
aI9
aI4
aasssI1542516300
(dp1308
g2
Vhttp://www.skyracing.com.au/index.php?component=racing&task=race&id=107993142&meetingid=105710026&Itemid=89
p1309
sg4
V29013581.0445
p1310
sg6
(dp1311
g8
(lp1312
(lp1313
I1
aI6
aI3
aI5
aa(lp1314
I5
aI8
aI11
aI2
aa(lp1315
I5
aI11
aI2
aI10
aa(lp1316
I5
aI8
aI11
aI2
aa(lp1317
I10
aI11
aI5
aI1
aa(lp1318
I1
aI6
aI3
aI5
aa(lp1319
I5
aI1
aI3
aI7
aa(lp1320
I5
aI11
aI1
aI8
aasg18
(lp1321
(dp1322
g21
VFOXIE LA BELLE
p1323
sg23
V13
p1324
sg25
I100
sg26
I1
sg27
I100
sa(dp1325
g21
VGRAND AWAKENING
p1326
sg23
Vx7510
p1327
sg25
I79
sg26
I2
sg27
I77
sa(dp1328
g21
VIMANACHEEVA
p1329
sg23
V0561x
p1330
sg25
I93
sg26
I3
sg27
I95
sa(dp1331
g21
VONE OF THE KIND
p1332
sg23
V86451
p1333
sg25
I87
sg26
I4
sg27
I89
sa(dp1334
g21
VDIAMOND CHARLIE
p1335
sg23
V00233
p1336
sg25
I97
sg26
I5
sg27
I90
sa(dp1337
g21
VALL TALK
p1338
sg23
Vx4145
p1339
sg25
I90
sg26
I6
sg27
I97
sa(dp1340
g21
VNUNYA BIZZ
p1341
sg23
V379x5
p1342
sg25
I86
sg26
I7
sg27
I80
sa(dp1343
g21
VADMIRE GRATZI
p1344
sg23
V2704x
p1345
sg25
I75
sg26
I8
sg27
I78
sa(dp1346
g21
VHOLLYWOOD ROSE
p1347
sg23
V07975
p1348
sg25
I74
sg26
I9
sg27
I73
sa(dp1349
g21
VCOOLAMINE
p1350
sg23
V5x413
p1351
sg25
I80
sg26
I10
sg27
I84
sa(dp1352
g21
VSMILING AT SHADOWS
p1353
sg23
V00x20
p1354
sg25
I72
sg26
I11
sg27
I69
sa(dp1355
g21
VDANCE HARDER SON
p1356
sg23
V57874
p1357
sg25
I68
sg26
I12
sg27
I71
sasg67
(lp1358
(lp1359
I1
aI4
aI6
aI8
aa(lp1360
I1
aI2
aI4
aI7
aasssI1542527700
(dp1361
g2
Vhttp://www.skyracing.com.au/index.php?component=racing&task=race&id=107993307&meetingid=105710138&Itemid=89
p1362
sg4
V29013564.0755
p1363
sg6
(dp1364
g8
(lp1365
(lp1366
I4
aI6
aI5
aI2
aa(lp1367
I3
aI10
aI5
aI2
aa(lp1368
I5
aI2
aI1
aI4
aa(lp1369
I5
aI6
aI3
aI9
aa(lp1370
I4
aI6
aI1
aI9
aa(lp1371
I4
aI6
aI2
aI5
aa(lp1372
I4
aI2
aI6
aI5
aa(lp1373
I5
aI4
aI6
aI2
aasg18
(lp1374
(dp1375
g21
VCLEO'S AFTERPARTY
p1376
sg23
V0x775
p1377
sg25
I84
sg26
I1
sg27
I79
sa(dp1378
g21
VLONG KNIFE BROTHER
p1379
sg23
V049x1
p1380
sg25
I97
sg26
I2
sg27
I89
sa(dp1381
g21
VMESSIAH
p1382
sg23
V957x0
p1383
sg25
I78
sg26
I3
sg27
I77
sa(dp1384
g21
VTIPS AND SCANDALS
p1385
sg23
Vx3301
p1386
sg25
I100
sg26
I4
sg27
I100
sa(dp1387
g21
VWILD FUSION
p1388
sg23
V758x4
p1389
sg25
I88
sg26
I5
sg27
I92
sa(dp1390
g21
VIONYX
p1391
sg23
V410x0
p1392
sg25
I92
sg26
I6
sg27
I98
sa(dp1393
g21
VLUCY IN DISGUISE
p1394
sg23
V050x6
p1395
sg25
I69
sg26
I7
sg27
I71
sa(dp1396
g21
VLACIE LOCKET
p1397
sg23
V7467x
p1398
sg25
I60
sg26
I8
sg27
I61
sa(dp1399
g21
VMYARENA
p1400
sg23
V080x4
p1401
sg25
I77
sg26
I9
sg27
I82
sa(dp1402
g21
VVINO BENETEAU
p1403
sg23
V69849
p1404
sg25
I64
sg26
I10
sg27
I68
sasg67
(lp1405
(lp1406
I4
aI1
aI2
aI5
aasssI1542526680
(dp1407
g2
Vhttp://www.skyracing.com.au/index.php?component=racing&task=race&id=107993337&meetingid=105710106&Itemid=89
p1408
sg4
V29013787.0738
p1409
sg6
(dp1410
g8
(lp1411
(lp1412
I4
aI2
aI1
aI5
aa(lp1413
I10
aI2
aI5
aI1
aa(lp1414
I5
aI3
aI4
aI11
aa(lp1415
I1
aI2
aI5
aI8
aa(lp1416
I10
aI5
aI2
aI3
aa(lp1417
I2
aI4
aI1
aI5
aa(lp1418
I4
aI5
aI2
aI10
aa(lp1419
I2
aI5
aI4
aI1
aasg18
(lp1420
(dp1421
g21
VCERUTTY
p1422
sg23
V3346x
p1423
sg25
I88
sg26
I1
sg27
I94
sa(dp1424
g21
VHEARTS HONOUR
p1425
sg23
V6450x
p1426
sg25
I95
sg26
I2
sg27
I95
sa(dp1427
g21
VDANOXIE
p1428
sg23
V72269
p1429
sg25
I86
sg26
I3
sg27
I88
sa(dp1430
g21
VHENRY LAD
p1431
sg23
V3x574
p1432
sg25
I100
sg26
I4
sg27
I100
sa(dp1433
g21
VOUR TICKETS
p1434
sg23
V67x92
p1435
sg25
I91
sg26
I5
sg27
I89
sa(dp1436
g21
VCOMBAT WARRIOR
p1437
sg23
V00690
p1438
sg25
I76
sg26
I6
sg27
I74
sa(dp1439
g21
VRIGHT HERE
p1440
sg23
V94852
p1441
sg25
I82
sg26
I7
sg27
I0
sa(dp1442
g21
VSAARLAY
p1443
sg23
V400x0
p1444
sg25
I79
sg26
I8
sg27
I78
sa(dp1445
g21
VHOWNOWBROWNCOW
p1446
sg23
V48667
p1447
sg25
I74
sg26
I9
sg27
I0
sa(dp1448
g21
VDELIGHTFUL SPIRIT
p1449
sg23
V68885
p1450
sg25
I99
sg26
I10
sg27
I85
sa(dp1451
g21
VDREAM PASSENGER
p1452
sg23
V66796
p1453
sg25
I70
sg26
I11
sg27
I72
sasg67
(lp1454
(lp1455
I5
aI3
aI2
aI4
aasssI1542517860
(dp1456
g2
Vhttp://www.skyracing.com.au/index.php?component=racing&task=race&id=107993203&meetingid=105710042&Itemid=89
p1457
sg4
V29013559.0511
p1458
sg6
(dp1459
g8
(lp1460
(lp1461
I5
aI2
aI7
aI8
aa(lp1462
I12
aI5
aI7
aI2
aa(lp1463
I5
aI7
aI12
aI10
aa(lp1464
I5
aI7
aI2
aI12
aa(lp1465
I5
aI7
aI2
aI12
aa(lp1466
I5
aI7
aI2
aI8
aa(lp1467
I5
aI2
aI7
aI8
aa(lp1468
I5
aI7
aI2
aI12
aasg18
(lp1469
(dp1470
g21
VJAZZLAND
p1471
sg23
V7x2
p1472
sg25
I84
sg26
I1
sg27
I0
sa(dp1473
g21
VBORAZON
p1474
sg23
V3x34x
p1475
sg25
I97
sg26
I2
sg27
I94
sa(dp1476
g21
VCONCAVE
p1477
sg23
V0
p1478
sg25
I78
sg26
I3
sg27
I0
sa(dp1479
g21
VOCEAN DASH
p1480
sg23
V66
p1481
sg25
I90
sg26
I4
sg27
I0
sa(dp1482
g21
VPROVEN CLASS
p1483
sg23
V42
p1484
sg25
I100
sg26
I5
sg27
I100
sa(dp1485
g21
VSHEN GUI
p1486
sg23
V524
p1487
sg25
I95
sg26
I6
sg27
I0
sa(dp1488
g21
VTRUST THE FOX
p1489
sg23
Vx6552
p1490
sg25
I87
sg26
I7
sg27
I92
sa(dp1491
g21
VGEISSLER
p1492
sg23
V7x7
p1493
sg25
I81
sg26
I8
sg27
I79
sa(dp1494
g21
VFINUCANE MISSILE
p1495
sg23
V5x7x7
p1496
sg25
I76
sg26
I9
sg27
I0
sa(dp1497
g21
VJUST LIKE JESSIE
p1498
sg23
V9x68
p1499
sg25
I71
sg26
I10
sg27
I72
sa(dp1500
g21
VOPINIONS
p1501
sg23
V767
p1502
sg25
I74
sg26
I11
sg27
I74
sa(dp1503
g21
VROTOITI
p1504
sg23
V07790
p1505
sg25
I70
sg26
I12
sg27
I71
sasg67
(lp1506
(lp1507
I2
aI5
aI7
aI8
aa(lp1508
I5
aI2
aI7
aI11
aa(lp1509
I5
aI2
aI7
aI8
aasssI1542521820
(dp1510
g2
Vhttp://www.skyracing.com.au/index.php?component=racing&task=race&id=107993304&meetingid=105710138&Itemid=89
p1511
sg4
V29013564.0617
p1512
sg6
(dp1513
g8
(lp1514
(lp1515
I1
aI7
aI2
aI4
aa(lp1516
I1
aI4
aI2
aI7
aa(lp1517
I1
aI4
aI7
aI5
aa(lp1518
I4
aI1
aI2
aI7
aa(lp1519
I7
aI2
aI1
aI4
aa(lp1520
I7
aI1
aI2
aI4
aa(lp1521
I7
aI1
aI2
aI4
aa(lp1522
I1
aI7
aI4
aI2
aasg18
(lp1523
(dp1524
g21
VROUND THE POINT
p1525
sg23
V547x3
p1526
sg25
I99
sg26
I1
sg27
I100
sa(dp1527
g21
VCALBANESCO
p1528
sg23
V0x97x
p1529
sg25
I88
sg26
I2
sg27
I90
sa(dp1530
g21
VAQUARIAN GIRL
p1531
sg23
V06x1x
p1532
sg25
I78
sg26
I3
sg27
I80
sa(dp1533
g21
VBROWSING
p1534
sg23
V8x9x1
p1535
sg25
I82
sg26
I4
sg27
I82
sa(dp1536
g21
VKHUN WESLEY
p1537
sg23
Vx68x6
p1538
sg25
I72
sg26
I5
sg27
I70
sa(dp1539
g21
VSCANDALILY
p1540
sg23
V510x
p1541
sg25
I90
sg26
I6
sg27
I0
sa(dp1542
g21
VTRIGGERFISH
p1543
sg23
V90x1
p1544
sg25
I100
sg26
I7
sg27
I95
sa(dp1545
g21
VROYAL ARCHIE
p1546
sg23
V8x479
p1547
sg25
I76
sg26
I8
sg27
I74
sasg67
(lp1548
(lp1549
I4
aI1
aI2
aI7
aasssI1542520800
(dp1550
g2
Vhttp://www.skyracing.com.au/index.php?component=racing&task=race&id=107993144&meetingid=105710026&Itemid=89
p1551
sg4
V29013581.0600
p1552
sg6
(dp1553
g8
(lp1554
(lp1555
I1
aI6
aI10
aI13
aa(lp1556
I1
aI4
aI13
aI2
aa(lp1557
I4
aI13
aI6
aI14
aa(lp1558
I1
aI2
aI13
aI10
aa(lp1559
I13
aI1
aI10
aI14
aa(lp1560
I10
aI1
aI6
aI13
aa(lp1561
I10
aI1
aI6
aI13
aa(lp1562
I1
aI13
aI10
aI4
aasg18
(lp1563
(dp1564
g21
VBRIX
p1565
sg23
V3x36x
p1566
sg25
I97
sg26
I1
sg27
I100
sa(dp1567
g21
VACCOUNTANT
p1568
sg23
V376x
p1569
sg25
I83
sg26
I2
sg27
I80
sa(dp1570
g21
VBONITAS
p1571
sg23
V5
p1572
sg25
I73
sg26
I3
sg27
I77
sa(dp1573
g21
VCHOUXTORIAL
p1574
sg23
V56x42
p1575
sg25
I89
sg26
I4
sg27
I86
sa(dp1576
g21
VGOODRADIGBEE
p1577
sg23
g260
sg25
I76
sg26
I5
sg27
I0
sa(dp1578
g21
VTRUMP ME
p1579
sg23
V5
p1580
sg25
I93
sg26
I6
sg27
I99
sa(dp1581
g21
VSWIDINI
p1582
sg23
V4
p1583
sg25
I68
sg26
I7
sg27
I71
sa(dp1584
g21
VDYNAMIC MOSS
p1585
sg23
g260
sg25
I63
sg26
I8
sg27
I0
sa(dp1586
g21
VKYUSHU
p1587
sg23
g260
sg25
I79
sg26
I9
sg27
I0
sa(dp1588
g21
VSTRATUM'S ROSE
p1589
sg23
V523x4
p1590
sg25
I100
sg26
I10
sg27
I91
sa(dp1591
g21
VWITHORN
p1592
sg23
V554x4
p1593
sg25
I86
sg26
I11
sg27
I0
sa(dp1594
g21
VCAPITAL RUSH
p1595
sg23
V79x75
p1596
sg25
I64
sg26
I12
sg27
I69
sa(dp1597
g21
VLUGA LAD
p1598
sg23
V26x63
p1599
sg25
I91
sg26
I13
sg27
I90
sa(dp1600
g21
VTUNNEL RAT
p1601
sg23
V8x437
p1602
sg25
I70
sg26
I14
sg27
I73
sa(dp1603
g21
VJELLAMBI
p1604
sg23
V08550
p1605
sg25
I60
sg26
I15
sg27
I66
sasg67
(lp1606
(lp1607
I6
aI7
aI1
aI4
aa(lp1608
I10
aI1
aI6
aI2
aasssI1542512100
(dp1609
g2
Vhttp://www.skyracing.com.au/index.php?component=racing&task=race&id=107993155&meetingid=105710122&Itemid=89
p1610
sg4
V29013628.0335
p1611
sg6
(dp1612
g8
(lp1613
(lp1614
I11
aI1
aI4
aI2
aa(lp1615
I4
aI7
aI1
aI3
aa(lp1616
I4
aI1
aI3
aI11
aa(lp1617
I4
aI3
aI1
aI8
aa(lp1618
I7
aI11
aI4
aI3
aa(lp1619
I11
aI1
aI4
aI9
aa(lp1620
I11
aI1
aI9
aI4
aa(lp1621
I4
aI1
aI11
aI3
aasg18
(lp1622
(dp1623
g21
VGOURMELIN
p1624
sg23
Vx0236
p1625
sg25
I98
sg26
I1
sg27
I98
sa(dp1626
g21
VHEROES QUEST
p1627
sg23
V936x
p1628
sg25
I85
sg26
I2
sg27
I91
sa(dp1629
g21
VHURRY HOME HARRY
p1630
sg23
V477x4
p1631
sg25
I80
sg26
I3
sg27
I86
sa(dp1632
g21
VKYD ROCK
p1633
sg23
V54260
p1634
sg25
I91
sg26
I4
sg27
I95
sa(dp1635
g21
VTAILGUNNER
p1636
sg23
V6549x
p1637
sg25
I71
sg26
I5
sg27
I68
sa(dp1638
g21
VTOFF HEART
p1639
sg23
V0x
p1640
sg25
I69
sg26
I6
sg27
I72
sa(dp1641
g21
VTOMAHAWK LAD
p1642
sg23
Vx7480
p1643
sg25
I89
sg26
I7
sg27
I79
sa(dp1644
g21
VAIR MAIL
p1645
sg23
Vx8644
p1646
sg25
I73
sg26
I8
sg27
I75
sa(dp1647
g21
VLOMACHENKO
p1648
sg23
V6x68
p1649
sg25
I94
sg26
I9
sg27
I87
sa(dp1650
g21
VPURELY ON SPEC
p1651
sg23
V5
p1652
sg25
I79
sg26
I10
sg27
I81
sa(dp1653
g21
VSIZZLING AFFAIR
p1654
sg23
V3x327
p1655
sg25
I100
sg26
I11
sg27
I100
sa(dp1656
g21
VTAKE IT UP A GIA
p1657
sg23
V6
p1658
sg25
I77
sg26
I12
sg27
I73
sasg67
(lp1659
(lp1660
I11
aI3
aI12
aI7
aa(lp1661
I11
aI12
aI3
aI2
aasssI1542518100
(dp1662
g2
Vhttp://www.skyracing.com.au/index.php?component=racing&task=race&id=107993218&meetingid=105710074&Itemid=89
p1663
sg4
V29013769.0515
p1664
sg6
(dp1665
g8
(lp1666
(lp1667
I1
aI4
aI9
aI7
aa(lp1668
I2
aI4
aI1
aI3
aa(lp1669
I1
aI5
aI8
aI4
aa(lp1670
I1
aI2
aI5
aI4
aa(lp1671
I5
aI1
aI7
aI4
aa(lp1672
I1
aI4
aI9
aI7
aa(lp1673
I1
aI9
aI4
aI3
aa(lp1674
I1
aI4
aI5
aI2
aasg18
(lp1675
(dp1676
g21
VCAPE SOUNION
p1677
sg23
V5x167
p1678
sg25
I100
sg26
I1
sg27
I100
sa(dp1679
g21
VCOLUMN
p1680
sg23
V68x68
p1681
sg25
I70
sg26
I2
sg27
I65
sa(dp1682
g21
VBRINGIT
p1683
sg23
V487x4
p1684
sg25
I85
sg26
I3
sg27
I83
sa(dp1685
g21
VBONVILLE
p1686
sg23
V21633
p1687
sg25
I92
sg26
I4
sg27
I96
sa(dp1688
g21
VTAHNEE TIARA
p1689
sg23
V1x329
p1690
sg25
I77
sg26
I5
sg27
I75
sa(dp1691
g21
VMENEGATTI
p1692
sg23
V31x05
p1693
sg25
I79
sg26
I6
sg27
I0
sa(dp1694
g21
VBLUE BEAR
p1695
sg23
V5344x
p1696
sg25
I83
sg26
I7
sg27
I87
sa(dp1697
g21
VSO BELAFONTE
p1698
sg23
V0x045
p1699
sg25
I64
sg26
I8
sg27
I72
sa(dp1700
g21
VROYAL BOWER
p1701
sg23
V6x201
p1702
sg25
I99
sg26
I9
sg27
I93
sasg67
(lp1703
(lp1704
I1
aI5
aI4
aI3
aa(lp1705
I1
aI3
aI5
aI9
aasssI1542522600
(dp1706
g2
Vhttp://www.skyracing.com.au/index.php?component=racing&task=race&id=107993205&meetingid=105710042&Itemid=89
p1707
sg4
V29013559.0630
p1708
sg6
(dp1709
g8
(lp1710
(lp1711
I6
aI9
aI8
aI5
aa(lp1712
I5
aI3
aI1
aI2
aa(lp1713
I3
aI5
aI9
aI10
aa(lp1714
I6
aI3
aI2
aI5
aa(lp1715
I9
aI5
aI10
aI2
aa(lp1716
I9
aI6
aI5
aI8
aa(lp1717
I9
aI6
aI5
aI3
aa(lp1718
I5
aI9
aI6
aI3
aasg18
(lp1719
(dp1720
g21
VFRATELLINO
p1721
sg23
V007x8
p1722
sg25
I69
sg26
I1
sg27
I68
sa(dp1723
g21
VFUCHU
p1724
sg23
Vx200x
p1725
sg25
I76
sg26
I2
sg27
I71
sa(dp1726
g21
VGADFLY
p1727
sg23
V55456
p1728
sg25
I72
sg26
I3
sg27
I70
sa(dp1729
g21
VSINGLE STORY
p1730
sg23
V12x
p1731
sg25
I99
sg26
I4
sg27
I0
sa(dp1732
g21
VRADICAL IMPACT
p1733
sg23
V48322
p1734
sg25
I90
sg26
I5
sg27
I84
sa(dp1735
g21
VRHEINGAU
p1736
sg23
V82x91
p1737
sg25
I93
sg26
I6
sg27
I100
sa(dp1738
g21
VOXFORD ANGEL
p1739
sg23
V18x35
p1740
sg25
I84
sg26
I7
sg27
I0
sa(dp1741
g21
VSAINT ANTONIO LAD
p1742
sg23
V356x6
p1743
sg25
I80
sg26
I8
sg27
I87
sa(dp1744
g21
VBID'N'BARE
p1745
sg23
V211
p1746
sg25
I100
sg26
I9
sg27
I97
sa(dp1747
g21
VBRYAN'S BABE
p1748
sg23
V33153
p1749
sg25
I78
sg26
I10
sg27
I81
sa(dp1750
g21
VONDO PASA
p1751
sg23
V05655
p1752
sg25
I73
sg26
I11
sg27
I74
sa(dp1753
g21
VPROFILER
p1754
sg23
V46668
p1755
sg25
I65
sg26
I12
sg27
I0
sa(dp1756
g21
VZAVANCE
p1757
sg23
V81
p1758
sg25
I87
sg26
I13
sg27
I0
sa(dp1759
g21
VSITHALI
p1760
sg23
V79626
p1761
sg25
I62
sg26
I14
sg27
I60
sasg67
(lp1762
(lp1763
I8
aI10
aI6
aI1
aa(lp1764
I9
aI8
aI6
aI5
aa(lp1765
I6
aI5
aI2
aI9
aasssI1542522300
(dp1766
g2
Vhttp://www.skyracing.com.au/index.php?component=racing&task=race&id=107993220&meetingid=105710074&Itemid=89
p1767
sg4
V29013769.0625
p1768
sg6
(dp1769
g8
(lp1770
(lp1771
I7
aI2
aI8
aI1
aa(lp1772
I1
aI7
aI2
aI5
aa(lp1773
I1
aI7
aI2
aI4
aa(lp1774
I7
aI1
aI2
aI5
aa(lp1775
I7
aI5
aI1
aI8
aa(lp1776
I7
aI2
aI8
aI1
aa(lp1777
I7
aI2
aI8
aI1
aa(lp1778
I7
aI1
aI2
aI8
aasg18
(lp1779
(dp1780
g21
VBLUE JANGLES
p1781
sg23
V93218
p1782
sg25
I83
sg26
I1
sg27
I86
sa(dp1783
g21
VSET THE BAR HIGH
p1784
sg23
V31363
p1785
sg25
I97
sg26
I2
sg27
I96
sa(dp1786
g21
VI AM WANTED
p1787
sg23
V81x58
p1788
sg25
I73
sg26
I3
sg27
I75
sa(dp1789
g21
VSICKENING
p1790
sg23
Vx3656
p1791
sg25
I80
sg26
I4
sg27
I84
sa(dp1792
g21
VAURORA MISS
p1793
sg23
V80x43
p1794
sg25
I69
sg26
I5
sg27
I63
sa(dp1795
g21
VKUGELBLITZ
p1796
sg23
Vx0x84
p1797
sg25
I87
sg26
I6
sg27
I0
sa(dp1798
g21
VOPEN THE HATCH
p1799
sg23
V31323
p1800
sg25
I100
sg26
I7
sg27
I100
sa(dp1801
g21
VHI SUPPOSE
p1802
sg23
V34222
p1803
sg25
I90
sg26
I8
sg27
I90
sa(dp1804
g21
VIMPERIOUS
p1805
sg23
V49407
p1806
sg25
I62
sg26
I9
sg27
I62
sa(dp1807
g21
VSEULAMONT
p1808
sg23
V07864
p1809
sg25
I65
sg26
I10
sg27
I72
sasg67
(lp1810
(lp1811
I7
aI2
aI8
aI4
aa(lp1812
I7
aI2
aI4
aI8
aasssI1542513900
(dp1813
g2
Vhttp://www.skyracing.com.au/index.php?component=racing&task=race&id=107993141&meetingid=105710026&Itemid=89
p1814
sg4
V29013581.0405
p1815
sg6
(dp1816
g8
(lp1817
(lp1818
I1
aI3
aI7
aI9
aa(lp1819
I4
aI3
aI1
aI13
aa(lp1820
I1
aI13
aI3
aI9
aa(lp1821
I1
aI4
aI13
aI3
aa(lp1822
I3
aI9
aI1
aI6
aa(lp1823
I1
aI7
aI3
aI11
aa(lp1824
I1
aI9
aI7
aI6
aa(lp1825
I1
aI3
aI4
aI13
aasg18
(lp1826
(dp1827
g21
VOLIFANTS
p1828
sg23
Vx1315
p1829
sg25
I97
sg26
I1
sg27
I100
sa(dp1830
g21
VCACCINI
p1831
sg23
V12162
p1832
sg25
I95
sg26
I2
sg27
I0
sa(dp1833
g21
VWALDO WALDORF
p1834
sg23
V25662
p1835
sg25
I82
sg26
I3
sg27
I90
sa(dp1836
g21
VDENMAN FLYER
p1837
sg23
V367x7
p1838
sg25
I67
sg26
I4
sg27
I66
sa(dp1839
g21
VLADY TYCOON
p1840
sg23
V31
p1841
sg25
I100
sg26
I5
sg27
I0
sa(dp1842
g21
VTHIRTY KNOTS
p1843
sg23
V5960x
p1844
sg25
I79
sg26
I6
sg27
I79
sa(dp1845
g21
VJELLIES
p1846
sg23
V01x
p1847
sg25
I91
sg26
I7
sg27
I88
sa(dp1848
g21
VSWEET TEMPTATIONS
p1849
sg23
V16x
p1850
sg25
I89
sg26
I8
sg27
I0
sa(dp1851
g21
VPATRIKA BELLE
p1852
sg23
V00x53
p1853
sg25
I86
sg26
I9
sg27
I84
sa(dp1854
g21
VSERGEANT SAM
p1855
sg23
V7094x
p1856
sg25
I69
sg26
I10
sg27
I0
sa(dp1857
g21
VBRAND WORKS
p1858
sg23
V0x066
p1859
sg25
I76
sg26
I11
sg27
I76
sa(dp1860
g21
VFIRE AND FLOOD
p1861
sg23
V97087
p1862
sg25
I74
sg26
I12
sg27
I74
sa(dp1863
g21
VYOUNG JACKSON
p1864
sg23
V00533
p1865
sg25
I70
sg26
I13
sg27
I71
sasg67
(lp1866
(lp1867
I9
aI3
aI1
aI4
aa(lp1868
I3
aI1
aI9
aI6
aasssI1542514800
(dp1869
g2
Vhttp://www.skyracing.com.au/index.php?component=racing&task=race&id=107993171&meetingid=105710058&Itemid=89
p1870
sg4
V29013577.0420
p1871
sg6
(dp1872
g8
(lp1873
(lp1874
I2
aI7
aI3
aI1
aa(lp1875
I1
aI2
aI3
aI7
aa(lp1876
I1
aI2
aI3
aI6
aa(lp1877
I2
aI1
aI6
aI8
aa(lp1878
I7
aI1
aI2
aI6
aa(lp1879
I2
aI7
aI3
aI1
aa(lp1880
I2
aI7
aI3
aI1
aa(lp1881
I2
aI1
aI7
aI3
aasg18
(lp1882
(dp1883
g21
VFAST PLAN
p1884
sg23
V120x4
p1885
sg25
I80
sg26
I1
sg27
I78
sa(dp1886
g21
VPARSIFAL
p1887
sg23
V5x543
p1888
sg25
I100
sg26
I2
sg27
I100
sa(dp1889
g21
VALL THAT SHE WANTS
p1890
sg23
V1x19
p1891
sg25
I95
sg26
I3
sg27
I91
sa(dp1892
g21
VTHE REGIMENT
p1893
sg23
V33234
p1894
sg25
I81
sg26
I4
sg27
I0
sa(dp1895
g21
VRUBY SEA
p1896
sg23
V4200x
p1897
sg25
I85
sg26
I5
sg27
I0
sa(dp1898
g21
VEL QUESTRO
p1899
sg23
V73263
p1900
sg25
I77
sg26
I6
sg27
I72
sa(dp1901
g21
VSPICER
p1902
sg23
V44271
p1903
sg25
I93
sg26
I7
sg27
I99
sa(dp1904
g21
VZUERS
p1905
sg23
V218x4
p1906
sg25
I71
sg26
I8
sg27
I77
sasg67
(lp1907
(lp1908
I1
aI2
aI6
aI8
aasssI1542513300
(dp1909
g2
Vhttp://www.skyracing.com.au/index.php?component=racing&task=race&id=107993201&meetingid=105710042&Itemid=89
p1910
sg4
V29013559.0355
p1911
sg6
(dp1912
g8
(lp1913
(lp1914
I10
aI7
aI6
aI1
aa(lp1915
I2
aI7
aI1
aI6
aa(lp1916
I7
aI1
aI6
aI10
aa(lp1917
I2
aI7
aI1
aI10
aa(lp1918
I7
aI6
aI10
aI2
aa(lp1919
I10
aI6
aI7
aI1
aa(lp1920
I7
aI10
aI6
aI1
aa(lp1921
I7
aI10
aI6
aI1
aasg18
(lp1922
(dp1923
g21
VFABRICATOR
p1924
sg23
V532x4
p1925
sg25
I86
sg26
I1
sg27
I87
sa(dp1926
g21
VSTONE
p1927
sg23
V645x0
p1928
sg25
I73
sg26
I2
sg27
I75
sa(dp1929
g21
VAPPLICANT
p1930
sg23
V470x7
p1931
sg25
I70
sg26
I3
sg27
I71
sa(dp1932
g21
VBLACK SUNRISE
p1933
sg23
V436
p1934
sg25
I88
sg26
I4
sg27
I0
sa(dp1935
g21
VWALKINSHAW
p1936
sg23
V6
p1937
sg25
I80
sg26
I5
sg27
I0
sa(dp1938
g21
VCITY OF LOVE
p1939
sg23
V233x3
p1940
sg25
I94
sg26
I6
sg27
I95
sa(dp1941
g21
VEVERLASTING LOVE
p1942
sg23
V23x23
p1943
sg25
I100
sg26
I7
sg27
I98
sa(dp1944
g21
VKAFFKA
p1945
sg23
Vx5207
p1946
sg25
I79
sg26
I8
sg27
I0
sa(dp1947
g21
VLADY MOSSMAN
p1948
sg23
V00575
p1949
sg25
I75
sg26
I9
sg27
I74
sa(dp1950
g21
VLOVED ONE
p1951
sg23
V5x24
p1952
sg25
I97
sg26
I10
sg27
I100
sa(dp1953
g21
VSOUTHERN ROMANCE
p1954
sg23
V82
p1955
sg25
I90
sg26
I11
sg27
I0
sasg67
(lp1956
(lp1957
I10
aI7
aI1
aI6
aa(lp1958
I6
aI7
aI1
aI10
aa(lp1959
I6
aI7
aI10
aI1
aasssI1542519540
(dp1960
g2
Vhttp://www.skyracing.com.au/index.php?component=racing&task=race&id=107993303&meetingid=105710138&Itemid=89
p1961
sg4
V29013564.0539
p1962
sg6
(dp1963
g8
(lp1964
(lp1965
I9
aI7
aI10
aI2
aa(lp1966
I1
aI7
aI6
aI3
aa(lp1967
I7
aI2
aI9
aI10
aa(lp1968
I3
aI4
aI1
aI7
aa(lp1969
I7
aI2
aI3
aI1
aa(lp1970
I2
aI9
aI7
aI10
aa(lp1971
I9
aI7
aI10
aI2
aa(lp1972
I7
aI2
aI9
aI1
aasg18
(lp1973
(dp1974
g21
VPUSKAS
p1975
sg23
V9989x
p1976
sg25
I84
sg26
I1
sg27
I78
sa(dp1977
g21
VMOTORCAR MOTORCAR
p1978
sg23
V052x5
p1979
sg25
I91
sg26
I2
sg27
I83
sa(dp1980
g21
VSELF ASSURED
p1981
sg23
V300x0
p1982
sg25
I81
sg26
I3
sg27
I76
sa(dp1983
g21
VBIG SUMMER
p1984
sg23
V6x5x0
p1985
sg25
I77
sg26
I4
sg27
I69
sa(dp1986
g21
VOATHKEEPER
p1987
sg23
V0x7
p1988
sg25
I74
sg26
I5
sg27
I66
sa(dp1989
g21
VTURPIN'S DAUGHTER
p1990
sg23
V537x5
p1991
sg25
I89
sg26
I6
sg27
I80
sa(dp1992
g21
VHIGHFRIAR
p1993
sg23
V890x3
p1994
sg25
I98
sg26
I7
sg27
I96
sa(dp1995
g21
VHIGHWAY GLORY
p1996
sg23
V9x084
p1997
sg25
I79
sg26
I8
sg27
I71
sa(dp1998
g21
VAMBER HIGHWAY
p1999
sg23
V6
p2000
sg25
I100
sg26
I9
sg27
I100
sa(dp2001
g21
VTURN OF PHRASE
p2002
sg23
V9
p2003
sg25
I94
sg26
I10
sg27
I93
sa(dp2004
g21
VSALEROSA
p2005
sg23
V8x09x
p2006
sg25
I71
sg26
I11
sg27
I64
sasg67
(lp2007
(lp2008
I7
aI9
aI2
aI6
aasssI1542516600
(dp2009
g2
Vhttp://www.skyracing.com.au/index.php?component=racing&task=race&id=107993172&meetingid=105710058&Itemid=89
p2010
sg4
V29013577.0450
p2011
sg6
(dp2012
g8
(lp2013
(lp2014
I3
aI4
aI1
aI5
aa(lp2015
I2
aI5
aI7
aI3
aa(lp2016
I2
aI7
aI3
aI5
aa(lp2017
I1
aI3
aI2
aI4
aa(lp2018
I7
aI5
aI2
aI4
aa(lp2019
I4
aI3
aI5
aI1
aa(lp2020
I3
aI4
aI1
aI7
aa(lp2021
I3
aI2
aI5
aI4
aasg18
(lp2022
(dp2023
g21
VO'CEIRINS SECRET
p2024
sg23
V1x090
p2025
sg25
I95
sg26
I1
sg27
I93
sa(dp2026
g21
VRESET ME I'M WILD
p2027
sg23
Vx0065
p2028
sg25
I90
sg26
I2
sg27
I86
sa(dp2029
g21
VDEWRINKLER
p2030
sg23
Vx6534
p2031
sg25
I100
sg26
I3
sg27
I100
sa(dp2032
g21
VBARGE AND CHARGE
p2033
sg23
V49322
p2034
sg25
I96
sg26
I4
sg27
I97
sa(dp2035
g21
VCRAFTY CRUISER
p2036
sg23
V79543
p2037
sg25
I87
sg26
I5
sg27
I90
sa(dp2038
g21
VGRASSINI
p2039
sg23
V05365
p2040
sg25
I80
sg26
I6
sg27
I0
sa(dp2041
g21
VSUDDEN MOMENT
p2042
sg23
V18261
p2043
sg25
I84
sg26
I7
sg27
I83
sa(dp2044
g21
VJINGLES
p2045
sg23
V0x578
p2046
sg25
I78
sg26
I8
sg27
I0
sa(dp2047
g21
VVENTURA HIGHWAY
p2048
sg23
V00708
p2049
sg25
I75
sg26
I9
sg27
I74
sa(dp2050
g21
VKNUCKLEMANNA
p2051
sg23
V09980
p2052
sg25
I73
sg26
I10
sg27
I72
sa(dp2053
g21
VENTIRELY PERFECT
p2054
sg23
V40680
p2055
sg25
I71
sg26
I11
sg27
I0
sasg67
(lp2056
(lp2057
I4
aI2
aI5
aI3
aasssI1542522900
(dp2058
g2
Vhttp://www.skyracing.com.au/index.php?component=racing&task=race&id=107993335&meetingid=105710106&Itemid=89
p2059
sg4
V29013787.0635
p2060
sg6
(dp2061
g8
(lp2062
(lp2063
I4
aI2
aI1
aI3
aa(lp2064
I1
aI4
aI2
aI6
aa(lp2065
I2
aI4
aI5
aI3
aa(lp2066
I1
aI2
aI4
aI5
aa(lp2067
I4
aI2
aI6
aI8
aa(lp2068
I3
aI1
aI4
aI2
aa(lp2069
I4
aI1
aI2
aI3
aa(lp2070
I4
aI2
aI1
aI3
aasg18
(lp2071
(dp2072
g21
VNIC NAC
p2073
sg23
V6769x
p2074
sg25
I95
sg26
I1
sg27
I92
sa(dp2075
g21
VMAGNUS BAY
p2076
sg23
V4x346
p2077
sg25
I91
sg26
I2
sg27
I95
sa(dp2078
g21
VBLAZING BULLET
p2079
sg23
V19424
p2080
sg25
I89
sg26
I3
sg27
I88
sa(dp2081
g21
VSHINING MANE
p2082
sg23
V59142
p2083
sg25
I100
sg26
I4
sg27
I100
sa(dp2084
g21
VSHAMPERS
p2085
sg23
V91130
p2086
sg25
I83
sg26
I5
sg27
I83
sa(dp2087
g21
VPRINCESS LEAH
p2088
sg23
V355x3
p2089
sg25
I75
sg26
I6
sg27
I78
sa(dp2090
g21
VCAT'S ALLEY
p2091
sg23
V04x88
p2092
sg25
I71
sg26
I7
sg27
I70
sa(dp2093
g21
VMITIGATE
p2094
sg23
V38862
p2095
sg25
I78
sg26
I8
sg27
I73
sasg67
(lp2096
(lp2097
I6
aI1
aI3
aI5
aasssI1542524100
(dp2098
g2
Vhttp://www.skyracing.com.au/index.php?component=racing&task=race&id=107993305&meetingid=105710138&Itemid=89
p2099
sg4
V29013564.0655
p2100
sg6
(dp2101
g8
(lp2102
(lp2103
I1
aI7
aI12
aI6
aa(lp2104
I1
aI2
aI6
aI11
aa(lp2105
I1
aI5
aI6
aI12
aa(lp2106
I7
aI12
aI2
aI11
aa(lp2107
I1
aI11
aI12
aI2
aa(lp2108
I1
aI7
aI6
aI12
aa(lp2109
I1
aI7
aI12
aI6
aa(lp2110
I1
aI7
aI12
aI6
aasg18
(lp2111
(dp2112
g21
VGUNFLINT
p2113
sg23
V5x23
p2114
sg25
I100
sg26
I1
sg27
I100
sa(dp2115
g21
VTHE VAMPIRE
p2116
sg23
Vx330x
p2117
sg25
I87
sg26
I2
sg27
I88
sa(dp2118
g21
VSONG MASTER
p2119
sg23
V08
p2120
sg25
I79
sg26
I3
sg27
I78
sa(dp2121
g21
VMESKHENET
p2122
sg23
V7477x
p2123
sg25
I69
sg26
I4
sg27
I72
sa(dp2124
g21
VIBIZA
p2125
sg23
V652x4
p2126
sg25
I77
sg26
I5
sg27
I77
sa(dp2127
g21
VCLASSIC JACK
p2128
sg23
V554x5
p2129
sg25
I91
sg26
I6
sg27
I91
sa(dp2130
g21
VTEXAN BLITZ
p2131
sg23
Vx87x6
p2132
sg25
I96
sg26
I7
sg27
I99
sa(dp2133
g21
VDANCING JACK
p2134
sg23
V8x
p2135
sg25
I84
sg26
I8
sg27
I85
sa(dp2136
g21
VRAGING ROCKET
p2137
sg23
V7
p2138
sg25
I73
sg26
I9
sg27
I74
sa(dp2139
g21
VBLUE BY YOU
p2140
sg23
g260
sg25
I72
sg26
I10
sg27
I0
sa(dp2141
g21
VORASKY
p2142
sg23
V248x7
p2143
sg25
I83
sg26
I11
sg27
I82
sa(dp2144
g21
VMYGIRLFRANKIE
p2145
sg23
V7x3
p2146
sg25
I95
sg26
I12
sg27
I94
sa(dp2147
g21
VVICIOUS VILMA
p2148
sg23
V67x8
p2149
sg25
I66
sg26
I13
sg27
I71
sasg67
(lp2150
(lp2151
I1
aI7
aI12
aI6
aasss.