(dp0
I1544708100
(dp1
S'skyracing_url'
p2
Vhttp://www.skyracing.com.au/index.php?component=racing&task=race&id=108883039&meetingid=108215137&Itemid=89
p3
sS'betfair_raceid'
p4
V29046609.1335
p5
sS'dat2'
p6
(dp7
S'ratings_auto'
p8
(lp9
(lp10
I1
aI2
aI8
aI14
aa(lp11
I5
aI2
aI12
aI3
aa(lp12
I3
aI2
aI14
aI5
aa(lp13
I12
aI3
aI2
aI7
aa(lp14
I2
aI5
aI3
aI8
aa(lp15
I1
aI2
aI14
aI8
aa(lp16
I1
aI2
aI8
aI7
aa(lp17
I2
aI3
aI1
aI5
aasS'horse_details'
p18
(lp19
(dp20
S'horse_name'
p21
VMEAD VALE
p22
sS'horse_form'
p23
V3x251
p24
sS'rating_2'
p25
I100
sS'horse_number'
p26
I1
sS'rating_1'
p27
I100
sa(dp28
g21
VGWALIA
p29
sg23
Vx2x34
p30
sg25
I97
sg26
I2
sg27
I98
sa(dp31
g21
VATAGUISEAMIX
p32
sg23
Vx8x35
p33
sg25
I70
sg26
I3
sg27
I75
sa(dp34
g21
VRUARAIDH HUGH
p35
sg23
V10520
p36
sg25
I88
sg26
I4
sg27
I65
sa(dp37
g21
VCOTTON CLUB
p38
sg23
V54649
p39
sg25
I82
sg26
I5
sg27
I88
sa(dp40
g21
VKNIGHT COMMANDER
p41
sg23
V58727
p42
sg25
I79
sg26
I6
sg27
I83
sa(dp43
g21
VPOKARI
p44
sg23
Vx6x2x
p45
sg25
I94
sg26
I7
sg27
I90
sa(dp46
g21
VPASSING DREAM
p47
sg23
V00x42
p48
sg25
I96
sg26
I8
sg27
I96
sa(dp49
g21
VHAZAMAR
p50
sg23
V07x06
p51
sg25
I76
sg26
I9
sg27
I80
sa(dp52
g21
VDELFACE
p53
sg23
V7366x
p54
sg25
I85
sg26
I10
sg27
I87
sa(dp55
g21
VCOOL MACAVITY
p56
sg23
V70060
p57
sg25
I86
sg26
I11
sg27
I79
sa(dp58
g21
VVANDERBILT
p59
sg23
V73378
p60
sg25
I64
sg26
I12
sg27
I66
sa(dp61
g21
VMARAAKIB
p62
sg23
V475x9
p63
sg25
I68
sg26
I13
sg27
I70
sa(dp64
g21
VTOUR DE PARIS
p65
sg23
V08x44
p66
sg25
I91
sg26
I14
sg27
I94
sa(dp67
g21
VSILVER QUAY
p68
sg23
V5x054
p69
sg25
I73
sg26
I15
sg27
I76
sa(dp70
g21
VTRUCKERS TANGLE
p71
sg23
V5500x
p72
sg25
I67
sg26
I16
sg27
I68
sasS'ratings_manual'
p73
(lp74
sssI1544710800
(dp75
g2
Vhttp://www.skyracing.com.au/index.php?component=racing&task=race&id=108883011&meetingid=108215106&Itemid=89
p76
sg4
V29046614.1420
p77
sg6
(dp78
g8
(lp79
(lp80
I7
aI1
aI2
aI5
aa(lp81
I3
aI2
aI9
aI5
aa(lp82
I2
aI4
aI5
aI3
aa(lp83
I2
aI5
aI4
aI1
aa(lp84
I3
aI1
aI7
aI8
aa(lp85
I1
aI7
aI2
aI5
aa(lp86
I1
aI2
aI7
aI5
aa(lp87
I2
aI1
aI7
aI3
aasg18
(lp88
(dp89
g21
VSTEEL CITY
p90
sg23
Vx160x
p91
sg25
I100
sg26
I1
sg27
I97
sa(dp92
g21
VTIGERALLEY
p93
sg23
V3x470
p94
sg25
I95
sg26
I2
sg27
I91
sa(dp95
g21
VOUTBACK BLUE
p96
sg23
V37905
p97
sg25
I79
sg26
I3
sg27
I72
sa(dp98
g21
VCHRISTMAS IN USA
p99
sg23
V260x6
p100
sg25
I84
sg26
I4
sg27
I80
sa(dp101
g21
VEMILYOGUE
p102
sg23
Vx0673
p103
sg25
I85
sg26
I5
sg27
I86
sa(dp104
g21
VLUCARNO DANCER
p105
sg23
V5x09x
p106
sg25
I70
sg26
I6
sg27
I69
sa(dp107
g21
VCHOOCHOOBUGALOO
p108
sg23
V09x23
p109
sg25
I92
sg26
I7
sg27
I100
sa(dp110
g21
VCOPT HILL
p111
sg23
V37x45
p112
sg25
I74
sg26
I8
sg27
I79
sa(dp113
g21
VRAPID FRITZ
p114
sg23
V8x008
p115
sg25
I63
sg26
I9
sg27
I62
sasg73
(lp116
sssI1544711700
(dp117
g2
Vhttp://www.skyracing.com.au/index.php?component=racing&task=race&id=108882996&meetingid=108236404&Itemid=89
p118
sg4
V29046607.1435
p119
sg6
(dp120
g8
(lp121
(lp122
I10
aI9
aI8
aI13
aa(lp123
I14
aI3
aI10
aI9
aa(lp124
I9
aI10
aI3
aI4
aa(lp125
I5
aI14
aI9
aI10
aa(lp126
I10
aI14
aI9
aI3
aa(lp127
I9
aI10
aI8
aI11
aa(lp128
I8
aI13
aI10
aI9
aa(lp129
I10
aI9
aI14
aI3
aasg18
(lp130
(dp131
g21
VBALLINLINA BOY
p132
sg23
V06665
p133
sg25
I64
sg26
I1
sg27
I69
sa(dp134
g21
VBYE BYE O BYE
p135
sg23
V00430
p136
sg25
I85
sg26
I2
sg27
I69
sa(dp137
g21
VCOWBOY DES LONG
p138
sg23
Vx7200
p139
sg25
I70
sg26
I3
sg27
I76
sa(dp140
g21
VCRAZYHEART
p141
sg23
V02x48
p142
sg25
I89
sg26
I4
sg27
I74
sa(dp143
g21
VDUBAI DEVILS
p144
sg23
V0x55x
p145
sg25
I68
sg26
I5
sg27
I72
sa(dp146
g21
VDUHALLOW PADDY
p147
sg23
V0900x
p148
sg25
I79
sg26
I6
sg27
I58
sa(dp149
g21
VDUNDEEDY LAD
p150
sg23
V01900
p151
sg25
I66
sg26
I7
sg27
I64
sa(dp152
g21
VDYLROW
p153
sg23
V7x03x
p154
sg25
I100
sg26
I8
sg27
I92
sa(dp155
g21
VFRANKIEFIVEANGELS
p156
sg23
V6x433
p157
sg25
I96
sg26
I9
sg27
I97
sa(dp158
g21
VMINDSMADEUP
p159
sg23
V324x4
p160
sg25
I98
sg26
I10
sg27
I100
sa(dp161
g21
VMOROVAL
p162
sg23
V70x87
p163
sg25
I77
sg26
I11
sg27
I85
sa(dp164
g21
VMY FOREVER FRIEND
p165
sg23
Vx3512
p166
sg25
I84
sg26
I12
sg27
I82
sa(dp167
g21
VREBEL TURN
p168
sg23
Vx838x
p169
sg25
I99
sg26
I13
sg27
I90
sa(dp170
g21
VVENEZIANO SPRINGS
p171
sg23
V0250x
p172
sg25
I73
sg26
I14
sg27
I78
sa(dp173
g21
VILSNEPASSERONTPAS
p174
sg23
V767x8
p175
sg25
I58
sg26
I15
sg27
I61
sasg73
(lp176
sssI1544703000
(dp177
g2
Vhttp://www.skyracing.com.au/index.php?component=racing&task=race&id=108883007&meetingid=108215106&Itemid=89
p178
sg4
V29046614.1210
p179
sg6
(dp180
g8
(lp181
(lp182
I5
aI6
aI4
aI9
aa(lp183
I2
aI4
aI5
aI10
aa(lp184
I3
aI5
aI6
aI9
aa(lp185
I4
aI10
aI3
aI1
aa(lp186
I6
aI10
aI9
aI7
aa(lp187
I6
aI5
aI9
aI4
aa(lp188
I6
aI5
aI4
aI10
aa(lp189
I6
aI5
aI4
aI10
aasg18
(lp190
(dp191
g21
VART OF SUPREMACY
p192
sg23
V0x40x
p193
sg25
I80
sg26
I1
sg27
I80
sa(dp194
g21
VKENNEDYS FIELD
p195
sg23
V8x44x
p196
sg25
I79
sg26
I2
sg27
I78
sa(dp197
g21
VLE GAVROCHE
p198
sg23
V675x9
p199
sg25
I73
sg26
I3
sg27
I72
sa(dp200
g21
VPADS
p201
sg23
V24x5x
p202
sg25
I93
sg26
I4
sg27
I93
sa(dp203
g21
VMURCHISON RIVER
p204
sg23
Vx0701
p205
sg25
I100
sg26
I5
sg27
I100
sa(dp206
g21
VPATIENCE TONY
p207
sg23
V63x52
p208
sg25
I99
sg26
I6
sg27
I96
sa(dp209
g21
VCOISA BLANCO
p210
sg23
V508x4
p211
sg25
I86
sg26
I7
sg27
I86
sa(dp212
g21
VASHES CORNER
p213
sg23
V7x43x
p214
sg25
I76
sg26
I8
sg27
I75
sa(dp215
g21
VLASTIN' MEMORIES
p216
sg23
V62x48
p217
sg25
I89
sg26
I9
sg27
I90
sa(dp218
g21
VDOLLY'S DOT
p219
sg23
V20x99
p220
sg25
I92
sg26
I10
sg27
I85
sa(dp221
g21
VCADORE
p222
sg23
V97x86
p223
sg25
I70
sg26
I11
sg27
I70
sasg73
(lp224
sssI1544703300
(dp225
g2
Vhttp://www.skyracing.com.au/index.php?component=racing&task=race&id=108882977&meetingid=108215090&Itemid=89
p226
sg4
V29046615.1215
p227
sg6
(dp228
g8
(lp229
(lp230
I13
aI10
aI8
aI11
aa(lp231
I5
aI2
aI13
aI7
aa(lp232
I5
aI2
aI7
aI10
aa(lp233
I5
aI2
aI13
aI10
aa(lp234
I13
aI2
aI10
aI7
aa(lp235
I10
aI13
aI8
aI11
aa(lp236
I13
aI10
aI11
aI2
aa(lp237
I13
aI2
aI5
aI10
aasg18
(lp238
(dp239
g21
VADMIRAL SPICE
p240
sg23
V65558
p241
sg25
I69
sg26
I1
sg27
I68
sa(dp242
g21
VBOLD REASON
p243
sg23
V09x35
p244
sg25
I88
sg26
I2
sg27
I88
sa(dp245
g21
VJOHNI BOXIT
p246
sg23
V26239
p247
sg25
I71
sg26
I3
sg27
I70
sa(dp248
g21
VKARAKORAM
p249
sg23
V36880
p250
sg25
I65
sg26
I4
sg27
I64
sa(dp251
g21
VMETATRONS CUBE
p252
sg23
V46046
p253
sg25
I78
sg26
I5
sg27
I85
sa(dp254
g21
VMINIATURE DAFFODIL
p255
sg23
V60453
p256
sg25
I80
sg26
I6
sg27
I76
sa(dp257
g21
VPELORIC
p258
sg23
V357
p259
sg25
I74
sg26
I7
sg27
I73
sa(dp260
g21
VROUNDHEAD
p261
sg23
V3911x
p262
sg25
I90
sg26
I8
sg27
I93
sa(dp263
g21
VSHAJI
p264
sg23
V78874
p265
sg25
I75
sg26
I9
sg27
I79
sa(dp266
g21
VTEASER
p267
sg23
V26012
p268
sg25
I97
sg26
I10
sg27
I96
sa(dp269
g21
VTOSHIMA
p270
sg23
V717
p271
sg25
I94
sg26
I11
sg27
I92
sa(dp272
g21
VTRUE THOUGHTS
p273
sg23
V000x0
p274
sg25
I62
sg26
I12
sg27
I62
sa(dp275
g21
VWAX AND WANE
p276
sg23
V4x203
p277
sg25
I100
sg26
I13
sg27
I100
sa(dp278
g21
VBRIGHT SAFFRON
p279
sg23
V41555
p280
sg25
I86
sg26
I14
sg27
I83
sasg73
(lp281
sssI1544713500
(dp282
g2
Vhttp://www.skyracing.com.au/index.php?component=racing&task=race&id=108882982&meetingid=108215090&Itemid=89
p283
sg4
V29046615.1505
p284
sg6
(dp285
g8
(lp286
(lp287
I2
aI3
aI6
aI1
aa(lp288
I1
aI2
aI3
aI5
aa(lp289
I2
aI3
aI1
aI6
aa(lp290
I2
aI3
aI1
aI5
aa(lp291
I3
aI2
aI1
aI5
aa(lp292
I1
aI2
aI3
aI6
aa(lp293
I2
aI3
aI1
aI4
aa(lp294
I2
aI3
aI1
aI6
aasg18
(lp295
(dp296
g21
VATLANTIC STORM
p297
sg23
V23155
p298
sg25
I94
sg26
I1
sg27
I74
sa(dp299
g21
VHOKE COLBURN
p300
sg23
V25311
p301
sg25
I100
sg26
I2
sg27
I100
sa(dp302
g21
VHARD STATION
p303
sg23
Vx02x1
p304
sg25
I95
sg26
I3
sg27
I98
sa(dp305
g21
VCHURCH HALL
p306
sg23
V6537x
p307
sg25
I80
sg26
I4
sg27
I65
sa(dp308
g21
VRECKLESS BEHAVIOR
p309
sg23
V27x50
p310
sg25
I81
sg26
I5
sg27
I71
sa(dp311
g21
VKEEP MOVING
p312
sg23
Vx32x5
p313
sg25
I87
sg26
I6
sg27
I91
sasg73
(lp314
sssI1544704800
(dp315
g2
Vhttp://www.skyracing.com.au/index.php?component=racing&task=race&id=108883008&meetingid=108215106&Itemid=89
p316
sg4
V29046614.1240
p317
sg6
(dp318
g8
(lp319
(lp320
I2
aI5
aI1
aI4
aa(lp321
I8
aI4
aI7
aI1
aa(lp322
I1
aI10
aI2
aI3
aa(lp323
I4
aI8
aI7
aI9
aa(lp324
I7
aI10
aI1
aI8
aa(lp325
I5
aI2
aI1
aI9
aa(lp326
I5
aI1
aI2
aI4
aa(lp327
I1
aI2
aI4
aI7
aasg18
(lp328
(dp329
g21
VSAMTU
p330
sg23
V57203
p331
sg25
I94
sg26
I1
sg27
I93
sa(dp332
g21
VDIGGIN DEEP
p333
sg23
V757x1
p334
sg25
I97
sg26
I2
sg27
I100
sa(dp335
g21
VGLAMOROUS GOLD
p336
sg23
V75305
p337
sg25
I79
sg26
I3
sg27
I77
sa(dp338
g21
VWITNESS
p339
sg23
V6176x
p340
sg25
I90
sg26
I4
sg27
I90
sa(dp341
g21
VGOLD CHAIN
p342
sg23
V75804
p343
sg25
I100
sg26
I5
sg27
I96
sa(dp344
g21
VCASIMIR DU CLOS
p345
sg23
Vx5x75
p346
sg25
I71
sg26
I6
sg27
I69
sa(dp347
g21
VLOVE AT DAWN
p348
sg23
V52x90
p349
sg25
I80
sg26
I7
sg27
I81
sa(dp350
g21
VMOORES NOVELTY
p351
sg23
Vx04x0
p352
sg25
I76
sg26
I8
sg27
I74
sa(dp353
g21
VAIRDRIGH
p354
sg23
V54804
p355
sg25
I89
sg26
I9
sg27
I85
sa(dp356
g21
VHERECOMESNELSON
p357
sg23
V94x34
p358
sg25
I84
sg26
I10
sg27
I82
sa(dp359
g21
VMILLROSE BELL
p360
sg23
V57x04
p361
sg25
I74
sg26
I11
sg27
I71
sasg73
(lp362
sssI1544705700
(dp363
g2
Vhttp://www.skyracing.com.au/index.php?component=racing&task=race&id=108882993&meetingid=108236404&Itemid=89
p364
sg4
V29046607.1255
p365
sg6
(dp366
g8
(lp367
(lp368
I13
aI1
aI10
aI7
aa(lp369
I6
aI2
aI7
aI1
aa(lp370
I6
aI1
aI16
aI12
aa(lp371
I3
aI6
aI10
aI13
aa(lp372
I1
aI16
aI13
aI2
aa(lp373
I13
aI1
aI10
aI7
aa(lp374
I1
aI4
aI13
aI10
aa(lp375
I1
aI6
aI13
aI3
aasg18
(lp376
(dp377
g21
VWESTERN SEA
p378
sg23
Vx80x1
p379
sg25
I99
sg26
I1
sg27
I99
sa(dp380
g21
VRUSSELLSTOWN
p381
sg23
V05909
p382
sg25
I79
sg26
I2
sg27
I82
sa(dp383
g21
VBLACK ICE
p384
sg23
V0000x
p385
sg25
I76
sg26
I3
sg27
I72
sa(dp386
g21
VGALUPPI
p387
sg23
Vx8x95
p388
sg25
I98
sg26
I4
sg27
I87
sa(dp389
g21
VBRITISH ART
p390
sg23
Vx50x3
p391
sg25
I95
sg26
I5
sg27
I94
sa(dp392
g21
VWAKE UP EARLY
p393
sg23
V7x700
p394
sg25
I67
sg26
I6
sg27
I62
sa(dp395
g21
VFLEMEN MAJIC
p396
sg23
V0x046
p397
sg25
I84
sg26
I7
sg27
I88
sa(dp398
g21
VPETITE GINA
p399
sg23
V2500x
p400
sg25
I74
sg26
I8
sg27
I76
sa(dp401
g21
VRANDALL'S ALANNAH
p402
sg23
Vx0400
p403
sg25
I69
sg26
I9
sg27
I67
sa(dp404
g21
VCONSTABLE BUCKLEY
p405
sg23
V4x73x
p406
sg25
I88
sg26
I10
sg27
I90
sa(dp407
g21
VGIMLI'S OSCAR
p408
sg23
V0x09x
p409
sg25
I66
sg26
I11
sg27
I69
sa(dp410
g21
VMUSICAL AVA
p411
sg23
V6x280
p412
sg25
I73
sg26
I12
sg27
I79
sa(dp413
g21
VIT'S A LONG STORY
p414
sg23
V6776x
p415
sg25
I97
sg26
I13
sg27
I100
sa(dp416
g21
VLORD BORU
p417
sg23
V0080x
p418
sg25
I63
sg26
I14
sg27
I64
sa(dp419
g21
VTSARINA SOPHIA
p420
sg23
V78000
p421
sg25
I64
sg26
I15
sg27
I60
sa(dp422
g21
VSTILL ALIVE
p423
sg23
V76043
p424
sg25
I82
sg26
I16
sg27
I84
sa(dp425
g21
VWHITMORE POWER
p426
sg23
Vx096x
p427
sg25
I60
sg26
I17
sg27
I58
sa(dp428
g21
VFOURINA
p429
sg23
Vx316x
p430
sg25
I100
sg26
I18
sg27
I95
sa(dp431
g21
VSEAPOINT
p432
sg23
V46900
p433
sg25
I70
sg26
I19
sg27
I73
sasg73
(lp434
sssI1544703900
(dp435
g2
Vhttp://www.skyracing.com.au/index.php?component=racing&task=race&id=108882992&meetingid=108236404&Itemid=89
p436
sg4
V29046607.1225
p437
sg6
(dp438
g8
(lp439
(lp440
I2
aI13
aI11
aI1
aa(lp441
I2
aI4
aI13
aI6
aa(lp442
I2
aI3
aI13
aI4
aa(lp443
I2
aI1
aI13
aI6
aa(lp444
I2
aI13
aI11
aI3
aa(lp445
I2
aI13
aI1
aI3
aa(lp446
I2
aI13
aI11
aI1
aa(lp447
I2
aI13
aI1
aI3
aasg18
(lp448
(dp449
g21
VCORDOVAN BROWN
p450
sg23
Vx0x0x
p451
sg25
I87
sg26
I1
sg27
I93
sa(dp452
g21
VGETAWAY KATIE MAI
p453
sg23
V2x1x2
p454
sg25
I100
sg26
I2
sg27
I100
sa(dp455
g21
VALL THE WAY WEST
p456
sg23
V2x332
p457
sg25
I79
sg26
I3
sg27
I88
sa(dp458
g21
VASK NEILUS
p459
sg23
Vx4085
p460
sg25
I82
sg26
I4
sg27
I92
sa(dp461
g21
VBRAZEN BAY
p462
sg23
V7x898
p463
sg25
I54
sg26
I5
sg27
I65
sa(dp464
g21
VBRIDGETS CROSS
p465
sg23
V7866x
p466
sg25
I77
sg26
I6
sg27
I87
sa(dp467
g21
VDARRENS DIAMOND
p468
sg23
V08x8
p469
sg25
I57
sg26
I7
sg27
I74
sa(dp470
g21
VGOULANE JESSIE
p471
sg23
V847x4
p472
sg25
I71
sg26
I8
sg27
I85
sa(dp473
g21
VLADY LAMPLIGHT
p474
sg23
V000
p475
sg25
I55
sg26
I9
sg27
I67
sa(dp476
g21
VLONG ISLAND JENN
p477
sg23
V0x
p478
sg25
I66
sg26
I10
sg27
I79
sa(dp479
g21
VNICCOLAI
p480
sg23
V52x
p481
sg25
I88
sg26
I11
sg27
I96
sa(dp482
g21
VREMEMBER LE JUMEAU
p483
sg23
V08x
p484
sg25
I53
sg26
I12
sg27
I68
sa(dp485
g21
VRONEY
p486
sg23
V3x53
p487
sg25
I91
sg26
I13
sg27
I99
sa(dp488
g21
VUFFIZY
p489
sg23
V08
p490
sg25
I64
sg26
I14
sg27
I77
sa(dp491
g21
VWESTERN LINE
p492
sg23
V
p493
sg25
I74
sg26
I15
sg27
I0
sa(dp494
g21
VJOHANNA YEATS
p495
sg23
g493
sg25
I61
sg26
I16
sg27
I0
sa(dp496
g21
VDOYEN'S DIVA
p497
sg23
V5x
p498
sg25
I69
sg26
I17
sg27
I82
sa(dp499
g21
VWONDERFUL WOMAN
p500
sg23
V08
p501
sg25
I51
sg26
I18
sg27
I70
sasg73
(lp502
sssI1544707500
(dp503
g2
Vhttp://www.skyracing.com.au/index.php?component=racing&task=race&id=108882979&meetingid=108215090&Itemid=89
p504
sg4
V29046615.1325
p505
sg6
(dp506
g8
(lp507
(lp508
I5
aI6
aI2
aI3
aa(lp509
I5
aI2
aI7
aI6
aa(lp510
I5
aI2
aI7
aI6
aa(lp511
I5
aI2
aI7
aI6
aa(lp512
I5
aI7
aI6
aI2
aa(lp513
I6
aI5
aI2
aI3
aa(lp514
I5
aI6
aI3
aI2
aa(lp515
I5
aI2
aI6
aI7
aasg18
(lp516
(dp517
g21
VALL CURRENCIES
p518
sg23
V417x4
p519
sg25
I75
sg26
I1
sg27
I75
sa(dp520
g21
VATLANTA ABLAZE
p521
sg23
V53113
p522
sg25
I86
sg26
I2
sg27
I89
sa(dp523
g21
VBELLE EMPRESS
p524
sg23
Vx531x
p525
sg25
I93
sg26
I3
sg27
I86
sa(dp526
g21
VGRACEFUL LEGEND
p527
sg23
V30x33
p528
sg25
I79
sg26
I4
sg27
I76
sa(dp529
g21
VJESTER JET
p530
sg23
V72x22
p531
sg25
I95
sg26
I5
sg27
I100
sa(dp532
g21
VMRS LOVETT
p533
sg23
V2x411
p534
sg25
I100
sg26
I6
sg27
I93
sa(dp535
g21
VREBEL YEATS
p536
sg23
V23132
p537
sg25
I83
sg26
I7
sg27
I82
sasg73
(lp538
sssI1544709300
(dp539
g2
Vhttp://www.skyracing.com.au/index.php?component=racing&task=race&id=108882980&meetingid=108215090&Itemid=89
p540
sg4
V29046615.1355
p541
sg6
(dp542
g8
(lp543
(lp544
I1
aI4
aI6
aI3
aa(lp545
I3
aI5
aI1
aI4
aa(lp546
I5
aI1
aI4
aI3
aa(lp547
I5
aI4
aI1
aI3
aa(lp548
I1
aI4
aI3
aI6
aa(lp549
I4
aI1
aI6
aI3
aa(lp550
I1
aI6
aI4
aI3
aa(lp551
I1
aI4
aI5
aI3
aasg18
(lp552
(dp553
g21
VJARLATH
p554
sg23
V8x621
p555
sg25
I100
sg26
I1
sg27
I100
sa(dp556
g21
VQUARENTA
p557
sg23
V00x74
p558
sg25
I87
sg26
I2
sg27
I81
sa(dp559
g21
VMUCKLE ROE
p560
sg23
V49x65
p561
sg25
I81
sg26
I3
sg27
I89
sa(dp562
g21
VBARBROOK STAR
p563
sg23
V64x43
p564
sg25
I94
sg26
I4
sg27
I97
sa(dp565
g21
VGOLD PATROL
p566
sg23
V031x3
p567
sg25
I78
sg26
I5
sg27
I80
sa(dp568
g21
VPADDY THE OSCAR
p569
sg23
V2315x
p570
sg25
I95
sg26
I6
sg27
I90
sasg73
(lp571
sssI1544710200
(dp572
g2
Vhttp://www.skyracing.com.au/index.php?component=racing&task=race&id=108883040&meetingid=108215137&Itemid=89
p573
sg4
V29046609.1410
p574
sg6
(dp575
g8
(lp576
(lp577
I1
aI2
aI11
aI7
aa(lp578
I7
aI5
aI1
aI6
aa(lp579
I1
aI3
aI8
aI5
aa(lp580
I5
aI1
aI6
aI2
aa(lp581
I1
aI7
aI6
aI5
aa(lp582
I1
aI2
aI7
aI10
aa(lp583
I1
aI11
aI2
aI7
aa(lp584
I1
aI7
aI5
aI2
aasg18
(lp585
(dp586
g21
VROLL THE DOUGH
p587
sg23
V11413
p588
sg25
I100
sg26
I1
sg27
I100
sa(dp589
g21
VCHRISTMAS IN APRIL
p590
sg23
V01x30
p591
sg25
I96
sg26
I2
sg27
I99
sa(dp592
g21
VKENTFORD HEIRESS
p593
sg23
V75439
p594
sg25
I67
sg26
I3
sg27
I69
sa(dp595
g21
VFROZEN FLAME
p596
sg23
V431x8
p597
sg25
I71
sg26
I4
sg27
I73
sa(dp598
g21
VAGAMEMMON
p599
sg23
Vx1x34
p600
sg25
I82
sg26
I5
sg27
I83
sa(dp601
g21
VJOUEUR BRESILIEN
p602
sg23
V741x4
p603
sg25
I79
sg26
I6
sg27
I88
sa(dp604
g21
VWALT
p605
sg23
V206x5
p606
sg25
I84
sg26
I7
sg27
I90
sa(dp607
g21
VMARBLE MOON
p608
sg23
V1x110
p609
sg25
I94
sg26
I8
sg27
I75
sa(dp610
g21
VBALLYKNOCK CLOUD
p611
sg23
V0x7x7
p612
sg25
I89
sg26
I9
sg27
I63
sa(dp613
g21
VMAHLERMADE
p614
sg23
V3344x
p615
sg25
I76
sg26
I10
sg27
I84
sa(dp616
g21
VSACKETT
p617
sg23
V37x12
p618
sg25
I91
sg26
I11
sg27
I93
sa(dp619
g21
VPOLYMATH
p620
sg23
V3x0x6
p621
sg25
I62
sg26
I12
sg27
I64
sa(dp622
g21
VHELUVAGOOD
p623
sg23
V8x931
p624
sg25
I74
sg26
I13
sg27
I79
sa(dp625
g21
VHUGOS HORSE
p626
sg23
V1x435
p627
sg25
I71
sg26
I14
sg27
I72
sasg73
(lp628
sssI1544714100
(dp629
g2
Vhttp://www.skyracing.com.au/index.php?component=racing&task=race&id=108883042&meetingid=108215137&Itemid=89
p630
sg4
V29046609.1515
p631
sg6
(dp632
g8
(lp633
(lp634
I3
aI4
aI1
aI6
aa(lp635
I3
aI1
aI5
aI2
aa(lp636
I3
aI2
aI4
aI8
aa(lp637
I1
aI8
aI2
aI5
aa(lp638
I4
aI3
aI1
aI9
aa(lp639
I1
aI3
aI4
aI6
aa(lp640
I4
aI1
aI3
aI6
aa(lp641
I3
aI1
aI4
aI2
aasg18
(lp642
(dp643
g21
VBEAU BAY
p644
sg23
V3120x
p645
sg25
I84
sg26
I1
sg27
I88
sa(dp646
g21
VWESTERN MILLER
p647
sg23
Vx02x5
p648
sg25
I78
sg26
I2
sg27
I71
sa(dp649
g21
VCAPELAND
p650
sg23
V2x211
p651
sg25
I100
sg26
I3
sg27
I100
sa(dp652
g21
VLILLINGTON
p653
sg23
V1x141
p654
sg25
I99
sg26
I4
sg27
I96
sa(dp655
g21
VVALSEUR DU GRANVAL
p656
sg23
V97x36
p657
sg25
I71
sg26
I5
sg27
I59
sa(dp658
g21
VAMOOLA GOLD
p659
sg23
V2x571
p660
sg25
I92
sg26
I6
sg27
I84
sa(dp661
g21
VOTTER MOON
p662
sg23
V18x36
p663
sg25
I64
sg26
I7
sg27
I67
sa(dp664
g21
VBALLYWOOD
p665
sg23
Vx0x44
p666
sg25
I88
sg26
I8
sg27
I78
sa(dp667
g21
VRAILROAD JUNKIE
p668
sg23
V46103
p669
sg25
I76
sg26
I9
sg27
I73
sasg73
(lp670
sssI1544712900
(dp671
g2
Vhttp://www.skyracing.com.au/index.php?component=racing&task=race&id=108883012&meetingid=108215106&Itemid=89
p672
sg4
V29046614.1455
p673
sg6
(dp674
g8
(lp675
(lp676
I8
aI2
aI7
aI4
aa(lp677
I1
aI4
aI6
aI5
aa(lp678
I4
aI6
aI3
aI8
aa(lp679
I1
aI4
aI5
aI7
aa(lp680
I4
aI7
aI1
aI6
aa(lp681
I4
aI8
aI2
aI7
aa(lp682
I1
aI7
aI8
aI2
aa(lp683
I4
aI1
aI8
aI7
aasg18
(lp684
(dp685
g21
VNEWTOWN LAD
p686
sg23
V279x0
p687
sg25
I94
sg26
I1
sg27
I73
sa(dp688
g21
VBOSTON SPRAY
p689
sg23
V30000
p690
sg25
I89
sg26
I2
sg27
I95
sa(dp691
g21
VOVERWORKDUNDERPAID
p692
sg23
Vx50x4
p693
sg25
I77
sg26
I3
sg27
I84
sa(dp694
g21
VCAPTAIN MOWBRAY
p695
sg23
V8x652
p696
sg25
I78
sg26
I4
sg27
I88
sa(dp697
g21
VFLY RORY FLY
p698
sg23
Vx426x
p699
sg25
I66
sg26
I5
sg27
I66
sa(dp700
g21
VORIONINVERNESS
p701
sg23
V0x132
p702
sg25
I82
sg26
I6
sg27
I80
sa(dp703
g21
VWHISKEY CHASER
p704
sg23
V6632x
p705
sg25
I97
sg26
I7
sg27
I93
sa(dp706
g21
VBLAKERIGG
p707
sg23
V270x1
p708
sg25
I100
sg26
I8
sg27
I100
sa(dp709
g21
VTHE ORANGE ROGUE
p710
sg23
V0776x
p711
sg25
I69
sg26
I9
sg27
I71
sasg73
(lp712
sssI1544713800
(dp713
g2
Vhttp://www.skyracing.com.au/index.php?component=racing&task=race&id=108882997&meetingid=108236404&Itemid=89
p714
sg4
V29046607.1510
p715
sg6
(dp716
g8
(lp717
(lp718
I3
aI12
aI10
aI2
aa(lp719
I3
aI1
aI5
aI4
aa(lp720
I3
aI4
aI8
aI10
aa(lp721
I9
aI6
aI1
aI3
aa(lp722
I3
aI10
aI8
aI14
aa(lp723
I10
aI3
aI12
aI8
aa(lp724
I3
aI8
aI10
aI5
aa(lp725
I3
aI10
aI12
aI1
aasg18
(lp726
(dp727
g21
VBOBBYTHEGANGSTER
p728
sg23
V9559x
p729
sg25
I62
sg26
I1
sg27
I64
sa(dp730
g21
VIT HAS TO BE
p731
sg23
Vx0000
p732
sg25
I86
sg26
I2
sg27
I94
sa(dp733
g21
VSESKIN FLYER
p734
sg23
V05023
p735
sg25
I100
sg26
I3
sg27
I100
sa(dp736
g21
VLOCH LUATHA
p737
sg23
V83703
p738
sg25
I77
sg26
I4
sg27
I76
sa(dp739
g21
VHARD BOUGHT
p740
sg23
V7860x
p741
sg25
I95
sg26
I5
sg27
I89
sa(dp742
g21
VDRUMLOSH SALLIE
p743
sg23
V89x6x
p744
sg25
I59
sg26
I6
sg27
I61
sa(dp745
g21
VGOTAWAY
p746
sg23
V70x0x
p747
sg25
I69
sg26
I7
sg27
I73
sa(dp748
g21
VROCKY'S SILVER
p749
sg23
Vx8051
p750
sg25
I97
sg26
I8
sg27
I92
sa(dp751
g21
VTHE HORSECHESNUT
p752
sg23
Vx889x
p753
sg25
I93
sg26
I9
sg27
I80
sa(dp754
g21
VSHANKLYS DAWN
p755
sg23
V57116
p756
sg25
I96
sg26
I10
sg27
I95
sa(dp757
g21
VANALYSE THAT
p758
sg23
V133x0
p759
sg25
I91
sg26
I11
sg27
I87
sa(dp760
g21
VCOURT ADJOURNED
p761
sg23
V34331
p762
sg25
I94
sg26
I12
sg27
I99
sa(dp763
g21
VMOUNTAIN PHILIP
p764
sg23
V40x4x
p765
sg25
I83
sg26
I13
sg27
I63
sa(dp766
g21
VCAOIMHE DIVA
p767
sg23
V034x6
p768
sg25
I61
sg26
I14
sg27
I72
sa(dp769
g21
VKILDERRY PRINCE
p770
sg23
V50004
p771
sg25
I68
sg26
I15
sg27
I79
sa(dp772
g21
VTABOO
p773
sg23
V0x30x
p774
sg25
I65
sg26
I16
sg27
I67
sa(dp775
g21
VUNA'S PLEASURE
p776
sg23
V0x076
p777
sg25
I56
sg26
I17
sg27
I69
sa(dp778
g21
VTJ GOODTYMES
p779
sg23
V6338x
p780
sg25
I84
sg26
I18
sg27
I85
sasg73
(lp781
sssI1544715600
(dp782
g2
Vhttp://www.skyracing.com.au/index.php?component=racing&task=race&id=108882998&meetingid=108236404&Itemid=89
p783
sg4
V29046607.1540
p784
sg6
(dp785
g8
(lp786
(lp787
I2
aI5
aI1
aI3
aa(lp788
I2
aI5
aI1
aI3
aa(lp789
I2
aI5
aI1
aI3
aa(lp790
I2
aI5
aI3
aI1
aa(lp791
I2
aI5
aI3
aI1
aa(lp792
I2
aI5
aI3
aI1
aa(lp793
I2
aI5
aI1
aI3
aa(lp794
I2
aI5
aI1
aI3
aasg18
(lp795
(dp796
g21
VDUBLIN FOUR
p797
sg23
V47
p798
sg25
I92
sg26
I1
sg27
I93
sa(dp799
g21
VFINAL LIST
p800
sg23
V5x2
p801
sg25
I100
sg26
I2
sg27
I100
sa(dp802
g21
VLADY MCCABE
p803
sg23
V6x55
p804
sg25
I85
sg26
I3
sg27
I86
sa(dp805
g21
VMARY'S CHANCE
p806
sg23
V5
p807
sg25
I82
sg26
I4
sg27
I82
sa(dp808
g21
VMISS SHOE CITY
p809
sg23
V45
p810
sg25
I95
sg26
I5
sg27
I98
sa(dp811
g21
VSTOLEN MOMENT
p812
sg23
V7x
p813
sg25
I80
sg26
I6
sg27
I80
sasg73
(lp814
sssI1544706900
(dp815
g2
Vhttp://www.skyracing.com.au/index.php?component=racing&task=race&id=108883009&meetingid=108215106&Itemid=89
p816
sg4
V29046614.1315
p817
sg6
(dp818
g8
(lp819
(lp820
I1
aI2
aI5
aI3
aa(lp821
I1
aI4
aI6
aI5
aa(lp822
I1
aI6
aI4
aI5
aa(lp823
I1
aI6
aI4
aI5
aa(lp824
I1
aI4
aI6
aI5
aa(lp825
I1
aI5
aI2
aI3
aa(lp826
I1
aI2
aI3
aI6
aa(lp827
I1
aI6
aI4
aI5
aasg18
(lp828
(dp829
g21
VHIGHLAND HUNTER
p830
sg23
V1x0x1
p831
sg25
I100
sg26
I1
sg27
I100
sa(dp832
g21
VBARFLY
p833
sg23
V21x
p834
sg25
I95
sg26
I2
sg27
I99
sa(dp835
g21
VBUBBLES OF GOLD
p836
sg23
V1x6
p837
sg25
I94
sg26
I3
sg27
I89
sa(dp838
g21
VCOURT MASTER
p839
sg23
V1x2x4
p840
sg25
I80
sg26
I4
sg27
I79
sa(dp841
g21
VDIGER DAUDAIE
p842
sg23
V1x5
p843
sg25
I87
sg26
I5
sg27
I92
sa(dp844
g21
VMANETTI
p845
sg23
V211x3
p846
sg25
I83
sg26
I6
sg27
I84
sasg73
(lp847
sssI1544707800
(dp848
g2
Vhttp://www.skyracing.com.au/index.php?component=racing&task=race&id=108882994&meetingid=108236404&Itemid=89
p849
sg4
V29046607.1330
p850
sg6
(dp851
g8
(lp852
(lp853
I5
aI1
aI14
aI3
aa(lp854
I3
aI11
aI5
aI1
aa(lp855
I1
aI11
aI3
aI14
aa(lp856
I11
aI3
aI1
aI14
aa(lp857
I11
aI14
aI5
aI3
aa(lp858
I5
aI14
aI1
aI3
aa(lp859
I5
aI14
aI1
aI6
aa(lp860
I11
aI5
aI1
aI3
aasg18
(lp861
(dp862
g21
VBUCK'S BILLIONAIRE
p863
sg23
V5333
p864
sg25
I95
sg26
I1
sg27
I98
sa(dp865
g21
VDECALAGE HORAIRE
p866
sg23
g493
sg25
I82
sg26
I2
sg27
I0
sa(dp867
g21
VEXTRAPOLATE
p868
sg23
V25x22
p869
sg25
I90
sg26
I3
sg27
I93
sa(dp870
g21
VGETAWAY KID
p871
sg23
V675x2
p872
sg25
I73
sg26
I4
sg27
I83
sa(dp873
g21
VHARRIE
p874
sg23
V2x2x
p875
sg25
I100
sg26
I5
sg27
I100
sa(dp876
g21
VMINELLA UNITED
p877
sg23
V2x
p878
sg25
I91
sg26
I6
sg27
I92
sa(dp879
g21
VSULLANE HILL
p880
sg23
V854x2
p881
sg25
I86
sg26
I7
sg27
I87
sa(dp882
g21
VTOO MUCH TO ASK
p883
sg23
V0
p884
sg25
I60
sg26
I8
sg27
I62
sa(dp885
g21
VBERTONI
p886
sg23
V0x
p887
sg25
I66
sg26
I9
sg27
I70
sa(dp888
g21
VLOAD UP TIME
p889
sg23
V00
p890
sg25
I72
sg26
I10
sg27
I77
sa(dp891
g21
VRANDALLS UR POET
p892
sg23
V33445
p893
sg25
I84
sg26
I11
sg27
I82
sa(dp894
g21
VCALL CURTIN
p895
sg23
V05
p896
sg25
I63
sg26
I12
sg27
I66
sa(dp897
g21
VHOLLOW CREST
p898
sg23
V7x050
p899
sg25
I59
sg26
I13
sg27
I65
sa(dp900
g21
VMISS CHEVIOUS GIRL
p901
sg23
Vx3343
p902
sg25
I96
sg26
I14
sg27
I96
sa(dp903
g21
VBALTYGIRL
p904
sg23
V90x2
p905
sg25
I69
sg26
I15
sg27
I75
sa(dp906
g21
VDENTO DES OBEAUX
p907
sg23
V5x
p908
sg25
I85
sg26
I16
sg27
I89
sa(dp909
g21
VPONT AVEN
p910
sg23
V0x
p911
sg25
I74
sg26
I17
sg27
I78
sa(dp912
g21
VLIGHT MYLES AHEAD
p913
sg23
V56
p914
sg25
I65
sg26
I18
sg27
I68
sasg73
(lp915
sssI1544715300
(dp916
g2
Vhttp://www.skyracing.com.au/index.php?component=racing&task=race&id=108882983&meetingid=108215090&Itemid=89
p917
sg4
V29046615.1535
p918
sg6
(dp919
g8
(lp920
(lp921
I2
aI10
aI7
aI12
aa(lp922
I12
aI1
aI10
aI8
aa(lp923
I7
aI2
aI8
aI14
aa(lp924
I12
aI1
aI10
aI2
aa(lp925
I12
aI10
aI1
aI8
aa(lp926
I2
aI10
aI7
aI5
aa(lp927
I2
aI10
aI7
aI11
aa(lp928
I10
aI12
aI2
aI7
aasg18
(lp929
(dp930
g21
VCAROLINES CHARM
p931
sg23
V0x
p932
sg25
I79
sg26
I1
sg27
I84
sa(dp933
g21
VEDWARDSTONE
p934
sg23
V2
p935
sg25
I100
sg26
I2
sg27
I100
sa(dp936
g21
VFITZROY
p937
sg23
g493
sg25
I83
sg26
I3
sg27
I0
sa(dp938
g21
VGREEN DOLPHIN
p939
sg23
g493
sg25
I85
sg26
I4
sg27
I0
sa(dp940
g21
VHARRY HAZARD
p941
sg23
V59x
p942
sg25
I77
sg26
I5
sg27
I80
sa(dp943
g21
VHAWK'S WELL
p944
sg23
g493
sg25
I73
sg26
I6
sg27
I0
sa(dp945
g21
VKEEP ROLLING
p946
sg23
V5
p947
sg25
I95
sg26
I7
sg27
I92
sa(dp948
g21
VMR PALMTREE
p949
sg23
V3x2x0
p950
sg25
I70
sg26
I8
sg27
I74
sa(dp951
g21
VTHE BOOGIEMAN
p952
sg23
g493
sg25
I67
sg26
I9
sg27
I0
sa(dp953
g21
VTHE CAPTAINS INN
p954
sg23
V2x
p955
sg25
I99
sg26
I10
sg27
I97
sa(dp956
g21
VVERSATILITY
p957
sg23
g493
sg25
I90
sg26
I11
sg27
I0
sa(dp958
g21
VWELLAND
p959
sg23
V3x
p960
sg25
I89
sg26
I12
sg27
I89
sa(dp961
g21
VCLASSY AFAIR
p962
sg23
g493
sg25
I71
sg26
I13
sg27
I0
sa(dp963
g21
VEARCOMESALI
p964
sg23
V0
p965
sg25
I63
sg26
I14
sg27
I72
sasg73
(lp966
sssI1544708700
(dp967
g2
Vhttp://www.skyracing.com.au/index.php?component=racing&task=race&id=108883010&meetingid=108215106&Itemid=89
p968
sg4
V29046614.1345
p969
sg6
(dp970
g8
(lp971
(lp972
I2
aI9
aI3
aI4
aa(lp973
I2
aI1
aI4
aI3
aa(lp974
I1
aI4
aI3
aI2
aa(lp975
I2
aI1
aI4
aI3
aa(lp976
I1
aI3
aI4
aI2
aa(lp977
I3
aI2
aI9
aI4
aa(lp978
I2
aI9
aI6
aI4
aa(lp979
I2
aI1
aI3
aI4
aasg18
(lp980
(dp981
g21
VHAWK HIGH
p982
sg23
V88x31
p983
sg25
I83
sg26
I1
sg27
I69
sa(dp984
g21
VSTOWAWAY MAGIC
p985
sg23
V80x21
p986
sg25
I100
sg26
I2
sg27
I100
sa(dp987
g21
VCOOL MIX
p988
sg23
V51x22
p989
sg25
I88
sg26
I3
sg27
I82
sa(dp990
g21
VRAVENHILL ROAD
p991
sg23
Vx36x2
p992
sg25
I95
sg26
I4
sg27
I74
sa(dp993
g21
VREIVERS LAD
p994
sg23
V1110x
p995
sg25
I79
sg26
I5
sg27
I68
sa(dp996
g21
VRHYMERS STONE
p997
sg23
V7x45x
p998
sg25
I75
sg26
I6
sg27
I64
sa(dp999
g21
VSHEPHERD STORM
p1000
sg23
V9x5x
p1001
sg25
I63
sg26
I7
sg27
I55
sa(dp1002
g21
VUNCLE BOBBY
p1003
sg23
V50x6x
p1004
sg25
I69
sg26
I8
sg27
I57
sa(dp1005
g21
VTHE VOCALIST
p1006
sg23
Vx212x
p1007
sg25
I94
sg26
I9
sg27
I96
sasg73
(lp1008
sssI1544709600
(dp1009
g2
Vhttp://www.skyracing.com.au/index.php?component=racing&task=race&id=108882995&meetingid=108236404&Itemid=89
p1010
sg4
V29046607.1400
p1011
sg6
(dp1012
g8
(lp1013
(lp1014
I2
aI4
aI3
aI13
aa(lp1015
I13
aI2
aI3
aI4
aa(lp1016
I13
aI2
aI4
aI15
aa(lp1017
I2
aI3
aI13
aI8
aa(lp1018
I13
aI3
aI9
aI15
aa(lp1019
I4
aI2
aI3
aI13
aa(lp1020
I2
aI3
aI13
aI7
aa(lp1021
I2
aI13
aI4
aI3
aasg18
(lp1022
(dp1023
g21
VMYSLOEGIN
p1024
sg23
V17603
p1025
sg25
I93
sg26
I1
sg27
I91
sa(dp1026
g21
VISABEL'S GOLD
p1027
sg23
V91024
p1028
sg25
I100
sg26
I2
sg27
I100
sa(dp1029
g21
VSTUCKER HILL
p1030
sg23
V20x71
p1031
sg25
I95
sg26
I3
sg27
I89
sa(dp1032
g21
VKILBARRY CALLING
p1033
sg23
Vx0232
p1034
sg25
I83
sg26
I4
sg27
I95
sa(dp1035
g21
VDUKE'S GIRL
p1036
sg23
Vx7824
p1037
sg25
I75
sg26
I5
sg27
I75
sa(dp1038
g21
VGLEBE GIRL
p1039
sg23
V0x5x3
p1040
sg25
I76
sg26
I6
sg27
I73
sa(dp1041
g21
VBEEPER'S RUBY
p1042
sg23
V78591
p1043
sg25
I89
sg26
I7
sg27
I78
sa(dp1044
g21
VCAILEAN'S ANGEL
p1045
sg23
Vx0x40
p1046
sg25
I68
sg26
I8
sg27
I71
sa(dp1047
g21
VMLILY
p1048
sg23
V256x7
p1049
sg25
I69
sg26
I9
sg27
I67
sa(dp1050
g21
VMOLLYS BOXTY
p1051
sg23
V408x0
p1052
sg25
I61
sg26
I10
sg27
I59
sa(dp1053
g21
VTHE FULL OFFICE
p1054
sg23
V077x5
p1055
sg25
I70
sg26
I11
sg27
I69
sa(dp1056
g21
VGEORGIA GRACE
p1057
sg23
V90x4x
p1058
sg25
I63
sg26
I12
sg27
I61
sa(dp1059
g21
VHE KNOWS MY NAME
p1060
sg23
V3x014
p1061
sg25
I91
sg26
I13
sg27
I86
sa(dp1062
g21
VJAMIES SISTER
p1063
sg23
Vx0x0x
p1064
sg25
I56
sg26
I14
sg27
I57
sa(dp1065
g21
VLE HACHETTE
p1066
sg23
V0x321
p1067
sg25
I82
sg26
I15
sg27
I83
sasg73
(lp1068
sssI1544711400
(dp1069
g2
Vhttp://www.skyracing.com.au/index.php?component=racing&task=race&id=108882981&meetingid=108215090&Itemid=89
p1070
sg4
V29046615.1430
p1071
sg6
(dp1072
g8
(lp1073
(lp1074
I4
aI3
aI1
aI6
aa(lp1075
I1
aI6
aI12
aI11
aa(lp1076
I12
aI6
aI1
aI7
aa(lp1077
I12
aI4
aI7
aI8
aa(lp1078
I12
aI1
aI6
aI3
aa(lp1079
I4
aI1
aI3
aI6
aa(lp1080
I4
aI12
aI1
aI3
aa(lp1081
I1
aI12
aI4
aI6
aasg18
(lp1082
(dp1083
g21
VDAYDREAM AULMES
p1084
sg23
Vx4x06
p1085
sg25
I95
sg26
I1
sg27
I94
sa(dp1086
g21
VSAMSON THE MAN
p1087
sg23
V56x5x
p1088
sg25
I71
sg26
I2
sg27
I70
sa(dp1089
g21
VIRISH PRINCE
p1090
sg23
V59x2x
p1091
sg25
I90
sg26
I3
sg27
I97
sa(dp1092
g21
VDRUID'S FOLLY
p1093
sg23
V2253x
p1094
sg25
I100
sg26
I4
sg27
I100
sa(dp1095
g21
VMARCH IS ON
p1096
sg23
V5833x
p1097
sg25
I87
sg26
I5
sg27
I81
sa(dp1098
g21
VBOMBER'S MOON
p1099
sg23
V90x93
p1100
sg25
I81
sg26
I6
sg27
I91
sa(dp1101
g21
VBLACK BUBLE
p1102
sg23
V7x655
p1103
sg25
I76
sg26
I7
sg27
I77
sa(dp1104
g21
VDREWMAIN LEGEND
p1105
sg23
V3271x
p1106
sg25
I84
sg26
I8
sg27
I88
sa(dp1107
g21
VSANDY BOY
p1108
sg23
V070
p1109
sg25
I78
sg26
I9
sg27
I84
sa(dp1110
g21
VIFANDABUT
p1111
sg23
Vx098x
p1112
sg25
I74
sg26
I10
sg27
I73
sa(dp1113
g21
VEL SCORPIO
p1114
sg23
V95x36
p1115
sg25
I64
sg26
I11
sg27
I67
sa(dp1116
g21
VAUENWIRBEL
p1117
sg23
V28x90
p1118
sg25
I99
sg26
I12
sg27
I79
sa(dp1119
g21
VQUARRY WIZARD
p1120
sg23
V0x46x
p1121
sg25
I70
sg26
I13
sg27
I72
sa(dp1122
g21
VKILMOGANNY
p1123
sg23
V879x7
p1124
sg25
I62
sg26
I14
sg27
I62
sasg73
(lp1125
sssI1544712300
(dp1126
g2
Vhttp://www.skyracing.com.au/index.php?component=racing&task=race&id=108883041&meetingid=108215137&Itemid=89
p1127
sg4
V29046609.1445
p1128
sg6
(dp1129
g8
(lp1130
(lp1131
I3
aI7
aI6
aI4
aa(lp1132
I13
aI4
aI9
aI5
aa(lp1133
I4
aI1
aI7
aI3
aa(lp1134
I4
aI9
aI6
aI7
aa(lp1135
I12
aI4
aI7
aI10
aa(lp1136
I7
aI3
aI4
aI2
aa(lp1137
I3
aI7
aI2
aI1
aa(lp1138
I4
aI7
aI3
aI9
aasg18
(lp1139
(dp1140
g21
VDON'T ASK
p1141
sg23
V2x1x0
p1142
sg25
I90
sg26
I1
sg27
I85
sa(dp1143
g21
VSAN SATIRO
p1144
sg23
V0x5x8
p1145
sg25
I96
sg26
I2
sg27
I88
sa(dp1146
g21
VASYLO
p1147
sg23
Vx1x71
p1148
sg25
I100
sg26
I3
sg27
I100
sa(dp1149
g21
VMAJESTIC TOUCH
p1150
sg23
Vx1462
p1151
sg25
I85
sg26
I4
sg27
I91
sa(dp1152
g21
VFULL
p1153
sg23
V81143
p1154
sg25
I79
sg26
I5
sg27
I79
sa(dp1155
g21
VCOGBURN
p1156
sg23
V2x4x2
p1157
sg25
I88
sg26
I6
sg27
I94
sa(dp1158
g21
VBANG ON
p1159
sg23
Vx5x41
p1160
sg25
I94
sg26
I7
sg27
I97
sa(dp1161
g21
VSMART BOY
p1162
sg23
V21x50
p1163
sg25
I72
sg26
I8
sg27
I70
sa(dp1164
g21
VSUPAKALANISTIC
p1165
sg23
V075x2
p1166
sg25
I68
sg26
I9
sg27
I69
sa(dp1167
g21
VTHAT'S A GIVEN
p1168
sg23
V10x34
p1169
sg25
I80
sg26
I10
sg27
I83
sa(dp1170
g21
VPERCY STREET
p1171
sg23
Vx430x
p1172
sg25
I75
sg26
I11
sg27
I76
sa(dp1173
g21
VKHANISARI
p1174
sg23
V2x043
p1175
sg25
I73
sg26
I12
sg27
I74
sa(dp1176
g21
VHERE'S HERBIE
p1177
sg23
V36x78
p1178
sg25
I65
sg26
I13
sg27
I64
sasg73
(lp1179
sssI1544704500
(dp1180
g2
Vhttp://www.skyracing.com.au/index.php?component=racing&task=race&id=108883037&meetingid=108215137&Itemid=89
p1181
sg4
V29046609.1235
p1182
sg6
(dp1183
g8
(lp1184
(lp1185
I1
aI6
aI7
aI2
aa(lp1186
I1
aI6
aI3
aI10
aa(lp1187
I1
aI6
aI7
aI9
aa(lp1188
I1
aI6
aI10
aI7
aa(lp1189
I1
aI6
aI10
aI3
aa(lp1190
I1
aI7
aI6
aI2
aa(lp1191
I1
aI6
aI7
aI2
aa(lp1192
I1
aI6
aI7
aI10
aasg18
(lp1193
(dp1194
g21
VSOUTHFIELD STONE
p1195
sg23
V3x11
p1196
sg25
I100
sg26
I1
sg27
I100
sa(dp1197
g21
VANNIVERSARY GIFT
p1198
sg23
V0
p1199
sg25
I90
sg26
I2
sg27
I91
sa(dp1200
g21
VDRUIDE PREMIER
p1201
sg23
V33x3
p1202
sg25
I87
sg26
I3
sg27
I88
sa(dp1203
g21
VDUC DU MEE
p1204
sg23
V0400x
p1205
sg25
I84
sg26
I4
sg27
I86
sa(dp1206
g21
VGAELIC POET
p1207
sg23
V99x9
p1208
sg25
I74
sg26
I5
sg27
I77
sa(dp1209
g21
VGENIUS
p1210
sg23
V1x9
p1211
sg25
I96
sg26
I6
sg27
I97
sa(dp1212
g21
VMYBOYSAM
p1213
sg23
V2x8x6
p1214
sg25
I94
sg26
I7
sg27
I95
sa(dp1215
g21
VSTORMY BLUES
p1216
sg23
Vx5x50
p1217
sg25
I67
sg26
I8
sg27
I64
sa(dp1218
g21
VSUPER SNIPE
p1219
sg23
V68
p1220
sg25
I75
sg26
I9
sg27
I78
sa(dp1221
g21
VZEE MAN
p1222
sg23
V520x0
p1223
sg25
I78
sg26
I10
sg27
I82
sa(dp1224
g21
VBORN TO BOOGIE
p1225
sg23
V44080
p1226
sg25
I81
sg26
I11
sg27
I72
sa(dp1227
g21
VCHAMPAGNEFOROSCAR
p1228
sg23
V90
p1229
sg25
I71
sg26
I12
sg27
I71
sa(dp1230
g21
VCUSHUISH
p1231
sg23
V90x44
p1232
sg25
I71
sg26
I13
sg27
I74
sasg73
(lp1233
sssI1544705400
(dp1234
g2
Vhttp://www.skyracing.com.au/index.php?component=racing&task=race&id=108882978&meetingid=108215090&Itemid=89
p1235
sg4
V29046615.1250
p1236
sg6
(dp1237
g8
(lp1238
(lp1239
I1
aI5
aI12
aI18
aa(lp1240
I15
aI5
aI2
aI9
aa(lp1241
I15
aI9
aI7
aI16
aa(lp1242
I15
aI7
aI5
aI6
aa(lp1243
I15
aI9
aI2
aI5
aa(lp1244
I5
aI12
aI1
aI18
aa(lp1245
I1
aI12
aI8
aI5
aa(lp1246
I15
aI5
aI9
aI1
aasg18
(lp1247
(dp1248
g21
VBIRCHDALE
p1249
sg23
V1x
p1250
sg25
I100
sg26
I1
sg27
I100
sa(dp1251
g21
VBLACK LIGHTNING
p1252
sg23
Vx33x5
p1253
sg25
I69
sg26
I2
sg27
I68
sa(dp1254
g21
VBOLDMERE
p1255
sg23
V5x9
p1256
sg25
I65
sg26
I3
sg27
I61
sa(dp1257
g21
VBUILDING FUTURES
p1258
sg23
Vx9x04
p1259
sg25
I66
sg26
I4
sg27
I65
sa(dp1260
g21
VCLARENDON STREET
p1261
sg23
V4x
p1262
sg25
I94
sg26
I5
sg27
I96
sa(dp1263
g21
VDARA'S PRESENT
p1264
sg23
Vx316x
p1265
sg25
I79
sg26
I6
sg27
I78
sa(dp1266
g21
VEASTER ERIC
p1267
sg23
V3x54
p1268
sg25
I76
sg26
I7
sg27
I74
sa(dp1269
g21
VHES NO TROUBLE
p1270
sg23
V1x
p1271
sg25
I95
sg26
I8
sg27
I84
sa(dp1272
g21
VJOHNBB
p1273
sg23
V2
p1274
sg25
I86
sg26
I9
sg27
I90
sa(dp1275
g21
VKINGSPLACE
p1276
sg23
V6x21x
p1277
sg25
I88
sg26
I10
sg27
I88
sa(dp1278
g21
VLA CAVSA NOSTRA
p1279
sg23
V1123x
p1280
sg25
I81
sg26
I11
sg27
I80
sa(dp1281
g21
VMACHIATO
p1282
sg23
V1x
p1283
sg25
I99
sg26
I12
sg27
I94
sa(dp1284
g21
VOSCAR CEREMONY
p1285
sg23
V4
p1286
sg25
I74
sg26
I13
sg27
I75
sa(dp1287
g21
VRISKY GOLD
p1288
sg23
V2x10x
p1289
sg25
I71
sg26
I14
sg27
I71
sa(dp1290
g21
VSAMBURU SHUJAA
p1291
sg23
V34x02
p1292
sg25
I84
sg26
I15
sg27
I85
sa(dp1293
g21
VSHEILA'S FANCY
p1294
sg23
V33x48
p1295
sg25
I63
sg26
I16
sg27
I64
sa(dp1296
g21
VSOUTHERN STATES
p1297
sg23
V09x00
p1298
sg25
I61
sg26
I17
sg27
I60
sa(dp1299
g21
VTALKTOMENOW
p1300
sg23
V1x2
p1301
sg25
I92
sg26
I18
sg27
I92
sasg73
(lp1302
sssI1544706300
(dp1303
g2
Vhttp://www.skyracing.com.au/index.php?component=racing&task=race&id=108883038&meetingid=108215137&Itemid=89
p1304
sg4
V29046609.1305
p1305
sg6
(dp1306
g8
(lp1307
(lp1308
I2
aI10
aI9
aI7
aa(lp1309
I4
aI6
aI13
aI2
aa(lp1310
I2
aI9
aI5
aI7
aa(lp1311
I4
aI6
aI13
aI2
aa(lp1312
I2
aI13
aI9
aI3
aa(lp1313
I2
aI10
aI3
aI4
aa(lp1314
I2
aI9
aI10
aI4
aa(lp1315
I2
aI4
aI13
aI10
aasg18
(lp1316
(dp1317
g21
VACLASSAGOLD
p1318
sg23
V108x8
p1319
sg25
I84
sg26
I1
sg27
I65
sa(dp1320
g21
VBIRDS OF PREY
p1321
sg23
V4x2x4
p1322
sg25
I100
sg26
I2
sg27
I100
sa(dp1323
g21
VCOLDITZ CASTLE
p1324
sg23
V9x
p1325
sg25
I78
sg26
I3
sg27
I80
sa(dp1326
g21
VENVOLE TOI
p1327
sg23
V61x57
p1328
sg25
I89
sg26
I4
sg27
I85
sa(dp1329
g21
VESPALION
p1330
sg23
V555x4
p1331
sg25
I77
sg26
I5
sg27
I78
sa(dp1332
g21
VJUST MIDAS
p1333
sg23
V4769x
p1334
sg25
I65
sg26
I6
sg27
I68
sa(dp1335
g21
VLE LIGERIEN
p1336
sg23
V97x4
p1337
sg25
I82
sg26
I7
sg27
I87
sa(dp1338
g21
VNIFTY AT FIFTY
p1339
sg23
V56x58
p1340
sg25
I74
sg26
I8
sg27
I77
sa(dp1341
g21
VPAXMAN
p1342
sg23
V1x6
p1343
sg25
I93
sg26
I9
sg27
I92
sa(dp1344
g21
VPRESS GANG
p1345
sg23
Vx9432
p1346
sg25
I91
sg26
I10
sg27
I96
sa(dp1347
g21
VVARDS
p1348
sg23
V121x2
p1349
sg25
I98
sg26
I11
sg27
I93
sa(dp1350
g21
VCOOPERESS
p1351
sg23
V49x75
p1352
sg25
I69
sg26
I12
sg27
I72
sa(dp1353
g21
VORIENTAL FLAME
p1354
sg23
V437x
p1355
sg25
I70
sg26
I13
sg27
I74
sasg73
(lp1356
sss.