(dp0
I1543845600
(dp1
S'skyracing_url'
p2
Vhttp://www.skyracing.com.au/index.php?component=racing&task=race&id=108396113&meetingid=107744951&Itemid=89
p3
sS'betfair_raceid'
p4
V29034704.1400
p5
sS'dat2'
p6
(dp7
S'ratings_auto'
p8
(lp9
(lp10
I10
aI1
aI8
aI6
aa(lp11
I1
aI10
aI6
aI3
aa(lp12
I6
aI3
aI5
aI2
aa(lp13
I1
aI10
aI3
aI6
aa(lp14
I10
aI1
aI6
aI3
aa(lp15
I10
aI1
aI8
aI6
aa(lp16
I10
aI1
aI8
aI6
aa(lp17
I10
aI1
aI6
aI3
aasS'horse_details'
p18
(lp19
(dp20
S'horse_name'
p21
VCOOLE WELL
p22
sS'horse_form'
p23
V235x8
p24
sS'rating_2'
p25
I95
sS'horse_number'
p26
I1
sS'rating_1'
p27
I96
sa(dp28
g21
VDUC DE BEAUCHENE
p29
sg23
V29x59
p30
sg25
I79
sg26
I2
sg27
I81
sa(dp31
g21
VGLORIOUS BORU
p32
sg23
V12x68
p33
sg25
I68
sg26
I3
sg27
I73
sa(dp34
g21
VGO GEORGE GO
p35
sg23
V329x7
p36
sg25
I89
sg26
I4
sg27
I86
sa(dp37
g21
VJOHNNY ROCCO
p38
sg23
V5x6
p39
sg25
I77
sg26
I5
sg27
I75
sa(dp40
g21
VMANNING ESTATE
p41
sg23
V2x6
p42
sg25
I92
sg26
I6
sg27
I92
sa(dp43
g21
VMUDDLE THINKING
p44
sg23
V7x
p45
sg25
I86
sg26
I7
sg27
I87
sa(dp46
g21
VEMPREINTE RECONCE
p47
sg23
V5x1x6
p48
sg25
I96
sg26
I8
sg27
I93
sa(dp49
g21
VAUDORA
p50
sg23
V6x03x
p51
sg25
I74
sg26
I9
sg27
I79
sa(dp52
g21
VROSY WORLD
p53
sg23
V231x
p54
sg25
I100
sg26
I10
sg27
I100
sa(dp55
g21
VTOMMYS GEAL
p56
sg23
V22x00
p57
sg25
I72
sg26
I11
sg27
I72
sa(dp58
g21
VWINDY BOTTOM
p59
sg23
V01x80
p60
sg25
I83
sg26
I12
sg27
I69
sasS'ratings_manual'
p61
(lp62
sssI1543842000
(dp63
g2
Vhttp://www.skyracing.com.au/index.php?component=racing&task=race&id=108396111&meetingid=107744951&Itemid=89
p64
sg4
V29034704.1300
p65
sg6
(dp66
g8
(lp67
(lp68
I1
aI6
aI2
aI5
aa(lp69
I1
aI6
aI5
aI2
aa(lp70
I1
aI2
aI3
aI4
aa(lp71
I6
aI1
aI5
aI2
aa(lp72
I1
aI6
aI2
aI5
aa(lp73
I1
aI6
aI5
aI2
aa(lp74
I1
aI2
aI6
aI4
aa(lp75
I1
aI6
aI5
aI2
aasg18
(lp76
(dp77
g21
VKALASHNIKOV
p78
sg23
V212x1
p79
sg25
I100
sg26
I1
sg27
I100
sa(dp80
g21
VATTEST
p81
sg23
V1x06x
p82
sg25
I92
sg26
I2
sg27
I91
sa(dp83
g21
VBOLISTER
p84
sg23
Vx2x5x
p85
sg25
I78
sg26
I3
sg27
I80
sa(dp86
g21
VCHIVERS
p87
sg23
V0119x
p88
sg25
I83
sg26
I4
sg27
I82
sa(dp89
g21
VPADDY'S POEM
p90
sg23
V28x3x
p91
sg25
I85
sg26
I5
sg27
I87
sa(dp92
g21
VENVOYE SPECIAL
p93
sg23
V62x2x
p94
sg25
I97
sg26
I6
sg27
I98
sasg61
(lp95
sssI1543839300
(dp96
g2
Vhttp://www.skyracing.com.au/index.php?component=racing&task=race&id=108396095&meetingid=107744935&Itemid=89
p97
sg4
V29034705.1215
p98
sg6
(dp99
g8
(lp100
(lp101
I1
aI4
aI2
aI5
aa(lp102
I2
aI5
aI4
aI1
aa(lp103
I2
aI4
aI5
aI3
aa(lp104
I4
aI2
aI5
aI1
aa(lp105
I5
aI4
aI1
aI2
aa(lp106
I1
aI4
aI2
aI5
aa(lp107
I1
aI4
aI2
aI5
aa(lp108
I4
aI2
aI5
aI1
aasg18
(lp109
(dp110
g21
VCONSTANCIO
p111
sg23
Vx121x
p112
sg25
I100
sg26
I1
sg27
I100
sa(dp113
g21
VKENSUKES KINGDOM
p114
sg23
V1x1x6
p115
sg25
I92
sg26
I2
sg27
I93
sa(dp116
g21
VSMART PACO
p117
sg23
V00x9
p118
sg25
I83
sg26
I3
sg27
I81
sa(dp119
g21
VTOR
p120
sg23
V134x6
p121
sg25
I95
sg26
I4
sg27
I99
sa(dp122
g21
VCHARLIE'S LASS
p123
sg23
V30
p124
sg25
I89
sg26
I5
sg27
I85
sasg61
(lp125
sssI1543842900
(dp126
g2
Vhttp://www.skyracing.com.au/index.php?component=racing&task=race&id=108396097&meetingid=107744935&Itemid=89
p127
sg4
V29034705.1315
p128
sg6
(dp129
g8
(lp130
(lp131
I5
aI1
aI4
aI6
aa(lp132
I1
aI4
aI6
aI8
aa(lp133
I1
aI4
aI3
aI9
aa(lp134
I1
aI4
aI8
aI6
aa(lp135
I8
aI4
aI5
aI1
aa(lp136
I5
aI1
aI4
aI6
aa(lp137
I1
aI4
aI5
aI2
aa(lp138
I1
aI4
aI5
aI8
aasg18
(lp139
(dp140
g21
VSIMONE
p141
sg23
Vx03x4
p142
sg25
I100
sg26
I1
sg27
I96
sa(dp143
g21
VTHOMAS TODD
p144
sg23
V0156x
p145
sg25
I89
sg26
I2
sg27
I80
sa(dp146
g21
VLEFT BACK
p147
sg23
V123x6
p148
sg25
I79
sg26
I3
sg27
I74
sa(dp149
g21
VLADY LONDON
p150
sg23
V55424
p151
sg25
I93
sg26
I4
sg27
I94
sa(dp152
g21
VCOURT BALOO
p153
sg23
V29752
p154
sg25
I99
sg26
I5
sg27
I100
sa(dp155
g21
VCOURT PAINTER
p156
sg23
V6426x
p157
sg25
I84
sg26
I6
sg27
I89
sa(dp158
g21
VMISSION TRIO
p159
sg23
V2x77x
p160
sg25
I76
sg26
I7
sg27
I83
sa(dp161
g21
VJACKOFHEARTS
p162
sg23
V20x8x
p163
sg25
I64
sg26
I8
sg27
I68
sa(dp164
g21
VTOP CAT DJ
p165
sg23
V4x466
p166
sg25
I69
sg26
I9
sg27
I70
sasg61
(lp167
sssI1543840200
(dp168
g2
Vhttp://www.skyracing.com.au/index.php?component=racing&task=race&id=108396110&meetingid=107744951&Itemid=89
p169
sg4
V29034704.1230
p170
sg6
(dp171
g8
(lp172
(lp173
I1
aI2
aI8
aI6
aa(lp174
I1
aI8
aI2
aI4
aa(lp175
I1
aI8
aI2
aI4
aa(lp176
I1
aI2
aI4
aI13
aa(lp177
I1
aI2
aI8
aI13
aa(lp178
I1
aI2
aI7
aI8
aa(lp179
I1
aI8
aI2
aI6
aa(lp180
I1
aI2
aI8
aI4
aasg18
(lp181
(dp182
g21
VACEY MILAN
p183
sg23
V114x2
p184
sg25
I100
sg26
I1
sg27
I100
sa(dp185
g21
VBREAKING WAVES
p186
sg23
V1x3
p187
sg25
I97
sg26
I2
sg27
I97
sa(dp188
g21
VCOASTAL DRIFT
p189
sg23
V7x5
p190
sg25
I85
sg26
I3
sg27
I84
sa(dp191
g21
VDUSKY HERCULES
p192
sg23
V7x5
p193
sg25
I79
sg26
I4
sg27
I80
sa(dp194
g21
VFIGHT FOR LOVE
p195
sg23
V5x55x
p196
sg25
I70
sg26
I5
sg27
I71
sa(dp197
g21
VFLY TO MARS
p198
sg23
V6x
p199
sg25
I92
sg26
I6
sg27
I92
sa(dp200
g21
VHIGH UP IN THE AIR
p201
sg23
V2x
p202
sg25
I88
sg26
I7
sg27
I88
sa(dp203
g21
VKAPDAD
p204
sg23
V32x20
p205
sg25
I95
sg26
I8
sg27
I94
sa(dp206
g21
VMAROCCHINO
p207
sg23
V7x6x7
p208
sg25
I70
sg26
I9
sg27
I69
sa(dp209
g21
VPARSONAL
p210
sg23
V5353x
p211
sg25
I74
sg26
I10
sg27
I73
sa(dp212
g21
VPETE'S CHOICE
p213
sg23
Vx0x06
p214
sg25
I64
sg26
I11
sg27
I65
sa(dp215
g21
VSOARLIKEANEAGLE
p216
sg23
V3x1x4
p217
sg25
I81
sg26
I12
sg27
I77
sa(dp218
g21
VTHIRD WIND
p219
sg23
V30x
p220
sg25
I75
sg26
I13
sg27
I79
sasg61
(lp221
sssI1543848300
(dp222
g2
Vhttp://www.skyracing.com.au/index.php?component=racing&task=race&id=108396100&meetingid=107744935&Itemid=89
p223
sg4
V29034705.1445
p224
sg6
(dp225
g8
(lp226
(lp227
I2
aI1
aI3
aI6
aa(lp228
I3
aI2
aI6
aI5
aa(lp229
I2
aI5
aI4
aI1
aa(lp230
I2
aI5
aI1
aI4
aa(lp231
I6
aI2
aI5
aI4
aa(lp232
I2
aI1
aI3
aI6
aa(lp233
I2
aI1
aI3
aI6
aa(lp234
I2
aI1
aI5
aI3
aasg18
(lp235
(dp236
g21
VHENRY'S JOY
p237
sg23
V172x5
p238
sg25
I99
sg26
I1
sg27
I99
sa(dp239
g21
VCIVIL UNREST
p240
sg23
V1x222
p241
sg25
I100
sg26
I2
sg27
I100
sa(dp242
g21
VPRESENT FLIGHT
p243
sg23
V9x553
p244
sg25
I94
sg26
I3
sg27
I93
sa(dp245
g21
VJOHN WILLIAMS
p246
sg23
V47x35
p247
sg25
I84
sg26
I4
sg27
I82
sa(dp248
g21
VCOOL VALLEY
p249
sg23
V24424
p250
sg25
I80
sg26
I5
sg27
I80
sa(dp251
g21
VULIS DE VASSY
p252
sg23
V6x434
p253
sg25
I87
sg26
I6
sg27
I89
sasg61
(lp254
sssI1543841100
(dp255
g2
Vhttp://www.skyracing.com.au/index.php?component=racing&task=race&id=108396096&meetingid=107744935&Itemid=89
p256
sg4
V29034705.1245
p257
sg6
(dp258
g8
(lp259
(lp260
I4
aI1
aI2
aI5
aa(lp261
I1
aI4
aI2
aI5
aa(lp262
I1
aI5
aI2
aI3
aa(lp263
I4
aI1
aI2
aI5
aa(lp264
I4
aI1
aI2
aI5
aa(lp265
I4
aI2
aI1
aI5
aa(lp266
I1
aI4
aI2
aI5
aa(lp267
I4
aI1
aI2
aI5
aasg18
(lp268
(dp269
g21
VMORRAMAN
p270
sg23
V8x633
p271
sg25
I98
sg26
I1
sg27
I95
sa(dp272
g21
VSKYHILL
p273
sg23
V022x0
p274
sg25
I94
sg26
I2
sg27
I92
sa(dp275
g21
VTAB HOGARTH
p276
sg23
V508x
p277
sg25
I82
sg26
I3
sg27
I81
sa(dp278
g21
VTHE STEWARD
p279
sg23
V2322x
p280
sg25
I100
sg26
I4
sg27
I100
sa(dp281
g21
VGLENLORA
p282
sg23
V9x5
p283
sg25
I86
sg26
I5
sg27
I86
sasg61
(lp284
sssI1543849200
(dp285
g2
Vhttp://www.skyracing.com.au/index.php?component=racing&task=race&id=108396115&meetingid=107744951&Itemid=89
p286
sg4
V29034704.1500
p287
sg6
(dp288
g8
(lp289
(lp290
I8
aI5
aI4
aI10
aa(lp291
I6
aI5
aI10
aI7
aa(lp292
I14
aI5
aI8
aI2
aa(lp293
I6
aI10
aI2
aI14
aa(lp294
I14
aI6
aI10
aI5
aa(lp295
I8
aI5
aI4
aI10
aa(lp296
I4
aI5
aI3
aI10
aa(lp297
I5
aI6
aI8
aI10
aasg18
(lp298
(dp299
g21
VMULTIGIFTED
p300
sg23
Vx0800
p301
sg25
I79
sg26
I1
sg27
I71
sa(dp302
g21
VSEAWEED
p303
sg23
Vx70x4
p304
sg25
I76
sg26
I2
sg27
I85
sa(dp305
g21
VCASSIVELLAUNUS
p306
sg23
V1x00x
p307
sg25
I93
sg26
I3
sg27
I82
sa(dp308
g21
VGENEROUS JACK
p309
sg23
V73x3x
p310
sg25
I100
sg26
I4
sg27
I95
sa(dp311
g21
VHIGHWAY STAR
p312
sg23
V26372
p313
sg25
I97
sg26
I5
sg27
I98
sa(dp314
g21
VDREAM BAIE
p315
sg23
V306x5
p316
sg25
I70
sg26
I6
sg27
I75
sa(dp317
g21
VLEGEND OF FRANCE
p318
sg23
V8998x
p319
sg25
I65
sg26
I7
sg27
I62
sa(dp320
g21
VGOLDEN CANNON
p321
sg23
V50x41
p322
sg25
I90
sg26
I8
sg27
I100
sa(dp323
g21
VLANDSCAPE
p324
sg23
V83x60
p325
sg25
I85
sg26
I9
sg27
I87
sa(dp326
g21
VBROTHER BENNETT
p327
sg23
V10x52
p328
sg25
I89
sg26
I10
sg27
I90
sa(dp329
g21
VKASTANI BEACH
p330
sg23
V5536x
p331
sg25
I81
sg26
I11
sg27
I79
sa(dp332
g21
VSHALAMZAR
p333
sg23
V94565
p334
sg25
I74
sg26
I12
sg27
I68
sa(dp335
g21
VREMEMBER ME WELL
p336
sg23
V087x0
p337
sg25
I62
sg26
I13
sg27
I66
sa(dp338
g21
VMICQUUS
p339
sg23
V407x3
p340
sg25
I70
sg26
I14
sg27
I73
sasg61
(lp341
sssI1543847400
(dp342
g2
Vhttp://www.skyracing.com.au/index.php?component=racing&task=race&id=108396114&meetingid=107744951&Itemid=89
p343
sg4
V29034704.1430
p344
sg6
(dp345
g8
(lp346
(lp347
I3
aI6
aI4
aI2
aa(lp348
I6
aI8
aI2
aI1
aa(lp349
I2
aI3
aI4
aI5
aa(lp350
I2
aI1
aI4
aI6
aa(lp351
I6
aI8
aI1
aI2
aa(lp352
I3
aI6
aI2
aI4
aa(lp353
I3
aI6
aI1
aI2
aa(lp354
I6
aI2
aI3
aI4
aasg18
(lp355
(dp356
g21
VSONOFTHEKING
p357
sg23
V2x44x
p358
sg25
I93
sg26
I1
sg27
I72
sa(dp359
g21
VCABRAGH
p360
sg23
Vx68x5
p361
sg25
I84
sg26
I2
sg27
I88
sa(dp362
g21
VCHEQUE EN BLANC
p363
sg23
V20x61
p364
sg25
I100
sg26
I3
sg27
I100
sa(dp365
g21
VSARTORIAL ELEGANCE
p366
sg23
V43x56
p367
sg25
I86
sg26
I4
sg27
I90
sa(dp368
g21
VCLONDAW BISTO
p369
sg23
V39x24
p370
sg25
I72
sg26
I5
sg27
I76
sa(dp371
g21
VCADEAU DU BRESIL
p372
sg23
V1343x
p373
sg25
I99
sg26
I6
sg27
I97
sa(dp374
g21
VUMBERTO D'OLIVATE
p375
sg23
V0x3x9
p376
sg25
I74
sg26
I7
sg27
I62
sa(dp377
g21
VINVICTA LAKE
p378
sg23
V75x08
p379
sg25
I60
sg26
I8
sg27
I68
sa(dp380
g21
VTHE TIN MINER
p381
sg23
V4x6x3
p382
sg25
I78
sg26
I9
sg27
I84
sa(dp383
g21
VBURGESS DREAM
p384
sg23
V3381x
p385
sg25
I65
sg26
I10
sg27
I80
sasg61
(lp386
sssI1543850100
(dp387
g2
Vhttp://www.skyracing.com.au/index.php?component=racing&task=race&id=108396101&meetingid=107744935&Itemid=89
p388
sg4
V29034705.1515
p389
sg6
(dp390
g8
(lp391
(lp392
I3
aI2
aI4
aI1
aa(lp393
I3
aI2
aI4
aI1
aa(lp394
I3
aI4
aI1
aI2
aa(lp395
I3
aI2
aI4
aI1
aa(lp396
I3
aI2
aI4
aI1
aa(lp397
I2
aI3
aI4
aI1
aa(lp398
I3
aI2
aI4
aI1
aa(lp399
I3
aI2
aI4
aI1
aasg18
(lp400
(dp401
g21
VGOLD FIELDS
p402
sg23
V0x54
p403
sg25
I89
sg26
I1
sg27
I84
sa(dp404
g21
VLEATHER BELLY
p405
sg23
V2x
p406
sg25
I96
sg26
I2
sg27
I95
sa(dp407
g21
VWEAPONS OUT
p408
sg23
V3
p409
sg25
I100
sg26
I3
sg27
I100
sa(dp410
g21
VYES NO MAYBE SO
p411
sg23
V3
p412
sg25
I93
sg26
I4
sg27
I88
sasg61
(lp413
sssI1543844700
(dp414
g2
Vhttp://www.skyracing.com.au/index.php?component=racing&task=race&id=108396098&meetingid=107744935&Itemid=89
p415
sg4
V29034705.1345
p416
sg6
(dp417
g8
(lp418
(lp419
I10
aI2
aI4
aI7
aa(lp420
I1
aI7
aI11
aI2
aa(lp421
I2
aI7
aI6
aI10
aa(lp422
I1
aI3
aI11
aI5
aa(lp423
I1
aI4
aI7
aI10
aa(lp424
I10
aI2
aI7
aI4
aa(lp425
I4
aI10
aI3
aI2
aa(lp426
I1
aI2
aI7
aI10
aasg18
(lp427
(dp428
g21
VTHEPENSIONFUND
p429
sg23
V3x450
p430
sg25
I84
sg26
I1
sg27
I88
sa(dp431
g21
VSPIN THE COIN
p432
sg23
V496x0
p433
sg25
I94
sg26
I2
sg27
I99
sa(dp434
g21
VDANCE OF FIRE
p435
sg23
Vx600x
p436
sg25
I92
sg26
I3
sg27
I84
sa(dp437
g21
VSMART RULER
p438
sg23
V66337
p439
sg25
I99
sg26
I4
sg27
I94
sa(dp440
g21
VSCRIPTURIENT
p441
sg23
V7x7x9
p442
sg25
I81
sg26
I5
sg27
I73
sa(dp443
g21
VJACKHAMMER
p444
sg23
V66254
p445
sg25
I79
sg26
I6
sg27
I81
sa(dp446
g21
VLIFE KNOWLEDGE
p447
sg23
V79418
p448
sg25
I89
sg26
I7
sg27
I91
sa(dp449
g21
VHELLAVASHOCK
p450
sg23
V77370
p451
sg25
I72
sg26
I8
sg27
I71
sa(dp452
g21
VPAINTERS LAD
p453
sg23
V5x8x0
p454
sg25
I73
sg26
I9
sg27
I77
sa(dp455
g21
VRIOJA DAY
p456
sg23
V06071
p457
sg25
I100
sg26
I10
sg27
I100
sa(dp458
g21
VRAPID FRITZ
p459
sg23
V58x00
p460
sg25
I77
sg26
I11
sg27
I79
sasg61
(lp461
sssI1543851000
(dp462
g2
Vhttp://www.skyracing.com.au/index.php?component=racing&task=race&id=108396116&meetingid=107744951&Itemid=89
p463
sg4
V29034704.1530
p464
sg6
(dp465
g8
(lp466
(lp467
I5
aI11
aI3
aI9
aa(lp468
I9
aI8
aI5
aI3
aa(lp469
I9
aI8
aI2
aI1
aa(lp470
I9
aI5
aI8
aI3
aa(lp471
I5
aI9
aI11
aI3
aa(lp472
I3
aI5
aI11
aI9
aa(lp473
I5
aI11
aI3
aI9
aa(lp474
I9
aI5
aI3
aI8
aasg18
(lp475
(dp476
g21
VCARRICK ROADS
p477
sg23
V80x
p478
sg25
I80
sg26
I1
sg27
I73
sa(dp479
g21
VCLONDAW ROBIN
p480
sg23
V605x8
p481
sg25
I71
sg26
I2
sg27
I60
sa(dp482
g21
VDEBESTYMAN
p483
sg23
V51x
p484
sg25
I94
sg26
I3
sg27
I86
sa(dp485
g21
VDOWNE MILKING LANE
p486
sg23
V
p487
sg25
I74
sg26
I4
sg27
I0
sa(dp488
g21
VEDEN DU HOUX
p489
sg23
V1x
p490
sg25
I100
sg26
I5
sg27
I100
sa(dp491
g21
VLITTLE VERN
p492
sg23
V0x
p493
sg25
I86
sg26
I6
sg27
I75
sa(dp494
g21
VNESSFIELD BLUE
p495
sg23
g487
sg25
I75
sg26
I7
sg27
I0
sa(dp496
g21
VOFFICERNISI
p497
sg23
V0x7
p498
sg25
I78
sg26
I8
sg27
I68
sa(dp499
g21
VON THE SLOPES
p500
sg23
V030x3
p501
sg25
I92
sg26
I9
sg27
I85
sa(dp502
g21
VSOLAR GLORY
p503
sg23
V5x
p504
sg25
I89
sg26
I10
sg27
I80
sa(dp505
g21
VESCORT'NAMIX
p506
sg23
V0x1x
p507
sg25
I97
sg26
I11
sg27
I96
sasg61
(lp508
sssI1543853700
(dp509
g2
Vhttp://www.skyracing.com.au/index.php?component=racing&task=race&id=108396171&meetingid=107744967&Itemid=89
p510
sg4
V29034700.1615
p511
sg6
(dp512
g8
(lp513
(lp514
I1
aI2
aI3
aI4
aa(lp515
I2
aI3
aI1
aI5
aa(lp516
I1
aI2
aI3
aI5
aa(lp517
I4
aI1
aI6
aI3
aa(lp518
I2
aI1
aI4
aI6
aa(lp519
I1
aI2
aI3
aI6
aa(lp520
I2
aI1
aI3
aI4
aa(lp521
I1
aI2
aI3
aI4
aasg18
(lp522
(dp523
g21
VTONI'S A STAR
p524
sg23
V52521
p525
sg25
I100
sg26
I1
sg27
I100
sa(dp526
g21
VZIPEDEEDODAH
p527
sg23
V99x45
p528
sg25
I98
sg26
I2
sg27
I96
sa(dp529
g21
VFOXY BOY
p530
sg23
V695x5
p531
sg25
I94
sg26
I3
sg27
I90
sa(dp532
g21
VLITTLE MISS LOLA
p533
sg23
V352x0
p534
sg25
I87
sg26
I4
sg27
I86
sa(dp535
g21
VSHESTHEDREAM
p536
sg23
Vx0803
p537
sg25
I84
sg26
I5
sg27
I79
sa(dp538
g21
VSTOPDWORLDNLETMEOF
p539
sg23
V35x04
p540
sg25
I80
sg26
I6
sg27
I83
sa(dp541
g21
VMYSTERIOUS GLANCE
p542
sg23
Vx00x8
p543
sg25
I73
sg26
I7
sg27
I69
sa(dp544
g21
VHORNBY
p545
sg23
V559x9
p546
sg25
I69
sg26
I8
sg27
I75
sa(dp547
g21
VBARNSDALE
p548
sg23
V0x798
p549
sg25
I67
sg26
I9
sg27
I63
sa(dp550
g21
VGO CHARLIE
p551
sg23
V600x0
p552
sg25
I61
sg26
I10
sg27
I61
sasg61
(lp553
sssI1543843800
(dp554
g2
Vhttp://www.skyracing.com.au/index.php?component=racing&task=race&id=108396112&meetingid=107744951&Itemid=89
p555
sg4
V29034704.1330
p556
sg6
(dp557
g8
(lp558
(lp559
I2
aI5
aI1
aI4
aa(lp560
I5
aI2
aI4
aI3
aa(lp561
I5
aI6
aI3
aI1
aa(lp562
I1
aI5
aI2
aI6
aa(lp563
I5
aI2
aI4
aI3
aa(lp564
I2
aI5
aI1
aI4
aa(lp565
I1
aI2
aI4
aI5
aa(lp566
I5
aI2
aI1
aI4
aasg18
(lp567
(dp568
g21
VWISHICOULD
p569
sg23
V3212x
p570
sg25
I98
sg26
I1
sg27
I91
sa(dp571
g21
VBANG BANG ROSIE
p572
sg23
V2342x
p573
sg25
I100
sg26
I2
sg27
I100
sa(dp574
g21
VOSCAR STAR
p575
sg23
V373x6
p576
sg25
I79
sg26
I3
sg27
I84
sa(dp577
g21
VJULLY LES BUXY
p578
sg23
V5310x
p579
sg25
I88
sg26
I4
sg27
I86
sa(dp580
g21
VROYAL CLARET
p581
sg23
Vx13x2
p582
sg25
I94
sg26
I5
sg27
I99
sa(dp583
g21
VSNIPPETYDOODAH
p584
sg23
V7x1x4
p585
sg25
I81
sg26
I6
sg27
I80
sasg61
(lp586
sssI1543851900
(dp587
g2
Vhttp://www.skyracing.com.au/index.php?component=racing&task=race&id=108396170&meetingid=107744967&Itemid=89
p588
sg4
V29034700.1545
p589
sg6
(dp590
g8
(lp591
(lp592
I1
aI3
aI4
aI2
aa(lp593
I3
aI6
aI1
aI5
aa(lp594
I1
aI3
aI2
aI4
aa(lp595
I2
aI1
aI3
aI5
aa(lp596
I3
aI2
aI4
aI5
aa(lp597
I3
aI1
aI4
aI9
aa(lp598
I1
aI3
aI4
aI9
aa(lp599
I3
aI1
aI2
aI4
aasg18
(lp600
(dp601
g21
VSOCIAL BUTTERFLY
p602
sg23
V17621
p603
sg25
I100
sg26
I1
sg27
I100
sa(dp604
g21
VDEMONS AND WIZARDS
p605
sg23
V00906
p606
sg25
I85
sg26
I2
sg27
I91
sa(dp607
g21
VRED STRIPES
p608
sg23
V33822
p609
sg25
I97
sg26
I3
sg27
I97
sa(dp610
g21
VSTORM LIGHTNING
p611
sg23
V19016
p612
sg25
I93
sg26
I4
sg27
I92
sa(dp613
g21
VSIENNA SAYS
p614
sg23
V34850
p615
sg25
I82
sg26
I5
sg27
I81
sa(dp616
g21
VTEEPEE TIME
p617
sg23
V4x760
p618
sg25
I89
sg26
I6
sg27
I75
sa(dp619
g21
VENCODED
p620
sg23
V37047
p621
sg25
I76
sg26
I7
sg27
I78
sa(dp622
g21
VCELERITY
p623
sg23
V88800
p624
sg25
I74
sg26
I8
sg27
I70
sa(dp625
g21
VSTORM TROOPER
p626
sg23
V70682
p627
sg25
I90
sg26
I9
sg27
I87
sa(dp628
g21
VBLUELLA
p629
sg23
V948x4
p630
sg25
I78
sg26
I10
sg27
I85
sa(dp631
g21
VTRULOVE
p632
sg23
V84807
p633
sg25
I71
sg26
I11
sg27
I72
sasg61
(lp634
sssI1543846500
(dp635
g2
Vhttp://www.skyracing.com.au/index.php?component=racing&task=race&id=108396099&meetingid=107744935&Itemid=89
p636
sg4
V29034705.1415
p637
sg6
(dp638
g8
(lp639
(lp640
I3
aI1
aI5
aI4
aa(lp641
I1
aI3
aI6
aI4
aa(lp642
I1
aI3
aI5
aI4
aa(lp643
I1
aI3
aI4
aI2
aa(lp644
I1
aI6
aI5
aI4
aa(lp645
I1
aI3
aI5
aI2
aa(lp646
I3
aI5
aI1
aI4
aa(lp647
I1
aI3
aI5
aI4
aasg18
(lp648
(dp649
g21
VNENDRUM
p650
sg23
V22x34
p651
sg25
I96
sg26
I1
sg27
I95
sa(dp652
g21
VSINGLE ESTATE
p653
sg23
V5653x
p654
sg25
I80
sg26
I2
sg27
I80
sa(dp655
g21
VCOME ON CHARLIE
p656
sg23
V030x1
p657
sg25
I100
sg26
I3
sg27
I100
sa(dp658
g21
VPATIENCE TONY
p659
sg23
Vx63x5
p660
sg25
I85
sg26
I4
sg27
I86
sa(dp661
g21
VURBAN KODE
p662
sg23
V64463
p663
sg25
I91
sg26
I5
sg27
I91
sa(dp664
g21
VSIERRA OSCAR
p665
sg23
V6776x
p666
sg25
I81
sg26
I6
sg27
I79
sasg61
(lp667
sss.