(dp0
I1543245600
(dp1
S'skyracing_url'
p2
Vhttp://www.skyracing.com.au/index.php?component=racing&task=race&id=108176934&meetingid=107314071&Itemid=89
p3
sS'betfair_raceid'
p4
V29025956.1520
p5
sS'dat2'
p6
(dp7
S'ratings_auto'
p8
(lp9
(lp10
I3
aI2
aI1
aI4
aa(lp11
I1
aI3
aI2
aI4
aa(lp12
I3
aI1
aI2
aI4
aa(lp13
I3
aI2
aI1
aI4
aa(lp14
I2
aI1
aI3
aI4
aa(lp15
I1
aI3
aI2
aI4
aa(lp16
I3
aI1
aI2
aI4
aa(lp17
I3
aI1
aI2
aI4
aasS'horse_details'
p18
(lp19
(dp20
S'horse_name'
p21
VPRIME VENTURE
p22
sS'horse_form'
p23
V60x67
p24
sS'rating_2'
p25
I93
sS'horse_number'
p26
I1
sS'rating_1'
p27
I91
sa(dp28
g21
VPSYCHEDELIC ROCK
p29
sg23
V2414x
p30
sg25
I99
sg26
I2
sg27
I97
sa(dp31
g21
VTHOMAS CAMPBELL
p32
sg23
V600x4
p33
sg25
I100
sg26
I3
sg27
I100
sa(dp34
g21
VGOODGIRLTERESA
p35
sg23
V7487x
p36
sg25
I86
sg26
I4
sg27
I83
sasS'ratings_manual'
p37
(lp38
sssI1543246800
(dp39
g2
Vhttp://www.skyracing.com.au/index.php?component=racing&task=race&id=108176964&meetingid=107314087&Itemid=89
p40
sg4
V29025958.1540
p41
sg6
(dp42
g8
(lp43
(lp44
I2
aI1
aI6
aI3
aa(lp45
I1
aI3
aI6
aI4
aa(lp46
I6
aI3
aI2
aI5
aa(lp47
I1
aI4
aI6
aI3
aa(lp48
I3
aI1
aI5
aI6
aa(lp49
I2
aI1
aI6
aI3
aa(lp50
I2
aI1
aI3
aI6
aa(lp51
I1
aI6
aI3
aI2
aasg18
(lp52
(dp53
g21
VSAO
p54
sg23
Vx242x
p55
sg25
I97
sg26
I1
sg27
I96
sa(dp56
g21
VNYLON SPEED
p57
sg23
V3x112
p58
sg25
I100
sg26
I2
sg27
I100
sa(dp59
g21
VMICK MAESTRO
p60
sg23
V134x2
p61
sg25
I94
sg26
I3
sg27
I85
sa(dp62
g21
VBROUGHTONS ADMIRAL
p63
sg23
V4415x
p64
sg25
I77
sg26
I4
sg27
I73
sa(dp65
g21
VMONDAY CLUB
p66
sg23
V31332
p67
sg25
I80
sg26
I5
sg27
I83
sa(dp68
g21
VFAIRWAY FREDDY
p69
sg23
Vx9x51
p70
sg25
I89
sg26
I6
sg27
I91
sa(dp71
g21
VDESIREMOI D'AUTHIE
p72
sg23
V55x20
p73
sg25
I81
sg26
I7
sg27
I78
sasg37
(lp74
sssI1543236900
(dp75
g2
Vhttp://www.skyracing.com.au/index.php?component=racing&task=race&id=108176959&meetingid=107314087&Itemid=89
p76
sg4
V29025958.1255
p77
sg6
(dp78
g8
(lp79
(lp80
I3
aI1
aI2
aa(lp81
I1
aI3
aI2
aa(lp82
I1
aI2
aI3
aa(lp83
I1
aI3
aI2
aa(lp84
I1
aI3
aI2
aa(lp85
I3
aI1
aI2
aa(lp86
I3
aI1
aI2
aa(lp87
I1
aI3
aI2
aasg18
(lp88
(dp89
g21
VCROOKS PEAK
p90
sg23
Vx0x41
p91
sg25
I96
sg26
I1
sg27
I98
sa(dp92
g21
VBADDESLEY PRINCE
p93
sg23
V5x8
p94
sg25
I94
sg26
I2
sg27
I93
sa(dp95
g21
VDANNY KIRWAN
p96
sg23
V1x10x
p97
sg25
I100
sg26
I3
sg27
I100
sasg37
(lp98
sssI1543242300
(dp99
g2
Vhttp://www.skyracing.com.au/index.php?component=racing&task=race&id=108176947&meetingid=107314103&Itemid=89
p100
sg4
V29025957.1425
p101
sg6
(dp102
g8
(lp103
(lp104
I6
aI1
aI9
aI4
aa(lp105
I2
aI4
aI1
aI3
aa(lp106
I3
aI1
aI5
aI7
aa(lp107
I4
aI1
aI3
aI8
aa(lp108
I3
aI4
aI2
aI8
aa(lp109
I6
aI1
aI4
aI9
aa(lp110
I1
aI6
aI2
aI9
aa(lp111
I1
aI4
aI3
aI6
aasg18
(lp112
(dp113
g21
VVAL MOME
p114
sg23
V22517
p115
sg25
I100
sg26
I1
sg27
I95
sa(dp116
g21
VMAX LIEBERMANN
p117
sg23
V47656
p118
sg25
I81
sg26
I2
sg27
I84
sa(dp119
g21
VAN FEAR CIUIN
p120
sg23
V29155
p121
sg25
I90
sg26
I3
sg27
I78
sa(dp122
g21
VICEFALL
p123
sg23
V32348
p124
sg25
I78
sg26
I4
sg27
I87
sa(dp125
g21
VBAGAN
p126
sg23
V47434
p127
sg25
I70
sg26
I5
sg27
I72
sa(dp128
g21
VOUTCROP
p129
sg23
V59031
p130
sg25
I99
sg26
I6
sg27
I100
sa(dp131
g21
VBALLYNANTY
p132
sg23
V006x5
p133
sg25
I73
sg26
I7
sg27
I74
sa(dp134
g21
VASTUTE BOY
p135
sg23
V75248
p136
sg25
I64
sg26
I8
sg27
I66
sa(dp137
g21
VRICHARD STRAUSS
p138
sg23
V33441
p139
sg25
I88
sg26
I9
sg27
I90
sasg37
(lp140
sssI1543245000
(dp141
g2
Vhttp://www.skyracing.com.au/index.php?component=racing&task=race&id=108176963&meetingid=107314087&Itemid=89
p142
sg4
V29025958.1510
p143
sg6
(dp144
g8
(lp145
(lp146
I1
aI7
aI5
aI3
aa(lp147
I2
aI7
aI1
aI10
aa(lp148
I10
aI1
aI6
aI7
aa(lp149
I2
aI10
aI7
aI1
aa(lp150
I7
aI1
aI10
aI8
aa(lp151
I7
aI1
aI5
aI3
aa(lp152
I5
aI1
aI7
aI10
aa(lp153
I7
aI1
aI10
aI2
aasg18
(lp154
(dp155
g21
VNO HIDING PLACE
p156
sg23
V68232
p157
sg25
I97
sg26
I1
sg27
I100
sa(dp158
g21
VVOLT FACE
p159
sg23
V053x0
p160
sg25
I61
sg26
I2
sg27
I64
sa(dp161
g21
VFROZEN FLAME
p162
sg23
V431x8
p163
sg25
I77
sg26
I3
sg27
I84
sa(dp164
g21
VMUTHABIR
p165
sg23
V0548x
p166
sg25
I79
sg26
I4
sg27
I67
sa(dp167
g21
VTHE DRONE
p168
sg23
V1x2x3
p169
sg25
I100
sg26
I5
sg27
I90
sa(dp170
g21
VQUERRY HORSE
p171
sg23
Vx56x4
p172
sg25
I81
sg26
I6
sg27
I69
sa(dp173
g21
VIT'S GOT LEGS
p174
sg23
V33x32
p175
sg25
I93
sg26
I7
sg27
I94
sa(dp176
g21
VGRANARD
p177
sg23
V14x87
p178
sg25
I72
sg26
I8
sg27
I74
sa(dp179
g21
VVERY EXTRAVAGANT
p180
sg23
V5x77x
p181
sg25
I64
sg26
I9
sg27
I56
sa(dp182
g21
VPLANTAGENET
p183
sg23
V49x32
p184
sg25
I86
sg26
I10
sg27
I77
sasg37
(lp185
sssI1543241100
(dp186
g2
Vhttp://www.skyracing.com.au/index.php?component=racing&task=race&id=108176961&meetingid=107314087&Itemid=89
p187
sg4
V29025958.1405
p188
sg6
(dp189
g8
(lp190
(lp191
I3
aI2
aI1
aI4
aa(lp192
I2
aI4
aI1
aI3
aa(lp193
I2
aI3
aI4
aI1
aa(lp194
I3
aI2
aI1
aI4
aa(lp195
I2
aI3
aI1
aI4
aa(lp196
I1
aI3
aI2
aI4
aa(lp197
I3
aI2
aI1
aI4
aa(lp198
I2
aI3
aI1
aI4
aasg18
(lp199
(dp200
g21
VCULTURE DE SIVOLA
p201
sg23
V7311x
p202
sg25
I90
sg26
I1
sg27
I91
sa(dp203
g21
VIF YOU SAY RUN
p204
sg23
V220x1
p205
sg25
I95
sg26
I2
sg27
I95
sa(dp206
g21
VMIA'S STORM
p207
sg23
V7x5x1
p208
sg25
I100
sg26
I3
sg27
I100
sa(dp209
g21
VWHATZDJAZZ
p210
sg23
V236x6
p211
sg25
I85
sg26
I4
sg27
I86
sasg37
(lp212
sssI1543235400
(dp213
g2
Vhttp://www.skyracing.com.au/index.php?component=racing&task=race&id=108176929&meetingid=107314071&Itemid=89
p214
sg4
V29025956.1230
p215
sg6
(dp216
g8
(lp217
(lp218
I8
aI5
aI7
aI6
aa(lp219
I5
aI7
aI3
aI8
aa(lp220
I8
aI9
aI3
aI7
aa(lp221
I5
aI7
aI3
aI10
aa(lp222
I5
aI7
aI8
aI4
aa(lp223
I5
aI8
aI7
aI6
aa(lp224
I8
aI5
aI7
aI1
aa(lp225
I5
aI8
aI7
aI3
aasg18
(lp226
(dp227
g21
VBONJOUR STEVE
p228
sg23
V87x05
p229
sg25
I79
sg26
I1
sg27
I70
sa(dp230
g21
VCOURT IN MATERA
p231
sg23
V20x05
p232
sg25
I61
sg26
I2
sg27
I60
sa(dp233
g21
VELITE GARDE
p234
sg23
V40x0
p235
sg25
I70
sg26
I3
sg27
I72
sa(dp236
g21
VESPALION
p237
sg23
V555x
p238
sg25
I82
sg26
I4
sg27
I82
sa(dp239
g21
VFINALSHOT
p240
sg23
V2x6x
p241
sg25
I96
sg26
I5
sg27
I94
sa(dp242
g21
VFORESEE
p243
sg23
V13075
p244
sg25
I90
sg26
I6
sg27
I84
sa(dp245
g21
VKHANISARI
p246
sg23
V2x04
p247
sg25
I88
sg26
I7
sg27
I91
sa(dp248
g21
VNORTHERN BOUND
p249
sg23
V2x9
p250
sg25
I100
sg26
I8
sg27
I100
sa(dp251
g21
VRAISE YOUR SHADES
p252
sg23
V3x678
p253
sg25
I65
sg26
I9
sg27
I62
sa(dp254
g21
VSTORMY BLUES
p255
sg23
V0x5x5
p256
sg25
I73
sg26
I10
sg27
I78
sasg37
(lp257
sssI1543243500
(dp258
g2
Vhttp://www.skyracing.com.au/index.php?component=racing&task=race&id=108176933&meetingid=107314071&Itemid=89
p259
sg4
V29025956.1445
p260
sg6
(dp261
g8
(lp262
(lp263
I4
aI1
aI6
aI5
aa(lp264
I1
aI5
aI6
aI4
aa(lp265
I1
aI4
aI6
aI5
aa(lp266
I2
aI4
aI6
aI3
aa(lp267
I4
aI1
aI6
aI5
aa(lp268
I4
aI6
aI1
aI5
aa(lp269
I4
aI1
aI6
aI5
aa(lp270
I4
aI1
aI6
aI5
aasg18
(lp271
(dp272
g21
VDJIN CONTI
p273
sg23
V3x1x9
p274
sg25
I99
sg26
I1
sg27
I96
sa(dp275
g21
VPENNEYS HUN
p276
sg23
Vx8x7x
p277
sg25
I79
sg26
I2
sg27
I78
sa(dp278
g21
VGALLIC DESTINY
p279
sg23
Vx0x9x
p280
sg25
I83
sg26
I3
sg27
I81
sa(dp281
g21
VBURN BABY BYRNE
p282
sg23
V1x332
p283
sg25
I100
sg26
I4
sg27
I100
sa(dp284
g21
VWAY OUT WEST
p285
sg23
V61x00
p286
sg25
I85
sg26
I5
sg27
I88
sa(dp287
g21
VDANCEINTOTHELIGHT
p288
sg23
V33463
p289
sg25
I93
sg26
I6
sg27
I91
sasg37
(lp290
sssI1543236300
(dp291
g2
Vhttp://www.skyracing.com.au/index.php?component=racing&task=race&id=108176944&meetingid=107314103&Itemid=89
p292
sg4
V29025957.1245
p293
sg6
(dp294
g8
(lp295
(lp296
I2
aI13
aI1
aI9
aa(lp297
I2
aI1
aI4
aI6
aa(lp298
I2
aI8
aI13
aI5
aa(lp299
I2
aI4
aI6
aI8
aa(lp300
I2
aI9
aI13
aI11
aa(lp301
I13
aI2
aI1
aI3
aa(lp302
I4
aI2
aI3
aI11
aa(lp303
I2
aI13
aI1
aI4
aasg18
(lp304
(dp305
g21
VTRIANGLE ROCK
p306
sg23
V5845x
p307
sg25
I87
sg26
I1
sg27
I93
sa(dp308
g21
VERIC THE THIRD
p309
sg23
V21211
p310
sg25
I100
sg26
I2
sg27
I100
sa(dp311
g21
VSAMTU
p312
sg23
V55720
p313
sg25
I97
sg26
I3
sg27
I85
sa(dp314
g21
VFIELDS OF GLORY
p315
sg23
V8x0x0
p316
sg25
I93
sg26
I4
sg27
I76
sa(dp317
g21
VWALTZ DARLING
p318
sg23
Vx4809
p319
sg25
I76
sg26
I5
sg27
I72
sa(dp320
g21
VMOORES NOVELTY
p321
sg23
V0x04x
p322
sg25
I70
sg26
I6
sg27
I67
sa(dp323
g21
VDIGGIN DEEP
p324
sg23
Vx757x
p325
sg25
I74
sg26
I7
sg27
I73
sa(dp326
g21
VANDHAAR
p327
sg23
V38634
p328
sg25
I81
sg26
I8
sg27
I82
sa(dp329
g21
VST QUINTIN
p330
sg23
V0x6x3
p331
sg25
I78
sg26
I9
sg27
I89
sa(dp332
g21
VROYAL SUMMIT
p333
sg23
V00x8x
p334
sg25
I66
sg26
I10
sg27
I65
sa(dp335
g21
VPERSEID
p336
sg23
V34680
p337
sg25
I86
sg26
I11
sg27
I78
sa(dp338
g21
VCULLY MAC
p339
sg23
Vx6040
p340
sg25
I69
sg26
I12
sg27
I68
sa(dp341
g21
VSON OF FEYAN
p342
sg23
V0x442
p343
sg25
I91
sg26
I13
sg27
I97
sa(dp344
g21
VDUDETTE
p345
sg23
V0x090
p346
sg25
I62
sg26
I14
sg27
I61
sasg37
(lp347
sssI1543239600
(dp348
g2
Vhttp://www.skyracing.com.au/index.php?component=racing&task=race&id=108176931&meetingid=107314071&Itemid=89
p349
sg4
V29025956.1340
p350
sg6
(dp351
g8
(lp352
(lp353
I3
aI1
aI6
aI4
aa(lp354
I2
aI3
aI1
aI4
aa(lp355
I3
aI1
aI5
aI4
aa(lp356
I2
aI3
aI1
aI4
aa(lp357
I5
aI1
aI6
aI2
aa(lp358
I3
aI1
aI6
aI5
aa(lp359
I1
aI3
aI2
aI4
aa(lp360
I3
aI1
aI2
aI5
aasg18
(lp361
(dp362
g21
VTORNADO IN MILAN
p363
sg23
V411x2
p364
sg25
I97
sg26
I1
sg27
I97
sa(dp365
g21
VROBINSHILL
p366
sg23
V650x7
p367
sg25
I92
sg26
I2
sg27
I80
sa(dp368
g21
VSTERNRUBIN
p369
sg23
V30x16
p370
sg25
I100
sg26
I3
sg27
I100
sa(dp371
g21
VPOKER SCHOOL
p372
sg23
V235x9
p373
sg25
I85
sg26
I4
sg27
I88
sa(dp374
g21
VATLANTIC STORM
p375
sg23
V22315
p376
sg25
I78
sg26
I5
sg27
I83
sa(dp377
g21
VVIVACCIO
p378
sg23
V3345x
p379
sg25
I84
sg26
I6
sg27
I93
sasg37
(lp380
sssI1543247400
(dp381
g2
Vhttp://www.skyracing.com.au/index.php?component=racing&task=race&id=108176935&meetingid=107314071&Itemid=89
p382
sg4
V29025956.1550
p383
sg6
(dp384
g8
(lp385
(lp386
I5
aI1
aI4
aI3
aa(lp387
I2
aI3
aI6
aI1
aa(lp388
I1
aI8
aI3
aI5
aa(lp389
I1
aI2
aI3
aI4
aa(lp390
I6
aI2
aI4
aI3
aa(lp391
I4
aI3
aI5
aI1
aa(lp392
I5
aI1
aI2
aI4
aa(lp393
I1
aI3
aI2
aI4
aasg18
(lp394
(dp395
g21
VROCKALZARO
p396
sg23
V37355
p397
sg25
I98
sg26
I1
sg27
I97
sa(dp398
g21
VMARKET ROAD
p399
sg23
V54x09
p400
sg25
I91
sg26
I2
sg27
I83
sa(dp401
g21
VAGINCOURT REEF
p402
sg23
V0x563
p403
sg25
I86
sg26
I3
sg27
I88
sa(dp404
g21
VRED ADMIRABLE
p405
sg23
Vx174x
p406
sg25
I82
sg26
I4
sg27
I93
sa(dp407
g21
VRASASEE
p408
sg23
V57692
p409
sg25
I100
sg26
I5
sg27
I100
sa(dp410
g21
VCLASSULA
p411
sg23
V930x9
p412
sg25
I71
sg26
I6
sg27
I75
sa(dp413
g21
VARISTOCLES
p414
sg23
V78x7x
p415
sg25
I74
sg26
I7
sg27
I70
sa(dp416
g21
VDAMIER
p417
sg23
Vx4577
p418
sg25
I78
sg26
I8
sg27
I78
sasg37
(lp419
sssI1543238400
(dp420
g2
Vhttp://www.skyracing.com.au/index.php?component=racing&task=race&id=108176945&meetingid=107314103&Itemid=89
p421
sg4
V29025957.1320
p422
sg6
(dp423
g8
(lp424
(lp425
I2
aI4
aI7
aI8
aa(lp426
I7
aI8
aI3
aI4
aa(lp427
I7
aI8
aI1
aI6
aa(lp428
I2
aI7
aI8
aI1
aa(lp429
I7
aI4
aI6
aI5
aa(lp430
I4
aI2
aI7
aI8
aa(lp431
I2
aI7
aI4
aI3
aa(lp432
I7
aI2
aI4
aI8
aasg18
(lp433
(dp434
g21
VCHOUQUETTE
p435
sg23
Vx35x5
p436
sg25
I73
sg26
I1
sg27
I73
sa(dp437
g21
VCUCKOO'S CALLING
p438
sg23
Vx869x
p439
sg25
I100
sg26
I2
sg27
I100
sa(dp440
g21
VGOFFSBRIDGE GIRL
p441
sg23
V1x90x
p442
sg25
I86
sg26
I3
sg27
I77
sa(dp443
g21
VICONIC BELLE
p444
sg23
V1106x
p445
sg25
I94
sg26
I4
sg27
I94
sa(dp446
g21
VLASSANA ANGEL
p447
sg23
V38570
p448
sg25
I71
sg26
I5
sg27
I70
sa(dp449
g21
VROSEMAY
p450
sg23
V25423
p451
sg25
I79
sg26
I6
sg27
I81
sa(dp452
g21
VTOKARAMORE
p453
sg23
V37x02
p454
sg25
I97
sg26
I7
sg27
I92
sa(dp455
g21
VWEST COAST LASS
p456
sg23
V662x4
p457
sg25
I81
sg26
I8
sg27
I84
sasg37
(lp458
sssI1543242900
(dp459
g2
Vhttp://www.skyracing.com.au/index.php?component=racing&task=race&id=108176962&meetingid=107314087&Itemid=89
p460
sg4
V29025958.1435
p461
sg6
(dp462
g8
(lp463
(lp464
I8
aI1
aI2
aI4
aa(lp465
I1
aI5
aI2
aI3
aa(lp466
I2
aI1
aI5
aI8
aa(lp467
I3
aI2
aI4
aI1
aa(lp468
I2
aI5
aI8
aI1
aa(lp469
I1
aI8
aI4
aI2
aa(lp470
I2
aI8
aI1
aI4
aa(lp471
I1
aI2
aI8
aI5
aasg18
(lp472
(dp473
g21
VTOMMY SILVER
p474
sg23
V30x54
p475
sg25
I92
sg26
I1
sg27
I96
sa(dp476
g21
VSISTER SIBYL
p477
sg23
V121x2
p478
sg25
I99
sg26
I2
sg27
I91
sa(dp479
g21
VBESTWORK
p480
sg23
V31200
p481
sg25
I78
sg26
I3
sg27
I73
sa(dp482
g21
VOFFICER HOOLIHAN
p483
sg23
V14x3x
p484
sg25
I88
sg26
I4
sg27
I85
sa(dp485
g21
VDEAUVILLE DANCER
p486
sg23
V465x4
p487
sg25
I71
sg26
I5
sg27
I69
sa(dp488
g21
VWORKBENCH
p489
sg23
V22x46
p490
sg25
I76
sg26
I6
sg27
I81
sa(dp491
g21
VEYESOPENWIDEAWAKE
p492
sg23
Vx14x4
p493
sg25
I81
sg26
I7
sg27
I76
sa(dp494
g21
VROLL THE DOUGH
p495
sg23
Vx1141
p496
sg25
I100
sg26
I8
sg27
I100
sasg37
(lp497
sssI1543246200
(dp498
g2
Vhttp://www.skyracing.com.au/index.php?component=racing&task=race&id=108176949&meetingid=107314103&Itemid=89
p499
sg4
V29025957.1530
p500
sg6
(dp501
g8
(lp502
(lp503
I4
aI1
aI2
aI3
aa(lp504
I1
aI3
aI4
aI2
aa(lp505
I3
aI4
aI1
aI2
aa(lp506
I1
aI3
aI4
aI2
aa(lp507
I4
aI2
aI1
aI5
aa(lp508
I4
aI1
aI2
aI3
aa(lp509
I4
aI1
aI2
aI3
aa(lp510
I4
aI1
aI3
aI2
aasg18
(lp511
(dp512
g21
VALL HAIL CAESAR
p513
sg23
V8x0
p514
sg25
I98
sg26
I1
sg27
I96
sa(dp515
g21
VEXPRESS DES MOTTES
p516
sg23
V3x
p517
sg25
I90
sg26
I2
sg27
I91
sa(dp518
g21
VLOOK NOW
p519
sg23
V4x5
p520
sg25
I87
sg26
I3
sg27
I87
sa(dp521
g21
VGLORIOUS LADY
p522
sg23
V1x6
p523
sg25
I100
sg26
I4
sg27
I100
sa(dp524
g21
VJO CASHFLOW
p525
sg23
V
p526
sg25
I83
sg26
I5
sg27
I0
sasg37
(lp527
sssI1543240500
(dp528
g2
Vhttp://www.skyracing.com.au/index.php?component=racing&task=race&id=108176946&meetingid=107314103&Itemid=89
p529
sg4
V29025957.1355
p530
sg6
(dp531
g8
(lp532
(lp533
I4
aI5
aI2
aI1
aa(lp534
I1
aI6
aI4
aI7
aa(lp535
I1
aI6
aI4
aI7
aa(lp536
I1
aI7
aI3
aI6
aa(lp537
I1
aI7
aI6
aI5
aa(lp538
I4
aI2
aI1
aI5
aa(lp539
I4
aI1
aI5
aI2
aa(lp540
I1
aI4
aI6
aI7
aasg18
(lp541
(dp542
g21
VASUM
p543
sg23
V2x932
p544
sg25
I89
sg26
I1
sg27
I86
sa(dp545
g21
VELMONO
p546
sg23
V3223x
p547
sg25
I94
sg26
I2
sg27
I93
sa(dp548
g21
VGARDE FORESTIER
p549
sg23
V309x8
p550
sg25
I76
sg26
I3
sg27
I76
sa(dp551
g21
VBORN FOR WAR
p552
sg23
V22x34
p553
sg25
I97
sg26
I4
sg27
I100
sa(dp554
g21
VSOMETHING BREWING
p555
sg23
V13442
p556
sg25
I100
sg26
I5
sg27
I99
sa(dp557
g21
VBUCKLED
p558
sg23
V79x53
p559
sg25
I81
sg26
I6
sg27
I84
sa(dp560
g21
VRED OCHRE
p561
sg23
V22x52
p562
sg25
I78
sg26
I7
sg27
I78
sasg37
(lp563
sssI1543237500
(dp564
g2
Vhttp://www.skyracing.com.au/index.php?component=racing&task=race&id=108176930&meetingid=107314071&Itemid=89
p565
sg4
V29025956.1305
p566
sg6
(dp567
g8
(lp568
(lp569
I6
aI3
aI2
aI5
aa(lp570
I5
aI1
aI4
aI2
aa(lp571
I1
aI3
aI4
aI5
aa(lp572
I5
aI1
aI3
aI4
aa(lp573
I5
aI1
aI4
aI2
aa(lp574
I6
aI3
aI5
aI2
aa(lp575
I3
aI1
aI6
aI2
aa(lp576
I5
aI1
aI3
aI6
aasg18
(lp577
(dp578
g21
VMONSIEUR ARKADIN
p579
sg23
Vx8x33
p580
sg25
I91
sg26
I1
sg27
I82
sa(dp581
g21
VBARON DU PLESSIS
p582
sg23
V3x7x3
p583
sg25
I85
sg26
I2
sg27
I92
sa(dp584
g21
VHUGOS HORSE
p585
sg23
V21x43
p586
sg25
I100
sg26
I3
sg27
I97
sa(dp587
g21
VSUTTER'S MILL
p588
sg23
V34x63
p589
sg25
I79
sg26
I4
sg27
I80
sa(dp590
g21
VTHE OGLE GOGLE MAN
p591
sg23
V363x2
p592
sg25
I81
sg26
I5
sg27
I89
sa(dp593
g21
VBALKINSTOWN
p594
sg23
V38441
p595
sg25
I95
sg26
I6
sg27
I100
sa(dp596
g21
VMIDNIGHT OWLE
p597
sg23
V70x23
p598
sg25
I76
sg26
I7
sg27
I76
sasg37
(lp599
sssI1543241700
(dp600
g2
Vhttp://www.skyracing.com.au/index.php?component=racing&task=race&id=108176932&meetingid=107314071&Itemid=89
p601
sg4
V29025956.1415
p602
sg6
(dp603
g8
(lp604
(lp605
I1
aI4
aI2
aI3
aa(lp606
I4
aI1
aI2
aI5
aa(lp607
I4
aI2
aI1
aI5
aa(lp608
I1
aI2
aI5
aI4
aa(lp609
I4
aI2
aI1
aI5
aa(lp610
I1
aI2
aI4
aI3
aa(lp611
I1
aI4
aI5
aI2
aa(lp612
I1
aI4
aI2
aI5
aasg18
(lp613
(dp614
g21
VMYSTICAL CLOUDS
p615
sg23
Vx3x13
p616
sg25
I100
sg26
I1
sg27
I100
sa(dp617
g21
VDANCING DOUG
p618
sg23
V322x6
p619
sg25
I89
sg26
I2
sg27
I94
sa(dp620
g21
VMY TURGEON
p621
sg23
V4x
p622
sg25
I82
sg26
I3
sg27
I89
sa(dp623
g21
VSEVEN DE BAUNE
p624
sg23
V2x1x6
p625
sg25
I99
sg26
I4
sg27
I96
sa(dp626
g21
VTREASURE DILLON
p627
sg23
V1x8
p628
sg25
I93
sg26
I5
sg27
I82
sasg37
(lp629
sssI1543239000
(dp630
g2
Vhttp://www.skyracing.com.au/index.php?component=racing&task=race&id=108176960&meetingid=107314087&Itemid=89
p631
sg4
V29025958.1330
p632
sg6
(dp633
g8
(lp634
(lp635
I1
aI2
aI3
aa(lp636
I1
aI2
aI3
aa(lp637
I1
aI3
aI2
aa(lp638
I1
aI2
aI3
aa(lp639
I1
aI3
aI2
aa(lp640
I1
aI2
aI3
aa(lp641
I3
aI1
aI2
aa(lp642
I1
aI2
aI3
aasg18
(lp643
(dp644
g21
VCHESTERFIELD
p645
sg23
V32x23
p646
sg25
I100
sg26
I1
sg27
I100
sa(dp647
g21
VDELL ORO
p648
sg23
V4x32x
p649
sg25
I98
sg26
I2
sg27
I95
sa(dp650
g21
VNOTRE AMI
p651
sg23
V10x52
p652
sg25
I93
sg26
I3
sg27
I90
sasg37
(lp653
sssI1543244400
(dp654
g2
Vhttp://www.skyracing.com.au/index.php?component=racing&task=race&id=108176948&meetingid=107314103&Itemid=89
p655
sg4
V29025957.1500
p656
sg6
(dp657
g8
(lp658
(lp659
I5
aI2
aI1
aI3
aa(lp660
I4
aI3
aI1
aI2
aa(lp661
I2
aI5
aI4
aI6
aa(lp662
I2
aI5
aI1
aI4
aa(lp663
I2
aI6
aI4
aI5
aa(lp664
I2
aI5
aI1
aI3
aa(lp665
I5
aI2
aI1
aI3
aa(lp666
I2
aI5
aI4
aI1
aasg18
(lp667
(dp668
g21
VMONSIEUR CO
p669
sg23
Vx45x5
p670
sg25
I92
sg26
I1
sg27
I87
sa(dp671
g21
VCIVIL UNREST
p672
sg23
V31x22
p673
sg25
I95
sg26
I2
sg27
I96
sa(dp674
g21
VCONTRE TOUS
p675
sg23
V06x77
p676
sg25
I88
sg26
I3
sg27
I86
sa(dp677
g21
VNICOLAS CHAUVIN
p678
sg23
V784x3
p679
sg25
I82
sg26
I4
sg27
I77
sa(dp680
g21
VCAP ST VINCENT
p681
sg23
V56x31
p682
sg25
I100
sg26
I5
sg27
I100
sa(dp683
g21
VCOOL VALLEY
p684
sg23
V62442
p685
sg25
I79
sg26
I6
sg27
I79
sasg37
(lp686
sss.