(dp0
I1542038400
(dp1
S'skyracing_url'
p2
Vhttp://www.skyracing.com.au/index.php?component=racing&task=race&id=107665978&meetingid=106607946&Itemid=89
p3
sS'betfair_raceid'
p4
V29005855.1600
p5
sS'dat2'
p6
(dp7
S'ratings_auto'
p8
(lp9
(lp10
I4
aI5
aI12
aI7
aa(lp11
I2
aI5
aI1
aI7
aa(lp12
I7
aI3
aI4
aI5
aa(lp13
I5
aI2
aI6
aI7
aa(lp14
I5
aI4
aI2
aI7
aa(lp15
I4
aI12
aI5
aI7
aa(lp16
I2
aI4
aI5
aI1
aa(lp17
I5
aI4
aI7
aI2
aasS'horse_details'
p18
(lp19
(dp20
S'horse_name'
p21
VCELESTIAL PATH
p22
sS'horse_form'
p23
V9116x
p24
sS'rating_2'
p25
I90
sS'horse_number'
p26
I1
sS'rating_1'
p27
I84
sa(dp28
g21
VTELEGRAPH PLACE
p29
sg23
V2x41x
p30
sg25
I98
sg26
I2
sg27
I87
sa(dp31
g21
VMONDAY CLUB
p32
sg23
V92313
p33
sg25
I73
sg26
I3
sg27
I78
sa(dp34
g21
VTIDAL WATCH
p35
sg23
V114x2
p36
sg25
I100
sg26
I4
sg27
I100
sa(dp37
g21
VBLUSHING RED
p38
sg23
V293x1
p39
sg25
I93
sg26
I5
sg27
I99
sa(dp40
g21
VPIVOTAL FLAME
p41
sg23
V04454
p42
sg25
I76
sg26
I6
sg27
I72
sa(dp43
g21
VLEXINGTON LAW
p44
sg23
V105x8
p45
sg25
I85
sg26
I7
sg27
I92
sa(dp46
g21
VNACHI FALLS
p47
sg23
V87875
p48
sg25
I80
sg26
I8
sg27
I76
sa(dp49
g21
VBLACK BUBLE
p50
sg23
V37x65
p51
sg25
I78
sg26
I9
sg27
I82
sa(dp52
g21
VTOBACCO ROAD
p53
sg23
Vx9601
p54
sg25
I70
sg26
I10
sg27
I70
sa(dp55
g21
VMAROC
p56
sg23
V52210
p57
sg25
I71
sg26
I11
sg27
I74
sa(dp58
g21
VROCKET RONNIE
p59
sg23
Vx2212
p60
sg25
I89
sg26
I12
sg27
I94
sasS'ratings_manual'
p61
(lp62
sssI1542028800
(dp63
g2
Vhttp://www.skyracing.com.au/index.php?component=racing&task=race&id=107665988&meetingid=106778252&Itemid=89
p64
sg4
V29005852.1320
p65
sg6
(dp66
g8
(lp67
(lp68
I4
aI2
aI1
aI6
aa(lp69
I1
aI2
aI4
aI6
aa(lp70
I4
aI2
aI11
aI10
aa(lp71
I4
aI3
aI6
aI2
aa(lp72
I2
aI5
aI11
aI6
aa(lp73
I4
aI2
aI6
aI1
aa(lp74
I6
aI1
aI4
aI2
aa(lp75
I4
aI2
aI1
aI6
aasg18
(lp76
(dp77
g21
VSHAKE THE BUCKET
p78
sg23
V40025
p79
sg25
I100
sg26
I1
sg27
I93
sa(dp80
g21
VBELLGROVE
p81
sg23
V44745
p82
sg25
I91
sg26
I2
sg27
I96
sa(dp83
g21
VDRUMMULLAGH ROCKY
p84
sg23
Vx057x
p85
sg25
I84
sg26
I3
sg27
I70
sa(dp86
g21
VWHATSINTHECORNER
p87
sg23
V74022
p88
sg25
I97
sg26
I4
sg27
I100
sa(dp89
g21
VCADAWILL
p90
sg23
V12708
p91
sg25
I87
sg26
I5
sg27
I87
sa(dp92
g21
VALL THE CHIMNEYS
p93
sg23
V3256x
p94
sg25
I95
sg26
I6
sg27
I91
sa(dp95
g21
VSESKIN FLYER
p96
sg23
V20050
p97
sg25
I78
sg26
I7
sg27
I80
sa(dp98
g21
VWELL JOEY
p99
sg23
V75x69
p100
sg25
I73
sg26
I8
sg27
I79
sa(dp101
g21
VALICE JOHNSTON
p102
sg23
Vx6705
p103
sg25
I75
sg26
I9
sg27
I84
sa(dp104
g21
VTEMPLEMICHAEL
p105
sg23
V203x8
p106
sg25
I72
sg26
I10
sg27
I77
sa(dp107
g21
VINVINCIBLE DON
p108
sg23
V68557
p109
sg25
I80
sg26
I11
sg27
I74
sasg61
(lp110
sssI1542030600
(dp111
g2
Vhttp://www.skyracing.com.au/index.php?component=racing&task=race&id=107665974&meetingid=106607946&Itemid=89
p112
sg4
V29005855.1350
p113
sg6
(dp114
g8
(lp115
(lp116
I1
aI4
aI8
aI12
aa(lp117
I1
aI8
aI2
aI4
aa(lp118
I1
aI12
aI7
aI9
aa(lp119
I1
aI2
aI8
aI4
aa(lp120
I1
aI2
aI8
aI4
aa(lp121
I4
aI1
aI12
aI8
aa(lp122
I1
aI4
aI8
aI12
aa(lp123
I1
aI4
aI8
aI2
aasg18
(lp124
(dp125
g21
VBEFORE MIDNIGHT
p126
sg23
V31x20
p127
sg25
I100
sg26
I1
sg27
I100
sa(dp128
g21
VBLACK LIGHTNING
p129
sg23
V7x33x
p130
sg25
I78
sg26
I2
sg27
I77
sa(dp131
g21
VGLORIOUS BORU
p132
sg23
V9512x
p133
sg25
I77
sg26
I3
sg27
I71
sa(dp134
g21
VKOOTENAY RIVER
p135
sg23
V122x
p136
sg25
I94
sg26
I4
sg27
I94
sa(dp137
g21
VNOBLE QUEST
p138
sg23
V8x
p139
sg25
I83
sg26
I5
sg27
I82
sa(dp140
g21
VOLD RASCALS
p141
sg23
V2823x
p142
sg25
I84
sg26
I6
sg27
I85
sa(dp143
g21
VRATFACEMCDOUGALL
p144
sg23
V221x0
p145
sg25
I89
sg26
I7
sg27
I75
sa(dp146
g21
VTIDAL FLOW
p147
sg23
V1x4x
p148
sg25
I98
sg26
I8
sg27
I91
sa(dp149
g21
VTRACTOR FRED
p150
sg23
V90x8
p151
sg25
I71
sg26
I9
sg27
I68
sa(dp152
g21
VUNCLE O
p153
sg23
V6x
p154
sg25
I69
sg26
I10
sg27
I67
sa(dp155
g21
VWINGS OF DARKNESS
p156
sg23
V0x
p157
sg25
I73
sg26
I11
sg27
I73
sa(dp158
g21
VLITTLE MISS DARSI
p159
sg23
V31x62
p160
sg25
I90
sg26
I12
sg27
I87
sasg61
(lp161
sssI1542024300
(dp162
g2
Vhttp://www.skyracing.com.au/index.php?component=racing&task=race&id=107665957&meetingid=106607962&Itemid=89
p163
sg4
V29003842.1205
p164
sg6
(dp165
g8
(lp166
(lp167
I12
aI9
aI1
aI5
aa(lp168
I4
aI3
aI2
aI8
aa(lp169
I6
aI3
aI9
aI12
aa(lp170
I10
aI3
aI4
aI2
aa(lp171
I12
aI9
aI2
aI4
aa(lp172
I9
aI12
aI1
aI6
aa(lp173
I12
aI6
aI4
aI3
aa(lp174
I12
aI9
aI3
aI4
aasg18
(lp175
(dp176
g21
VPARAMOUNT LOVE
p177
sg23
V13667
p178
sg25
I81
sg26
I1
sg27
I89
sa(dp179
g21
VKEEPUP KEVIN
p180
sg23
V23250
p181
sg25
I76
sg26
I2
sg27
I83
sa(dp182
g21
VBRIARDALE
p183
sg23
V75890
p184
sg25
I90
sg26
I3
sg27
I76
sa(dp185
g21
VTHA'IR
p186
sg23
V449x0
p187
sg25
I95
sg26
I4
sg27
I66
sa(dp188
g21
VCOUNT MONTECRISTO
p189
sg23
V3500x
p190
sg25
I79
sg26
I5
sg27
I86
sa(dp191
g21
VPLACEBO EFFECT
p192
sg23
V43028
p193
sg25
I85
sg26
I6
sg27
I80
sa(dp194
g21
VSAJANJL
p195
sg23
V5x543
p196
sg25
I100
sg26
I7
sg27
I93
sa(dp197
g21
VSHEARIAN
p198
sg23
V06006
p199
sg25
I70
sg26
I8
sg27
I64
sa(dp200
g21
VZAPATEADO
p201
sg23
V52143
p202
sg25
I87
sg26
I9
sg27
I96
sa(dp203
g21
VPECHEURS DE PERLES
p204
sg23
Vx09x0
p205
sg25
I73
sg26
I10
sg27
I72
sa(dp206
g21
VMILAN REEF
p207
sg23
V020x0
p208
sg25
I67
sg26
I11
sg27
I69
sa(dp209
g21
VBREAK THE SILENCE
p210
sg23
V28174
p211
sg25
I96
sg26
I12
sg27
I100
sa(dp212
g21
VEARL OF BUNNACURRY
p213
sg23
V90099
p214
sg25
I70
sg26
I13
sg27
I74
sasg61
(lp215
sssI1542031500
(dp216
g2
Vhttp://www.skyracing.com.au/index.php?component=racing&task=race&id=107666004&meetingid=106607930&Itemid=89
p217
sg4
V29005854.1405
p218
sg6
(dp219
g8
(lp220
(lp221
I6
aI5
aI3
aI9
aa(lp222
I4
aI3
aI6
aI5
aa(lp223
I5
aI6
aI8
aI7
aa(lp224
I4
aI3
aI8
aI5
aa(lp225
I10
aI3
aI6
aI4
aa(lp226
I6
aI3
aI5
aI9
aa(lp227
I6
aI5
aI3
aI8
aa(lp228
I6
aI3
aI4
aI5
aasg18
(lp229
(dp230
g21
VKEEP THE RIVER
p231
sg23
V1x431
p232
sg25
I100
sg26
I1
sg27
I100
sa(dp233
g21
VLLANTARA
p234
sg23
V2511x
p235
sg25
I93
sg26
I2
sg27
I97
sa(dp236
g21
VVICTORIA SAYS
p237
sg23
V41x6x
p238
sg25
I83
sg26
I3
sg27
I82
sa(dp239
g21
VBABY TICKER
p240
sg23
V1258x
p241
sg25
I62
sg26
I4
sg27
I66
sa(dp242
g21
VVERSIFIER
p243
sg23
V6x251
p244
sg25
I87
sg26
I5
sg27
I86
sa(dp245
g21
VTOBOGGAN'S FIRE
p246
sg23
V14x43
p247
sg25
I98
sg26
I6
sg27
I92
sa(dp248
g21
VTROOBLUE
p249
sg23
V334x9
p250
sg25
I63
sg26
I7
sg27
I70
sa(dp251
g21
VRUSSIAN ROYALE
p252
sg23
V275x4
p253
sg25
I80
sg26
I8
sg27
I74
sa(dp254
g21
VHIDDEN DILEMMA
p255
sg23
V046x7
p256
sg25
I74
sg26
I9
sg27
I80
sa(dp257
g21
VGEORGIAN FIREBIRD
p258
sg23
V630x0
p259
sg25
I72
sg26
I10
sg27
I61
sasg61
(lp260
sssI1542033300
(dp261
g2
Vhttp://www.skyracing.com.au/index.php?component=racing&task=race&id=107666005&meetingid=106607930&Itemid=89
p262
sg4
V29005854.1435
p263
sg6
(dp264
g8
(lp265
(lp266
I2
aI5
aI4
aI1
aa(lp267
I2
aI3
aI1
aI4
aa(lp268
I2
aI3
aI1
aI4
aa(lp269
I2
aI3
aI1
aI4
aa(lp270
I2
aI1
aI6
aI3
aa(lp271
I2
aI5
aI1
aI4
aa(lp272
I2
aI1
aI4
aI5
aa(lp273
I2
aI1
aI3
aI5
aasg18
(lp274
(dp275
g21
VNUTS WELL
p276
sg23
Vx21x1
p277
sg25
I86
sg26
I1
sg27
I88
sa(dp278
g21
VDOLOS
p279
sg23
V272x2
p280
sg25
I100
sg26
I2
sg27
I100
sa(dp281
g21
VONE FOR BILLY
p282
sg23
V11227
p283
sg25
I81
sg26
I3
sg27
I82
sa(dp284
g21
VHIGHWAY ONE O ONE
p285
sg23
V12x12
p286
sg25
I95
sg26
I4
sg27
I94
sa(dp287
g21
VCHESTERFIELD
p288
sg23
V432x2
p289
sg25
I91
sg26
I5
sg27
I97
sa(dp290
g21
VMISTER KIT
p291
sg23
Vx42x2
p292
sg25
I73
sg26
I6
sg27
I73
sa(dp293
g21
VTRESHNISH
p294
sg23
V177x5
p295
sg25
I80
sg26
I7
sg27
I79
sasg61
(lp296
sssI1542036000
(dp297
g2
Vhttp://www.skyracing.com.au/index.php?component=racing&task=race&id=107665963&meetingid=106607962&Itemid=89
p298
sg4
V29003842.1520
p299
sg6
(dp300
g8
(lp301
(lp302
I4
aI9
aI5
aI1
aa(lp303
I8
aI1
aI2
aI6
aa(lp304
I4
aI8
aI7
aI9
aa(lp305
I1
aI2
aI3
aI8
aa(lp306
I8
aI6
aI10
aI4
aa(lp307
I5
aI4
aI9
aI7
aa(lp308
I4
aI1
aI9
aI5
aa(lp309
I4
aI8
aI1
aI9
aasg18
(lp310
(dp311
g21
VDOMMERSEN
p312
sg23
V05x00
p313
sg25
I95
sg26
I1
sg27
I86
sa(dp314
g21
VTOMMY DOCC
p315
sg23
V6x629
p316
sg25
I85
sg26
I2
sg27
I76
sa(dp317
g21
VSANDS CHORUS
p318
sg23
V0x800
p319
sg25
I74
sg26
I3
sg27
I69
sa(dp320
g21
VMAYBE TODAY
p321
sg23
V1232
p322
sg25
I100
sg26
I4
sg27
I100
sa(dp323
g21
VKAREZAK
p324
sg23
V2224x
p325
sg25
I91
sg26
I5
sg27
I89
sa(dp326
g21
VLUV U WHATEVER
p327
sg23
V76056
p328
sg25
I79
sg26
I6
sg27
I71
sa(dp329
g21
VAMAZING MICHELE
p330
sg23
V53417
p331
sg25
I89
sg26
I7
sg27
I83
sa(dp332
g21
VALL MY LOVE
p333
sg23
V6x053
p334
sg25
I75
sg26
I8
sg27
I74
sa(dp335
g21
VVICTORIA DRUMMOND
p336
sg23
V55x1
p337
sg25
I96
sg26
I9
sg27
I97
sa(dp338
g21
VEPITAPH
p339
sg23
V408x9
p340
sg25
I80
sg26
I10
sg27
I81
sa(dp341
g21
VMONZINO
p342
sg23
V94968
p343
sg25
I72
sg26
I11
sg27
I67
sasg61
(lp344
sssI1542027300
(dp345
g2
Vhttp://www.skyracing.com.au/index.php?component=racing&task=race&id=107666002&meetingid=106607930&Itemid=89
p346
sg4
V29005854.1255
p347
sg6
(dp348
g8
(lp349
(lp350
I3
aI7
aI9
aI1
aa(lp351
I7
aI1
aI3
aI6
aa(lp352
I6
aI5
aI8
aI4
aa(lp353
I7
aI1
aI6
aI8
aa(lp354
I7
aI3
aI2
aI5
aa(lp355
I7
aI3
aI9
aI1
aa(lp356
I7
aI3
aI9
aI2
aa(lp357
I7
aI3
aI1
aI6
aasg18
(lp358
(dp359
g21
VBALLASALLA
p360
sg23
V9607x
p361
sg25
I86
sg26
I1
sg27
I84
sa(dp362
g21
VCAPMONFOR
p363
sg23
V437x
p364
sg25
I83
sg26
I2
sg27
I82
sa(dp365
g21
VCLONDAW ANCHOR
p366
sg23
V2x2x
p367
sg25
I100
sg26
I3
sg27
I100
sa(dp368
g21
VCOURT IN MATERA
p369
sg23
V20x0
p370
sg25
I72
sg26
I4
sg27
I67
sa(dp371
g21
VDWIGHT D
p372
sg23
Vx2790
p373
sg25
I77
sg26
I5
sg27
I75
sa(dp374
g21
VEN MEME TEMPS
p375
sg23
V6x64
p376
sg25
I78
sg26
I6
sg27
I77
sa(dp377
g21
VHIGHLAND HUNTER
p378
sg23
Vx1x0x
p379
sg25
I97
sg26
I7
sg27
I97
sa(dp380
g21
VMONSIEUR BAGOT
p381
sg23
Vx0067
p382
sg25
I65
sg26
I8
sg27
I66
sa(dp383
g21
VRELKADAM
p384
sg23
V5x44x
p385
sg25
I92
sg26
I9
sg27
I92
sasg61
(lp386
sssI1542038700
(dp387
g2
Vhttp://www.skyracing.com.au/index.php?component=racing&task=race&id=107665993&meetingid=106778252&Itemid=89
p388
sg4
V29005852.1605
p389
sg6
(dp390
g8
(lp391
(lp392
I2
aI4
aI3
aI7
aa(lp393
I2
aI4
aI3
aI1
aa(lp394
I3
aI7
aI1
aI2
aa(lp395
I4
aI3
aI1
aI2
aa(lp396
I2
aI4
aI3
aI1
aa(lp397
I4
aI2
aI3
aI1
aa(lp398
I2
aI6
aI4
aI3
aa(lp399
I4
aI2
aI3
aI1
aasg18
(lp400
(dp401
g21
VCRIQ SUN
p402
sg23
V40x98
p403
sg25
I78
sg26
I1
sg27
I82
sa(dp404
g21
VEXTRAPOLATE
p405
sg23
V5x25x
p406
sg25
I100
sg26
I2
sg27
I100
sa(dp407
g21
VPAKENS ROCK
p408
sg23
V54
p409
sg25
I88
sg26
I3
sg27
I90
sa(dp410
g21
VTHE SHUNTER
p411
sg23
V0373x
p412
sg25
I92
sg26
I4
sg27
I96
sa(dp413
g21
VKILBEG BERNIE
p414
sg23
V77x
p415
sg25
I76
sg26
I5
sg27
I77
sa(dp416
g21
VMISS SHOE CITY
p417
sg23
V
p418
sg25
I98
sg26
I6
sg27
I0
sa(dp419
g21
VSANSIMMAR
p420
sg23
V5
p421
sg25
I84
sg26
I7
sg27
I85
sasg61
(lp422
sssI1542030000
(dp423
g2
Vhttp://www.skyracing.com.au/index.php?component=racing&task=race&id=107665960&meetingid=106607962&Itemid=89
p424
sg4
V29003842.1340
p425
sg6
(dp426
g8
(lp427
(lp428
I2
aI4
aI6
aI5
aa(lp429
I1
aI4
aI2
aI6
aa(lp430
I6
aI4
aI8
aI7
aa(lp431
I4
aI2
aI6
aI8
aa(lp432
I1
aI4
aI6
aI2
aa(lp433
I2
aI4
aI6
aI1
aa(lp434
I2
aI4
aI6
aI5
aa(lp435
I4
aI2
aI6
aI1
aasg18
(lp436
(dp437
g21
VESSGEE NICS
p438
sg23
V638
p439
sg25
I77
sg26
I1
sg27
I82
sa(dp440
g21
VHOME BEFORE DUSK
p441
sg23
V5322x
p442
sg25
I100
sg26
I2
sg27
I100
sa(dp443
g21
VKHAAN
p444
sg23
V0
p445
sg25
I81
sg26
I3
sg27
I77
sa(dp446
g21
VKNIGHTLY SPIRIT
p447
sg23
V28x40
p448
sg25
I97
sg26
I4
sg27
I95
sa(dp449
g21
VRED SEEKER
p450
sg23
V8730x
p451
sg25
I87
sg26
I5
sg27
I88
sa(dp452
g21
VSOCIOLOGIST
p453
sg23
V345x8
p454
sg25
I93
sg26
I6
sg27
I93
sa(dp455
g21
VTILSWORTH SAMMY
p456
sg23
V0
p457
sg25
I63
sg26
I7
sg27
I63
sa(dp458
g21
VLOVELYSIMPLYLOVELY
p459
sg23
V09
p460
sg25
I80
sg26
I8
sg27
I79
sa(dp461
g21
VTELEKINETIC
p462
sg23
V95
p463
sg25
I72
sg26
I9
sg27
I71
sasg61
(lp464
sssI1542030900
(dp465
g2
Vhttp://www.skyracing.com.au/index.php?component=racing&task=race&id=107665989&meetingid=106778252&Itemid=89
p466
sg4
V29005852.1355
p467
sg6
(dp468
g8
(lp469
(lp470
I1
aI13
aI12
aI5
aa(lp471
I5
aI3
aI13
aI1
aa(lp472
I5
aI3
aI1
aI4
aa(lp473
I5
aI3
aI4
aI1
aa(lp474
I13
aI1
aI3
aI5
aa(lp475
I13
aI1
aI12
aI5
aa(lp476
I1
aI2
aI7
aI12
aa(lp477
I5
aI1
aI13
aI3
aasg18
(lp478
(dp479
g21
VJAKE PETER
p480
sg23
V51122
p481
sg25
I100
sg26
I1
sg27
I100
sa(dp482
g21
VAPOCALYPSE
p483
sg23
g418
sg25
I97
sg26
I2
sg27
I0
sa(dp484
g21
VBYTHESAMETOKEN
p485
sg23
Vx0x09
p486
sg25
I72
sg26
I3
sg27
I69
sa(dp487
g21
VCASTLE VALLEY
p488
sg23
V80
p489
sg25
I65
sg26
I4
sg27
I61
sa(dp490
g21
VCONVARA
p491
sg23
V469
p492
sg25
I86
sg26
I5
sg27
I86
sa(dp493
g21
VFOUR COUNTRY ROADS
p494
sg23
g418
sg25
I74
sg26
I6
sg27
I0
sa(dp495
g21
VLOAD UP TIME
p496
sg23
g418
sg25
I93
sg26
I7
sg27
I0
sa(dp497
g21
VOSTAIOCHT
p498
sg23
V88x0x
p499
sg25
I76
sg26
I8
sg27
I73
sa(dp500
g21
VUNO MOMENTO
p501
sg23
V8x098
p502
sg25
I80
sg26
I9
sg27
I83
sa(dp503
g21
VVINNWARR
p504
sg23
V00
p505
sg25
I68
sg26
I10
sg27
I64
sa(dp506
g21
VYARRAMAN
p507
sg23
Vx5x90
p508
sg25
I79
sg26
I11
sg27
I79
sa(dp509
g21
VJANEYMAC
p510
sg23
V0x4
p511
sg25
I88
sg26
I12
sg27
I90
sa(dp512
g21
VMAYSONETTE
p513
sg23
V9x506
p514
sg25
I90
sg26
I13
sg27
I95
sasg61
(lp515
sssI1542032700
(dp516
g2
Vhttp://www.skyracing.com.au/index.php?component=racing&task=race&id=107665975&meetingid=106607946&Itemid=89
p517
sg4
V29005855.1425
p518
sg6
(dp519
g8
(lp520
(lp521
I2
aI1
aI3
aa(lp522
I2
aI1
aI3
aa(lp523
I1
aI2
aI3
aa(lp524
I2
aI1
aI3
aa(lp525
I2
aI3
aI1
aa(lp526
I1
aI2
aI3
aa(lp527
I2
aI1
aI3
aa(lp528
I2
aI1
aI3
aasg18
(lp529
(dp530
g21
VENNISCOFFEY OSCAR
p531
sg23
V095x5
p532
sg25
I99
sg26
I1
sg27
I97
sa(dp533
g21
VREIGNING SUPREME
p534
sg23
V820x0
p535
sg25
I100
sg26
I2
sg27
I100
sa(dp536
g21
VSEASTON SPIRIT
p537
sg23
V4200x
p538
sg25
I91
sg26
I3
sg27
I92
sasg61
(lp539
sssI1542034500
(dp540
g2
Vhttp://www.skyracing.com.au/index.php?component=racing&task=race&id=107665976&meetingid=106607946&Itemid=89
p541
sg4
V29005855.1455
p542
sg6
(dp543
g8
(lp544
(lp545
I5
aI8
aI11
aI6
aa(lp546
I4
aI3
aI9
aI8
aa(lp547
I4
aI2
aI5
aI6
aa(lp548
I2
aI9
aI3
aI4
aa(lp549
I4
aI8
aI3
aI5
aa(lp550
I8
aI5
aI11
aI6
aa(lp551
I3
aI5
aI11
aI8
aa(lp552
I4
aI8
aI5
aI2
aasg18
(lp553
(dp554
g21
VBOITE
p555
sg23
V1505x
p556
sg25
I79
sg26
I1
sg27
I80
sa(dp557
g21
VYOUNEVERCALL
p558
sg23
V1x7x2
p559
sg25
I92
sg26
I2
sg27
I84
sa(dp560
g21
VHOLLY BUSH HENRY
p561
sg23
V1256x
p562
sg25
I83
sg26
I3
sg27
I75
sa(dp563
g21
VLAURIUM
p564
sg23
Vx0x10
p565
sg25
I76
sg26
I4
sg27
I74
sa(dp566
g21
VHAUL AWAY
p567
sg23
V11114
p568
sg25
I100
sg26
I5
sg27
I100
sa(dp569
g21
VDANS LE VENT
p570
sg23
V326x4
p571
sg25
I88
sg26
I6
sg27
I92
sa(dp572
g21
VLANDIN
p573
sg23
V100x0
p574
sg25
I66
sg26
I7
sg27
I64
sa(dp575
g21
VPOTTERMAN
p576
sg23
V3x11x
p577
sg25
I93
sg26
I8
sg27
I97
sa(dp578
g21
VCOEUR BLIMEY
p579
sg23
V10x8x
p580
sg25
I70
sg26
I9
sg27
I71
sa(dp581
g21
VCANYON CITY
p582
sg23
V7x311
p583
sg25
I85
sg26
I10
sg27
I89
sa(dp584
g21
VSAN SATIRO
p585
sg23
V10x5x
p586
sg25
I96
sg26
I11
sg27
I95
sa(dp587
g21
VTHE SWEENEY
p588
sg23
Vx143x
p589
sg25
I73
sg26
I12
sg27
I79
sa(dp590
g21
VBON ENFANT
p591
sg23
V8038x
p592
sg25
I71
sg26
I13
sg27
I70
sasg61
(lp593
sssI1542035400
(dp594
g2
Vhttp://www.skyracing.com.au/index.php?component=racing&task=race&id=107666006&meetingid=106607930&Itemid=89
p595
sg4
V29005854.1510
p596
sg6
(dp597
g8
(lp598
(lp599
I1
aI10
aI3
aI8
aa(lp600
I3
aI4
aI2
aI5
aa(lp601
I7
aI10
aI4
aI9
aa(lp602
I3
aI1
aI2
aI8
aa(lp603
I7
aI8
aI3
aI2
aa(lp604
I10
aI1
aI3
aI8
aa(lp605
I1
aI3
aI10
aI4
aa(lp606
I3
aI1
aI10
aI7
aasg18
(lp607
(dp608
g21
VTOMKEVI
p609
sg23
V5315x
p610
sg25
I100
sg26
I1
sg27
I100
sa(dp611
g21
VINSTANT REPLAY
p612
sg23
V127x0
p613
sg25
I75
sg26
I2
sg27
I69
sa(dp614
g21
VRAINY CITY
p615
sg23
V2149x
p616
sg25
I98
sg26
I3
sg27
I90
sa(dp617
g21
VSUDSKI STAR
p618
sg23
V34x45
p619
sg25
I93
sg26
I4
sg27
I73
sa(dp620
g21
VRETURN FLIGHT
p621
sg23
V43666
p622
sg25
I85
sg26
I5
sg27
I85
sa(dp623
g21
VROYAL SALUTE
p624
sg23
V0649x
p625
sg25
I71
sg26
I6
sg27
I66
sa(dp626
g21
VROMULUS DU DONJON
p627
sg23
V45x27
p628
sg25
I73
sg26
I7
sg27
I74
sa(dp629
g21
VCALIVIGNY
p630
sg23
Vx643x
p631
sg25
I89
sg26
I8
sg27
I87
sa(dp632
g21
VSQUARE VIVIANI
p633
sg23
V434x4
p634
sg25
I80
sg26
I9
sg27
I76
sa(dp635
g21
VRYALEX
p636
sg23
V32x75
p637
sg25
I92
sg26
I10
sg27
I94
sa(dp638
g21
VINSTINGTIVE
p639
sg23
Vx0322
p640
sg25
I78
sg26
I11
sg27
I81
sasg61
(lp641
sssI1542026700
(dp642
g2
Vhttp://www.skyracing.com.au/index.php?component=racing&task=race&id=107665972&meetingid=106607946&Itemid=89
p643
sg4
V29005855.1245
p644
sg6
(dp645
g8
(lp646
(lp647
I12
aI5
aI6
aI7
aa(lp648
I11
aI12
aI10
aI9
aa(lp649
I2
aI4
aI7
aI1
aa(lp650
I11
aI12
aI3
aI9
aa(lp651
I12
aI11
aI10
aI9
aa(lp652
I12
aI5
aI6
aI7
aa(lp653
I12
aI6
aI1
aI7
aa(lp654
I12
aI11
aI5
aI6
aasg18
(lp655
(dp656
g21
VTAKBEER
p657
sg23
Vx1x2x
p658
sg25
I90
sg26
I1
sg27
I84
sa(dp659
g21
VBUACHAILL BEAG
p660
sg23
V37x27
p661
sg25
I72
sg26
I2
sg27
I74
sa(dp662
g21
VEY UP ROCKY
p663
sg23
V00x4x
p664
sg25
I86
sg26
I3
sg27
I75
sa(dp665
g21
VFORESEE
p666
sg23
V41307
p667
sg25
I68
sg26
I4
sg27
I72
sa(dp668
g21
VGAELIC PRINCE
p669
sg23
V0x
p670
sg25
I89
sg26
I5
sg27
I97
sa(dp671
g21
VOUTOFTHEQUESTION
p672
sg23
V3116x
p673
sg25
I98
sg26
I6
sg27
I93
sa(dp674
g21
VPANKO
p675
sg23
V14427
p676
sg25
I95
sg26
I7
sg27
I92
sa(dp677
g21
VRIVER DART
p678
sg23
V1657x
p679
sg25
I74
sg26
I8
sg27
I69
sa(dp680
g21
VSPECIAL ACCEPTANCE
p681
sg23
V24x
p682
sg25
I76
sg26
I9
sg27
I78
sa(dp683
g21
VTHIBAULT
p684
sg23
V3x4x
p685
sg25
I81
sg26
I10
sg27
I88
sa(dp686
g21
VWOULDUADAMANDEVEIT
p687
sg23
Vx302x
p688
sg25
I79
sg26
I11
sg27
I83
sa(dp689
g21
VEPATANTE
p690
sg23
V21x1x
p691
sg25
I100
sg26
I12
sg27
I100
sa(dp692
g21
VGREENVIEW PARADISE
p693
sg23
V3625x
p694
sg25
I65
sg26
I13
sg27
I67
sasg61
(lp695
sssI1542037200
(dp696
g2
Vhttp://www.skyracing.com.au/index.php?component=racing&task=race&id=107666007&meetingid=106607930&Itemid=89
p697
sg4
V29005854.1540
p698
sg6
(dp699
g8
(lp700
(lp701
I1
aI10
aI6
aI3
aa(lp702
I1
aI3
aI6
aI12
aa(lp703
I1
aI3
aI12
aI2
aa(lp704
I1
aI3
aI6
aI12
aa(lp705
I1
aI3
aI6
aI4
aa(lp706
I6
aI1
aI10
aI3
aa(lp707
I1
aI10
aI6
aI8
aa(lp708
I1
aI3
aI6
aI10
aasg18
(lp709
(dp710
g21
VMR SCRUMPY
p711
sg23
V3x1
p712
sg25
I97
sg26
I1
sg27
I100
sa(dp713
g21
VANDANOTHER
p714
sg23
V7
p715
sg25
I71
sg26
I2
sg27
I64
sa(dp716
g21
VARDGLASS STAR
p717
sg23
V3
p718
sg25
I84
sg26
I3
sg27
I89
sa(dp719
g21
VCLONDAW STORM
p720
sg23
V4x2x
p721
sg25
I78
sg26
I4
sg27
I79
sa(dp722
g21
VDR TIME
p723
sg23
V7
p724
sg25
I72
sg26
I5
sg27
I69
sa(dp725
g21
VHUNTSMANS JOG
p726
sg23
V2x
p727
sg25
I93
sg26
I6
sg27
I91
sa(dp728
g21
VI K BRUNEL
p729
sg23
g418
sg25
I89
sg26
I7
sg27
I0
sa(dp730
g21
VTARADA
p731
sg23
g418
sg25
I91
sg26
I8
sg27
I0
sa(dp732
g21
VTHE STING
p733
sg23
V5x78x
p734
sg25
I82
sg26
I9
sg27
I83
sa(dp735
g21
VWEAKFIELD
p736
sg23
V1x
p737
sg25
I100
sg26
I10
sg27
I99
sa(dp738
g21
VOK JK
p739
sg23
g418
sg25
I74
sg26
I11
sg27
I0
sa(dp740
g21
VSPLASH THE CASH
p741
sg23
V2x6
p742
sg25
I77
sg26
I12
sg27
I74
sasg61
(lp743
sssI1542036600
(dp744
g2
Vhttp://www.skyracing.com.au/index.php?component=racing&task=race&id=107665977&meetingid=106607946&Itemid=89
p745
sg4
V29005855.1530
p746
sg6
(dp747
g8
(lp748
(lp749
I7
aI4
aI5
aI1
aa(lp750
I2
aI6
aI1
aI4
aa(lp751
I7
aI5
aI1
aI8
aa(lp752
I2
aI6
aI4
aI5
aa(lp753
I7
aI4
aI2
aI5
aa(lp754
I5
aI4
aI7
aI1
aa(lp755
I2
aI4
aI3
aI7
aa(lp756
I7
aI4
aI5
aI2
aasg18
(lp757
(dp758
g21
VANGELS ANTICS
p759
sg23
Vx06x7
p760
sg25
I81
sg26
I1
sg27
I86
sa(dp761
g21
VSONG SAA
p762
sg23
V2x64x
p763
sg25
I89
sg26
I2
sg27
I84
sa(dp764
g21
VTARA VIEW
p765
sg23
V3x05x
p766
sg25
I92
sg26
I3
sg27
I79
sa(dp767
g21
VMIDNIGHT TARGET
p768
sg23
V2141x
p769
sg25
I100
sg26
I4
sg27
I95
sa(dp770
g21
VCOTTON JENNY
p771
sg23
V35232
p772
sg25
I80
sg26
I5
sg27
I91
sa(dp773
g21
VMISS TONGABEZI
p774
sg23
V1338x
p775
sg25
I77
sg26
I6
sg27
I69
sa(dp776
g21
VMARIENSTAR
p777
sg23
V246x1
p778
sg25
I97
sg26
I7
sg27
I100
sa(dp779
g21
VCLOONE LADY
p780
sg23
V462x5
p781
sg25
I72
sg26
I8
sg27
I77
sasg61
(lp782
sssI1542028500
(dp783
g2
Vhttp://www.skyracing.com.au/index.php?component=racing&task=race&id=107665973&meetingid=106607946&Itemid=89
p784
sg4
V29005855.1315
p785
sg6
(dp786
g8
(lp787
(lp788
I1
aI6
aI7
aI2
aa(lp789
I3
aI6
aI7
aI1
aa(lp790
I7
aI10
aI4
aI8
aa(lp791
I4
aI3
aI7
aI1
aa(lp792
I3
aI10
aI9
aI6
aa(lp793
I1
aI6
aI2
aI9
aa(lp794
I1
aI2
aI5
aI6
aa(lp795
I3
aI1
aI6
aI7
aasg18
(lp796
(dp797
g21
VKUPATANA
p798
sg23
V4121x
p799
sg25
I100
sg26
I1
sg27
I100
sa(dp800
g21
VBROKEN QUEST
p801
sg23
V1135x
p802
sg25
I97
sg26
I2
sg27
I90
sa(dp803
g21
VRUBY YEATS
p804
sg23
V2809x
p805
sg25
I74
sg26
I3
sg27
I73
sa(dp806
g21
VSTAR FOOT
p807
sg23
V30x48
p808
sg25
I72
sg26
I4
sg27
I70
sa(dp809
g21
VHEART OF KERNOW
p810
sg23
Vx11x0
p811
sg25
I91
sg26
I5
sg27
I84
sa(dp812
g21
VMINELLA FOR ME
p813
sg23
V2761x
p814
sg25
I94
sg26
I6
sg27
I97
sa(dp815
g21
VRAILROAD JUNKIE
p816
sg23
V32461
p817
sg25
I88
sg26
I7
sg27
I93
sa(dp818
g21
VHINT OF GREY
p819
sg23
V61x30
p820
sg25
I83
sg26
I8
sg27
I78
sa(dp821
g21
VKING VINCE
p822
sg23
Vx823x
p823
sg25
I85
sg26
I9
sg27
I87
sa(dp824
g21
VCAP DU NORD
p825
sg23
V4x452
p826
sg25
I76
sg26
I10
sg27
I75
sa(dp827
g21
VWINDSPIEL
p828
sg23
Vx317x
p829
sg25
I79
sg26
I11
sg27
I81
sasg61
(lp830
sssI1542029400
(dp831
g2
Vhttp://www.skyracing.com.au/index.php?component=racing&task=race&id=107666003&meetingid=106607930&Itemid=89
p832
sg4
V29005854.1330
p833
sg6
(dp834
g8
(lp835
(lp836
I13
aI10
aI11
aI5
aa(lp837
I10
aI5
aI6
aI1
aa(lp838
I3
aI1
aI8
aI2
aa(lp839
I6
aI1
aI3
aI13
aa(lp840
I6
aI13
aI1
aI10
aa(lp841
I13
aI10
aI11
aI6
aa(lp842
I13
aI10
aI11
aI5
aa(lp843
I13
aI10
aI6
aI1
aasg18
(lp844
(dp845
g21
VARCTIC VODKA
p846
sg23
V12x56
p847
sg25
I79
sg26
I1
sg27
I82
sa(dp848
g21
VBRACKENMOSS RORY
p849
sg23
Vx900x
p850
sg25
I69
sg26
I2
sg27
I71
sa(dp851
g21
VCLAUD AND GOLDIE
p852
sg23
V7x2x4
p853
sg25
I80
sg26
I3
sg27
I67
sa(dp854
g21
VDARK VALLEY
p855
sg23
V03x3x
p856
sg25
I86
sg26
I4
sg27
I86
sa(dp857
g21
VEUXTON LANE
p858
sg23
V2117x
p859
sg25
I92
sg26
I5
sg27
I91
sa(dp860
g21
VFLEMINPORT
p861
sg23
Vx114x
p862
sg25
I88
sg26
I6
sg27
I89
sa(dp863
g21
VGARDE FORESTIER
p864
sg23
Vx309x
p865
sg25
I70
sg26
I7
sg27
I74
sa(dp866
g21
VNINE O THREE
p867
sg23
Vx21x0
p868
sg25
I77
sg26
I8
sg27
I79
sa(dp869
g21
VPOOKIE PEKAN
p870
sg23
V4916x
p871
sg25
I73
sg26
I9
sg27
I77
sa(dp872
g21
VRED RISING
p873
sg23
V1210x
p874
sg25
I98
sg26
I10
sg27
I97
sa(dp875
g21
VUNCLE ALASTAIR
p876
sg23
V1133x
p877
sg25
I93
sg26
I11
sg27
I93
sa(dp878
g21
VVALNAMIXE DU MEE
p879
sg23
V3462x
p880
sg25
I65
sg26
I12
sg27
I68
sa(dp881
g21
VVINNDICATION
p882
sg23
V1111x
p883
sg25
I100
sg26
I13
sg27
I100
sasg61
(lp884
sssI1542036900
(dp885
g2
Vhttp://www.skyracing.com.au/index.php?component=racing&task=race&id=107665992&meetingid=106778252&Itemid=89
p886
sg4
V29005852.1535
p887
sg6
(dp888
g8
(lp889
(lp890
I1
aI3
aI6
aI2
aa(lp891
I1
aI2
aI6
aI3
aa(lp892
I1
aI2
aI6
aI3
aa(lp893
I2
aI1
aI6
aI11
aa(lp894
I6
aI2
aI3
aI1
aa(lp895
I3
aI1
aI6
aI14
aa(lp896
I3
aI1
aI7
aI6
aa(lp897
I1
aI6
aI2
aI3
aasg18
(lp898
(dp899
g21
VRAIN IN SPAIN
p900
sg23
V16621
p901
sg25
I99
sg26
I1
sg27
I100
sa(dp902
g21
VOPEN TO THE WORLD
p903
sg23
V0x372
p904
sg25
I91
sg26
I2
sg27
I93
sa(dp905
g21
VTHISONESFOROLLIE
p906
sg23
Vx1133
p907
sg25
I100
sg26
I3
sg27
I98
sa(dp908
g21
VGONE GALAVANTING
p909
sg23
V00037
p910
sg25
I74
sg26
I4
sg27
I78
sa(dp911
g21
VCAERLEON KATE
p912
sg23
V44016
p913
sg25
I77
sg26
I5
sg27
I81
sa(dp914
g21
VTOOSEY
p915
sg23
V10021
p916
sg25
I95
sg26
I6
sg27
I95
sa(dp917
g21
VWHOYAKODDING
p918
sg23
V53100
p919
sg25
I89
sg26
I7
sg27
I89
sa(dp920
g21
VGLAMOROUS NELLIE
p921
sg23
V87160
p922
sg25
I93
sg26
I8
sg27
I70
sa(dp923
g21
VLAGENOD
p924
sg23
Vx02x0
p925
sg25
I67
sg26
I9
sg27
I69
sa(dp926
g21
VMADABOY CROSS
p927
sg23
Vx0664
p928
sg25
I71
sg26
I10
sg27
I77
sa(dp929
g21
VSHANTELLE
p930
sg23
V130x9
p931
sg25
I65
sg26
I11
sg27
I67
sa(dp932
g21
VBAZAROV
p933
sg23
V5x005
p934
sg25
I84
sg26
I12
sg27
I87
sa(dp935
g21
VBALYNACLASH WARIOR
p936
sg23
V0x0x0
p937
sg25
I82
sg26
I13
sg27
I61
sa(dp938
g21
VCOURT ADJOURNED
p939
sg23
V67343
p940
sg25
I87
sg26
I14
sg27
I90
sa(dp941
g21
VGREY HABIT
p942
sg23
V80x08
p943
sg25
I62
sg26
I15
sg27
I63
sa(dp944
g21
VKILCOLMAN DJ
p945
sg23
V00x78
p946
sg25
I69
sg26
I16
sg27
I75
sa(dp947
g21
VKILKARNEY MAI
p948
sg23
Vx523x
p949
sg25
I78
sg26
I17
sg27
I85
sa(dp950
g21
VPRESENTING COURT
p951
sg23
V800x9
p952
sg25
I61
sg26
I18
sg27
I65
sasg61
(lp953
sssI1542032100
(dp954
g2
Vhttp://www.skyracing.com.au/index.php?component=racing&task=race&id=107665961&meetingid=106607962&Itemid=89
p955
sg4
V29003842.1415
p956
sg6
(dp957
g8
(lp958
(lp959
I7
aI11
aI12
aI8
aa(lp960
I8
aI1
aI3
aI5
aa(lp961
I4
aI7
aI2
aI5
aa(lp962
I2
aI6
aI8
aI12
aa(lp963
I8
aI13
aI3
aI11
aa(lp964
I12
aI11
aI7
aI8
aa(lp965
I8
aI6
aI11
aI10
aa(lp966
I8
aI7
aI11
aI12
aasg18
(lp967
(dp968
g21
VSERENITY NOW
p969
sg23
V317x0
p970
sg25
I76
sg26
I1
sg27
I68
sa(dp971
g21
VIFTIRAAQ
p972
sg23
V6x776
p973
sg25
I69
sg26
I2
sg27
I71
sa(dp974
g21
VCOUSIN KHEE
p975
sg23
V96703
p976
sg25
I85
sg26
I3
sg27
I83
sa(dp977
g21
VBUONARROTI
p978
sg23
V53373
p979
sg25
I79
sg26
I4
sg27
I87
sa(dp980
g21
VIL SICARIO
p981
sg23
V87635
p982
sg25
I63
sg26
I5
sg27
I62
sa(dp983
g21
VVIRNON
p984
sg23
V84x80
p985
sg25
I90
sg26
I6
sg27
I64
sa(dp986
g21
VTHE LAST DEBUTANTE
p987
sg23
V27522
p988
sg25
I83
sg26
I7
sg27
I100
sa(dp989
g21
VNEWBERRY NEW
p990
sg23
V1323x
p991
sg25
I89
sg26
I8
sg27
I92
sa(dp992
g21
VCOLWOOD
p993
sg23
V2070x
p994
sg25
I74
sg26
I9
sg27
I78
sa(dp995
g21
VKATIE GALE
p996
sg23
V3534x
p997
sg25
I100
sg26
I10
sg27
I84
sa(dp998
g21
VVIA DELLE VOLTE
p999
sg23
V242
p1000
sg25
I98
sg26
I11
sg27
I98
sa(dp1001
g21
VSBRAASE
p1002
sg23
V55525
p1003
sg25
I93
sg26
I12
sg27
I94
sa(dp1004
g21
VNORMANDY BLUE
p1005
sg23
V76842
p1006
sg25
I72
sg26
I13
sg27
I76
sa(dp1007
g21
VGOLDFOX GIRL
p1008
sg23
V0x039
p1009
sg25
I67
sg26
I14
sg27
I74
sasg61
(lp1010
sssI1542033000
(dp1011
g2
Vhttp://www.skyracing.com.au/index.php?component=racing&task=race&id=107665990&meetingid=106778252&Itemid=89
p1012
sg4
V29005852.1430
p1013
sg6
(dp1014
g8
(lp1015
(lp1016
I6
aI3
aI2
aI7
aa(lp1017
I6
aI3
aI2
aI7
aa(lp1018
I2
aI3
aI4
aI1
aa(lp1019
I2
aI3
aI7
aI6
aa(lp1020
I6
aI3
aI7
aI2
aa(lp1021
I6
aI3
aI7
aI2
aa(lp1022
I6
aI3
aI2
aI7
aa(lp1023
I3
aI6
aI2
aI7
aasg18
(lp1024
(dp1025
g21
VBALLINLONGIG
p1026
sg23
Vx0x07
p1027
sg25
I74
sg26
I1
sg27
I75
sa(dp1028
g21
VJIMMY RABBITTE
p1029
sg23
V07x05
p1030
sg25
I93
sg26
I2
sg27
I90
sa(dp1031
g21
VLEAVE YOUR MARK
p1032
sg23
V85x6
p1033
sg25
I98
sg26
I3
sg27
I99
sa(dp1034
g21
VPADDY MELIA
p1035
sg23
V605
p1036
sg25
I82
sg26
I4
sg27
I82
sa(dp1037
g21
VVENTURA BOULEVARD
p1038
sg23
V500x0
p1039
sg25
I78
sg26
I5
sg27
I80
sa(dp1040
g21
VWESTERN HONOUR
p1041
sg23
V44x4x
p1042
sg25
I100
sg26
I6
sg27
I100
sa(dp1043
g21
VBELLE WEST
p1044
sg23
V9786x
p1045
sg25
I88
sg26
I7
sg27
I88
sasg61
(lp1046
sssI1542033900
(dp1047
g2
Vhttp://www.skyracing.com.au/index.php?component=racing&task=race&id=107665962&meetingid=106607962&Itemid=89
p1048
sg4
V29003842.1445
p1049
sg6
(dp1050
g8
(lp1051
(lp1052
I1
aI7
aI3
aI8
aa(lp1053
I2
aI1
aI6
aI7
aa(lp1054
I7
aI8
aI2
aI1
aa(lp1055
I4
aI6
aI3
aI7
aa(lp1056
I7
aI12
aI8
aI9
aa(lp1057
I7
aI1
aI8
aI3
aa(lp1058
I7
aI8
aI3
aI1
aa(lp1059
I7
aI1
aI8
aI2
aasg18
(lp1060
(dp1061
g21
VARCHIMEDES
p1062
sg23
V44024
p1063
sg25
I91
sg26
I1
sg27
I100
sa(dp1064
g21
VLUCKY BEGGAR
p1065
sg23
V05645
p1066
sg25
I81
sg26
I2
sg27
I82
sa(dp1067
g21
VEPONINA
p1068
sg23
V716x9
p1069
sg25
I94
sg26
I3
sg27
I91
sa(dp1070
g21
VBLACK SALT
p1071
sg23
V63457
p1072
sg25
I74
sg26
I4
sg27
I76
sa(dp1073
g21
VHUNTSMANS CLOSE
p1074
sg23
V98079
p1075
sg25
I64
sg26
I5
sg27
I66
sa(dp1076
g21
VDECLAMATION
p1077
sg23
V78x96
p1078
sg25
I87
sg26
I6
sg27
I71
sa(dp1079
g21
VMR STRUTTER
p1080
sg23
V20327
p1081
sg25
I100
sg26
I7
sg27
I96
sa(dp1082
g21
VROARING RORY
p1083
sg23
Vx3625
p1084
sg25
I96
sg26
I8
sg27
I89
sa(dp1085
g21
VESSENTIAL
p1086
sg23
V660x4
p1087
sg25
I86
sg26
I9
sg27
I85
sa(dp1088
g21
VLORD COOPER
p1089
sg23
V8x0x6
p1090
sg25
I79
sg26
I10
sg27
I59
sa(dp1091
g21
VSATCHVILLE FLYER
p1092
sg23
V60430
p1093
sg25
I68
sg26
I11
sg27
I67
sa(dp1094
g21
VSOMEONE EXCITING
p1095
sg23
V28027
p1096
sg25
I76
sg26
I12
sg27
I79
sa(dp1097
g21
VREBEL HEART
p1098
sg23
V5x330
p1099
sg25
I62
sg26
I13
sg27
I61
sa(dp1100
g21
VCOISTE BODHAR
p1101
sg23
V90039
p1102
sg25
I72
sg26
I14
sg27
I73
sasg61
(lp1103
sssI1542034800
(dp1104
g2
Vhttp://www.skyracing.com.au/index.php?component=racing&task=race&id=107665991&meetingid=106778252&Itemid=89
p1105
sg4
V29005852.1500
p1106
sg6
(dp1107
g8
(lp1108
(lp1109
I6
aI1
aI5
aI9
aa(lp1110
I6
aI1
aI3
aI5
aa(lp1111
I6
aI5
aI1
aI2
aa(lp1112
I6
aI5
aI2
aI4
aa(lp1113
I6
aI1
aI5
aI2
aa(lp1114
I6
aI5
aI1
aI9
aa(lp1115
I1
aI6
aI2
aI5
aa(lp1116
I6
aI5
aI1
aI2
aasg18
(lp1117
(dp1118
g21
VLLEYTON
p1119
sg23
V18140
p1120
sg25
I97
sg26
I1
sg27
I97
sa(dp1121
g21
VMR MOONDANCE
p1122
sg23
V62x80
p1123
sg25
I92
sg26
I2
sg27
I88
sa(dp1124
g21
VSLAINTE AND THANKS
p1125
sg23
V7069x
p1126
sg25
I89
sg26
I3
sg27
I82
sa(dp1127
g21
VWHEREYOUNOW
p1128
sg23
V6x030
p1129
sg25
I82
sg26
I4
sg27
I84
sa(dp1130
g21
VWALKERS POINT
p1131
sg23
Vx99x2
p1132
sg25
I93
sg26
I5
sg27
I93
sa(dp1133
g21
VFINTOWN BOY
p1134
sg23
Vx8631
p1135
sg25
I100
sg26
I6
sg27
I100
sa(dp1136
g21
VTAKEMEBACK
p1137
sg23
V9x0x4
p1138
sg25
I77
sg26
I7
sg27
I78
sa(dp1139
g21
VFLY ROUND THE BEND
p1140
sg23
V4880x
p1141
sg25
I79
sg26
I8
sg27
I74
sa(dp1142
g21
VMUSICAL AVA
p1143
sg23
V56x28
p1144
sg25
I85
sg26
I9
sg27
I91
sa(dp1145
g21
VDOLLY ROSE
p1146
sg23
V80x0x
p1147
sg25
I69
sg26
I10
sg27
I71
sa(dp1148
g21
VPROFOUNDLY
p1149
sg23
V5x0x5
p1150
sg25
I73
sg26
I11
sg27
I75
sa(dp1151
g21
VSTILL ALIVE
p1152
sg23
V50576
p1153
sg25
I71
sg26
I12
sg27
I68
sasg61
(lp1154
sssI1542026100
(dp1155
g2
Vhttp://www.skyracing.com.au/index.php?component=racing&task=race&id=107665958&meetingid=106607962&Itemid=89
p1156
sg4
V29003842.1235
p1157
sg6
(dp1158
g8
(lp1159
(lp1160
I3
aI5
aI2
aI8
aa(lp1161
I7
aI1
aI2
aI4
aa(lp1162
I1
aI5
aI7
aI2
aa(lp1163
I2
aI7
aI1
aI5
aa(lp1164
I5
aI12
aI2
aI8
aa(lp1165
I3
aI5
aI8
aI2
aa(lp1166
I5
aI3
aI9
aI2
aa(lp1167
I5
aI2
aI1
aI7
aasg18
(lp1168
(dp1169
g21
VTOOFI
p1170
sg23
V05565
p1171
sg25
I75
sg26
I1
sg27
I78
sa(dp1172
g21
VWELD AL EMARAT
p1173
sg23
Vx2845
p1174
sg25
I92
sg26
I2
sg27
I94
sa(dp1175
g21
VGILDED HEAVEN
p1176
sg23
V877x1
p1177
sg25
I100
sg26
I3
sg27
I100
sa(dp1178
g21
VBOLD SPIRIT
p1179
sg23
Vx7000
p1180
sg25
I74
sg26
I4
sg27
I72
sa(dp1181
g21
VTHE RIGHT CHOICE
p1182
sg23
Vx4334
p1183
sg25
I96
sg26
I5
sg27
I96
sa(dp1184
g21
VESSENAITCH
p1185
sg23
V55499
p1186
sg25
I84
sg26
I6
sg27
I83
sa(dp1187
g21
VSHOWBOATING
p1188
sg23
V55357
p1189
sg25
I72
sg26
I7
sg27
I76
sa(dp1190
g21
VFIELDSMAN
p1191
sg23
V14284
p1192
sg25
I79
sg26
I8
sg27
I91
sa(dp1193
g21
VONE MORE CHANCE
p1194
sg23
Vx884x
p1195
sg25
I95
sg26
I9
sg27
I86
sa(dp1196
g21
VTHUNDERCLOUD
p1197
sg23
V33175
p1198
sg25
I89
sg26
I10
sg27
I73
sa(dp1199
g21
VWAVEPOINT
p1200
sg23
V10206
p1201
sg25
I80
sg26
I11
sg27
I87
sa(dp1202
g21
VMAAZEL
p1203
sg23
V54400
p1204
sg25
I69
sg26
I12
sg27
I70
sasg61
(lp1205
sssI1542027000
(dp1206
g2
Vhttp://www.skyracing.com.au/index.php?component=racing&task=race&id=107665987&meetingid=106778252&Itemid=89
p1207
sg4
V29005852.1250
p1208
sg6
(dp1209
g8
(lp1210
(lp1211
I3
aI1
aI5
aI4
aa(lp1212
I3
aI5
aI1
aI7
aa(lp1213
I5
aI1
aI7
aI6
aa(lp1214
I3
aI5
aI1
aI4
aa(lp1215
I3
aI1
aI5
aI7
aa(lp1216
I1
aI3
aI5
aI4
aa(lp1217
I3
aI1
aI4
aI5
aa(lp1218
I3
aI1
aI5
aI7
aasg18
(lp1219
(dp1220
g21
VDEBURRAFIELD
p1221
sg23
V72462
p1222
sg25
I98
sg26
I1
sg27
I94
sa(dp1223
g21
VLASSO DOURADO
p1224
sg23
V0x0x9
p1225
sg25
I73
sg26
I2
sg27
I72
sa(dp1226
g21
VMIGHTY STOWAWAY
p1227
sg23
V42x88
p1228
sg25
I100
sg26
I3
sg27
I100
sa(dp1229
g21
VMOTCOMB STREET
p1230
sg23
V60x05
p1231
sg25
I88
sg26
I4
sg27
I82
sa(dp1232
g21
VPUNCHES CROSS
p1233
sg23
V60x65
p1234
sg25
I90
sg26
I5
sg27
I89
sa(dp1235
g21
VUNCHAGO
p1236
sg23
Vx4677
p1237
sg25
I80
sg26
I6
sg27
I73
sa(dp1238
g21
VINDIAN MUSIC
p1239
sg23
V30946
p1240
sg25
I83
sg26
I7
sg27
I76
sasg61
(lp1241
sssI1542027900
(dp1242
g2
Vhttp://www.skyracing.com.au/index.php?component=racing&task=race&id=107665959&meetingid=106607962&Itemid=89
p1243
sg4
V29003842.1305
p1244
sg6
(dp1245
g8
(lp1246
(lp1247
I3
aI7
aI1
aI4
aa(lp1248
I2
aI1
aI6
aI5
aa(lp1249
I3
aI4
aI5
aI7
aa(lp1250
I1
aI5
aI3
aI6
aa(lp1251
I14
aI8
aI4
aI5
aa(lp1252
I1
aI3
aI4
aI7
aa(lp1253
I12
aI7
aI3
aI2
aa(lp1254
I3
aI1
aI4
aI5
aasg18
(lp1255
(dp1256
g21
VFAREEQ
p1257
sg23
V248x6
p1258
sg25
I90
sg26
I1
sg27
I91
sa(dp1259
g21
VPIAZON
p1260
sg23
Vx0607
p1261
sg25
I88
sg26
I2
sg27
I77
sa(dp1262
g21
VHONEY GG
p1263
sg23
V84912
p1264
sg25
I99
sg26
I3
sg27
I100
sa(dp1265
g21
VTWENTYSVNTHLANCERS
p1266
sg23
V18605
p1267
sg25
I84
sg26
I4
sg27
I88
sa(dp1268
g21
VMININGGOLD
p1269
sg23
V33574
p1270
sg25
I83
sg26
I5
sg27
I84
sa(dp1271
g21
VINVISIBLE STORM
p1272
sg23
V03000
p1273
sg25
I66
sg26
I6
sg27
I61
sa(dp1274
g21
VCUPID'S ARROW
p1275
sg23
V95921
p1276
sg25
I93
sg26
I7
sg27
I99
sa(dp1277
g21
VARCHIE STEVENS
p1278
sg23
V49x59
p1279
sg25
I76
sg26
I8
sg27
I81
sa(dp1280
g21
VELLIOT THE DRAGON
p1281
sg23
V430x7
p1282
sg25
I69
sg26
I9
sg27
I66
sa(dp1283
g21
VPURPLE DRAGON
p1284
sg23
V5x3x9
p1285
sg25
I62
sg26
I10
sg27
I62
sa(dp1286
g21
VOPTIMICKSTICKHILL
p1287
sg23
V89545
p1288
sg25
I74
sg26
I11
sg27
I74
sa(dp1289
g21
VNOVABRIDGE
p1290
sg23
V871x3
p1291
sg25
I100
sg26
I12
sg27
I86
sa(dp1292
g21
VBARNEY BULLET
p1293
sg23
V98867
p1294
sg25
I70
sg26
I13
sg27
I72
sa(dp1295
g21
VSIR GEOFFREY
p1296
sg23
V7080x
p1297
sg25
I79
sg26
I14
sg27
I70
sasg61
(lp1298
sss.