(dp0
I1542547200
(dp1
S'skyracing_url'
p2
Vhttp://www.skyracing.com.au/index.php?component=racing&task=race&id=107993545&meetingid=106781001&Itemid=89
p3
sS'betfair_raceid'
p4
V29013533.1320
p5
sS'dat2'
p6
(dp7
S'ratings_auto'
p8
(lp9
(lp10
I12
aI8
aI5
aI7
aa(lp11
I8
aI9
aI2
aI7
aa(lp12
I7
aI6
aI3
aI1
aa(lp13
I2
aI12
aI9
aI14
aa(lp14
I9
aI8
aI12
aI3
aa(lp15
I12
aI8
aI4
aI3
aa(lp16
I5
aI12
aI11
aI8
aa(lp17
I12
aI8
aI9
aI7
aasS'horse_details'
p18
(lp19
(dp20
S'horse_name'
p21
VBRODER
p22
sS'horse_form'
p23
V41x77
p24
sS'rating_2'
p25
I84
sS'horse_number'
p26
I1
sS'rating_1'
p27
I77
sa(dp28
g21
VGET OUT OF JAIL
p29
sg23
V63025
p30
sg25
I82
sg26
I2
sg27
I87
sa(dp31
g21
VPOUND A STROKE
p32
sg23
V122x5
p33
sg25
I89
sg26
I3
sg27
I90
sa(dp34
g21
VBITSANDPIECES
p35
sg23
Vx300x
p36
sg25
I94
sg26
I4
sg27
I88
sa(dp37
g21
VCHURCHTOWN GLEN
p38
sg23
V05x71
p39
sg25
I97
sg26
I5
sg27
I96
sa(dp40
g21
VCLEMENTINA
p41
sg23
V03x50
p42
sg25
I79
sg26
I6
sg27
I85
sa(dp43
g21
VNATURALLY BLOND
p44
sg23
V76303
p45
sg25
I87
sg26
I7
sg27
I93
sa(dp46
g21
VEFFERNOCK LAD
p47
sg23
V0x043
p48
sg25
I96
sg26
I8
sg27
I97
sa(dp49
g21
VALL THE CHIMNEYS
p50
sg23
V3256x
p51
sg25
I73
sg26
I9
sg27
I78
sa(dp52
g21
VTIME AND TIMES
p53
sg23
V22x95
p54
sg25
I66
sg26
I10
sg27
I66
sa(dp55
g21
VFATHER JED
p56
sg23
V6558x
p57
sg25
I90
sg26
I11
sg27
I63
sa(dp58
g21
VSHE'S MADE IT
p59
sg23
V023x2
p60
sg25
I100
sg26
I12
sg27
I100
sa(dp61
g21
VALL ABOUT ALFIE
p62
sg23
V0147x
p63
sg25
I63
sg26
I13
sg27
I64
sa(dp64
g21
VMISS ECHRAD
p65
sg23
V544x9
p66
sg25
I77
sg26
I14
sg27
I81
sa(dp67
g21
VTAKEMEBACK
p68
sg23
Vx0x45
p69
sg25
I64
sg26
I15
sg27
I69
sa(dp70
g21
VBAZAROV
p71
sg23
V5x005
p72
sg25
I72
sg26
I16
sg27
I74
sa(dp73
g21
VSTILL ALIVE
p74
sg23
V05760
p75
sg25
I69
sg26
I17
sg27
I70
sasS'ratings_manual'
p76
(lp77
sssI1542556800
(dp78
g2
Vhttp://www.skyracing.com.au/index.php?component=racing&task=race&id=107993593&meetingid=106636595&Itemid=89
p79
sg4
V29013374.1600
p80
sg6
(dp81
g8
(lp82
(lp83
I4
aI3
aI7
aI6
aa(lp84
I3
aI4
aI1
aI7
aa(lp85
I3
aI4
aI1
aI7
aa(lp86
I3
aI4
aI1
aI7
aa(lp87
I3
aI4
aI1
aI6
aa(lp88
I3
aI4
aI7
aI6
aa(lp89
I4
aI7
aI8
aI2
aa(lp90
I3
aI4
aI1
aI7
aasg18
(lp91
(dp92
g21
VASK DILLON
p93
sg23
V1x2x2
p94
sg25
I76
sg26
I1
sg27
I74
sa(dp95
g21
VHOLD THE NOTE
p96
sg23
V1
p97
sg25
I85
sg26
I2
sg27
I79
sa(dp98
g21
VMASTER DEBONAIR
p99
sg23
V1x2
p100
sg25
I78
sg26
I3
sg27
I97
sa(dp101
g21
VMCFABULOUS
p102
sg23
V1
p103
sg25
I100
sg26
I4
sg27
I100
sa(dp104
g21
VONE TOUCH
p105
sg23
V1x4
p106
sg25
I64
sg26
I5
sg27
I64
sa(dp107
g21
VRIBBLE VALLEY
p108
sg23
V1
p109
sg25
I90
sg26
I6
sg27
I85
sa(dp110
g21
VTHYME HILL
p111
sg23
V1
p112
sg25
I99
sg26
I7
sg27
I92
sa(dp113
g21
VUNWIN VC
p114
sg23
V11x
p115
sg25
I82
sg26
I8
sg27
I78
sa(dp116
g21
VKISSESFORKATIE
p117
sg23
V3x1
p118
sg25
I69
sg26
I9
sg27
I68
sasg76
(lp119
sssI1542549000
(dp120
g2
Vhttp://www.skyracing.com.au/index.php?component=racing&task=race&id=107993589&meetingid=106636595&Itemid=89
p121
sg4
V29013374.1350
p122
sg6
(dp123
g8
(lp124
(lp125
I2
aI1
aI4
aI3
aa(lp126
I3
aI1
aI4
aI2
aa(lp127
I3
aI1
aI2
aI4
aa(lp128
I6
aI3
aI1
aI4
aa(lp129
I1
aI3
aI4
aI2
aa(lp130
I1
aI2
aI4
aI3
aa(lp131
I1
aI2
aI4
aI3
aa(lp132
I1
aI3
aI2
aI4
aasg18
(lp133
(dp134
g21
VCLAIMANTAKINFORGAN
p135
sg23
V352x1
p136
sg25
I100
sg26
I1
sg27
I96
sa(dp137
g21
VDEFI DU SEUIL
p138
sg23
Vx4x7x
p139
sg25
I97
sg26
I2
sg27
I100
sa(dp140
g21
VDYNAMITE DOLLARS
p141
sg23
V554x1
p142
sg25
I89
sg26
I3
sg27
I85
sa(dp143
g21
VLALOR
p144
sg23
V3201x
p145
sg25
I92
sg26
I4
sg27
I92
sa(dp146
g21
VONE FOR BILLY
p147
sg23
V11227
p148
sg25
I81
sg26
I5
sg27
I80
sa(dp149
g21
VPINGSHOU
p150
sg23
Vx013x
p151
sg25
I79
sg26
I6
sg27
I78
sasg76
(lp152
sssI1542549900
(dp153
g2
Vhttp://www.skyracing.com.au/index.php?component=racing&task=race&id=107993561&meetingid=106636611&Itemid=89
p154
sg4
V29013342.1405
p155
sg6
(dp156
g8
(lp157
(lp158
I9
aI4
aI1
aI5
aa(lp159
I4
aI1
aI6
aI3
aa(lp160
I4
aI1
aI6
aI3
aa(lp161
I4
aI6
aI1
aI9
aa(lp162
I4
aI3
aI1
aI6
aa(lp163
I1
aI9
aI4
aI5
aa(lp164
I9
aI1
aI4
aI5
aa(lp165
I4
aI1
aI9
aI6
aasg18
(lp166
(dp167
g21
VCHEEKY RASCAL
p168
sg23
V68261
p169
sg25
I96
sg26
I1
sg27
I90
sa(dp170
g21
VDRACARYS
p171
sg23
V00x00
p172
sg25
I60
sg26
I2
sg27
I61
sa(dp173
g21
VPELORIC
p174
sg23
V35
p175
sg25
I79
sg26
I3
sg27
I79
sa(dp176
g21
VTHE LINCOLN LAWYER
p177
sg23
V44x24
p178
sg25
I93
sg26
I4
sg27
I99
sa(dp179
g21
VTOUR DE PARIS
p180
sg23
Vx08x4
p181
sg25
I88
sg26
I5
sg27
I85
sa(dp182
g21
VVLANNON
p183
sg23
V44924
p184
sg25
I84
sg26
I6
sg27
I82
sa(dp185
g21
VFADING ICON
p186
sg23
V40046
p187
sg25
I76
sg26
I7
sg27
I77
sa(dp188
g21
VPOLAR LIGHT
p189
sg23
V30070
p190
sg25
I72
sg26
I8
sg27
I70
sa(dp191
g21
VTAZKA
p192
sg23
V353x3
p193
sg25
I100
sg26
I9
sg27
I100
sa(dp194
g21
VYAMUNA RIVER
p195
sg23
V0x836
p196
sg25
I68
sg26
I10
sg27
I63
sasg76
(lp197
sssI1542552600
(dp198
g2
Vhttp://www.skyracing.com.au/index.php?component=racing&task=race&id=107993533&meetingid=106781017&Itemid=89
p199
sg4
V29013504.1450
p200
sg6
(dp201
g8
(lp202
(lp203
I5
aI10
aI1
aI4
aa(lp204
I2
aI1
aI7
aI8
aa(lp205
I1
aI7
aI2
aI3
aa(lp206
I7
aI2
aI1
aI8
aa(lp207
I5
aI7
aI2
aI10
aa(lp208
I5
aI10
aI1
aI6
aa(lp209
I5
aI2
aI1
aI10
aa(lp210
I1
aI5
aI7
aI2
aasg18
(lp211
(dp212
g21
VLOS ALAMOS
p213
sg23
V8x271
p214
sg25
I97
sg26
I1
sg27
I93
sa(dp215
g21
VMAJOR DESTINATION
p216
sg23
V30320
p217
sg25
I90
sg26
I2
sg27
I89
sa(dp218
g21
VJACK FIASCO
p219
sg23
V71x06
p220
sg25
I88
sg26
I3
sg27
I71
sa(dp221
g21
VOZZIE'S WAY
p222
sg23
V32241
p223
sg25
I84
sg26
I4
sg27
I90
sa(dp224
g21
VCOURT MAID
p225
sg23
Vx1421
p226
sg25
I100
sg26
I5
sg27
I100
sa(dp227
g21
VARCTIC LIGHT
p228
sg23
Vx1026
p229
sg25
I78
sg26
I6
sg27
I85
sa(dp230
g21
VUNE LAVANDIERE
p231
sg23
V649x5
p232
sg25
I74
sg26
I7
sg27
I74
sa(dp233
g21
VKING'S WAR
p234
sg23
V56230
p235
sg25
I70
sg26
I8
sg27
I70
sa(dp236
g21
VCLONTARF
p237
sg23
V4650x
p238
sg25
I72
sg26
I9
sg27
I78
sa(dp239
g21
VBROSNA GEORGE
p240
sg23
Vx5x21
p241
sg25
I93
sg26
I10
sg27
I99
sa(dp242
g21
VTHE BALLYBOYS
p243
sg23
V40219
p244
sg25
I82
sg26
I11
sg27
I77
sa(dp245
g21
VHOLY MOTIVATION
p246
sg23
V63225
p247
sg25
I75
sg26
I12
sg27
I83
sa(dp248
g21
VSINNDAR SANDY
p249
sg23
V02204
p250
sg25
I62
sg26
I13
sg27
I61
sa(dp251
g21
VWILLIAM TYNDALE
p252
sg23
V0x2x0
p253
sg25
I60
sg26
I14
sg27
I62
sa(dp254
g21
VNANCY MAHER
p255
sg23
V78x80
p256
sg25
I66
sg26
I15
sg27
I67
sasg76
(lp257
sssI1542543900
(dp258
g2
Vhttp://www.skyracing.com.au/index.php?component=racing&task=race&id=107993558&meetingid=106636611&Itemid=89
p259
sg4
V29013342.1225
p260
sg6
(dp261
g8
(lp262
(lp263
I4
aI13
aI2
aI11
aa(lp264
I4
aI2
aI3
aI9
aa(lp265
I4
aI3
aI1
aI11
aa(lp266
I4
aI3
aI2
aI1
aa(lp267
I2
aI4
aI3
aI7
aa(lp268
I4
aI13
aI2
aI11
aa(lp269
I4
aI1
aI13
aI12
aa(lp270
I4
aI2
aI3
aI13
aasg18
(lp271
(dp272
g21
VMULTIGIFTED
p273
sg23
V6x080
p274
sg25
I86
sg26
I1
sg27
I78
sa(dp275
g21
VNO NO JULIET
p276
sg23
V6534x
p277
sg25
I90
sg26
I2
sg27
I93
sa(dp278
g21
VNEETSIDE
p279
sg23
V945x6
p280
sg25
I76
sg26
I3
sg27
I82
sa(dp281
g21
VSILVER SEA
p282
sg23
V35434
p283
sg25
I100
sg26
I4
sg27
I100
sa(dp284
g21
VKIWI MYTH
p285
sg23
V9605x
p286
sg25
I70
sg26
I5
sg27
I65
sa(dp287
g21
VSOLSTICE TWILIGHT
p288
sg23
V8933x
p289
sg25
I80
sg26
I6
sg27
I88
sa(dp290
g21
VBE DARING
p291
sg23
V424x6
p292
sg25
I79
sg26
I7
sg27
I84
sa(dp293
g21
VSERGIO
p294
sg23
V0x0x0
p295
sg25
I74
sg26
I8
sg27
I77
sa(dp296
g21
VCLASSULA
p297
sg23
V0930x
p298
sg25
I67
sg26
I9
sg27
I72
sa(dp299
g21
VJIMMY
p300
sg23
V7x6x0
p301
sg25
I72
sg26
I10
sg27
I70
sa(dp302
g21
VHIER ENCORE
p303
sg23
V475x2
p304
sg25
I87
sg26
I11
sg27
I90
sa(dp305
g21
VMAIGH DARA
p306
sg23
V0794x
p307
sg25
I93
sg26
I12
sg27
I73
sa(dp308
g21
VRING MINELLA
p309
sg23
V5871x
p310
sg25
I98
sg26
I13
sg27
I98
sasg76
(lp311
sssI1542554400
(dp312
g2
Vhttp://www.skyracing.com.au/index.php?component=racing&task=race&id=107993534&meetingid=106781017&Itemid=89
p313
sg4
V29013504.1520
p314
sg6
(dp315
g8
(lp316
(lp317
I7
aI1
aI5
aI2
aa(lp318
I7
aI5
aI1
aI2
aa(lp319
I3
aI1
aI2
aI4
aa(lp320
I7
aI5
aI3
aI6
aa(lp321
I7
aI5
aI1
aI6
aa(lp322
I7
aI1
aI5
aI2
aa(lp323
I7
aI1
aI5
aI6
aa(lp324
I7
aI5
aI1
aI3
aasg18
(lp325
(dp326
g21
VCUNEO
p327
sg23
V4321x
p328
sg25
I97
sg26
I1
sg27
I98
sa(dp329
g21
VAN'BALL
p330
sg23
V2207x
p331
sg25
I83
sg26
I2
sg27
I88
sa(dp332
g21
VGIGIPLAN TWO SEVEN
p333
sg23
V27x44
p334
sg25
I80
sg26
I3
sg27
I82
sa(dp335
g21
VLIAR'S DICE
p336
sg23
V360x
p337
sg25
I73
sg26
I4
sg27
I78
sa(dp338
g21
VTHE BIG DOG
p339
sg23
Vx041x
p340
sg25
I90
sg26
I5
sg27
I91
sa(dp341
g21
VSATOSHI
p342
sg23
V9x
p343
sg25
I86
sg26
I6
sg27
I77
sa(dp344
g21
VRELEGATE
p345
sg23
V1117x
p346
sg25
I100
sg26
I7
sg27
I100
sasg76
(lp347
sssI1542545700
(dp348
g2
Vhttp://www.skyracing.com.au/index.php?component=racing&task=race&id=107993559&meetingid=106636611&Itemid=89
p349
sg4
V29013342.1255
p350
sg6
(dp351
g8
(lp352
(lp353
I1
aI3
aI4
aI2
aa(lp354
I7
aI3
aI1
aI2
aa(lp355
I2
aI6
aI1
aI3
aa(lp356
I7
aI3
aI4
aI2
aa(lp357
I7
aI3
aI1
aI6
aa(lp358
I1
aI4
aI3
aI2
aa(lp359
I1
aI3
aI2
aI7
aa(lp360
I3
aI7
aI1
aI4
aasg18
(lp361
(dp362
g21
VMOABIT
p363
sg23
V1131x
p364
sg25
I100
sg26
I1
sg27
I100
sa(dp365
g21
VAND THE NEW
p366
sg23
Vx13x0
p367
sg25
I86
sg26
I2
sg27
I83
sa(dp368
g21
VLISP
p369
sg23
V1130x
p370
sg25
I98
sg26
I3
sg27
I98
sa(dp371
g21
VITSONLYROCKNROLL
p372
sg23
Vx360x
p373
sg25
I81
sg26
I4
sg27
I89
sa(dp374
g21
VTRY AGAIN
p375
sg23
V19315
p376
sg25
I92
sg26
I5
sg27
I91
sa(dp377
g21
VMARMONT
p378
sg23
V2x2x5
p379
sg25
I75
sg26
I6
sg27
I77
sa(dp380
g21
VSAN PEDRO DE SENAM
p381
sg23
V3466x
p382
sg25
I80
sg26
I7
sg27
I78
sasg76
(lp383
sssI1542556200
(dp384
g2
Vhttp://www.skyracing.com.au/index.php?component=racing&task=race&id=107993564&meetingid=106636611&Itemid=89
p385
sg4
V29013342.1550
p386
sg6
(dp387
g8
(lp388
(lp389
I1
aI4
aI6
aI5
aa(lp390
I3
aI1
aI5
aI7
aa(lp391
I1
aI6
aI5
aI7
aa(lp392
I4
aI1
aI5
aI7
aa(lp393
I3
aI7
aI1
aI5
aa(lp394
I4
aI1
aI5
aI6
aa(lp395
I1
aI4
aI2
aI6
aa(lp396
I1
aI4
aI5
aI3
aasg18
(lp397
(dp398
g21
VTURBAN
p399
sg23
V01471
p400
sg25
I100
sg26
I1
sg27
I100
sa(dp401
g21
VFULL SHIFT
p402
sg23
V7455x
p403
sg25
I95
sg26
I2
sg27
I84
sa(dp404
g21
VMORTENS LEAM
p405
sg23
V008x6
p406
sg25
I74
sg26
I3
sg27
I67
sa(dp407
g21
VWATER WAGTAIL
p408
sg23
V30x7x
p409
sg25
I97
sg26
I4
sg27
I96
sa(dp410
g21
VFILEMON
p411
sg23
V9x635
p412
sg25
I89
sg26
I5
sg27
I87
sa(dp413
g21
VBALLYANTICS
p414
sg23
V62x27
p415
sg25
I92
sg26
I6
sg27
I90
sa(dp416
g21
VARQUEBUSIER
p417
sg23
V660x5
p418
sg25
I85
sg26
I7
sg27
I74
sa(dp419
g21
VBROUGHTONS BANDIT
p420
sg23
V80x54
p421
sg25
I78
sg26
I8
sg27
I78
sa(dp422
g21
VMONET MOOR
p423
sg23
V8x63x
p424
sg25
I81
sg26
I9
sg27
I76
sa(dp425
g21
VWISH IN A WELL
p426
sg23
V2363x
p427
sg25
I75
sg26
I10
sg27
I83
sa(dp428
g21
VMIDNIGHT OWLE
p429
sg23
V970x2
p430
sg25
I71
sg26
I11
sg27
I68
sa(dp431
g21
VGRAYHAWK
p432
sg23
V139x5
p433
sg25
I71
sg26
I12
sg27
I71
sasg76
(lp434
sssI1542553500
(dp435
g2
Vhttp://www.skyracing.com.au/index.php?component=racing&task=race&id=107993548&meetingid=106781001&Itemid=89
p436
sg4
V29013533.1505
p437
sg6
(dp438
g8
(lp439
(lp440
I8
aI3
aI1
aI10
aa(lp441
I1
aI2
aI4
aI3
aa(lp442
I3
aI8
aI5
aI10
aa(lp443
I2
aI4
aI3
aI9
aa(lp444
I8
aI3
aI4
aI2
aa(lp445
I3
aI8
aI1
aI7
aa(lp446
I1
aI7
aI8
aI2
aa(lp447
I3
aI8
aI1
aI2
aasg18
(lp448
(dp449
g21
VDEANS ROAD
p450
sg23
V07x3x
p451
sg25
I96
sg26
I1
sg27
I88
sa(dp452
g21
VBLAST OF KOEMAN
p453
sg23
V2x550
p454
sg25
I78
sg26
I2
sg27
I78
sa(dp455
g21
VNIVEN
p456
sg23
V324x2
p457
sg25
I89
sg26
I3
sg27
I94
sa(dp458
g21
VCOEUR JOYEUX
p459
sg23
V2048x
p460
sg25
I68
sg26
I4
sg27
I65
sa(dp461
g21
VMICK THE JIVER
p462
sg23
V55x06
p463
sg25
I61
sg26
I5
sg27
I55
sa(dp464
g21
VACT IN TIME
p465
sg23
Vx018x
p466
sg25
I75
sg26
I6
sg27
I69
sa(dp467
g21
VALL THE ANSWERS
p468
sg23
V0x68x
p469
sg25
I94
sg26
I7
sg27
I75
sa(dp470
g21
VJAUNTY THOR
p471
sg23
V11511
p472
sg25
I100
sg26
I8
sg27
I100
sa(dp473
g21
VTISAMYSTERY
p474
sg23
V3995x
p475
sg25
I69
sg26
I9
sg27
I62
sa(dp476
g21
VPECULIAR GENIUS
p477
sg23
V015x2
p478
sg25
I81
sg26
I10
sg27
I84
sasg76
(lp479
sssI1542548400
(dp480
g2
Vhttp://www.skyracing.com.au/index.php?component=racing&task=race&id=107993531&meetingid=106781017&Itemid=89
p481
sg4
V29013504.1340
p482
sg6
(dp483
g8
(lp484
(lp485
I1
aI3
aI4
aI5
aa(lp486
I3
aI6
aI2
aI4
aa(lp487
I3
aI1
aI2
aI4
aa(lp488
I3
aI2
aI4
aI1
aa(lp489
I3
aI6
aI1
aI4
aa(lp490
I4
aI1
aI3
aI5
aa(lp491
I1
aI3
aI6
aI5
aa(lp492
I3
aI1
aI4
aI2
aasg18
(lp493
(dp494
g21
VBLOW BY BLOW
p495
sg23
V147x1
p496
sg25
I100
sg26
I1
sg27
I100
sa(dp497
g21
VCAP D'AUBOIS
p498
sg23
V3x134
p499
sg25
I80
sg26
I2
sg27
I79
sa(dp500
g21
VCUBOMANIA
p501
sg23
V11131
p502
sg25
I99
sg26
I3
sg27
I97
sa(dp503
g21
VNICK LOST
p504
sg23
V1112x
p505
sg25
I91
sg26
I4
sg27
I91
sa(dp506
g21
VORION D'AUBRELLE
p507
sg23
V5x31x
p508
sg25
I88
sg26
I5
sg27
I84
sa(dp509
g21
VSOME NECK
p510
sg23
V1406x
p511
sg25
I83
sg26
I6
sg27
I83
sasg76
(lp512
sssI1542549300
(dp513
g2
Vhttp://www.skyracing.com.au/index.php?component=racing&task=race&id=107993546&meetingid=106781001&Itemid=89
p514
sg4
V29013533.1355
p515
sg6
(dp516
g8
(lp517
(lp518
I3
aI1
aI2
aI11
aa(lp519
I1
aI3
aI9
aI2
aa(lp520
I3
aI9
aI2
aI10
aa(lp521
I5
aI3
aI9
aI2
aa(lp522
I9
aI3
aI1
aI2
aa(lp523
I1
aI3
aI11
aI2
aa(lp524
I1
aI3
aI7
aI2
aa(lp525
I3
aI1
aI9
aI2
aasg18
(lp526
(dp527
g21
VROOSTER BYRON
p528
sg23
V1111x
p529
sg25
I100
sg26
I1
sg27
I96
sa(dp530
g21
VBREX DRAGO
p531
sg23
V11102
p532
sg25
I93
sg26
I2
sg27
I93
sa(dp533
g21
VTELL ME ANNIE
p534
sg23
V001x1
p535
sg25
I96
sg26
I3
sg27
I100
sa(dp536
g21
VMILES TO MEMPHIS
p537
sg23
V0x080
p538
sg25
I86
sg26
I4
sg27
I76
sa(dp539
g21
VSONNY B
p540
sg23
V0x55x
p541
sg25
I72
sg26
I5
sg27
I70
sa(dp542
g21
VMONTYS MEADOW
p543
sg23
V3600x
p544
sg25
I80
sg26
I6
sg27
I85
sa(dp545
g21
VSYNOPSIS
p546
sg23
V23x6x
p547
sg25
I88
sg26
I7
sg27
I88
sa(dp548
g21
VCONRIGHT BOY
p549
sg23
Vx000x
p550
sg25
I68
sg26
I8
sg27
I69
sa(dp551
g21
VDAMUT
p552
sg23
V15x42
p553
sg25
I79
sg26
I9
sg27
I81
sa(dp554
g21
VANTIMATTER
p555
sg23
V40628
p556
sg25
I73
sg26
I10
sg27
I73
sa(dp557
g21
VHUMM BABY
p558
sg23
V4351x
p559
sg25
I90
sg26
I11
sg27
I91
sa(dp560
g21
VALLEZ KAL
p561
sg23
V2575x
p562
sg25
I77
sg26
I12
sg27
I78
sasg76
(lp563
sssI1542544500
(dp564
g2
Vhttp://www.skyracing.com.au/index.php?component=racing&task=race&id=107993529&meetingid=106781017&Itemid=89
p565
sg4
V29013504.1235
p566
sg6
(dp567
g8
(lp568
(lp569
I4
aI2
aI9
aI5
aa(lp570
I6
aI10
aI11
aI8
aa(lp571
I6
aI10
aI2
aI7
aa(lp572
I6
aI10
aI8
aI9
aa(lp573
I6
aI5
aI8
aI7
aa(lp574
I2
aI9
aI4
aI5
aa(lp575
I2
aI4
aI7
aI9
aa(lp576
I6
aI2
aI10
aI4
aasg18
(lp577
(dp578
g21
VMAKITORIX
p579
sg23
Vx3000
p580
sg25
I83
sg26
I1
sg27
I87
sa(dp581
g21
VHEARTS ARE TRUMPS
p582
sg23
Vx4212
p583
sg25
I100
sg26
I2
sg27
I96
sa(dp584
g21
VJETEZ
p585
sg23
V4x15x
p586
sg25
I74
sg26
I3
sg27
I73
sa(dp587
g21
VSTOOSHIE
p588
sg23
Vx5323
p589
sg25
I93
sg26
I4
sg27
I100
sa(dp590
g21
VTHE HOLY ONE
p591
sg23
Vx33x4
p592
sg25
I87
sg26
I5
sg27
I90
sa(dp593
g21
VMASTERMIND
p594
sg23
V3x343
p595
sg25
I78
sg26
I6
sg27
I77
sa(dp596
g21
VTANDEM
p597
sg23
V30x00
p598
sg25
I90
sg26
I7
sg27
I71
sa(dp599
g21
VDAKOTA MOIRETTE
p600
sg23
Vx337x
p601
sg25
I76
sg26
I8
sg27
I84
sa(dp602
g21
VEOLINE JOLIE
p603
sg23
Vx684x
p604
sg25
I96
sg26
I9
sg27
I91
sa(dp605
g21
VLIKE AN OPEN BOOK
p606
sg23
V19042
p607
sg25
I86
sg26
I10
sg27
I81
sa(dp608
g21
VSCHMIDT
p609
sg23
V12944
p610
sg25
I71
sg26
I11
sg27
I70
sasg76
(lp611
sssI1542551100
(dp612
g2
Vhttp://www.skyracing.com.au/index.php?component=racing&task=race&id=107993590&meetingid=106636595&Itemid=89
p613
sg4
V29013374.1425
p614
sg6
(dp615
g8
(lp616
(lp617
I3
aI4
aI2
aI1
aa(lp618
I3
aI4
aI6
aI2
aa(lp619
I1
aI2
aI6
aI3
aa(lp620
I3
aI4
aI2
aI1
aa(lp621
I3
aI1
aI2
aI4
aa(lp622
I3
aI4
aI2
aI6
aa(lp623
I2
aI3
aI6
aI1
aa(lp624
I3
aI4
aI2
aI1
aasg18
(lp625
(dp626
g21
VSIMPLY NED
p627
sg23
V412x4
p628
sg25
I85
sg26
I1
sg27
I85
sa(dp629
g21
VLE PREZIEN
p630
sg23
Vx16x2
p631
sg25
I91
sg26
I2
sg27
I90
sa(dp632
g21
VSCEAU ROYAL
p633
sg23
V2111x
p634
sg25
I100
sg26
I3
sg27
I100
sa(dp635
g21
VBRAIN POWER
p636
sg23
V5526x
p637
sg25
I96
sg26
I4
sg27
I97
sa(dp638
g21
VFOREST BIHAN
p639
sg23
V3416x
p640
sg25
I79
sg26
I5
sg27
I78
sa(dp641
g21
VSIZING GRANITE
p642
sg23
V360x6
p643
sg25
I83
sg26
I6
sg27
I83
sasg76
(lp644
sssI1542552000
(dp645
g2
Vhttp://www.skyracing.com.au/index.php?component=racing&task=race&id=107993562&meetingid=106636611&Itemid=89
p646
sg4
V29013342.1440
p647
sg6
(dp648
g8
(lp649
(lp650
I5
aI6
aI1
aI4
aa(lp651
I3
aI4
aI1
aI7
aa(lp652
I3
aI5
aI6
aI1
aa(lp653
I4
aI3
aI1
aI7
aa(lp654
I9
aI3
aI6
aI7
aa(lp655
I5
aI6
aI1
aI4
aa(lp656
I5
aI6
aI1
aI2
aa(lp657
I3
aI5
aI6
aI1
aasg18
(lp658
(dp659
g21
VMIGHTY LEADER
p660
sg23
V14314
p661
sg25
I88
sg26
I1
sg27
I92
sa(dp662
g21
VGINGILI
p663
sg23
V51x0x
p664
sg25
I92
sg26
I2
sg27
I72
sa(dp665
g21
VSHANROE SANTOS
p666
sg23
V176x4
p667
sg25
I79
sg26
I3
sg27
I78
sa(dp668
g21
VDOING FINE
p669
sg23
V4x4x0
p670
sg25
I82
sg26
I4
sg27
I86
sa(dp671
g21
VROBERT'S STAR
p672
sg23
V214x3
p673
sg25
I98
sg26
I5
sg27
I100
sa(dp674
g21
VPOTTERS APPROACH
p675
sg23
V15x61
p676
sg25
I100
sg26
I6
sg27
I95
sa(dp677
g21
VWIZARDS BRIDGE
p678
sg23
V116x4
p679
sg25
I73
sg26
I7
sg27
I75
sa(dp680
g21
VCAP HORNER
p681
sg23
V2137x
p682
sg25
I64
sg26
I8
sg27
I64
sa(dp683
g21
VMORNEY WING
p684
sg23
V36x13
p685
sg25
I72
sg26
I9
sg27
I81
sasg76
(lp686
sssI1542543300
(dp687
g2
Vhttp://www.skyracing.com.au/index.php?component=racing&task=race&id=107993543&meetingid=106781001&Itemid=89
p688
sg4
V29013533.1215
p689
sg6
(dp690
g8
(lp691
(lp692
I5
aI4
aI13
aI9
aa(lp693
I13
aI4
aI8
aI9
aa(lp694
I8
aI14
aI9
aI4
aa(lp695
I13
aI4
aI3
aI8
aa(lp696
I4
aI13
aI8
aI21
aa(lp697
I13
aI5
aI4
aI9
aa(lp698
I5
aI4
aI6
aI13
aa(lp699
I13
aI4
aI8
aI5
aasg18
(lp700
(dp701
g21
VBANTISS JACK
p702
sg23
V0
p703
sg25
I75
sg26
I1
sg27
I74
sa(dp704
g21
VBUCKBASIL
p705
sg23
V0
p706
sg25
I61
sg26
I2
sg27
I56
sa(dp707
g21
VCHARMED LIFE
p708
sg23
V6x
p709
sg25
I87
sg26
I3
sg27
I89
sa(dp710
g21
VEAGLE ROQUE
p711
sg23
V224x7
p712
sg25
I98
sg26
I4
sg27
I98
sa(dp713
g21
VECLAIR DE BEAUFEU
p714
sg23
V1x1x3
p715
sg25
I100
sg26
I5
sg27
I100
sa(dp716
g21
VEMAIL ROSE
p717
sg23
V
p718
sg25
I96
sg26
I6
sg27
I0
sa(dp719
g21
VENCORE LUI
p720
sg23
g718
sg25
I91
sg26
I7
sg27
I0
sa(dp721
g21
VKILLACOLLA
p722
sg23
V5x743
p723
sg25
I85
sg26
I8
sg27
I85
sa(dp724
g21
VLET THE HEIRS WALK
p725
sg23
V465
p726
sg25
I88
sg26
I9
sg27
I91
sa(dp727
g21
VLOCAL ROGUE
p728
sg23
V3x0
p729
sg25
I80
sg26
I10
sg27
I81
sa(dp730
g21
VPETER'S PENCE
p731
sg23
V0x
p732
sg25
I71
sg26
I11
sg27
I66
sa(dp733
g21
VPRESENTING POINT
p734
sg23
V7x
p735
sg25
I70
sg26
I12
sg27
I69
sa(dp736
g21
VSAMS PROFILE
p737
sg23
V1x3x
p738
sg25
I92
sg26
I13
sg27
I94
sa(dp739
g21
VSTORM FLIGHT
p740
sg23
V7
p741
sg25
I69
sg26
I14
sg27
I72
sa(dp742
g21
VTHE FAMOUSMAVERICK
p743
sg23
V0x
p744
sg25
I68
sg26
I15
sg27
I58
sa(dp745
g21
VTYPHOON RISING
p746
sg23
Vx00x0
p747
sg25
I66
sg26
I16
sg27
I60
sa(dp748
g21
VWEIHNACHTS
p749
sg23
V6x
p750
sg25
I76
sg26
I17
sg27
I76
sa(dp751
g21
VBELLA RUA
p752
sg23
V40x79
p753
sg25
I64
sg26
I18
sg27
I62
sa(dp754
g21
VBRAZEN BAY
p755
sg23
V7x8
p756
sg25
I63
sg26
I19
sg27
I64
sa(dp757
g21
VEXIT TO THE WEST
p758
sg23
V05x
p759
sg25
I82
sg26
I20
sg27
I87
sa(dp760
g21
VGOLDEN GLEN
p761
sg23
V3x9
p762
sg25
I78
sg26
I21
sg27
I80
sasg76
(lp763
sssI1542545100
(dp764
g2
Vhttp://www.skyracing.com.au/index.php?component=racing&task=race&id=107993544&meetingid=106781001&Itemid=89
p765
sg4
V29013533.1245
p766
sg6
(dp767
g8
(lp768
(lp769
I3
aI4
aI5
aI6
aa(lp770
I3
aI4
aI5
aI1
aa(lp771
I1
aI10
aI6
aI7
aa(lp772
I3
aI4
aI5
aI1
aa(lp773
I3
aI5
aI4
aI10
aa(lp774
I4
aI3
aI6
aI5
aa(lp775
I3
aI4
aI10
aI5
aa(lp776
I3
aI4
aI5
aI1
aasg18
(lp777
(dp778
g21
VANYWAYYOULOOKATIT
p779
sg23
V0x0
p780
sg25
I80
sg26
I1
sg27
I81
sa(dp781
g21
VBETTERASK JJ
p782
sg23
V60
p783
sg25
I64
sg26
I2
sg27
I65
sa(dp784
g21
VGETAWAY JOHN
p785
sg23
V2110x
p786
sg25
I100
sg26
I3
sg27
I100
sa(dp787
g21
VLAVERTEEN
p788
sg23
V2402x
p789
sg25
I96
sg26
I4
sg27
I96
sa(dp790
g21
VPRESENTED WELL
p791
sg23
V02x2x
p792
sg25
I92
sg26
I5
sg27
I90
sa(dp793
g21
VRIPPON LODGE
p794
sg23
V37
p795
sg25
I83
sg26
I6
sg27
I86
sa(dp796
g21
VTIBETAN GOLD
p797
sg23
V0x06
p798
sg25
I71
sg26
I7
sg27
I69
sa(dp799
g21
VAMBER AND BLACK
p800
sg23
V70
p801
sg25
I60
sg26
I8
sg27
I59
sa(dp802
g21
VKATE VAN HALL
p803
sg23
V0x8x0
p804
sg25
I76
sg26
I9
sg27
I71
sa(dp805
g21
VPAPAL PARADE
p806
sg23
V5x109
p807
sg25
I88
sg26
I10
sg27
I78
sasg76
(lp808
sssI1542555600
(dp809
g2
Vhttp://www.skyracing.com.au/index.php?component=racing&task=race&id=107993549&meetingid=106781001&Itemid=89
p810
sg4
V29013533.1540
p811
sg6
(dp812
g8
(lp813
(lp814
I2
aI1
aI4
aI5
aa(lp815
I2
aI1
aI4
aI7
aa(lp816
I3
aI4
aI5
aI7
aa(lp817
I1
aI4
aI7
aI3
aa(lp818
I1
aI4
aI2
aI3
aa(lp819
I1
aI2
aI4
aI3
aa(lp820
I2
aI5
aI4
aI1
aa(lp821
I1
aI4
aI2
aI3
aasg18
(lp822
(dp823
g21
VMACS LEGEND
p824
sg23
V2161x
p825
sg25
I87
sg26
I1
sg27
I95
sa(dp826
g21
VALPHA MALE
p827
sg23
Vx231x
p828
sg25
I100
sg26
I2
sg27
I100
sa(dp829
g21
VBAILY FOX
p830
sg23
V101x2
p831
sg25
I83
sg26
I3
sg27
I81
sa(dp832
g21
VCARRIGNAGAPPLE
p833
sg23
V213x4
p834
sg25
I90
sg26
I4
sg27
I90
sa(dp835
g21
VDIFFERENT SPOT
p836
sg23
Vx5x14
p837
sg25
I96
sg26
I5
sg27
I86
sa(dp838
g21
VGLORIOUS GALWAY
p839
sg23
V02x9x
p840
sg25
I74
sg26
I6
sg27
I76
sa(dp841
g21
VSANDYCOVE ISLAND
p842
sg23
V86532
p843
sg25
I80
sg26
I7
sg27
I74
sasg76
(lp844
sssI1542546900
(dp845
g2
Vhttp://www.skyracing.com.au/index.php?component=racing&task=race&id=107993588&meetingid=106636595&Itemid=89
p846
sg4
V29013374.1315
p847
sg6
(dp848
g8
(lp849
(lp850
I16
aI2
aI7
aI6
aa(lp851
I4
aI2
aI19
aI10
aa(lp852
I4
aI17
aI12
aI1
aa(lp853
I4
aI2
aI5
aI1
aa(lp854
I2
aI4
aI16
aI19
aa(lp855
I7
aI16
aI2
aI6
aa(lp856
I3
aI6
aI2
aI7
aa(lp857
I2
aI4
aI16
aI7
aasg18
(lp858
(dp859
g21
VFOLLOW THE BEAR
p860
sg23
V754x7
p861
sg25
I78
sg26
I1
sg27
I73
sa(dp862
g21
VSWORD OF FATE
p863
sg23
V5114x
p864
sg25
I100
sg26
I2
sg27
I98
sa(dp865
g21
VPALMERS HILL
p866
sg23
V14x3x
p867
sg25
I96
sg26
I3
sg27
I83
sa(dp868
g21
VVANITEUX
p869
sg23
V0x355
p870
sg25
I82
sg26
I4
sg27
I79
sa(dp871
g21
VGRAY DAY
p872
sg23
Vx3x5x
p873
sg25
I88
sg26
I5
sg27
I77
sa(dp874
g21
VHURRICANE DYLAN
p875
sg23
V3211x
p876
sg25
I97
sg26
I6
sg27
I86
sa(dp877
g21
VTHE DELLERCHECKOUT
p878
sg23
V25x4x
p879
sg25
I93
sg26
I7
sg27
I89
sa(dp880
g21
VSOLO SAXOPHONE
p881
sg23
V136x6
p882
sg25
I85
sg26
I8
sg27
I85
sa(dp883
g21
VMAX FORTE
p884
sg23
V481x5
p885
sg25
I70
sg26
I9
sg27
I65
sa(dp886
g21
VMINELLAFORLEISURE
p887
sg23
Vx75x8
p888
sg25
I63
sg26
I10
sg27
I52
sa(dp889
g21
VCOEUR PENSIF
p890
sg23
V5716x
p891
sg25
I69
sg26
I11
sg27
I60
sa(dp892
g21
VMR MAFIA
p893
sg23
V13223
p894
sg25
I77
sg26
I12
sg27
I75
sa(dp895
g21
VTHREE STAR GENERAL
p896
sg23
V23x58
p897
sg25
I60
sg26
I13
sg27
I54
sa(dp898
g21
VUTILITY
p899
sg23
V66401
p900
sg25
I80
sg26
I14
sg27
I62
sa(dp901
g21
VCAMRON DE CHAILLAC
p902
sg23
V1053x
p903
sg25
I68
sg26
I15
sg27
I63
sa(dp904
g21
VBALLYHOME
p905
sg23
V862x1
p906
sg25
I90
sg26
I16
sg27
I100
sa(dp907
g21
VVALADOM
p908
sg23
V74x26
p909
sg25
I58
sg26
I17
sg27
I57
sa(dp910
g21
VAASLEAGH DAWN
p911
sg23
V06471
p912
sg25
I87
sg26
I18
sg27
I80
sa(dp913
g21
VMAGUIRE'S GLEN
p914
sg23
Vx144x
p915
sg25
I65
sg26
I19
sg27
I58
sa(dp916
g21
VSLIDING DOORS
p917
sg23
V074x3
p918
sg25
I66
sg26
I20
sg27
I64
sa(dp919
g21
VRINGMOYLAN
p920
sg23
V24x9x
p921
sg25
I54
sg26
I21
sg27
I48
sa(dp922
g21
VLORD GETAWAY
p923
sg23
V0x2x6
p924
sg25
I56
sg26
I22
sg27
I51
sa(dp925
g21
VOFFSHORE OSCAR
p926
sg23
Vx8x12
p927
sg25
I72
sg26
I23
sg27
I67
sa(dp928
g21
VUNBLINKING
p929
sg23
V227x1
p930
sg25
I73
sg26
I24
sg27
I70
sasg76
(lp931
sssI1542547800
(dp932
g2
Vhttp://www.skyracing.com.au/index.php?component=racing&task=race&id=107993560&meetingid=106636611&Itemid=89
p933
sg4
V29013342.1330
p934
sg6
(dp935
g8
(lp936
(lp937
I4
aI6
aI5
aI1
aa(lp938
I1
aI4
aI6
aI2
aa(lp939
I6
aI8
aI1
aI2
aa(lp940
I1
aI6
aI5
aI4
aa(lp941
I1
aI4
aI6
aI7
aa(lp942
I4
aI6
aI5
aI7
aa(lp943
I4
aI5
aI6
aI1
aa(lp944
I6
aI4
aI1
aI5
aasg18
(lp945
(dp946
g21
VWALT
p947
sg23
Vx206x
p948
sg25
I83
sg26
I1
sg27
I86
sa(dp949
g21
VROYAL MAGIC
p950
sg23
V15x8x
p951
sg25
I76
sg26
I2
sg27
I73
sa(dp952
g21
VBURST YA BUBBLE
p953
sg23
V136x6
p954
sg25
I69
sg26
I3
sg27
I80
sa(dp955
g21
VPULL TOGETHER
p956
sg23
V2221x
p957
sg25
I100
sg26
I4
sg27
I100
sa(dp958
g21
VPLUS ONE
p959
sg23
V2x63x
p960
sg25
I97
sg26
I5
sg27
I91
sa(dp961
g21
VDIPLOMATE SIVOLA
p962
sg23
Vx43x3
p963
sg25
I94
sg26
I6
sg27
I96
sa(dp964
g21
VSANDHURST LAD
p965
sg23
V2240x
p966
sg25
I78
sg26
I7
sg27
I82
sa(dp967
g21
VGLEN ROCCO
p968
sg23
V653x0
p969
sg25
I85
sg26
I8
sg27
I70
sa(dp970
g21
VMAHLER'S FIRST
p971
sg23
V6x50x
p972
sg25
I67
sg26
I9
sg27
I66
sasg76
(lp973
sssI1542550500
(dp974
g2
Vhttp://www.skyracing.com.au/index.php?component=racing&task=race&id=107993532&meetingid=106781017&Itemid=89
p975
sg4
V29013504.1415
p976
sg6
(dp977
g8
(lp978
(lp979
I2
aI1
aI4
aI5
aa(lp980
I5
aI3
aI1
aI4
aa(lp981
I5
aI2
aI6
aI3
aa(lp982
I5
aI4
aI1
aI2
aa(lp983
I5
aI1
aI2
aI4
aa(lp984
I4
aI2
aI1
aI5
aa(lp985
I2
aI1
aI4
aI5
aa(lp986
I5
aI2
aI1
aI4
aasg18
(lp987
(dp988
g21
VFAUGHEEN
p989
sg23
V5261x
p990
sg25
I97
sg26
I1
sg27
I99
sa(dp991
g21
VSAMCRO
p992
sg23
V117x2
p993
sg25
I100
sg26
I2
sg27
I100
sa(dp994
g21
VSHARJAH
p995
sg23
V31003
p996
sg25
I80
sg26
I3
sg27
I80
sa(dp997
g21
VSUPASUNDAE
p998
sg23
V1221x
p999
sg25
I90
sg26
I4
sg27
I90
sa(dp1000
g21
VTOMBSTONE
p1001
sg23
V26x51
p1002
sg25
I85
sg26
I5
sg27
I86
sa(dp1003
g21
VWICKLOW BRAVE
p1004
sg23
V11136
p1005
sg25
I81
sg26
I6
sg27
I84
sasg76
(lp1006
sssI1542551400
(dp1007
g2
Vhttp://www.skyracing.com.au/index.php?component=racing&task=race&id=107993547&meetingid=106781001&Itemid=89
p1008
sg4
V29013533.1430
p1009
sg6
(dp1010
g8
(lp1011
(lp1012
I1
aI7
aI2
aI16
aa(lp1013
I3
aI15
aI1
aI2
aa(lp1014
I1
aI3
aI2
aI7
aa(lp1015
I15
aI1
aI3
aI2
aa(lp1016
I1
aI3
aI2
aI16
aa(lp1017
I1
aI7
aI2
aI18
aa(lp1018
I16
aI2
aI18
aI7
aa(lp1019
I1
aI3
aI2
aI7
aasg18
(lp1020
(dp1021
g21
VALL'S QUIET
p1022
sg23
V90332
p1023
sg25
I99
sg26
I1
sg27
I100
sa(dp1024
g21
VALLARDYCE
p1025
sg23
V078x3
p1026
sg25
I91
sg26
I2
sg27
I95
sa(dp1027
g21
VCOWBOY DES LONG
p1028
sg23
V0x720
p1029
sg25
I82
sg26
I3
sg27
I90
sa(dp1030
g21
VDANSE AWAY
p1031
sg23
V111x4
p1032
sg25
I87
sg26
I4
sg27
I87
sa(dp1033
g21
VDOLDIDO
p1034
sg23
V07x5x
p1035
sg25
I69
sg26
I5
sg27
I70
sa(dp1036
g21
VDUNDEEDY LAD
p1037
sg23
V0x019
p1038
sg25
I71
sg26
I6
sg27
I77
sa(dp1039
g21
VGUIDED BY YOU
p1040
sg23
V80x53
p1041
sg25
I96
sg26
I7
sg27
I98
sa(dp1042
g21
VLAST MAN STANDING
p1043
sg23
V2140x
p1044
sg25
I89
sg26
I8
sg27
I78
sa(dp1045
g21
VMAEVE'S CHOICE
p1046
sg23
V1680x
p1047
sg25
I75
sg26
I9
sg27
I72
sa(dp1048
g21
VPOKER PARTY
p1049
sg23
V00x56
p1050
sg25
I85
sg26
I10
sg27
I81
sa(dp1051
g21
VQUI BONO
p1052
sg23
V2x565
p1053
sg25
I67
sg26
I11
sg27
I69
sa(dp1054
g21
VR'EVELYN PLEASURE
p1055
sg23
V1429x
p1056
sg25
I66
sg26
I12
sg27
I67
sa(dp1057
g21
VSHAR WHATS THERUSH
p1058
sg23
V1x98x
p1059
sg25
I63
sg26
I13
sg27
I60
sa(dp1060
g21
VSNUGSBOROUGH HALL
p1061
sg23
V3x0x5
p1062
sg25
I60
sg26
I14
sg27
I62
sa(dp1063
g21
VTYRRELL'S SUCCES
p1064
sg23
Vx77x6
p1065
sg25
I64
sg26
I15
sg27
I64
sa(dp1066
g21
VCASTAFIORE PARK
p1067
sg23
V2101x
p1068
sg25
I100
sg26
I16
sg27
I94
sa(dp1069
g21
VDEFINITE INCOME
p1070
sg23
V07x07
p1071
sg25
I80
sg26
I17
sg27
I66
sa(dp1072
g21
VNELLIE PLEDGE
p1073
sg23
V3153x
p1074
sg25
I92
sg26
I18
sg27
I89
sa(dp1075
g21
VFRANKIEFIVEANGELS
p1076
sg23
V856x4
p1077
sg25
I70
sg26
I19
sg27
I74
sa(dp1078
g21
VCRAZYHEART
p1079
sg23
V002x4
p1080
sg25
I76
sg26
I20
sg27
I82
sa(dp1081
g21
VSTEER CLEAR
p1082
sg23
V0662x
p1083
sg25
I78
sg26
I21
sg27
I85
sasg76
(lp1084
sssI1542542700
(dp1085
g2
Vhttp://www.skyracing.com.au/index.php?component=racing&task=race&id=107993528&meetingid=106781017&Itemid=89
p1086
sg4
V29013504.1205
p1087
sg6
(dp1088
g8
(lp1089
(lp1090
I2
aI3
aI4
aI11
aa(lp1091
I2
aI3
aI4
aI5
aa(lp1092
I2
aI3
aI9
aI11
aa(lp1093
I2
aI3
aI6
aI4
aa(lp1094
I2
aI3
aI4
aI5
aa(lp1095
I3
aI2
aI11
aI4
aa(lp1096
I2
aI4
aI11
aI3
aa(lp1097
I2
aI3
aI4
aI11
aasg18
(lp1098
(dp1099
g21
VAMAULINO
p1100
sg23
V156x0
p1101
sg25
I84
sg26
I1
sg27
I80
sa(dp1102
g21
VBALLYCASEY
p1103
sg23
V363x4
p1104
sg25
I100
sg26
I2
sg27
I100
sa(dp1105
g21
VFULL CRY
p1106
sg23
V62014
p1107
sg25
I95
sg26
I3
sg27
I96
sa(dp1108
g21
VHURRICANE DARWIN
p1109
sg23
Vx402x
p1110
sg25
I92
sg26
I4
sg27
I94
sa(dp1111
g21
VMTADA SUPREME
p1112
sg23
V7x0x9
p1113
sg25
I87
sg26
I5
sg27
I75
sa(dp1114
g21
VBALLYBOKER BRIDGE
p1115
sg23
V6x73x
p1116
sg25
I81
sg26
I6
sg27
I72
sa(dp1117
g21
VBLACK BENNY
p1118
sg23
V5637x
p1119
sg25
I74
sg26
I7
sg27
I71
sa(dp1120
g21
VLIGHTING TUNES
p1121
sg23
V437x5
p1122
sg25
I71
sg26
I8
sg27
I77
sa(dp1123
g21
VMY HOMETOWN
p1124
sg23
Vx7865
p1125
sg25
I77
sg26
I9
sg27
I83
sa(dp1126
g21
VVITAL ISLAND
p1127
sg23
V5496x
p1128
sg25
I78
sg26
I10
sg27
I88
sa(dp1129
g21
VAN RINCEOIR ALAINN
p1130
sg23
V1
p1131
sg25
I97
sg26
I11
sg27
I91
sasg76
(lp1132
sssI1542553200
(dp1133
g2
Vhttp://www.skyracing.com.au/index.php?component=racing&task=race&id=107993591&meetingid=106636595&Itemid=89
p1134
sg4
V29013374.1500
p1135
sg6
(dp1136
g8
(lp1137
(lp1138
I2
aI5
aI12
aI6
aa(lp1139
I16
aI7
aI1
aI15
aa(lp1140
I2
aI1
aI3
aI7
aa(lp1141
I1
aI15
aI2
aI17
aa(lp1142
I7
aI16
aI12
aI18
aa(lp1143
I2
aI5
aI12
aI6
aa(lp1144
I5
aI14
aI12
aI2
aa(lp1145
I2
aI1
aI7
aI16
aasg18
(lp1146
(dp1147
g21
VOLD GUARD
p1148
sg23
V74x22
p1149
sg25
I73
sg26
I1
sg27
I81
sa(dp1150
g21
VVERDANA BLUE
p1151
sg23
V0x111
p1152
sg25
I100
sg26
I2
sg27
I100
sa(dp1153
g21
VMOHAAYED
p1154
sg23
V3x1x4
p1155
sg25
I71
sg26
I3
sg27
I79
sa(dp1156
g21
VCHARLI PARCS
p1157
sg23
V0004x
p1158
sg25
I65
sg26
I4
sg27
I66
sa(dp1159
g21
VWESTERN RYDER
p1160
sg23
V4265x
p1161
sg25
I96
sg26
I5
sg27
I99
sa(dp1162
g21
VSILVER STREAK
p1163
sg23
V6x1x1
p1164
sg25
I84
sg26
I6
sg27
I93
sa(dp1165
g21
VCAIUS MARCIUS
p1166
sg23
V22113
p1167
sg25
I69
sg26
I7
sg27
I74
sa(dp1168
g21
VMIDNIGHT SHADOW
p1169
sg23
V471x2
p1170
sg25
I81
sg26
I8
sg27
I92
sa(dp1171
g21
VLE PATRIOTE
p1172
sg23
V10x81
p1173
sg25
I87
sg26
I9
sg27
I83
sa(dp1174
g21
VIRISH ROE
p1175
sg23
V0x6x3
p1176
sg25
I97
sg26
I10
sg27
I72
sa(dp1177
g21
VSTORM RISING
p1178
sg23
V15411
p1179
sg25
I78
sg26
I11
sg27
I88
sa(dp1180
g21
VNUBE NEGRA
p1181
sg23
V2135x
p1182
sg25
I93
sg26
I12
sg27
I95
sa(dp1183
g21
VEQUUS AMADEUS
p1184
sg23
V5x461
p1185
sg25
I54
sg26
I13
sg27
I55
sa(dp1186
g21
VBRIANSTORM
p1187
sg23
V3110x
p1188
sg25
I91
sg26
I14
sg27
I69
sa(dp1189
g21
VMAD JACK MYTTON
p1190
sg23
V54x34
p1191
sg25
I60
sg26
I15
sg27
I61
sa(dp1192
g21
VVADO FORTE
p1193
sg23
V211x3
p1194
sg25
I66
sg26
I16
sg27
I76
sa(dp1195
g21
VDEYRANN DE CARJAC
p1196
sg23
Vx21x2
p1197
sg25
I77
sg26
I17
sg27
I86
sa(dp1198
g21
VNOT THAT FUISSE
p1199
sg23
V11x52
p1200
sg25
I89
sg26
I18
sg27
I65
sa(dp1201
g21
VNIETZSCHE
p1202
sg23
V869x2
p1203
sg25
I59
sg26
I19
sg27
I56
sa(dp1204
g21
VMAN OF PLENTY
p1205
sg23
V52x65
p1206
sg25
I63
sg26
I20
sg27
I63
sasg76
(lp1207
sssI1542554100
(dp1208
g2
Vhttp://www.skyracing.com.au/index.php?component=racing&task=race&id=107993563&meetingid=106636611&Itemid=89
p1209
sg4
V29013342.1515
p1210
sg6
(dp1211
g8
(lp1212
(lp1213
I6
aI8
aI1
aI10
aa(lp1214
I6
aI5
aI8
aI1
aa(lp1215
I13
aI8
aI9
aI10
aa(lp1216
I5
aI1
aI3
aI10
aa(lp1217
I6
aI1
aI8
aI13
aa(lp1218
I6
aI8
aI1
aI10
aa(lp1219
I6
aI10
aI8
aI1
aa(lp1220
I6
aI8
aI1
aI5
aasg18
(lp1221
(dp1222
g21
VBOUND HILL
p1223
sg23
V9x83x
p1224
sg25
I90
sg26
I1
sg27
I95
sa(dp1225
g21
VSHAW'S CROSS
p1226
sg23
Vx077x
p1227
sg25
I64
sg26
I2
sg27
I64
sa(dp1228
g21
VSNOWY OSCAR
p1229
sg23
V6748x
p1230
sg25
I72
sg26
I3
sg27
I71
sa(dp1231
g21
VSEAWEED
p1232
sg23
V0x70x
p1233
sg25
I71
sg26
I4
sg27
I71
sa(dp1234
g21
VMAZALTO
p1235
sg23
V0505x
p1236
sg25
I75
sg26
I5
sg27
I76
sa(dp1237
g21
VSKY FULL OF STARS
p1238
sg23
V2422x
p1239
sg25
I100
sg26
I6
sg27
I100
sa(dp1240
g21
VI'LL BE YOUR CLOWN
p1241
sg23
V079x9
p1242
sg25
I89
sg26
I7
sg27
I79
sa(dp1243
g21
VKALARIKA
p1244
sg23
V612x5
p1245
sg25
I93
sg26
I8
sg27
I99
sa(dp1246
g21
VGLOBAL TOUR
p1247
sg23
V70659
p1248
sg25
I81
sg26
I9
sg27
I86
sa(dp1249
g21
VWESTERBEE
p1250
sg23
V713x7
p1251
sg25
I99
sg26
I10
sg27
I90
sa(dp1252
g21
VBONZA GIRL
p1253
sg23
Vx764x
p1254
sg25
I73
sg26
I11
sg27
I74
sa(dp1255
g21
VTIME FOR CHAMPERS
p1256
sg23
V62x06
p1257
sg25
I60
sg26
I12
sg27
I60
sa(dp1258
g21
VUDOGO
p1259
sg23
V86715
p1260
sg25
I84
sg26
I13
sg27
I88
sa(dp1261
g21
VMIN TIKY
p1262
sg23
V00x95
p1263
sg25
I79
sg26
I14
sg27
I83
sa(dp1264
g21
VGILLY GRACE
p1265
sg23
V405x8
p1266
sg25
I63
sg26
I15
sg27
I63
sasg76
(lp1267
sssI1542555000
(dp1268
g2
Vhttp://www.skyracing.com.au/index.php?component=racing&task=race&id=107993592&meetingid=106636595&Itemid=89
p1269
sg4
V29013374.1530
p1270
sg6
(dp1271
g8
(lp1272
(lp1273
I1
aI2
aI5
aI4
aa(lp1274
I4
aI5
aI6
aI2
aa(lp1275
I4
aI2
aI1
aI5
aa(lp1276
I5
aI4
aI6
aI1
aa(lp1277
I6
aI4
aI2
aI5
aa(lp1278
I2
aI1
aI5
aI3
aa(lp1279
I2
aI1
aI3
aI5
aa(lp1280
I4
aI2
aI5
aI1
aasg18
(lp1281
(dp1282
g21
VITCHY FEET
p1283
sg23
V2x111
p1284
sg25
I97
sg26
I1
sg27
I100
sa(dp1285
g21
VANYTIME WILL DO
p1286
sg23
Vx1x11
p1287
sg25
I100
sg26
I2
sg27
I96
sa(dp1288
g21
VCOLONEL CUSTARD
p1289
sg23
V31x1
p1290
sg25
I89
sg26
I3
sg27
I83
sa(dp1291
g21
VELIXIR DE NUTZ
p1292
sg23
V6x0x2
p1293
sg25
I79
sg26
I4
sg27
I88
sa(dp1294
g21
VSEDDON
p1295
sg23
V10x1
p1296
sg25
I90
sg26
I5
sg27
I93
sa(dp1297
g21
VTWO FOR GOLD
p1298
sg23
V161x
p1299
sg25
I83
sg26
I6
sg27
I77
sasg76
(lp1300
sssI1542556500
(dp1301
g2
Vhttp://www.skyracing.com.au/index.php?component=racing&task=race&id=107993535&meetingid=106781017&Itemid=89
p1302
sg4
V29013504.1555
p1303
sg6
(dp1304
g8
(lp1305
(lp1306
I1
aI2
aI9
aI6
aa(lp1307
I2
aI1
aI6
aI9
aa(lp1308
I2
aI1
aI6
aI3
aa(lp1309
I2
aI1
aI6
aI9
aa(lp1310
I2
aI1
aI9
aI6
aa(lp1311
I2
aI1
aI6
aI9
aa(lp1312
I2
aI1
aI9
aI6
aa(lp1313
I2
aI1
aI6
aI9
aasg18
(lp1314
(dp1315
g21
VMALONE ROAD
p1316
sg23
V1x1
p1317
sg25
I100
sg26
I1
sg27
I100
sa(dp1318
g21
VMT LEINSTER
p1319
sg23
V1
p1320
sg25
I97
sg26
I2
sg27
I94
sa(dp1321
g21
VCASTLE VALLEY
p1322
sg23
V800
p1323
sg25
I65
sg26
I3
sg27
I83
sa(dp1324
g21
VFELICITY'S CHOICE
p1325
sg23
g718
sg25
I69
sg26
I4
sg27
I0
sa(dp1326
g21
VMAM TRASNA
p1327
sg23
g718
sg25
I74
sg26
I5
sg27
I0
sa(dp1328
g21
VTHE DUDE ABIDES
p1329
sg23
V76
p1330
sg25
I87
sg26
I6
sg27
I84
sa(dp1331
g21
VCLANCYPANTZ
p1332
sg23
g718
sg25
I82
sg26
I7
sg27
I0
sa(dp1333
g21
VFARNEY VILLA
p1334
sg23
g718
sg25
I80
sg26
I8
sg27
I0
sa(dp1335
g21
VHIGHSTREET ROLLER
p1336
sg23
V1x
p1337
sg25
I91
sg26
I9
sg27
I90
sasg76
(lp1338
sssI1542546300
(dp1339
g2
Vhttp://www.skyracing.com.au/index.php?component=racing&task=race&id=107993530&meetingid=106781017&Itemid=89
p1340
sg4
V29013504.1305
p1341
sg6
(dp1342
g8
(lp1343
(lp1344
I8
aI12
aI9
aI5
aa(lp1345
I2
aI10
aI3
aI9
aa(lp1346
I2
aI3
aI6
aI7
aa(lp1347
I6
aI10
aI1
aI3
aa(lp1348
I12
aI13
aI2
aI7
aa(lp1349
I8
aI9
aI5
aI12
aa(lp1350
I8
aI9
aI1
aI10
aa(lp1351
I2
aI8
aI12
aI9
aasg18
(lp1352
(dp1353
g21
VCOLMS DREAM
p1354
sg23
V7x07x
p1355
sg25
I84
sg26
I1
sg27
I69
sa(dp1356
g21
VDRUMCONNOR LAD
p1357
sg23
V46703
p1358
sg25
I78
sg26
I2
sg27
I73
sa(dp1359
g21
VCECIL CORBETT
p1360
sg23
V56145
p1361
sg25
I92
sg26
I3
sg27
I89
sa(dp1362
g21
VGRAND PARTNER
p1363
sg23
V40650
p1364
sg25
I70
sg26
I4
sg27
I70
sa(dp1365
g21
VMIGHTY STOWAWAY
p1366
sg23
V2x881
p1367
sg25
I82
sg26
I5
sg27
I92
sa(dp1368
g21
VSHANPALLAS
p1369
sg23
V76945
p1370
sg25
I68
sg26
I6
sg27
I78
sa(dp1371
g21
VJUSTMEMYSELFANDI
p1372
sg23
V40120
p1373
sg25
I65
sg26
I7
sg27
I77
sa(dp1374
g21
VNEDDYVAUGHAN
p1375
sg23
V28411
p1376
sg25
I97
sg26
I8
sg27
I100
sa(dp1377
g21
VOATHKEEPER
p1378
sg23
V2023x
p1379
sg25
I100
sg26
I9
sg27
I93
sa(dp1380
g21
VHEIST
p1381
sg23
V57x98
p1382
sg25
I87
sg26
I10
sg27
I67
sa(dp1383
g21
VKING'S SONG
p1384
sg23
V31466
p1385
sg25
I76
sg26
I11
sg27
I80
sa(dp1386
g21
VCONDUCT YOURSELF
p1387
sg23
V62733
p1388
sg25
I94
sg26
I12
sg27
I96
sa(dp1389
g21
VCARLITOS BAY
p1390
sg23
V20002
p1391
sg25
I73
sg26
I13
sg27
I86
sasg76
(lp1392
sss.