(dp0
I1543670400
(dp1
S'skyracing_url'
p2
Vhttp://www.skyracing.com.au/index.php?component=racing&task=race&id=108379642&meetingid=107360216&Itemid=89
p3
sS'betfair_raceid'
p4
V29030805.1320
p5
sS'dat2'
p6
(dp7
S'ratings_auto'
p8
(lp9
(lp10
I1
aI4
aI5
aI8
aa(lp11
I1
aI2
aI4
aI3
aa(lp12
I1
aI3
aI5
aI9
aa(lp13
I1
aI2
aI4
aI7
aa(lp14
I4
aI1
aI9
aI5
aa(lp15
I4
aI1
aI5
aI2
aa(lp16
I4
aI3
aI1
aI9
aa(lp17
I1
aI4
aI5
aI2
aasS'horse_details'
p18
(lp19
(dp20
S'horse_name'
p21
VADRIEN DU PONT
p22
sS'horse_form'
p23
V325x4
p24
sS'rating_2'
p25
I100
sS'horse_number'
p26
I1
sS'rating_1'
p27
I100
sa(dp28
g21
VROCKLANDER
p29
sg23
V307x5
p30
sg25
I80
sg26
I2
sg27
I85
sa(dp31
g21
VON TOUR
p32
sg23
Vx26x5
p33
sg25
I91
sg26
I3
sg27
I79
sa(dp34
g21
VKAYF ADVENTURE
p35
sg23
V2372x
p36
sg25
I97
sg26
I4
sg27
I96
sa(dp37
g21
VBRELAN D'AS
p38
sg23
V500x2
p39
sg25
I95
sg26
I5
sg27
I93
sa(dp40
g21
VFULL IRISH
p41
sg23
V450x0
p42
sg25
I78
sg26
I6
sg27
I75
sa(dp43
g21
VMINELLA ON LINE
p44
sg23
V7360x
p45
sg25
I73
sg26
I7
sg27
I71
sa(dp46
g21
VKAPCORSE
p47
sg23
V6x1x7
p48
sg25
I86
sg26
I8
sg27
I92
sa(dp49
g21
VVALHALLA
p50
sg23
V35x33
p51
sg25
I89
sg26
I9
sg27
I88
sa(dp52
g21
VBEHIND TIME
p53
sg23
V3109x
p54
sg25
I76
sg26
I10
sg27
I83
sa(dp55
g21
VTHE BAY BIRCH
p56
sg23
V21x60
p57
sg25
I70
sg26
I11
sg27
I74
sasS'ratings_manual'
p58
(lp59
sssI1543665600
(dp60
g2
Vhttp://www.skyracing.com.au/index.php?component=racing&task=race&id=108379625&meetingid=107360248&Itemid=89
p61
sg4
V29031940.1200
p62
sg6
(dp63
g8
(lp64
(lp65
I1
aI7
aI2
aI6
aa(lp66
I1
aI2
aI9
aI7
aa(lp67
I9
aI7
aI1
aI6
aa(lp68
I1
aI2
aI4
aI9
aa(lp69
I2
aI9
aI1
aI7
aa(lp70
I1
aI7
aI2
aI6
aa(lp71
I1
aI2
aI7
aI9
aa(lp72
I1
aI2
aI7
aI9
aasg18
(lp73
(dp74
g21
VANEMOI
p75
sg23
V1x5x1
p76
sg25
I100
sg26
I1
sg27
I100
sa(dp77
g21
VBOOMARANG
p78
sg23
V41x
p79
sg25
I95
sg26
I2
sg27
I92
sa(dp80
g21
VMAJESTIC MAN
p81
sg23
V08070
p82
sg25
I70
sg26
I3
sg27
I66
sa(dp83
g21
VMUSICAL SLAVE
p84
sg23
V6x6x
p85
sg25
I76
sg26
I4
sg27
I79
sa(dp86
g21
VOUTOFTHEQUESTION
p87
sg23
V116x7
p88
sg25
I78
sg26
I5
sg27
I74
sa(dp89
g21
VRED ROYALIST
p90
sg23
V163x3
p91
sg25
I81
sg26
I6
sg27
I87
sa(dp92
g21
VWINSTON C
p93
sg23
V0x825
p94
sg25
I93
sg26
I7
sg27
I95
sa(dp95
g21
VINFINITI
p96
sg23
Vx09x9
p97
sg25
I63
sg26
I8
sg27
I72
sa(dp98
g21
VPROPHETS PRAYER
p99
sg23
V41
p100
sg25
I86
sg26
I9
sg27
I82
sasg58
(lp101
sssI1543671300
(dp102
g2
Vhttp://www.skyracing.com.au/index.php?component=racing&task=race&id=108379613&meetingid=107360232&Itemid=89
p103
sg4
V29030643.1335
p104
sg6
(dp105
g8
(lp106
(lp107
I3
aI2
aI4
aI1
aa(lp108
I3
aI6
aI2
aI4
aa(lp109
I6
aI2
aI4
aI7
aa(lp110
I6
aI4
aI1
aI8
aa(lp111
I8
aI6
aI3
aI4
aa(lp112
I2
aI3
aI4
aI5
aa(lp113
I3
aI1
aI2
aI4
aa(lp114
I6
aI3
aI2
aI4
aasg18
(lp115
(dp116
g21
VAINTREE MY DREAM
p117
sg23
V14x3x
p118
sg25
I96
sg26
I1
sg27
I81
sa(dp119
g21
VJACK DEVINE
p120
sg23
V16x61
p121
sg25
I92
sg26
I2
sg27
I95
sa(dp122
g21
VROCK MY STYLE
p123
sg23
V9x11x
p124
sg25
I100
sg26
I3
sg27
I100
sa(dp125
g21
VPOLYDORA
p126
sg23
V9x2x3
p127
sg25
I87
sg26
I4
sg27
I89
sa(dp128
g21
VDIDERO VALLIS
p129
sg23
V2303x
p130
sg25
I80
sg26
I5
sg27
I78
sa(dp131
g21
VCOOKING FAT
p132
sg23
V41x34
p133
sg25
I69
sg26
I6
sg27
I69
sa(dp134
g21
VDONNA'S DELIGHT
p135
sg23
V232x7
p136
sg25
I64
sg26
I7
sg27
I67
sa(dp137
g21
VCAVENTARA
p138
sg23
Vx3x1x
p139
sg25
I84
sg26
I8
sg27
I75
sa(dp140
g21
VLATE ROMANTIC
p141
sg23
V0110x
p142
sg25
I75
sg26
I9
sg27
I64
sasg58
(lp143
sssI1543672200
(dp144
g2
Vhttp://www.skyracing.com.au/index.php?component=racing&task=race&id=108379643&meetingid=107360216&Itemid=89
p145
sg4
V29030805.1350
p146
sg6
(dp147
g8
(lp148
(lp149
I4
aI12
aI3
aI7
aa(lp150
I5
aI8
aI7
aI15
aa(lp151
I7
aI14
aI12
aI2
aa(lp152
I11
aI15
aI1
aI3
aa(lp153
I5
aI15
aI12
aI14
aa(lp154
I12
aI4
aI3
aI7
aa(lp155
I3
aI4
aI5
aI9
aa(lp156
I12
aI7
aI5
aI4
aasg18
(lp157
(dp158
g21
VAIR HORSE ONE
p159
sg23
V239x7
p160
sg25
I73
sg26
I1
sg27
I75
sa(dp161
g21
VBOITE
p162
sg23
V505x5
p163
sg25
I70
sg26
I2
sg27
I71
sa(dp164
g21
VBARTERS HILL
p165
sg23
Vx7x6x
p166
sg25
I99
sg26
I3
sg27
I94
sa(dp167
g21
VCHAMP
p168
sg23
V2x11x
p169
sg25
I100
sg26
I4
sg27
I100
sa(dp170
g21
VGOLDEN BIRTHDAY
p171
sg23
V11000
p172
sg25
I85
sg26
I5
sg27
I65
sa(dp173
g21
VPADLEYOUROWNCANOE
p174
sg23
V49x23
p175
sg25
I81
sg26
I6
sg27
I86
sa(dp176
g21
VWHO'S MY JOCKEY
p177
sg23
V14x30
p178
sg25
I87
sg26
I7
sg27
I91
sa(dp179
g21
VSUSSEX RANGER
p180
sg23
V247x9
p181
sg25
I71
sg26
I8
sg27
I74
sa(dp182
g21
VPOTTERS STORY
p183
sg23
Vx001x
p184
sg25
I91
sg26
I9
sg27
I87
sa(dp185
g21
VSLEEP EASY
p186
sg23
V3x432
p187
sg25
I75
sg26
I10
sg27
I79
sa(dp188
g21
VBIG CHIEF BENNY
p189
sg23
Vx620x
p190
sg25
I79
sg26
I11
sg27
I83
sa(dp191
g21
VSPEEDO BOY
p192
sg23
V13561
p193
sg25
I93
sg26
I12
sg27
I96
sa(dp194
g21
VMAN OF PLENTY
p195
sg23
V2x650
p196
sg25
I63
sg26
I13
sg27
I61
sa(dp197
g21
VVAZIANI
p198
sg23
Vx12x7
p199
sg25
I67
sg26
I14
sg27
I72
sa(dp200
g21
VLE MUSEE
p201
sg23
V210x9
p202
sg25
I61
sg26
I15
sg27
I62
sasg58
(lp203
sssI1543673100
(dp204
g2
Vhttp://www.skyracing.com.au/index.php?component=racing&task=race&id=108379614&meetingid=107360232&Itemid=89
p205
sg4
V29030643.1405
p206
sg6
(dp207
g8
(lp208
(lp209
I3
aI4
aI5
aI6
aa(lp210
I6
aI3
aI2
aI4
aa(lp211
I6
aI4
aI1
aI2
aa(lp212
I3
aI4
aI1
aI5
aa(lp213
I6
aI3
aI4
aI1
aa(lp214
I3
aI4
aI5
aI6
aa(lp215
I3
aI4
aI5
aI6
aa(lp216
I3
aI4
aI6
aI5
aasg18
(lp217
(dp218
g21
VBEDROCK
p219
sg23
V49811
p220
sg25
I82
sg26
I1
sg27
I83
sa(dp221
g21
VBLEU ET ROUGE
p222
sg23
V2049x
p223
sg25
I78
sg26
I2
sg27
I79
sa(dp224
g21
VBUVEUR D'AIR
p225
sg23
V1111x
p226
sg25
I100
sg26
I3
sg27
I100
sa(dp227
g21
VSAMCRO
p228
sg23
V117x2
p229
sg25
I95
sg26
I4
sg27
I96
sa(dp230
g21
VSUMMERVILLE BOY
p231
sg23
V31x1x
p232
sg25
I91
sg26
I5
sg27
I90
sa(dp233
g21
VVISION DES FLOS
p234
sg23
V22x92
p235
sg25
I86
sg26
I6
sg27
I89
sasg58
(lp236
sssI1543675800
(dp237
g2
Vhttp://www.skyracing.com.au/index.php?component=racing&task=race&id=108379630&meetingid=107360248&Itemid=89
p238
sg4
V29031940.1450
p239
sg6
(dp240
g8
(lp241
(lp242
I5
aI1
aI2
aI3
aa(lp243
I1
aI3
aI2
aI4
aa(lp244
I1
aI2
aI5
aI3
aa(lp245
I1
aI2
aI5
aI3
aa(lp246
I2
aI5
aI1
aI4
aa(lp247
I1
aI2
aI5
aI4
aa(lp248
I5
aI1
aI3
aI2
aa(lp249
I1
aI2
aI5
aI3
aasg18
(lp250
(dp251
g21
VGOLDEN INVESTMENT
p252
sg23
V97x38
p253
sg25
I96
sg26
I1
sg27
I94
sa(dp254
g21
VATTENTION PLEASE
p255
sg23
V3x825
p256
sg25
I89
sg26
I2
sg27
I91
sa(dp257
g21
VALTO DES MOTTES
p258
sg23
V68x03
p259
sg25
I90
sg26
I3
sg27
I86
sa(dp260
g21
VTITIAN BOY
p261
sg23
Vx45x6
p262
sg25
I79
sg26
I4
sg27
I81
sa(dp263
g21
VINCHCOLM
p264
sg23
V32x41
p265
sg25
I100
sg26
I5
sg27
I100
sa(dp266
g21
VSGT BULL BERRY
p267
sg23
V99x0x
p268
sg25
I81
sg26
I6
sg27
I77
sa(dp269
g21
VALICES MAN
p270
sg23
V4000x
p271
sg25
I77
sg26
I7
sg27
I75
sasg58
(lp272
sssI1543674900
(dp273
g2
Vhttp://www.skyracing.com.au/index.php?component=racing&task=race&id=108379674&meetingid=107360200&Itemid=89
p274
sg4
V29031930.1435
p275
sg6
(dp276
g8
(lp277
(lp278
I12
aI4
aI7
aI1
aa(lp279
I4
aI1
aI6
aI2
aa(lp280
I4
aI1
aI2
aI3
aa(lp281
I4
aI1
aI2
aI9
aa(lp282
I4
aI1
aI7
aI9
aa(lp283
I4
aI12
aI7
aI1
aa(lp284
I4
aI1
aI12
aI7
aa(lp285
I4
aI1
aI12
aI7
aasg18
(lp286
(dp287
g21
VAL DESTOOR
p288
sg23
V33232
p289
sg25
I92
sg26
I1
sg27
I89
sa(dp290
g21
VBUCANEROS
p291
sg23
V0
p292
sg25
I72
sg26
I2
sg27
I76
sa(dp293
g21
VCORINTO
p294
sg23
V0
p295
sg25
I74
sg26
I3
sg27
I77
sa(dp296
g21
VFINAWN BAWN
p297
sg23
V1x3
p298
sg25
I100
sg26
I4
sg27
I97
sa(dp299
g21
VKHAIRAGASH
p300
sg23
Vx446x
p301
sg25
I85
sg26
I5
sg27
I88
sa(dp302
g21
VOSCARS LEADER
p303
sg23
V4240x
p304
sg25
I78
sg26
I6
sg27
I84
sa(dp305
g21
VPOGUE
p306
sg23
V21x
p307
sg25
I99
sg26
I7
sg27
I94
sa(dp308
g21
VSTAR OF RORY
p309
sg23
V0x0x0
p310
sg25
I82
sg26
I8
sg27
I69
sa(dp311
g21
VTOP OF THE CHARTS
p312
sg23
V03x0
p313
sg25
I75
sg26
I9
sg27
I79
sa(dp314
g21
VTWO SAMS
p315
sg23
V0x1x0
p316
sg25
I88
sg26
I10
sg27
I71
sa(dp317
g21
VARQALINA
p318
sg23
V7x09x
p319
sg25
I71
sg26
I11
sg27
I73
sa(dp320
g21
VDIVA RECONCE
p321
sg23
V1x2x
p322
sg25
I94
sg26
I12
sg27
I100
sasg58
(lp323
sssI1543666200
(dp324
g2
Vhttp://www.skyracing.com.au/index.php?component=racing&task=race&id=108379640&meetingid=107360216&Itemid=89
p325
sg4
V29030805.1210
p326
sg6
(dp327
g8
(lp328
(lp329
I1
aI5
aI4
aI3
aa(lp330
I5
aI1
aI4
aI3
aa(lp331
I5
aI1
aI3
aI2
aa(lp332
I5
aI1
aI4
aI3
aa(lp333
I1
aI3
aI5
aI4
aa(lp334
I4
aI1
aI3
aI5
aa(lp335
I5
aI1
aI4
aI2
aa(lp336
I1
aI5
aI4
aI3
aasg18
(lp337
(dp338
g21
VLUST FOR GLORY
p339
sg23
V3x1x1
p340
sg25
I100
sg26
I1
sg27
I100
sa(dp341
g21
VADMIRAL'S SUNSET
p342
sg23
V35x13
p343
sg25
I84
sg26
I2
sg27
I81
sa(dp344
g21
VDIAMOND GAIT
p345
sg23
Vx58x1
p346
sg25
I87
sg26
I3
sg27
I86
sa(dp347
g21
VPASSING CALL
p348
sg23
V2111x
p349
sg25
I92
sg26
I4
sg27
I87
sa(dp350
g21
VPOSH TRISH
p351
sg23
V30x12
p352
sg25
I98
sg26
I5
sg27
I96
sasg58
(lp353
sssI1543667100
(dp354
g2
Vhttp://www.skyracing.com.au/index.php?component=racing&task=race&id=108379611&meetingid=107360232&Itemid=89
p355
sg4
V29030643.1225
p356
sg6
(dp357
g8
(lp358
(lp359
I1
aI2
aI7
aI6
aa(lp360
I4
aI2
aI1
aI7
aa(lp361
I1
aI7
aI6
aI4
aa(lp362
I2
aI1
aI4
aI6
aa(lp363
I1
aI4
aI2
aI6
aa(lp364
I2
aI1
aI7
aI6
aa(lp365
I7
aI1
aI5
aI2
aa(lp366
I1
aI2
aI4
aI7
aasg18
(lp367
(dp368
g21
VCOPPER WEST
p369
sg23
V22x42
p370
sg25
I99
sg26
I1
sg27
I100
sa(dp371
g21
VJUST GEORGIE
p372
sg23
V6132x
p373
sg25
I82
sg26
I2
sg27
I96
sa(dp374
g21
VMARLEY FIRTH
p375
sg23
V355x9
p376
sg25
I86
sg26
I3
sg27
I78
sa(dp377
g21
VSUDSKI STAR
p378
sg23
V4x452
p379
sg25
I69
sg26
I4
sg27
I71
sa(dp380
g21
VCESAR ET ROSALIE
p381
sg23
Vx67x0
p382
sg25
I93
sg26
I5
sg27
I82
sa(dp383
g21
VORIONINVERNESS
p384
sg23
V30x13
p385
sg25
I80
sg26
I6
sg27
I87
sa(dp386
g21
VHALCYON DAYS
p387
sg23
V826x1
p388
sg25
I100
sg26
I7
sg27
I91
sa(dp389
g21
VDIMPLE
p390
sg23
Vx6x5x
p391
sg25
I74
sg26
I8
sg27
I74
sasg58
(lp392
sssI1543677600
(dp393
g2
Vhttp://www.skyracing.com.au/index.php?component=racing&task=race&id=108379616&meetingid=107360232&Itemid=89
p394
sg4
V29030643.1520
p395
sg6
(dp396
g8
(lp397
(lp398
I5
aI8
aI1
aI6
aa(lp399
I2
aI7
aI4
aI5
aa(lp400
I4
aI7
aI11
aI12
aa(lp401
I1
aI2
aI5
aI4
aa(lp402
I8
aI10
aI5
aI3
aa(lp403
I5
aI8
aI3
aI1
aa(lp404
I1
aI3
aI5
aI6
aa(lp405
I5
aI8
aI1
aI2
aasg18
(lp406
(dp407
g21
VOTAGO TRAIL
p408
sg23
V0221x
p409
sg25
I91
sg26
I1
sg27
I95
sa(dp410
g21
VBAYWING
p411
sg23
V5312x
p412
sg25
I81
sg26
I2
sg27
I89
sa(dp413
g21
VTESTIFY
p414
sg23
V1109x
p415
sg25
I97
sg26
I3
sg27
I84
sa(dp416
g21
VTEMPLEHILLS
p417
sg23
V4x140
p418
sg25
I71
sg26
I4
sg27
I74
sa(dp419
g21
VBIG RIVER
p420
sg23
V6312x
p421
sg25
I100
sg26
I5
sg27
I100
sa(dp422
g21
VLAKE VIEW LAD
p423
sg23
V2123x
p424
sg25
I86
sg26
I6
sg27
I91
sa(dp425
g21
VBISHOPS ROAD
p426
sg23
Vx0632
p427
sg25
I73
sg26
I7
sg27
I75
sa(dp428
g21
VBALLYDINE
p429
sg23
Vx231x
p430
sg25
I94
sg26
I8
sg27
I98
sa(dp431
g21
VSOLIGHOSTER
p432
sg23
V150x8
p433
sg25
I88
sg26
I9
sg27
I71
sa(dp434
g21
VAMI DESBOIS
p435
sg23
V1156x
p436
sg25
I79
sg26
I10
sg27
I80
sa(dp437
g21
VSHARP RESPONSE
p438
sg23
V1x418
p439
sg25
I68
sg26
I11
sg27
I71
sa(dp440
g21
VCAPTAIN CHAOS
p441
sg23
V5x008
p442
sg25
I75
sg26
I12
sg27
I78
sasg58
(lp443
sssI1543666800
(dp444
g2
Vhttp://www.skyracing.com.au/index.php?component=racing&task=race&id=108379670&meetingid=107360200&Itemid=89
p445
sg4
V29031930.1220
p446
sg6
(dp447
g8
(lp448
(lp449
I9
aI1
aI5
aI6
aa(lp450
I1
aI4
aI9
aI5
aa(lp451
I4
aI9
aI5
aI8
aa(lp452
I1
aI7
aI4
aI9
aa(lp453
I5
aI9
aI1
aI8
aa(lp454
I1
aI9
aI5
aI6
aa(lp455
I1
aI9
aI6
aI5
aa(lp456
I1
aI9
aI5
aI4
aasg18
(lp457
(dp458
g21
VBLU CAVALIER
p459
sg23
V1112x
p460
sg25
I100
sg26
I1
sg27
I92
sa(dp461
g21
VCALIPSO COLLONGES
p462
sg23
V1110x
p463
sg25
I71
sg26
I2
sg27
I66
sa(dp464
g21
VCARO DES FLOS
p465
sg23
V251x0
p466
sg25
I65
sg26
I3
sg27
I62
sa(dp467
g21
VCOOLE CODY
p468
sg23
V1x0x4
p469
sg25
I81
sg26
I4
sg27
I76
sa(dp470
g21
VEUXTON LANE
p471
sg23
V117x3
p472
sg25
I86
sg26
I5
sg27
I85
sa(dp473
g21
VJERRYSBACK
p474
sg23
Vx11x5
p475
sg25
I95
sg26
I6
sg27
I80
sa(dp476
g21
VMR MCGO
p477
sg23
V17x9x
p478
sg25
I76
sg26
I7
sg27
I71
sa(dp479
g21
VMULCAHYS HILL
p480
sg23
V240x6
p481
sg25
I78
sg26
I8
sg27
I72
sa(dp482
g21
VTOMMY RAPPER
p483
sg23
V119x3
p484
sg25
I93
sg26
I9
sg27
I100
sasg58
(lp485
sssI1543678500
(dp486
g2
Vhttp://www.skyracing.com.au/index.php?component=racing&task=race&id=108379646&meetingid=107360216&Itemid=89
p487
sg4
V29030805.1535
p488
sg6
(dp489
g8
(lp490
(lp491
I4
aI1
aI3
aI2
aa(lp492
I1
aI2
aI3
aI4
aa(lp493
I1
aI7
aI8
aI9
aa(lp494
I2
aI3
aI1
aI4
aa(lp495
I9
aI3
aI5
aI10
aa(lp496
I1
aI4
aI3
aI2
aa(lp497
I4
aI2
aI3
aI1
aa(lp498
I1
aI3
aI4
aI2
aasg18
(lp499
(dp500
g21
VFOREST BIHAN
p501
sg23
V416x3
p502
sg25
I88
sg26
I1
sg27
I94
sa(dp503
g21
VTOP GAMBLE
p504
sg23
V4438x
p505
sg25
I90
sg26
I2
sg27
I86
sa(dp506
g21
VBIGMARTRE
p507
sg23
V271x6
p508
sg25
I96
sg26
I3
sg27
I87
sa(dp509
g21
VLADY BUTTONS
p510
sg23
V414x1
p511
sg25
I100
sg26
I4
sg27
I100
sa(dp512
g21
VBABY KING
p513
sg23
V501x6
p514
sg25
I72
sg26
I5
sg27
I73
sa(dp515
g21
VDICOSIMO
p516
sg23
Vx14x0
p517
sg25
I63
sg26
I6
sg27
I63
sa(dp518
g21
VDOITFORTHEVILLAGE
p519
sg23
V264x6
p520
sg25
I79
sg26
I7
sg27
I67
sa(dp521
g21
VSPACE ODDITY
p522
sg23
V54x46
p523
sg25
I76
sg26
I8
sg27
I76
sa(dp524
g21
VROCK ON ROCKY
p525
sg23
V0x834
p526
sg25
I62
sg26
I9
sg27
I57
sa(dp527
g21
VSHEAR ROCK
p528
sg23
Vx2x2x
p529
sg25
I83
sg26
I10
sg27
I80
sasg58
(lp530
sssI1543669800
(dp531
g2
Vhttp://www.skyracing.com.au/index.php?component=racing&task=race&id=108379627&meetingid=107360248&Itemid=89
p532
sg4
V29031940.1310
p533
sg6
(dp534
g8
(lp535
(lp536
I5
aI1
aI2
aI4
aa(lp537
I3
aI4
aI1
aI2
aa(lp538
I4
aI1
aI2
aI5
aa(lp539
I3
aI4
aI6
aI1
aa(lp540
I3
aI5
aI1
aI8
aa(lp541
I5
aI1
aI2
aI4
aa(lp542
I1
aI5
aI2
aI8
aa(lp543
I1
aI5
aI4
aI3
aasg18
(lp544
(dp545
g21
VCOSMEAPOLITAN
p546
sg23
V044x3
p547
sg25
I98
sg26
I1
sg27
I95
sa(dp548
g21
VMISTER UNIVERSUM
p549
sg23
V52604
p550
sg25
I90
sg26
I2
sg27
I93
sa(dp551
g21
VHAREFIELD
p552
sg23
V028x0
p553
sg25
I79
sg26
I3
sg27
I79
sa(dp554
g21
VHAAFAPIECE
p555
sg23
V13630
p556
sg25
I83
sg26
I4
sg27
I88
sa(dp557
g21
VSHIROCCAN ROLL
p558
sg23
V3x122
p559
sg25
I100
sg26
I5
sg27
I100
sa(dp560
g21
VFURIOUSLY FAST
p561
sg23
V121x5
p562
sg25
I77
sg26
I6
sg27
I73
sa(dp563
g21
VCHIEFTAIN'S CHOICE
p564
sg23
V31237
p565
sg25
I71
sg26
I7
sg27
I82
sa(dp566
g21
VSHINE BABY SHINE
p567
sg23
V174x0
p568
sg25
I88
sg26
I8
sg27
I70
sasg58
(lp569
sssI1543676700
(dp570
g2
Vhttp://www.skyracing.com.au/index.php?component=racing&task=race&id=108379660&meetingid=107751461&Itemid=89
p571
sg4
V29031927.1505
p572
sg6
(dp573
g8
(lp574
(lp575
I8
aI11
aI14
aI2
aa(lp576
I8
aI12
aI9
aI11
aa(lp577
I12
aI1
aI9
aI5
aa(lp578
I4
aI2
aI8
aI7
aa(lp579
I8
aI11
aI14
aI6
aa(lp580
I8
aI14
aI11
aI2
aa(lp581
I8
aI6
aI11
aI4
aa(lp582
I8
aI11
aI14
aI12
aasg18
(lp583
(dp584
g21
VJETEZ
p585
sg23
Vx15x4
p586
sg25
I86
sg26
I1
sg27
I92
sa(dp587
g21
VWESTLAND ROW
p588
sg23
V010x0
p589
sg25
I96
sg26
I2
sg27
I94
sa(dp590
g21
VBRAVE OUT
p591
sg23
V1377x
p592
sg25
I77
sg26
I3
sg27
I82
sa(dp593
g21
VCHAMPAGNE HARMONY
p594
sg23
V00x0x
p595
sg25
I91
sg26
I4
sg27
I62
sa(dp596
g21
VCONRIGHT BOY
p597
sg23
Vx00x5
p598
sg25
I64
sg26
I5
sg27
I64
sa(dp599
g21
VHARETH
p600
sg23
V3x008
p601
sg25
I89
sg26
I6
sg27
I88
sa(dp602
g21
VSMALL WORLD
p603
sg23
V01x04
p604
sg25
I69
sg26
I7
sg27
I68
sa(dp605
g21
VSNUGSBOROUGH BENNY
p606
sg23
V6131x
p607
sg25
I100
sg26
I8
sg27
I100
sa(dp608
g21
VWATER SPRITE
p609
sg23
V34816
p610
sg25
I72
sg26
I9
sg27
I75
sa(dp611
g21
VROCK DE BAUNE
p612
sg23
V790x5
p613
sg25
I83
sg26
I10
sg27
I87
sa(dp614
g21
VHUMM BABY
p615
sg23
V351x2
p616
sg25
I97
sg26
I11
sg27
I98
sa(dp617
g21
VNOBODY HOME
p618
sg23
V98480
p619
sg25
I62
sg26
I12
sg27
I67
sa(dp620
g21
VGET OUT OF JAIL
p621
sg23
V30250
p622
sg25
I73
sg26
I13
sg27
I76
sa(dp623
g21
VSMITHSCORNER
p624
sg23
V65x12
p625
sg25
I93
sg26
I14
sg27
I95
sa(dp626
g21
VBOG WAR
p627
sg23
V041x0
p628
sg25
I78
sg26
I15
sg27
I79
sa(dp629
g21
VFRUITS OF GLORY
p630
sg23
V70808
p631
sg25
I67
sg26
I16
sg27
I70
sa(dp632
g21
VAUTHORATIVE
p633
sg23
Vx1362
p634
sg25
I80
sg26
I17
sg27
I85
sasg58
(lp635
sssI1543670700
(dp636
g2
Vhttp://www.skyracing.com.au/index.php?component=racing&task=race&id=108379657&meetingid=107751461&Itemid=89
p637
sg4
V29031927.1325
p638
sg6
(dp639
g8
(lp640
(lp641
I4
aI7
aI5
aI3
aa(lp642
I2
aI4
aI3
aI8
aa(lp643
I4
aI3
aI5
aI7
aa(lp644
I2
aI4
aI3
aI5
aa(lp645
I5
aI4
aI3
aI10
aa(lp646
I4
aI7
aI5
aI3
aa(lp647
I5
aI4
aI7
aI6
aa(lp648
I4
aI5
aI3
aI2
aasg18
(lp649
(dp650
g21
VMALLOWNEY
p651
sg23
V5049x
p652
sg25
I86
sg26
I1
sg27
I78
sa(dp653
g21
VNEARLY NAMA'D
p654
sg23
Vx0x00
p655
sg25
I79
sg26
I2
sg27
I73
sa(dp656
g21
VBLAST OF KOEMAN
p657
sg23
Vx5503
p658
sg25
I91
sg26
I3
sg27
I92
sa(dp659
g21
VDUCA DE THAIX
p660
sg23
Vx2322
p661
sg25
I100
sg26
I4
sg27
I100
sa(dp662
g21
VALL THE ANSWERS
p663
sg23
Vx68x1
p664
sg25
I98
sg26
I5
sg27
I94
sa(dp665
g21
VCOLMS DREAM
p666
sg23
Vx07x0
p667
sg25
I88
sg26
I6
sg27
I70
sa(dp668
g21
VARVICO BLEU
p669
sg23
V6x422
p670
sg25
I95
sg26
I7
sg27
I97
sa(dp671
g21
VBALBIR DU MATHAN
p672
sg23
V06x8x
p673
sg25
I72
sg26
I8
sg27
I77
sa(dp674
g21
VLEAP DEARG
p675
sg23
V83145
p676
sg25
I75
sg26
I9
sg27
I80
sa(dp677
g21
VSTOWAWAY FOREVER
p678
sg23
V03x43
p679
sg25
I82
sg26
I10
sg27
I87
sa(dp680
g21
VRUNYON RATTLER
p681
sg23
V72534
p682
sg25
I74
sg26
I11
sg27
I86
sasg58
(lp683
sssI1543672500
(dp684
g2
Vhttp://www.skyracing.com.au/index.php?component=racing&task=race&id=108379658&meetingid=107751461&Itemid=89
p685
sg4
V29031927.1355
p686
sg6
(dp687
g8
(lp688
(lp689
I14
aI6
aI7
aI13
aa(lp690
I6
aI14
aI7
aI17
aa(lp691
I14
aI16
aI1
aI17
aa(lp692
I14
aI6
aI7
aI9
aa(lp693
I6
aI14
aI17
aI7
aa(lp694
I14
aI6
aI7
aI13
aa(lp695
I6
aI14
aI21
aI13
aa(lp696
I14
aI6
aI7
aI17
aasg18
(lp697
(dp698
g21
VANYWAYYOULOOKATIT
p699
sg23
V0x0
p700
sg25
I75
sg26
I1
sg27
I77
sa(dp701
g21
VCAPTAIN COURAGEOUS
p702
sg23
V7x47x
p703
sg25
I85
sg26
I2
sg27
I81
sa(dp704
g21
VCHEF AFEF
p705
sg23
V6
p706
sg25
I71
sg26
I3
sg27
I75
sa(dp707
g21
VDEFY DE MEE
p708
sg23
V1x75x
p709
sg25
I89
sg26
I4
sg27
I88
sa(dp710
g21
VHIDDEN COMMOTION
p711
sg23
V0x0
p712
sg25
I56
sg26
I5
sg27
I56
sa(dp713
g21
VLONE WOLF
p714
sg23
V53x1x
p715
sg25
I97
sg26
I6
sg27
I99
sa(dp716
g21
VRAYA TIME
p717
sg23
V1x5
p718
sg25
I93
sg26
I7
sg27
I96
sa(dp719
g21
VROBBIES MAGIC
p720
sg23
V3x
p721
sg25
I87
sg26
I8
sg27
I87
sa(dp722
g21
VROSERIVER HAS
p723
sg23
V4x430
p724
sg25
I82
sg26
I9
sg27
I85
sa(dp725
g21
VSCORPION KNIGHT
p726
sg23
V9x70x
p727
sg25
I69
sg26
I10
sg27
I66
sa(dp728
g21
VTHE CHAPEL FIELD
p729
sg23
V005x
p730
sg25
I62
sg26
I11
sg27
I60
sa(dp731
g21
VTRUMP CARD
p732
sg23
V50613
p733
sg25
I80
sg26
I12
sg27
I82
sa(dp734
g21
VAT THE ACORN
p735
sg23
V1x
p736
sg25
I96
sg26
I13
sg27
I93
sa(dp737
g21
VCOLUMN OF FIRE
p738
sg23
V2x1
p739
sg25
I100
sg26
I14
sg27
I100
sa(dp740
g21
VDISCORDANTLY
p741
sg23
V7x
p742
sg25
I78
sg26
I15
sg27
I79
sa(dp743
g21
VDUCA DI MILANO
p744
sg23
V58
p745
sg25
I68
sg26
I16
sg27
I68
sa(dp746
g21
VEAGLE ROQUE
p747
sg23
V24x76
p748
sg25
I70
sg26
I17
sg27
I71
sa(dp749
g21
VGLEN OF AHERLOW
p750
sg23
V
p751
sg25
I77
sg26
I18
sg27
I0
sa(dp752
g21
VTALE OF WOE
p753
sg23
V0x0x0
p754
sg25
I60
sg26
I19
sg27
I63
sa(dp755
g21
VBALLYBEGGAN PEGGY
p756
sg23
V0x05
p757
sg25
I59
sg26
I20
sg27
I64
sa(dp758
g21
VDIAMOND HILL
p759
sg23
V41453
p760
sg25
I90
sg26
I21
sg27
I91
sa(dp761
g21
VLATOYAH OF NORTH
p762
sg23
V57557
p763
sg25
I66
sg26
I22
sg27
I69
sa(dp764
g21
VLEE VALLEY LEGACY
p765
sg23
V0
p766
sg25
I54
sg26
I23
sg27
I58
sa(dp767
g21
VMY PEGGY
p768
sg23
V026x5
p769
sg25
I64
sg26
I24
sg27
I70
sasg58
(lp770
sssI1543674300
(dp771
g2
Vhttp://www.skyracing.com.au/index.php?component=racing&task=race&id=108379644&meetingid=107360216&Itemid=89
p772
sg4
V29030805.1425
p773
sg6
(dp774
g8
(lp775
(lp776
I5
aI4
aI2
aI6
aa(lp777
I6
aI3
aI2
aI8
aa(lp778
I6
aI8
aI1
aI4
aa(lp779
I6
aI3
aI8
aI1
aa(lp780
I6
aI8
aI3
aI4
aa(lp781
I4
aI5
aI2
aI1
aa(lp782
I5
aI4
aI1
aI6
aa(lp783
I6
aI4
aI8
aI3
aasg18
(lp784
(dp785
g21
VGLOBAL CITIZEN
p786
sg23
V116x2
p787
sg25
I93
sg26
I1
sg27
I77
sa(dp788
g21
VGUMBALL
p789
sg23
V921x4
p790
sg25
I86
sg26
I2
sg27
I86
sa(dp791
g21
VWHATMORE
p792
sg23
Vx1x31
p793
sg25
I69
sg26
I3
sg27
I64
sa(dp794
g21
VBALLYMOY
p795
sg23
V111x1
p796
sg25
I100
sg26
I4
sg27
I94
sa(dp797
g21
VWHATSWRONGWITHYOU
p798
sg23
V2113x
p799
sg25
I99
sg26
I5
sg27
I100
sa(dp800
g21
VMONT DES AVALOIRS
p801
sg23
V414x2
p802
sg25
I84
sg26
I6
sg27
I84
sa(dp803
g21
VLISP
p804
sg23
V130x1
p805
sg25
I75
sg26
I7
sg27
I72
sa(dp806
g21
VWHAT'S OCCURRING
p807
sg23
V35x11
p808
sg25
I79
sg26
I8
sg27
I73
sa(dp809
g21
VVOODOO DOLL
p810
sg23
V38223
p811
sg25
I68
sg26
I9
sg27
I62
sasg58
(lp812
sssI1543675200
(dp813
g2
Vhttp://www.skyracing.com.au/index.php?component=racing&task=race&id=108379615&meetingid=107360232&Itemid=89
p814
sg4
V29030643.1440
p815
sg6
(dp816
g8
(lp817
(lp818
I2
aI5
aI8
aI9
aa(lp819
I5
aI10
aI2
aI1
aa(lp820
I10
aI7
aI11
aI4
aa(lp821
I5
aI10
aI4
aI3
aa(lp822
I5
aI2
aI10
aI1
aa(lp823
I5
aI2
aI8
aI9
aa(lp824
I5
aI2
aI8
aI1
aa(lp825
I5
aI2
aI10
aI8
aasg18
(lp826
(dp827
g21
VARCTIC ROAD
p828
sg23
V312x9
p829
sg25
I91
sg26
I1
sg27
I85
sa(dp830
g21
VCHAMPAGNE PLATINUM
p831
sg23
V1x
p832
sg25
I100
sg26
I2
sg27
I100
sa(dp833
g21
VEXTRA BALD
p834
sg23
V50x
p835
sg25
I81
sg26
I3
sg27
I77
sa(dp836
g21
VGETAWAY GERRY
p837
sg23
V6x67
p838
sg25
I74
sg26
I4
sg27
I67
sa(dp839
g21
VIDEE DE GARDE
p840
sg23
V1x
p841
sg25
I96
sg26
I5
sg27
I95
sa(dp842
g21
VLE GAVROCHE
p843
sg23
Vx675x
p844
sg25
I72
sg26
I6
sg27
I70
sa(dp845
g21
VLITTLE BAVINGTON
p846
sg23
V86x8
p847
sg25
I75
sg26
I7
sg27
I72
sa(dp848
g21
VLOUGH DERG DIAMOND
p849
sg23
V33x5
p850
sg25
I94
sg26
I8
sg27
I89
sa(dp851
g21
VOSCAR WILDE
p852
sg23
V760x
p853
sg25
I87
sg26
I9
sg27
I86
sa(dp854
g21
VRAFFERTY
p855
sg23
V360
p856
sg25
I79
sg26
I10
sg27
I75
sa(dp857
g21
VAMBEROSE
p858
sg23
V3x6
p859
sg25
I85
sg26
I11
sg27
I80
sasg58
(lp860
sssI1543666500
(dp861
g2
Vhttp://www.skyracing.com.au/index.php?component=racing&task=race&id=108379655&meetingid=107751461&Itemid=89
p862
sg4
V29031927.1215
p863
sg6
(dp864
g8
(lp865
(lp866
I2
aI6
aI5
aI10
aa(lp867
I2
aI10
aI8
aI5
aa(lp868
I10
aI5
aI2
aI1
aa(lp869
I2
aI10
aI5
aI4
aa(lp870
I2
aI5
aI10
aI4
aa(lp871
I2
aI6
aI5
aI10
aa(lp872
I6
aI2
aI5
aI10
aa(lp873
I2
aI10
aI5
aI6
aasg18
(lp874
(dp875
g21
VAGENT BORU
p876
sg23
V010x4
p877
sg25
I67
sg26
I1
sg27
I65
sa(dp878
g21
VANY SECOND NOW
p879
sg23
V238x5
p880
sg25
I96
sg26
I2
sg27
I100
sa(dp881
g21
VART OF SECURITY
p882
sg23
Vx6x09
p883
sg25
I70
sg26
I3
sg27
I71
sa(dp884
g21
VCHEROKEE BILL
p885
sg23
V9x732
p886
sg25
I80
sg26
I4
sg27
I79
sa(dp887
g21
VDOLCIANO DICI
p888
sg23
V1x4x4
p889
sg25
I90
sg26
I5
sg27
I90
sa(dp890
g21
VFLAWLESS ESCAPE
p891
sg23
V2130x
p892
sg25
I100
sg26
I6
sg27
I95
sa(dp893
g21
VMASH POTATO
p894
sg23
V93433
p895
sg25
I62
sg26
I7
sg27
I60
sa(dp896
g21
VMOONSHINE BAY
p897
sg23
V6081x
p898
sg25
I85
sg26
I8
sg27
I82
sa(dp899
g21
VMORTAL
p900
sg23
V22x6x
p901
sg25
I76
sg26
I9
sg27
I76
sa(dp902
g21
VWHISPERINTHEBREEZE
p903
sg23
V92x42
p904
sg25
I83
sg26
I10
sg27
I85
sasg58
(lp905
sssI1543677000
(dp906
g2
Vhttp://www.skyracing.com.au/index.php?component=racing&task=race&id=108379675&meetingid=107360200&Itemid=89
p907
sg4
V29031930.1510
p908
sg6
(dp909
g8
(lp910
(lp911
I4
aI5
aI1
aI6
aa(lp912
I2
aI3
aI1
aI4
aa(lp913
I3
aI4
aI6
aI2
aa(lp914
I4
aI5
aI3
aI1
aa(lp915
I2
aI4
aI1
aI3
aa(lp916
I4
aI5
aI6
aI7
aa(lp917
I4
aI5
aI1
aI6
aa(lp918
I4
aI3
aI5
aI2
aasg18
(lp919
(dp920
g21
VCHICAGO LADY
p921
sg23
V6246x
p922
sg25
I94
sg26
I1
sg27
I92
sa(dp923
g21
VTHE TOOJUMPA
p924
sg23
V455x0
p925
sg25
I73
sg26
I2
sg27
I74
sa(dp926
g21
VBELMONT JEWEL
p927
sg23
V16x88
p928
sg25
I81
sg26
I3
sg27
I80
sa(dp929
g21
VSO SORRY SARAH
p930
sg23
V4x032
p931
sg25
I100
sg26
I4
sg27
I100
sa(dp932
g21
VTENNEWROW
p933
sg23
Vx00x7
p934
sg25
I96
sg26
I5
sg27
I99
sa(dp935
g21
VSOLSTICE TWILIGHT
p936
sg23
V933x7
p937
sg25
I85
sg26
I6
sg27
I85
sa(dp938
g21
VCELER ET AUDAX
p939
sg23
Vx8946
p940
sg25
I78
sg26
I7
sg27
I84
sa(dp941
g21
VHOW MUCH IS ENOUGH
p942
sg23
V5x000
p943
sg25
I72
sg26
I8
sg27
I72
sasg58
(lp944
sssI1543668300
(dp945
g2
Vhttp://www.skyracing.com.au/index.php?component=racing&task=race&id=108379641&meetingid=107360216&Itemid=89
p946
sg4
V29030805.1245
p947
sg6
(dp948
g8
(lp949
(lp950
I5
aI1
aI4
aI3
aa(lp951
I4
aI2
aI1
aI6
aa(lp952
I4
aI2
aI1
aI3
aa(lp953
I4
aI2
aI1
aI6
aa(lp954
I4
aI2
aI1
aI5
aa(lp955
I4
aI5
aI1
aI3
aa(lp956
I5
aI1
aI3
aI4
aa(lp957
I4
aI1
aI2
aI5
aasg18
(lp958
(dp959
g21
VKILBRICKEN STORM
p960
sg23
Vx13x1
p961
sg25
I96
sg26
I1
sg27
I99
sa(dp962
g21
VLE BREUIL
p963
sg23
V15x12
p964
sg25
I82
sg26
I2
sg27
I77
sa(dp965
g21
VMR BIG SHOT
p966
sg23
V1x01x
p967
sg25
I92
sg26
I3
sg27
I81
sa(dp968
g21
VROCKY'S TREASURE
p969
sg23
V4x111
p970
sg25
I88
sg26
I4
sg27
I87
sa(dp971
g21
VSANTINI
p972
sg23
V1131x
p973
sg25
I100
sg26
I5
sg27
I100
sa(dp974
g21
VSKIPTHECUDDLES
p975
sg23
Vx010x
p976
sg25
I80
sg26
I6
sg27
I71
sa(dp977
g21
VTHIS IS IT
p978
sg23
V9202x
p979
sg25
I74
sg26
I7
sg27
I66
sasg58
(lp980
sssI1543677900
(dp981
g2
Vhttp://www.skyracing.com.au/index.php?component=racing&task=race&id=108379631&meetingid=107360248&Itemid=89
p982
sg4
V29031940.1525
p983
sg6
(dp984
g8
(lp985
(lp986
I2
aI9
aI7
aI1
aa(lp987
I2
aI7
aI9
aI1
aa(lp988
I2
aI7
aI1
aI3
aa(lp989
I2
aI7
aI9
aI1
aa(lp990
I2
aI7
aI5
aI1
aa(lp991
I9
aI2
aI7
aI1
aa(lp992
I2
aI9
aI5
aI7
aa(lp993
I2
aI7
aI9
aI5
aasg18
(lp994
(dp995
g21
VBEMPTON CLIFFS
p996
sg23
g751
sg25
I71
sg26
I1
sg27
I0
sa(dp997
g21
VBOOK OF INVASIONS
p998
sg23
V2
p999
sg25
I100
sg26
I2
sg27
I100
sa(dp1000
g21
VDILSON
p1001
sg23
g751
sg25
I80
sg26
I3
sg27
I0
sa(dp1002
g21
VEGYPT MILL DUKE
p1003
sg23
g751
sg25
I84
sg26
I4
sg27
I0
sa(dp1004
g21
VFUSEAU
p1005
sg23
g751
sg25
I90
sg26
I5
sg27
I0
sa(dp1006
g21
VKAIZER
p1007
sg23
g751
sg25
I75
sg26
I6
sg27
I0
sa(dp1008
g21
VAHORSEWITHNONAME
p1009
sg23
V4
p1010
sg25
I89
sg26
I7
sg27
I93
sa(dp1011
g21
VFAZAMOUR
p1012
sg23
g751
sg25
I66
sg26
I8
sg27
I0
sa(dp1013
g21
VFURIA D'OUDAIRIES
p1014
sg23
V3x
p1015
sg25
I99
sg26
I9
sg27
I97
sasg58
(lp1016
sssI1543678800
(dp1017
g2
Vhttp://www.skyracing.com.au/index.php?component=racing&task=race&id=108379661&meetingid=107751461&Itemid=89
p1018
sg4
V29031927.1540
p1019
sg6
(dp1020
g8
(lp1021
(lp1022
I5
aI8
aI2
aI4
aa(lp1023
I5
aI2
aI3
aI8
aa(lp1024
I5
aI3
aI8
aI4
aa(lp1025
I5
aI2
aI3
aI4
aa(lp1026
I5
aI3
aI2
aI8
aa(lp1027
I2
aI5
aI8
aI4
aa(lp1028
I5
aI8
aI2
aI6
aa(lp1029
I5
aI2
aI3
aI8
aasg18
(lp1030
(dp1031
g21
VBOSTON HILL
p1032
sg23
g751
sg25
I77
sg26
I1
sg27
I0
sa(dp1033
g21
VDESIR DU LARGE
p1034
sg23
Vx520x
p1035
sg25
I94
sg26
I2
sg27
I88
sa(dp1036
g21
VLIGHT MYLES AHEAD
p1037
sg23
V5
p1038
sg25
I79
sg26
I3
sg27
I79
sa(dp1039
g21
VTHROUGHWAY
p1040
sg23
V4
p1041
sg25
I82
sg26
I4
sg27
I83
sa(dp1042
g21
VVALDIEU
p1043
sg23
Vx32x2
p1044
sg25
I100
sg26
I5
sg27
I100
sa(dp1045
g21
VYENDO
p1046
sg23
g751
sg25
I87
sg26
I6
sg27
I0
sa(dp1047
g21
VBRINDABELLA
p1048
sg23
V00x
p1049
sg25
I71
sg26
I7
sg27
I74
sa(dp1050
g21
VMISS SHOE CITY
p1051
sg23
V4
p1052
sg25
I98
sg26
I8
sg27
I98
sasg58
(lp1053
sssI1543671000
(dp1054
g2
Vhttp://www.skyracing.com.au/index.php?component=racing&task=race&id=108379672&meetingid=107360200&Itemid=89
p1055
sg4
V29031930.1330
p1056
sg6
(dp1057
g8
(lp1058
(lp1059
I3
aI1
aI5
aI4
aa(lp1060
I2
aI4
aI5
aI3
aa(lp1061
I2
aI5
aI4
aI8
aa(lp1062
I2
aI4
aI1
aI3
aa(lp1063
I4
aI2
aI3
aI9
aa(lp1064
I5
aI1
aI3
aI4
aa(lp1065
I1
aI4
aI3
aI5
aa(lp1066
I2
aI4
aI5
aI3
aasg18
(lp1067
(dp1068
g21
VFLEMINPORT
p1069
sg23
V114x6
p1070
sg25
I100
sg26
I1
sg27
I98
sa(dp1071
g21
VWANDRIN STAR
p1072
sg23
V22x16
p1073
sg25
I65
sg26
I2
sg27
I68
sa(dp1074
g21
VEMERALD ROSE
p1075
sg23
V3x31x
p1076
sg25
I92
sg26
I3
sg27
I100
sa(dp1077
g21
VBORDEAUX BILL
p1078
sg23
Vx16x4
p1079
sg25
I98
sg26
I4
sg27
I85
sa(dp1080
g21
VONE FORTY SEVEN
p1081
sg23
V5x214
p1082
sg25
I87
sg26
I5
sg27
I94
sa(dp1083
g21
VSOME KINDA LAMA
p1084
sg23
Vx0x24
p1085
sg25
I83
sg26
I6
sg27
I84
sa(dp1086
g21
VAFTER ASPEN
p1087
sg23
Vx134x
p1088
sg25
I76
sg26
I7
sg27
I72
sa(dp1089
g21
VCOOLOGUE
p1090
sg23
V80x63
p1091
sg25
I78
sg26
I8
sg27
I80
sa(dp1092
g21
VSPIRIT OF HALE
p1093
sg23
V3412x
p1094
sg25
I72
sg26
I9
sg27
I74
sasg58
(lp1095
sssI1543668900
(dp1096
g2
Vhttp://www.skyracing.com.au/index.php?component=racing&task=race&id=108379671&meetingid=107360200&Itemid=89
p1097
sg4
V29031930.1255
p1098
sg6
(dp1099
g8
(lp1100
(lp1101
I5
aI3
aI1
aI6
aa(lp1102
I2
aI3
aI6
aI5
aa(lp1103
I2
aI3
aI5
aI1
aa(lp1104
I3
aI1
aI2
aI6
aa(lp1105
I6
aI2
aI3
aI5
aa(lp1106
I3
aI5
aI1
aI6
aa(lp1107
I5
aI3
aI1
aI6
aa(lp1108
I3
aI2
aI5
aI6
aasg18
(lp1109
(dp1110
g21
VMR MONOCHROME
p1111
sg23
V3x4x7
p1112
sg25
I96
sg26
I1
sg27
I88
sa(dp1113
g21
VBURRENBRIDGE HOTEL
p1114
sg23
V83x47
p1115
sg25
I81
sg26
I2
sg27
I78
sa(dp1116
g21
VVENGEUR DE GUYE
p1117
sg23
V52x54
p1118
sg25
I92
sg26
I3
sg27
I96
sa(dp1119
g21
VDROPS OF JUPITOR
p1120
sg23
V640x6
p1121
sg25
I80
sg26
I4
sg27
I80
sa(dp1122
g21
VBROUGHTONS RHYTHM
p1123
sg23
V3x2x6
p1124
sg25
I100
sg26
I5
sg27
I100
sa(dp1125
g21
VUNO VALOROSO
p1126
sg23
V3325x
p1127
sg25
I89
sg26
I6
sg27
I86
sasg58
(lp1128
sssI1543671900
(dp1129
g2
Vhttp://www.skyracing.com.au/index.php?component=racing&task=race&id=108379628&meetingid=107360248&Itemid=89
p1130
sg4
V29031940.1345
p1131
sg6
(dp1132
g8
(lp1133
(lp1134
I3
aI5
aI2
aI1
aa(lp1135
I4
aI5
aI1
aI6
aa(lp1136
I4
aI5
aI1
aI8
aa(lp1137
I4
aI5
aI9
aI2
aa(lp1138
I5
aI8
aI6
aI4
aa(lp1139
I3
aI5
aI2
aI1
aa(lp1140
I3
aI1
aI5
aI2
aa(lp1141
I5
aI4
aI3
aI1
aasg18
(lp1142
(dp1143
g21
VHUNTSMAN SON
p1144
sg23
V424x2
p1145
sg25
I97
sg26
I1
sg27
I89
sa(dp1146
g21
VBOREHAM BILL
p1147
sg23
V29x42
p1148
sg25
I88
sg26
I2
sg27
I92
sa(dp1149
g21
VMIDNIGHT MAESTRO
p1150
sg23
V5x21x
p1151
sg25
I100
sg26
I3
sg27
I100
sa(dp1152
g21
VVIVAS
p1153
sg23
V4x117
p1154
sg25
I70
sg26
I4
sg27
I77
sa(dp1155
g21
VDENTLEY DE MEE
p1156
sg23
V22x23
p1157
sg25
I94
sg26
I5
sg27
I96
sa(dp1158
g21
VSHADY OAKS
p1159
sg23
V5x347
p1160
sg25
I68
sg26
I6
sg27
I65
sa(dp1161
g21
VALL CURRENCIES
p1162
sg23
V417x4
p1163
sg25
I83
sg26
I7
sg27
I78
sa(dp1164
g21
VMAJESTIC TOUCH
p1165
sg23
Vx1462
p1166
sg25
I80
sg26
I8
sg27
I81
sa(dp1167
g21
VTRESHNISH
p1168
sg23
V77x54
p1169
sg25
I74
sg26
I9
sg27
I69
sasg58
(lp1170
sssI1543672800
(dp1171
g2
Vhttp://www.skyracing.com.au/index.php?component=racing&task=race&id=108379673&meetingid=107360200&Itemid=89
p1172
sg4
V29031930.1400
p1173
sg6
(dp1174
g8
(lp1175
(lp1176
I1
aI4
aI12
aI2
aa(lp1177
I1
aI4
aI10
aI2
aa(lp1178
I1
aI4
aI2
aI15
aa(lp1179
I1
aI10
aI4
aI2
aa(lp1180
I4
aI10
aI2
aI1
aa(lp1181
I4
aI1
aI12
aI3
aa(lp1182
I4
aI1
aI2
aI13
aa(lp1183
I1
aI4
aI10
aI2
aasg18
(lp1184
(dp1185
g21
VSHANTALUZE
p1186
sg23
Vx13x1
p1187
sg25
I100
sg26
I1
sg27
I100
sa(dp1188
g21
VARTHUR MAC
p1189
sg23
V1x0x4
p1190
sg25
I95
sg26
I2
sg27
I91
sa(dp1191
g21
VBADDESLEY PRINCE
p1192
sg23
V5x8
p1193
sg25
I80
sg26
I3
sg27
I81
sa(dp1194
g21
VFLASH THE STEEL
p1195
sg23
V31x32
p1196
sg25
I99
sg26
I4
sg27
I96
sa(dp1197
g21
VGLOBAL ANCHOR
p1198
sg23
V3x6x
p1199
sg25
I77
sg26
I5
sg27
I74
sa(dp1200
g21
VGOODTHYNEAWAY
p1201
sg23
V4x409
p1202
sg25
I83
sg26
I6
sg27
I84
sa(dp1203
g21
VHARD TO FORGET
p1204
sg23
V13x08
p1205
sg25
I69
sg26
I7
sg27
I66
sa(dp1206
g21
VLOOKFORARAINBOW
p1207
sg23
V0x54x
p1208
sg25
I75
sg26
I8
sg27
I75
sa(dp1209
g21
VMID DAY GUN
p1210
sg23
Vx3508
p1211
sg25
I66
sg26
I9
sg27
I64
sa(dp1212
g21
VNOT NORMAL
p1213
sg23
V32x0
p1214
sg25
I92
sg26
I10
sg27
I87
sa(dp1215
g21
VON PAROLE
p1216
sg23
V0x0
p1217
sg25
I72
sg26
I11
sg27
I69
sa(dp1218
g21
VTHE BUTCHER SAID
p1219
sg23
V2x36x
p1220
sg25
I94
sg26
I12
sg27
I92
sa(dp1221
g21
VTWOTWOTHREE
p1222
sg23
V24x97
p1223
sg25
I89
sg26
I13
sg27
I70
sa(dp1224
g21
VVAMANOS
p1225
sg23
V7x4
p1226
sg25
I86
sg26
I14
sg27
I85
sa(dp1227
g21
VA LITTLE CHAOS
p1228
sg23
V3x554
p1229
sg25
I79
sg26
I15
sg27
I79
sa(dp1230
g21
VNELLEMANI
p1231
sg23
V88x60
p1232
sg25
I65
sg26
I16
sg27
I62
sasg58
(lp1233
sssI1543669200
(dp1234
g2
Vhttp://www.skyracing.com.au/index.php?component=racing&task=race&id=108379612&meetingid=107360232&Itemid=89
p1235
sg4
V29030643.1300
p1236
sg6
(dp1237
g8
(lp1238
(lp1239
I2
aI4
aI3
aI1
aa(lp1240
I2
aI6
aI4
aI3
aa(lp1241
I2
aI4
aI6
aI3
aa(lp1242
I6
aI2
aI4
aI1
aa(lp1243
I2
aI6
aI4
aI3
aa(lp1244
I4
aI3
aI2
aI1
aa(lp1245
I4
aI2
aI3
aI1
aa(lp1246
I2
aI4
aI6
aI3
aasg18
(lp1247
(dp1248
g21
VMONTY'S AWARD
p1249
sg23
V0x2x1
p1250
sg25
I85
sg26
I1
sg27
I76
sa(dp1251
g21
VBEAKSTOWN
p1252
sg23
V1x2x1
p1253
sg25
I100
sg26
I2
sg27
I100
sa(dp1254
g21
VINFORMATEUR
p1255
sg23
Vx3x21
p1256
sg25
I92
sg26
I3
sg27
I80
sa(dp1257
g21
VWINDSOR AVENUE
p1258
sg23
V11x21
p1259
sg25
I95
sg26
I4
sg27
I88
sa(dp1260
g21
VASK BEN
p1261
sg23
V5x2x
p1262
sg25
I79
sg26
I5
sg27
I70
sa(dp1263
g21
VLORD DU MESNIL
p1264
sg23
V3x005
p1265
sg25
I81
sg26
I6
sg27
I71
sasg58
(lp1266
sssI1543673700
(dp1267
g2
Vhttp://www.skyracing.com.au/index.php?component=racing&task=race&id=108379629&meetingid=107360248&Itemid=89
p1268
sg4
V29031940.1415
p1269
sg6
(dp1270
g8
(lp1271
(lp1272
I3
aI2
aI9
aI5
aa(lp1273
I3
aI6
aI2
aI1
aa(lp1274
I3
aI1
aI2
aI9
aa(lp1275
I3
aI2
aI8
aI10
aa(lp1276
I2
aI3
aI6
aI10
aa(lp1277
I5
aI3
aI2
aI9
aa(lp1278
I3
aI2
aI4
aI1
aa(lp1279
I3
aI2
aI5
aI6
aasg18
(lp1280
(dp1281
g21
VTONTO'S SPIRIT
p1282
sg23
V2x1x3
p1283
sg25
I80
sg26
I1
sg27
I72
sa(dp1284
g21
VPOTTERMAN
p1285
sg23
Vx11x4
p1286
sg25
I100
sg26
I2
sg27
I96
sa(dp1287
g21
VSIMPLY THE BETTS
p1288
sg23
V01x18
p1289
sg25
I98
sg26
I3
sg27
I100
sa(dp1290
g21
VHIGGS
p1291
sg23
V211x4
p1292
sg25
I94
sg26
I4
sg27
I83
sa(dp1293
g21
VTYRELL
p1294
sg23
V3434x
p1295
sg25
I87
sg26
I5
sg27
I90
sa(dp1296
g21
VQUEST FOR LIFE
p1297
sg23
V31x05
p1298
sg25
I75
sg26
I6
sg27
I78
sa(dp1299
g21
VTHE SWEENEY
p1300
sg23
V143x3
p1301
sg25
I78
sg26
I7
sg27
I85
sa(dp1302
g21
VVOLT FACE
p1303
sg23
V053x0
p1304
sg25
I72
sg26
I8
sg27
I73
sa(dp1305
g21
VBIG TIME DANCER
p1306
sg23
V43642
p1307
sg25
I91
sg26
I9
sg27
I95
sa(dp1308
g21
VSUNNYTAHLIATEIGAN
p1309
sg23
V627x3
p1310
sg25
I84
sg26
I10
sg27
I88
sa(dp1311
g21
VZEPHYROS BLEU
p1312
sg23
V96x64
p1313
sg25
I74
sg26
I11
sg27
I76
sasg58
(lp1314
sssI1543674600
(dp1315
g2
Vhttp://www.skyracing.com.au/index.php?component=racing&task=race&id=108379659&meetingid=107751461&Itemid=89
p1316
sg4
V29031927.1430
p1317
sg6
(dp1318
g8
(lp1319
(lp1320
I2
aI3
aI4
aI6
aa(lp1321
I9
aI3
aI6
aI7
aa(lp1322
I3
aI6
aI5
aI8
aa(lp1323
I4
aI9
aI3
aI6
aa(lp1324
I9
aI3
aI7
aI6
aa(lp1325
I2
aI3
aI4
aI6
aa(lp1326
I2
aI3
aI1
aI4
aa(lp1327
I3
aI9
aI6
aI2
aasg18
(lp1328
(dp1329
g21
VDEVIL'S GLEN
p1330
sg23
V81x5x
p1331
sg25
I88
sg26
I1
sg27
I81
sa(dp1332
g21
VECLAT DES MOTTES
p1333
sg23
V3x1x
p1334
sg25
I100
sg26
I2
sg27
I100
sa(dp1335
g21
VINCA GOLD
p1336
sg23
Vx74x1
p1337
sg25
I98
sg26
I3
sg27
I98
sa(dp1338
g21
VJACK DILLINGER
p1339
sg23
V09x21
p1340
sg25
I92
sg26
I4
sg27
I92
sa(dp1341
g21
VJACK FIASCO
p1342
sg23
V1x062
p1343
sg25
I80
sg26
I5
sg27
I70
sa(dp1344
g21
VLORD IN RED
p1345
sg23
Vx3153
p1346
sg25
I82
sg26
I6
sg27
I86
sa(dp1347
g21
VLES ARCEAUX
p1348
sg23
V40x09
p1349
sg25
I69
sg26
I7
sg27
I66
sa(dp1350
g21
VCOURT TYCOON
p1351
sg23
V16032
p1352
sg25
I76
sg26
I8
sg27
I75
sa(dp1353
g21
VROOM TO ROAM
p1354
sg23
V23x57
p1355
sg25
I66
sg26
I9
sg27
I79
sasg58
(lp1356
sssI1543676400
(dp1357
g2
Vhttp://www.skyracing.com.au/index.php?component=racing&task=race&id=108379645&meetingid=107360216&Itemid=89
p1358
sg4
V29030805.1500
p1359
sg6
(dp1360
g8
(lp1361
(lp1362
I1
aI3
aI6
aI10
aa(lp1363
I2
aI1
aI3
aI4
aa(lp1364
I3
aI2
aI1
aI6
aa(lp1365
I3
aI2
aI4
aI6
aa(lp1366
I3
aI12
aI6
aI2
aa(lp1367
I3
aI1
aI6
aI10
aa(lp1368
I10
aI1
aI2
aI6
aa(lp1369
I3
aI1
aI2
aI6
aasg18
(lp1370
(dp1371
g21
VKEMBOY
p1372
sg23
V011x1
p1373
sg25
I97
sg26
I1
sg27
I100
sa(dp1374
g21
VBLACK CORTON
p1375
sg23
V154x2
p1376
sg25
I100
sg26
I2
sg27
I86
sa(dp1377
g21
VELEGANT ESCAPE
p1378
sg23
V133x1
p1379
sg25
I92
sg26
I3
sg27
I98
sa(dp1380
g21
VAMERICAN
p1381
sg23
Vx029x
p1382
sg25
I85
sg26
I4
sg27
I82
sa(dp1383
g21
VDINGO DOLLAR
p1384
sg23
V1x2x4
p1385
sg25
I82
sg26
I5
sg27
I85
sa(dp1386
g21
VTHOMAS PATRICK
p1387
sg23
V411x2
p1388
sg25
I88
sg26
I6
sg27
I93
sa(dp1389
g21
VSIZING TENNESSEE
p1390
sg23
V330x1
p1391
sg25
I77
sg26
I7
sg27
I76
sa(dp1392
g21
VBEWARE THE BEAR
p1393
sg23
V0x40x
p1394
sg25
I79
sg26
I8
sg27
I77
sa(dp1395
g21
VGO CONQUER
p1396
sg23
Vx58x3
p1397
sg25
I71
sg26
I9
sg27
I69
sa(dp1398
g21
VMS PARFOIS
p1399
sg23
V1222x
p1400
sg25
I93
sg26
I10
sg27
I91
sa(dp1401
g21
VALLYSSON MONTERG
p1402
sg23
V1031x
p1403
sg25
I64
sg26
I11
sg27
I63
sa(dp1404
g21
VFLYING ANGEL
p1405
sg23
Vx0x62
p1406
sg25
I71
sg26
I12
sg27
I70
sa(dp1407
g21
VWEST APPROACH
p1408
sg23
V60x30
p1409
sg25
I62
sg26
I13
sg27
I61
sa(dp1410
g21
VTHE YOUNG MASTER
p1411
sg23
V08x11
p1412
sg25
I73
sg26
I14
sg27
I73
sasg58
(lp1413
sssI1543665000
(dp1414
g2
Vhttp://www.skyracing.com.au/index.php?component=racing&task=race&id=108379610&meetingid=107360232&Itemid=89
p1415
sg4
V29030643.1150
p1416
sg6
(dp1417
g8
(lp1418
(lp1419
I2
aI1
aI6
aI3
aa(lp1420
I1
aI2
aI6
aI3
aa(lp1421
I1
aI3
aI5
aI2
aa(lp1422
I1
aI2
aI3
aI6
aa(lp1423
I6
aI2
aI1
aI3
aa(lp1424
I2
aI6
aI1
aI3
aa(lp1425
I2
aI3
aI1
aI6
aa(lp1426
I1
aI2
aI6
aI3
aasg18
(lp1427
(dp1428
g21
VOI THE CLUBB OI'S
p1429
sg23
V013x2
p1430
sg25
I98
sg26
I1
sg27
I97
sa(dp1431
g21
VSTYLE DE VOLE
p1432
sg23
V1x
p1433
sg25
I100
sg26
I2
sg27
I100
sa(dp1434
g21
VSWORDBILL
p1435
sg23
V11128
p1436
sg25
I93
sg26
I3
sg27
I85
sa(dp1437
g21
VTOMMY SHELBY
p1438
sg23
V4659x
p1439
sg25
I83
sg26
I4
sg27
I83
sa(dp1440
g21
VDANCE AVENUE
p1441
sg23
V0
p1442
sg25
I78
sg26
I5
sg27
I80
sa(dp1443
g21
VLAST ENCHANTMENT
p1444
sg23
V3629x
p1445
sg25
I86
sg26
I6
sg27
I93
sasg58
(lp1446
sssI1543667700
(dp1447
g2
Vhttp://www.skyracing.com.au/index.php?component=racing&task=race&id=108379626&meetingid=107360248&Itemid=89
p1448
sg4
V29031940.1235
p1449
sg6
(dp1450
g8
(lp1451
(lp1452
I6
aI1
aI5
aI4
aa(lp1453
I1
aI6
aI5
aI2
aa(lp1454
I1
aI4
aI3
aI2
aa(lp1455
I1
aI6
aI5
aI4
aa(lp1456
I1
aI5
aI6
aI4
aa(lp1457
I6
aI1
aI5
aI4
aa(lp1458
I6
aI1
aI5
aI4
aa(lp1459
I1
aI6
aI5
aI4
aasg18
(lp1460
(dp1461
g21
VOUTOFTHISWORLD
p1462
sg23
Vx0x91
p1463
sg25
I97
sg26
I1
sg27
I96
sa(dp1464
g21
VRUBENESQUE
p1465
sg23
V32537
p1466
sg25
I82
sg26
I2
sg27
I81
sa(dp1467
g21
VFALCON CLIFFS
p1468
sg23
V65485
p1469
sg25
I78
sg26
I3
sg27
I79
sa(dp1470
g21
VFREEDOM RUN
p1471
sg23
V6x24
p1472
sg25
I89
sg26
I4
sg27
I89
sa(dp1473
g21
VMIDNIGHTREFERENDUM
p1474
sg23
Vx12x7
p1475
sg25
I91
sg26
I5
sg27
I92
sa(dp1476
g21
VQUEEN'S MAGIC
p1477
sg23
V342x2
p1478
sg25
I100
sg26
I6
sg27
I100
sasg58
(lp1479
sssI1543668600
(dp1480
g2
Vhttp://www.skyracing.com.au/index.php?component=racing&task=race&id=108379656&meetingid=107751461&Itemid=89
p1481
sg4
V29031927.1250
p1482
sg6
(dp1483
g8
(lp1484
(lp1485
I7
aI2
aI5
aI3
aa(lp1486
I1
aI2
aI8
aI7
aa(lp1487
I2
aI1
aI4
aI5
aa(lp1488
I2
aI4
aI6
aI5
aa(lp1489
I2
aI6
aI7
aI5
aa(lp1490
I7
aI5
aI2
aI3
aa(lp1491
I7
aI2
aI3
aI5
aa(lp1492
I2
aI7
aI5
aI1
aasg18
(lp1493
(dp1494
g21
VTEACHER'S PET
p1495
sg23
V00048
p1496
sg25
I81
sg26
I1
sg27
I70
sa(dp1497
g21
VTIMEFORWEST
p1498
sg23
V951x2
p1499
sg25
I99
sg26
I2
sg27
I95
sa(dp1500
g21
VMISS EYECATCHER
p1501
sg23
V000x6
p1502
sg25
I85
sg26
I3
sg27
I87
sa(dp1503
g21
VMINNIES SECRET
p1504
sg23
V54207
p1505
sg25
I79
sg26
I4
sg27
I81
sa(dp1506
g21
VPOLAR PRESENT
p1507
sg23
V35225
p1508
sg25
I94
sg26
I5
sg27
I90
sa(dp1509
g21
VROUTES CHOICE
p1510
sg23
V2400x
p1511
sg25
I74
sg26
I6
sg27
I78
sa(dp1512
g21
VMRS LOVETT
p1513
sg23
V32x41
p1514
sg25
I100
sg26
I7
sg27
I100
sa(dp1515
g21
VPRESENTING MAHLER
p1516
sg23
V15007
p1517
sg25
I72
sg26
I8
sg27
I73
sasg58
(lp1518
sssI1543679100
(dp1519
g2
Vhttp://www.skyracing.com.au/index.php?component=racing&task=race&id=108379676&meetingid=107360200&Itemid=89
p1520
sg4
V29031930.1545
p1521
sg6
(dp1522
g8
(lp1523
(lp1524
I10
aI6
aI7
aI1
aa(lp1525
I1
aI7
aI2
aI11
aa(lp1526
I2
aI11
aI10
aI1
aa(lp1527
I1
aI7
aI2
aI11
aa(lp1528
I1
aI2
aI6
aI10
aa(lp1529
I7
aI10
aI6
aI1
aa(lp1530
I6
aI1
aI10
aI7
aa(lp1531
I1
aI7
aI2
aI10
aasg18
(lp1532
(dp1533
g21
VDRAMATIC PAUSE
p1534
sg23
V70x1x
p1535
sg25
I93
sg26
I1
sg27
I81
sa(dp1536
g21
VKNIGHT CRUSADER
p1537
sg23
V3x81
p1538
sg25
I89
sg26
I2
sg27
I77
sa(dp1539
g21
VBIG 'N BETTER
p1540
sg23
V5x5x
p1541
sg25
I70
sg26
I3
sg27
I62
sa(dp1542
g21
VBROOKEVALE
p1543
sg23
V0x
p1544
sg25
I77
sg26
I4
sg27
I63
sa(dp1545
g21
VDONLADD
p1546
sg23
g751
sg25
I78
sg26
I5
sg27
I0
sa(dp1547
g21
VGAELIK COAST
p1548
sg23
V1x
p1549
sg25
I100
sg26
I6
sg27
I95
sa(dp1550
g21
VJUST ROCKY
p1551
sg23
V4x
p1552
sg25
I92
sg26
I7
sg27
I87
sa(dp1553
g21
VMOVE ABOVE
p1554
sg23
V3x
p1555
sg25
I85
sg26
I8
sg27
I74
sa(dp1556
g21
VRINTULLA
p1557
sg23
g751
sg25
I74
sg26
I9
sg27
I0
sa(dp1558
g21
VSHUT THE BOX
p1559
sg23
V3x3
p1560
sg25
I97
sg26
I10
sg27
I100
sa(dp1561
g21
VWESTERLY WIND
p1562
sg23
V4
p1563
sg25
I80
sg26
I11
sg27
I67
sa(dp1564
g21
VPICCOLO RAMOSCELLO
p1565
sg23
g751
sg25
I71
sg26
I12
sg27
I0
sasg58
(lp1566
sss.