(dp0
I1544800800
(dp1
S'skyracing_url'
p2
Vhttp://www.skyracing.com.au/index.php?component=racing&task=race&id=108926091&meetingid=108215858&Itemid=89
p3
sS'betfair_raceid'
p4
V29048118.1520
p5
sS'dat2'
p6
(dp7
S'ratings_auto'
p8
(lp9
(lp10
I5
aI4
aI7
aI1
aa(lp11
I5
aI4
aI7
aI1
aa(lp12
I5
aI7
aI1
aI2
aa(lp13
I5
aI4
aI7
aI1
aa(lp14
I5
aI4
aI7
aI1
aa(lp15
I5
aI4
aI7
aI1
aa(lp16
I5
aI8
aI6
aI1
aa(lp17
I5
aI4
aI7
aI1
aasS'horse_details'
p18
(lp19
(dp20
S'horse_name'
p21
VALLONOK
p22
sS'horse_form'
p23
V0
p24
sS'rating_2'
p25
I85
sS'horse_number'
p26
I1
sS'rating_1'
p27
I86
sa(dp28
g21
VBANANA JOE
p29
sg23
V0
p30
sg25
I84
sg26
I2
sg27
I81
sa(dp31
g21
VCALUM GILHOOLEY
p32
sg23
V
p33
sg25
I70
sg26
I3
sg27
I0
sa(dp34
g21
VCAMLAD KINGFISHER
p35
sg23
V4x
p36
sg25
I80
sg26
I4
sg27
I99
sa(dp37
g21
VCOSHESTON
p38
sg23
V3x7
p39
sg25
I98
sg26
I5
sg27
I100
sa(dp40
g21
VROQUE IT
p41
sg23
g33
sg25
I91
sg26
I6
sg27
I0
sa(dp42
g21
VTIMEFORASPIN
p43
sg23
V6x7
p44
sg25
I77
sg26
I7
sg27
I92
sa(dp45
g21
VWELSH SAINT
p46
sg23
g33
sg25
I100
sg26
I8
sg27
I0
sasS'ratings_manual'
p47
(lp48
sssI1544793600
(dp49
g2
Vhttp://www.skyracing.com.au/index.php?component=racing&task=race&id=108926132&meetingid=108215905&Itemid=89
p50
sg4
V29048117.1320
p51
sg6
(dp52
g8
(lp53
(lp54
I5
aI3
aI9
aI1
aa(lp55
I1
aI3
aI8
aI9
aa(lp56
I1
aI9
aI4
aI6
aa(lp57
I1
aI3
aI5
aI9
aa(lp58
I9
aI5
aI8
aI10
aa(lp59
I5
aI3
aI9
aI8
aa(lp60
I5
aI3
aI8
aI9
aa(lp61
I1
aI5
aI3
aI9
aasg18
(lp62
(dp63
g21
VA HARE BREATH
p64
sg23
Vx88x5
p65
sg25
I86
sg26
I1
sg27
I90
sa(dp66
g21
VCHAMPAGNE CITY
p67
sg23
Vx414x
p68
sg25
I88
sg26
I2
sg27
I81
sa(dp69
g21
VHIGHEST SUN
p70
sg23
V1x1x3
p71
sg25
I96
sg26
I3
sg27
I97
sa(dp72
g21
VSMAOINEAMH ALAINN
p73
sg23
Vx0x35
p74
sg25
I72
sg26
I4
sg27
I70
sa(dp75
g21
VAL DANCER
p76
sg23
V14x11
p77
sg25
I100
sg26
I5
sg27
I100
sa(dp78
g21
VMAGIC DANCER
p79
sg23
V1x265
p80
sg25
I75
sg26
I6
sg27
I79
sa(dp81
g21
VSHALAKAR
p82
sg23
V331x3
p83
sg25
I81
sg26
I7
sg27
I84
sa(dp84
g21
VNOT THAT FUISSE
p85
sg23
V1x526
p86
sg25
I92
sg26
I8
sg27
I87
sa(dp87
g21
VMASTER WORK
p88
sg23
V00x11
p89
sg25
I93
sg26
I9
sg27
I93
sa(dp90
g21
VJAM SESSION
p91
sg23
Vx1511
p92
sg25
I78
sg26
I10
sg27
I76
sa(dp93
g21
VNINEPOINTSIXTHREE
p94
sg23
V8x021
p95
sg25
I74
sg26
I11
sg27
I73
sasg47
(lp96
sssI1544796600
(dp97
g2
Vhttp://www.skyracing.com.au/index.php?component=racing&task=race&id=108926089&meetingid=108215858&Itemid=89
p98
sg4
V29048118.1410
p99
sg6
(dp100
g8
(lp101
(lp102
I1
aI5
aI4
aI2
aa(lp103
I3
aI7
aI1
aI2
aa(lp104
I3
aI7
aI2
aI5
aa(lp105
I7
aI3
aI1
aI2
aa(lp106
I3
aI2
aI1
aI4
aa(lp107
I1
aI5
aI4
aI2
aa(lp108
I5
aI2
aI1
aI4
aa(lp109
I3
aI1
aI7
aI2
aasg18
(lp110
(dp111
g21
VKANSAS CITY CHIEF
p112
sg23
V1220x
p113
sg25
I91
sg26
I1
sg27
I100
sa(dp114
g21
VKAKI DE LA PREE
p115
sg23
Vx5x37
p116
sg25
I95
sg26
I2
sg27
I86
sa(dp117
g21
VKNOCK HOUSE
p118
sg23
V8x5x7
p119
sg25
I82
sg26
I3
sg27
I78
sa(dp120
g21
VSALMANAZAR
p121
sg23
V7423x
p122
sg25
I85
sg26
I4
sg27
I94
sa(dp123
g21
VCRIXUS'S ESCAPE
p124
sg23
V1x1x7
p125
sg25
I100
sg26
I5
sg27
I95
sa(dp126
g21
VATOMIC RUMBLE
p127
sg23
V011x7
p128
sg25
I78
sg26
I6
sg27
I82
sa(dp129
g21
VVALADOM
p130
sg23
V4x264
p131
sg25
I75
sg26
I7
sg27
I75
sasg47
(lp132
sssI1544794500
(dp133
g2
Vhttp://www.skyracing.com.au/index.php?component=racing&task=race&id=108926088&meetingid=108215858&Itemid=89
p134
sg4
V29048118.1335
p135
sg6
(dp136
g8
(lp137
(lp138
I2
aI5
aI1
aI3
aa(lp139
I1
aI5
aI6
aI4
aa(lp140
I6
aI2
aI1
aI5
aa(lp141
I3
aI1
aI6
aI5
aa(lp142
I1
aI2
aI4
aI5
aa(lp143
I2
aI1
aI5
aI3
aa(lp144
I2
aI4
aI5
aI1
aa(lp145
I1
aI2
aI5
aI6
aasg18
(lp146
(dp147
g21
VTHE HERDS GARDEN
p148
sg23
V46x84
p149
sg25
I96
sg26
I1
sg27
I92
sa(dp150
g21
VCATCHIN TIME
p151
sg23
V22x32
p152
sg25
I100
sg26
I2
sg27
I100
sa(dp153
g21
VSARPECH
p154
sg23
V5745x
p155
sg25
I87
sg26
I3
sg27
I86
sa(dp156
g21
VSPORTY YANKEE
p157
sg23
V0x054
p158
sg25
I82
sg26
I4
sg27
I78
sa(dp159
g21
VTHE CRAZED MOON
p160
sg23
V5x5x5
p161
sg25
I92
sg26
I5
sg27
I97
sa(dp162
g21
VBONJOUR STEVE
p163
sg23
V7x056
p164
sg25
I79
sg26
I6
sg27
I81
sa(dp165
g21
VOKMYWAY
p166
sg23
V8x948
p167
sg25
I72
sg26
I7
sg27
I69
sa(dp168
g21
VROCK N'STONES
p169
sg23
V47970
p170
sg25
I73
sg26
I8
sg27
I76
sasg47
(lp171
sssI1544790900
(dp172
g2
Vhttp://www.skyracing.com.au/index.php?component=racing&task=race&id=108926101&meetingid=108215874&Itemid=89
p173
sg4
V29048113.1235
p174
sg6
(dp175
g8
(lp176
(lp177
I1
aI2
aI3
aa(lp178
I2
aI1
aI3
aa(lp179
I1
aI2
aI3
aa(lp180
I2
aI1
aI3
aa(lp181
I2
aI1
aI3
aa(lp182
I1
aI2
aI3
aa(lp183
I1
aI2
aI3
aa(lp184
I1
aI2
aI3
aasg18
(lp185
(dp186
g21
VNADAITAK
p187
sg23
V26x41
p188
sg25
I100
sg26
I1
sg27
I100
sa(dp189
g21
VRATFACEMCDOUGALL
p190
sg23
V21x04
p191
sg25
I99
sg26
I2
sg27
I99
sa(dp192
g21
VSHARP REPLY
p193
sg23
V8629x
p194
sg25
I91
sg26
I3
sg27
I91
sasg47
(lp195
sssI1544788800
(dp196
g2
Vhttp://www.skyracing.com.au/index.php?component=racing&task=race&id=108926100&meetingid=108215874&Itemid=89
p197
sg4
V29048113.1200
p198
sg6
(dp199
g8
(lp200
(lp201
I3
aI2
aI4
aa(lp202
I2
aI3
aI4
aa(lp203
I2
aI3
aI4
aa(lp204
I2
aI3
aI4
aa(lp205
I2
aI3
aI4
aa(lp206
I3
aI2
aI4
aa(lp207
I4
aI3
aI2
aa(lp208
I2
aI3
aI4
aasg18
(lp209
(dp210
g21
VWOLFCATCHER
p211
sg23
Vx6561
p212
sg25
I100
sg26
I1
sg27
I100
sa(dp213
g21
VANGUS MILAN
p214
sg23
V37x03
p215
sg25
I89
sg26
I2
sg27
I93
sa(dp216
g21
VMINELLA FOR ME
p217
sg23
V761x3
p218
sg25
I96
sg26
I3
sg27
I98
sa(dp219
g21
VLORD COUNTY
p220
sg23
V351x9
p221
sg25
I92
sg26
I4
sg27
I89
sasg47
(lp222
sssI1544788200
(dp223
g2
Vhttp://www.skyracing.com.au/index.php?component=racing&task=race&id=108926085&meetingid=108215858&Itemid=89
p224
sg4
V29048118.1150
p225
sg6
(dp226
g8
(lp227
(lp228
I5
aI4
aI2
aI1
aa(lp229
I1
aI4
aI6
aI2
aa(lp230
I2
aI4
aI1
aI6
aa(lp231
I1
aI4
aI3
aI5
aa(lp232
I6
aI4
aI1
aI3
aa(lp233
I4
aI5
aI2
aI6
aa(lp234
I5
aI1
aI4
aI6
aa(lp235
I4
aI1
aI2
aI5
aasg18
(lp236
(dp237
g21
VEXMOOR MIST
p238
sg23
V610x4
p239
sg25
I98
sg26
I1
sg27
I86
sa(dp240
g21
VBLUE BULLET
p241
sg23
V662x4
p242
sg25
I85
sg26
I2
sg27
I93
sa(dp243
g21
VFRANKIE BALLOU
p244
sg23
V218x0
p245
sg25
I78
sg26
I3
sg27
I79
sa(dp246
g21
VGLANCE BACK
p247
sg23
V318x2
p248
sg25
I92
sg26
I4
sg27
I95
sa(dp249
g21
VLICKPENNY LARRY
p250
sg23
V3511x
p251
sg25
I100
sg26
I5
sg27
I100
sa(dp252
g21
VROXYFET
p253
sg23
Vx6567
p254
sg25
I82
sg26
I6
sg27
I81
sa(dp255
g21
VBLACKJACKTENNESSEE
p256
sg23
V53x49
p257
sg25
I72
sg26
I7
sg27
I69
sa(dp258
g21
VMISS AMELIA
p259
sg23
V850x0
p260
sg25
I77
sg26
I8
sg27
I74
sasg47
(lp261
sssI1544798700
(dp262
g2
Vhttp://www.skyracing.com.au/index.php?component=racing&task=race&id=108926090&meetingid=108215858&Itemid=89
p263
sg4
V29048118.1445
p264
sg6
(dp265
g8
(lp266
(lp267
I1
aI2
aI9
aI10
aa(lp268
I2
aI1
aI12
aI13
aa(lp269
I2
aI12
aI3
aI1
aa(lp270
I2
aI1
aI12
aI13
aa(lp271
I2
aI12
aI1
aI9
aa(lp272
I2
aI1
aI9
aI6
aa(lp273
I1
aI2
aI9
aI10
aa(lp274
I2
aI1
aI12
aI9
aasg18
(lp275
(dp276
g21
VCOLONEL CUSTARD
p277
sg23
V31x15
p278
sg25
I100
sg26
I1
sg27
I100
sa(dp279
g21
VTHE SOME DANCE KID
p280
sg23
Vx2x31
p281
sg25
I97
sg26
I2
sg27
I97
sa(dp282
g21
VARCTIC ROAD
p283
sg23
V12x90
p284
sg25
I67
sg26
I3
sg27
I65
sa(dp285
g21
VAVANTGARDIST
p286
sg23
V5x05x
p287
sg25
I81
sg26
I4
sg27
I81
sa(dp288
g21
VCAPMONFOR
p289
sg23
V37x87
p290
sg25
I78
sg26
I5
sg27
I78
sa(dp291
g21
VCHAMBARD
p292
sg23
V312x9
p293
sg25
I90
sg26
I6
sg27
I86
sa(dp294
g21
VCROSS OF STEEL
p295
sg23
V7x77
p296
sg25
I69
sg26
I7
sg27
I68
sa(dp297
g21
VDISCKO DES PLAGES
p298
sg23
V67x0
p299
sg25
I77
sg26
I8
sg27
I71
sa(dp300
g21
VFALCO BLITZ
p301
sg23
V2x
p302
sg25
I96
sg26
I9
sg27
I95
sa(dp303
g21
VGREY DIAMOND
p304
sg23
V1x45
p305
sg25
I93
sg26
I10
sg27
I92
sa(dp306
g21
VPASSING OCEANS
p307
sg23
V5x0
p308
sg25
I73
sg26
I11
sg27
I73
sa(dp309
g21
VRAPPER
p310
sg23
V3x46
p311
sg25
I83
sg26
I12
sg27
I91
sa(dp312
g21
VSAM CHISOLM
p313
sg23
V6x4x0
p314
sg25
I64
sg26
I13
sg27
I62
sa(dp315
g21
VTIM ROCCO
p316
sg23
V0x0x7
p317
sg25
I89
sg26
I14
sg27
I84
sa(dp318
g21
VBLUE BALLERINA
p319
sg23
V5x00
p320
sg25
I62
sg26
I15
sg27
I63
sa(dp321
g21
VINCERTAINE
p322
sg23
V6x9
p323
sg25
I70
sg26
I16
sg27
I75
sa(dp324
g21
VINFINITI
p325
sg23
Vx09x9
p326
sg25
I61
sg26
I17
sg27
I59
sa(dp327
g21
VROLLERCOSTER
p328
sg23
V0x21x
p329
sg25
I87
sg26
I18
sg27
I88
sasg47
(lp330
sssI1544802000
(dp331
g2
Vhttp://www.skyracing.com.au/index.php?component=racing&task=race&id=108926136&meetingid=108215905&Itemid=89
p332
sg4
V29048117.1540
p333
sg6
(dp334
g8
(lp335
(lp336
I12
aI4
aI11
aI3
aa(lp337
I5
aI10
aI1
aI13
aa(lp338
I5
aI12
aI8
aI10
aa(lp339
I5
aI1
aI13
aI12
aa(lp340
I10
aI13
aI1
aI12
aa(lp341
I12
aI4
aI3
aI11
aa(lp342
I3
aI5
aI7
aI4
aa(lp343
I12
aI5
aI10
aI1
aasg18
(lp344
(dp345
g21
VKEEPER HILL
p346
sg23
V500x5
p347
sg25
I87
sg26
I1
sg27
I77
sa(dp348
g21
VGOODBYE DANCER
p349
sg23
V81x03
p350
sg25
I78
sg26
I2
sg27
I87
sa(dp351
g21
VGREAT TRANGO
p352
sg23
V3312x
p353
sg25
I96
sg26
I3
sg27
I92
sa(dp354
g21
VAARON LAD
p355
sg23
V10x61
p356
sg25
I93
sg26
I4
sg27
I98
sa(dp357
g21
VSIZING GRANITE
p358
sg23
V0x665
p359
sg25
I82
sg26
I5
sg27
I85
sa(dp360
g21
VDANS LE VENT
p361
sg23
V26x46
p362
sg25
I75
sg26
I6
sg27
I83
sa(dp363
g21
VTHE EAGLEHASLANDED
p364
sg23
Vx8x05
p365
sg25
I91
sg26
I7
sg27
I78
sa(dp366
g21
VCLONDAW CIAN
p367
sg23
V0x300
p368
sg25
I66
sg26
I8
sg27
I67
sa(dp369
g21
VCLONDAW NATIVE
p370
sg23
V87x63
p371
sg25
I70
sg26
I9
sg27
I71
sa(dp372
g21
VBUYWISE
p373
sg23
Vx0x64
p374
sg25
I74
sg26
I10
sg27
I74
sa(dp375
g21
VLYGON ROCK
p376
sg23
V31x28
p377
sg25
I84
sg26
I11
sg27
I94
sa(dp378
g21
VWORTHY FARM
p379
sg23
Vx3x31
p380
sg25
I100
sg26
I12
sg27
I100
sa(dp381
g21
VWICKED WILLY
p382
sg23
V00x5x
p383
sg25
I69
sg26
I13
sg27
I72
sasg47
(lp384
sssI1544791500
(dp385
g2
Vhttp://www.skyracing.com.au/index.php?component=racing&task=race&id=108926131&meetingid=108215905&Itemid=89
p386
sg4
V29048117.1245
p387
sg6
(dp388
g8
(lp389
(lp390
I2
aI3
aI1
aI4
aa(lp391
I3
aI2
aI1
aI4
aa(lp392
I3
aI2
aI1
aI4
aa(lp393
I3
aI2
aI1
aI4
aa(lp394
I2
aI1
aI3
aI4
aa(lp395
I2
aI3
aI4
aI1
aa(lp396
I2
aI3
aI4
aI1
aa(lp397
I2
aI3
aI1
aI4
aasg18
(lp398
(dp399
g21
VIBIS DU RHEU
p400
sg23
V455x1
p401
sg25
I88
sg26
I1
sg27
I92
sa(dp402
g21
VLIL ROCKERFELLER
p403
sg23
V1x111
p404
sg25
I100
sg26
I2
sg27
I100
sa(dp405
g21
VTHE WORLDS END
p406
sg23
V74x13
p407
sg25
I99
sg26
I3
sg27
I98
sa(dp408
g21
VGUNFLEET
p409
sg23
V511x2
p410
sg25
I91
sg26
I4
sg27
I86
sasg47
(lp411
sssI1544797200
(dp412
g2
Vhttp://www.skyracing.com.au/index.php?component=racing&task=race&id=108926104&meetingid=108215874&Itemid=89
p413
sg4
V29048113.1420
p414
sg6
(dp415
g8
(lp416
(lp417
I1
aI3
aI2
aa(lp418
I1
aI2
aI3
aa(lp419
I1
aI3
aI2
aa(lp420
I1
aI2
aI3
aa(lp421
I3
aI2
aI1
aa(lp422
I1
aI3
aI2
aa(lp423
I2
aI1
aI3
aa(lp424
I1
aI3
aI2
aasg18
(lp425
(dp426
g21
VSIR MANGAN
p427
sg23
V0x792
p428
sg25
I100
sg26
I1
sg27
I100
sa(dp429
g21
VLOUGH DERG JEWEL
p430
sg23
Vx3x60
p431
sg25
I90
sg26
I2
sg27
I90
sa(dp432
g21
VAZURE FLY
p433
sg23
V0x442
p434
sg25
I96
sg26
I3
sg27
I95
sasg47
(lp435
sssI1544789400
(dp436
g2
Vhttp://www.skyracing.com.au/index.php?component=racing&task=race&id=108926130&meetingid=108215905&Itemid=89
p437
sg4
V29048117.1210
p438
sg6
(dp439
g8
(lp440
(lp441
I1
aI4
aI3
aI5
aa(lp442
I1
aI4
aI3
aI5
aa(lp443
I1
aI3
aI5
aI4
aa(lp444
I1
aI4
aI3
aI5
aa(lp445
I3
aI1
aI4
aI5
aa(lp446
I1
aI4
aI3
aI5
aa(lp447
I3
aI1
aI4
aI5
aa(lp448
I1
aI4
aI3
aI5
aasg18
(lp449
(dp450
g21
VELIXIR DE NUTZ
p451
sg23
Vx0x21
p452
sg25
I96
sg26
I1
sg27
I100
sa(dp453
g21
VANGELS BREATH
p454
sg23
V1x
p455
sg25
I100
sg26
I2
sg27
I93
sa(dp456
g21
VI K BRUNEL
p457
sg23
V1
p458
sg25
I92
sg26
I3
sg27
I87
sa(dp459
g21
VJARVEYS PLATE
p460
sg23
V3x1x3
p461
sg25
I89
sg26
I4
sg27
I97
sa(dp462
g21
VMONSIEUR D'ARQUE
p463
sg23
V5x1
p464
sg25
I84
sg26
I5
sg27
I83
sa(dp465
g21
VTRICKS AND TRAILS
p466
sg23
Vx32x8
p467
sg25
I79
sg26
I6
sg27
I80
sasg47
(lp468
sssI1544793000
(dp469
g2
Vhttp://www.skyracing.com.au/index.php?component=racing&task=race&id=108926102&meetingid=108215874&Itemid=89
p470
sg4
V29048113.1310
p471
sg6
(dp472
g8
(lp473
(lp474
I1
aI3
aI2
aa(lp475
I1
aI2
aI3
aa(lp476
I1
aI2
aI3
aa(lp477
I1
aI3
aI2
aa(lp478
I1
aI3
aI2
aa(lp479
I3
aI1
aI2
aa(lp480
I1
aI3
aI2
aa(lp481
I1
aI3
aI2
aasg18
(lp482
(dp483
g21
VPACIFIC DE BAUNE
p484
sg23
V712x1
p485
sg25
I100
sg26
I1
sg27
I100
sa(dp486
g21
VBARTON KNOLL
p487
sg23
V224x4
p488
sg25
I93
sg26
I2
sg27
I92
sa(dp489
g21
VGOWITHTHEFLOW
p490
sg23
V2218x
p491
sg25
I99
sg26
I3
sg27
I98
sasg47
(lp492
sssI1544795700
(dp493
g2
Vhttp://www.skyracing.com.au/index.php?component=racing&task=race&id=108926133&meetingid=108215905&Itemid=89
p494
sg4
V29048117.1355
p495
sg6
(dp496
g8
(lp497
(lp498
I5
aI10
aI9
aI1
aa(lp499
I2
aI5
aI7
aI10
aa(lp500
I2
aI7
aI5
aI10
aa(lp501
I2
aI5
aI7
aI9
aa(lp502
I2
aI5
aI10
aI7
aa(lp503
I5
aI10
aI9
aI1
aa(lp504
I1
aI3
aI10
aI5
aa(lp505
I5
aI2
aI10
aI7
aasg18
(lp506
(dp507
g21
VSYNOPSIS
p508
sg23
V3x6x9
p509
sg25
I100
sg26
I1
sg27
I90
sa(dp510
g21
VTHE BAY BIRCH
p511
sg23
V1x603
p512
sg25
I74
sg26
I2
sg27
I78
sa(dp513
g21
VMISS NIGHT OWL
p514
sg23
Vx32x3
p515
sg25
I96
sg26
I3
sg27
I83
sa(dp516
g21
VRIVER ICON
p517
sg23
V32364
p518
sg25
I72
sg26
I4
sg27
I72
sa(dp519
g21
VMIDNIGHT TARGET
p520
sg23
V141x2
p521
sg25
I93
sg26
I5
sg27
I100
sa(dp522
g21
VSONG SAA
p523
sg23
Vx64x4
p524
sg25
I81
sg26
I6
sg27
I76
sa(dp525
g21
VBLACK TULIP
p526
sg23
V83x32
p527
sg25
I78
sg26
I7
sg27
I86
sa(dp528
g21
VSKEWIFF
p529
sg23
V25x36
p530
sg25
I86
sg26
I8
sg27
I74
sa(dp531
g21
VINCH LALA
p532
sg23
V50x31
p533
sg25
I88
sg26
I9
sg27
I93
sa(dp534
g21
VSILENT STEPS
p535
sg23
V3x351
p536
sg25
I92
sg26
I10
sg27
I98
sa(dp537
g21
VTROUBLED SOUL
p538
sg23
V77341
p539
sg25
I75
sg26
I11
sg27
I89
sasg47
(lp540
sssI1544795100
(dp541
g2
Vhttp://www.skyracing.com.au/index.php?component=racing&task=race&id=108926103&meetingid=108215874&Itemid=89
p542
sg4
V29048113.1345
p543
sg6
(dp544
g8
(lp545
(lp546
I2
aI5
aI4
aI3
aa(lp547
I5
aI4
aI3
aI2
aa(lp548
I5
aI2
aI3
aI4
aa(lp549
I4
aI2
aI3
aI5
aa(lp550
I4
aI5
aI2
aI3
aa(lp551
I2
aI5
aI4
aI3
aa(lp552
I5
aI2
aI4
aI3
aa(lp553
I5
aI2
aI4
aI3
aasg18
(lp554
(dp555
g21
VCHARMING ZEN
p556
sg23
V1x78x
p557
sg25
I90
sg26
I1
sg27
I90
sa(dp558
g21
VCANYON CITY
p559
sg23
Vx3112
p560
sg25
I97
sg26
I2
sg27
I100
sa(dp561
g21
VCARD GAME
p562
sg23
V15x59
p563
sg25
I82
sg26
I3
sg27
I81
sa(dp564
g21
VKK LEXION
p565
sg23
Vx045x
p566
sg25
I86
sg26
I4
sg27
I86
sa(dp567
g21
VGOLDEN JEFFREY
p568
sg23
V66221
p569
sg25
I100
sg26
I5
sg27
I97
sasg47
(lp570
sssI1544790300
(dp571
g2
Vhttp://www.skyracing.com.au/index.php?component=racing&task=race&id=108926086&meetingid=108215858&Itemid=89
p572
sg4
V29048118.1225
p573
sg6
(dp574
g8
(lp575
(lp576
I1
aI2
aI3
aI6
aa(lp577
I1
aI2
aI3
aI5
aa(lp578
I1
aI3
aI2
aI6
aa(lp579
I2
aI1
aI4
aI3
aa(lp580
I2
aI1
aI3
aI6
aa(lp581
I2
aI1
aI3
aI6
aa(lp582
I3
aI1
aI2
aI6
aa(lp583
I1
aI2
aI3
aI6
aasg18
(lp584
(dp585
g21
VCASUAL CAVALIER
p586
sg23
V47x41
p587
sg25
I100
sg26
I1
sg27
I100
sa(dp588
g21
VALF 'N' DOR
p589
sg23
V26x26
p590
sg25
I91
sg26
I2
sg27
I92
sa(dp591
g21
VKNOCKNAMONA
p592
sg23
V6x462
p593
sg25
I98
sg26
I3
sg27
I89
sa(dp594
g21
VNOBEL LEADER
p595
sg23
Vx31x8
p596
sg25
I79
sg26
I4
sg27
I73
sa(dp597
g21
VBAJARDO
p598
sg23
V038x8
p599
sg25
I76
sg26
I5
sg27
I72
sa(dp600
g21
VLOCH GARMAN ARIS
p601
sg23
V0x634
p602
sg25
I87
sg26
I6
sg27
I81
sa(dp603
g21
VHANDS OF STONE
p604
sg23
V4x634
p605
sg25
I82
sg26
I7
sg27
I78
sasg47
(lp606
sssI1544801400
(dp607
g2
Vhttp://www.skyracing.com.au/index.php?component=racing&task=race&id=108926106&meetingid=108215874&Itemid=89
p608
sg4
V29048113.1530
p609
sg6
(dp610
g8
(lp611
(lp612
I1
aI4
aI6
aI2
aa(lp613
I3
aI2
aI1
aI4
aa(lp614
I3
aI2
aI1
aI4
aa(lp615
I3
aI2
aI1
aI4
aa(lp616
I2
aI3
aI4
aI7
aa(lp617
I4
aI1
aI6
aI2
aa(lp618
I1
aI4
aI2
aI6
aa(lp619
I2
aI3
aI1
aI4
aasg18
(lp620
(dp621
g21
VKLOUD GATE
p622
sg23
V25x01
p623
sg25
I100
sg26
I1
sg27
I100
sa(dp624
g21
VKEEP THE RIVER
p625
sg23
Vx4315
p626
sg25
I93
sg26
I2
sg27
I83
sa(dp627
g21
VBALLYFARSOON
p628
sg23
Vx2202
p629
sg25
I84
sg26
I3
sg27
I82
sa(dp630
g21
VESPOIR DE LOIRE
p631
sg23
V1x23
p632
sg25
I96
sg26
I4
sg27
I95
sa(dp633
g21
VST GEORGE'S OVAL
p634
sg23
V0x055
p635
sg25
I77
sg26
I5
sg27
I72
sa(dp636
g21
VRICHARD STRAUSS
p637
sg23
V34411
p638
sg25
I88
sg26
I6
sg27
I90
sa(dp639
g21
VPATIENCE TONY
p640
sg23
V3x520
p641
sg25
I78
sg26
I7
sg27
I77
sasg47
(lp642
sssI1544799300
(dp643
g2
Vhttp://www.skyracing.com.au/index.php?component=racing&task=race&id=108926105&meetingid=108215874&Itemid=89
p644
sg4
V29048113.1455
p645
sg6
(dp646
g8
(lp647
(lp648
I1
aI2
aI4
aI3
aa(lp649
I2
aI3
aI1
aI4
aa(lp650
I1
aI4
aI2
aI3
aa(lp651
I2
aI1
aI4
aI3
aa(lp652
I2
aI4
aI1
aI3
aa(lp653
I2
aI1
aI4
aI3
aa(lp654
I1
aI4
aI2
aI3
aa(lp655
I2
aI1
aI4
aI3
aasg18
(lp656
(dp657
g21
VPIQUE ROCK
p658
sg23
V4x113
p659
sg25
I100
sg26
I1
sg27
I100
sa(dp660
g21
VRUBENESQUE
p661
sg23
V25371
p662
sg25
I93
sg26
I2
sg27
I93
sa(dp663
g21
VLITTLE MILLIE
p664
sg23
V223x4
p665
sg25
I86
sg26
I3
sg27
I83
sa(dp666
g21
VMISS SPENT
p667
sg23
V96951
p668
sg25
I98
sg26
I4
sg27
I88
sa(dp669
g21
VVERY EXTRAVAGANT
p670
sg23
Vx77x8
p671
sg25
I84
sg26
I5
sg27
I78
sasg47
(lp672
sssI1544792400
(dp673
g2
Vhttp://www.skyracing.com.au/index.php?component=racing&task=race&id=108926087&meetingid=108215858&Itemid=89
p674
sg4
V29048118.1300
p675
sg6
(dp676
g8
(lp677
(lp678
I1
aI4
aI5
aI2
aa(lp679
I3
aI2
aI4
aI6
aa(lp680
I4
aI2
aI1
aI5
aa(lp681
I3
aI2
aI4
aI7
aa(lp682
I2
aI3
aI5
aI6
aa(lp683
I2
aI1
aI4
aI5
aa(lp684
I1
aI5
aI2
aI4
aa(lp685
I2
aI4
aI3
aI1
aasg18
(lp686
(dp687
g21
VSAMUEL JACKSON
p688
sg23
V135x5
p689
sg25
I100
sg26
I1
sg27
I100
sa(dp690
g21
VSAME CIRCUS
p691
sg23
V45x54
p692
sg25
I95
sg26
I2
sg27
I75
sa(dp693
g21
VSPARKLING RIVER
p694
sg23
V138x8
p695
sg25
I76
sg26
I3
sg27
I66
sa(dp696
g21
VEARLY RETIREMENT
p697
sg23
V503x2
p698
sg25
I90
sg26
I4
sg27
I96
sa(dp699
g21
VJUSTFORJAMES
p700
sg23
V131x5
p701
sg25
I88
sg26
I5
sg27
I91
sa(dp702
g21
VBILLY BRONCO
p703
sg23
V2x8x0
p704
sg25
I83
sg26
I6
sg27
I68
sa(dp705
g21
VACHILLE
p706
sg23
V5572x
p707
sg25
I79
sg26
I7
sg27
I72
sasg47
(lp708
sssI1544799900
(dp709
g2
Vhttp://www.skyracing.com.au/index.php?component=racing&task=race&id=108926135&meetingid=108215905&Itemid=89
p710
sg4
V29048117.1505
p711
sg6
(dp712
g8
(lp713
(lp714
I2
aI3
aI6
aI5
aa(lp715
I1
aI3
aI2
aI4
aa(lp716
I3
aI2
aI9
aI1
aa(lp717
I3
aI4
aI2
aI9
aa(lp718
I3
aI2
aI10
aI4
aa(lp719
I3
aI2
aI6
aI5
aa(lp720
I2
aI3
aI6
aI11
aa(lp721
I3
aI2
aI1
aI4
aasg18
(lp722
(dp723
g21
VBLESS THE WINGS
p724
sg23
V034x5
p725
sg25
I83
sg26
I1
sg27
I84
sa(dp726
g21
VBALLYCASEY
p727
sg23
V363x4
p728
sg25
I96
sg26
I2
sg27
I100
sa(dp729
g21
VJOSIES ORDERS
p730
sg23
V21x01
p731
sg25
I100
sg26
I3
sg27
I98
sa(dp732
g21
VWOUNDED WARRIOR
p733
sg23
V1x06x
p734
sg25
I74
sg26
I4
sg27
I73
sa(dp735
g21
VFULL CRY
p736
sg23
V20140
p737
sg25
I88
sg26
I5
sg27
I90
sa(dp738
g21
VFACT OF THE MATTER
p739
sg23
V42272
p740
sg25
I93
sg26
I6
sg27
I93
sa(dp741
g21
VJUNCTION FOURTEEN
p742
sg23
V4x64x
p743
sg25
I77
sg26
I7
sg27
I76
sa(dp744
g21
VBAY OF FREEDOM
p745
sg23
V7x077
p746
sg25
I70
sg26
I8
sg27
I70
sa(dp747
g21
VAMAZING COMEDY
p748
sg23
Vx2221
p749
sg25
I85
sg26
I9
sg27
I87
sa(dp750
g21
VMY HOMETOWN
p751
sg23
V78651
p752
sg25
I78
sg26
I10
sg27
I81
sa(dp753
g21
VVOL NOIR DE KERSER
p754
sg23
Vx21x4
p755
sg25
I91
sg26
I11
sg27
I78
sasg47
(lp756
sssI1544797800
(dp757
g2
Vhttp://www.skyracing.com.au/index.php?component=racing&task=race&id=108926134&meetingid=108215905&Itemid=89
p758
sg4
V29048117.1430
p759
sg6
(dp760
g8
(lp761
(lp762
I1
aI8
aI5
aI3
aa(lp763
I1
aI3
aI4
aI2
aa(lp764
I1
aI3
aI2
aI6
aa(lp765
I1
aI3
aI4
aI2
aa(lp766
I4
aI8
aI1
aI3
aa(lp767
I1
aI8
aI5
aI3
aa(lp768
I1
aI4
aI5
aI8
aa(lp769
I1
aI3
aI8
aI4
aasg18
(lp770
(dp771
g21
VROCK THE KASBAH
p772
sg23
Vx2x61
p773
sg25
I100
sg26
I1
sg27
I100
sa(dp774
g21
VCOO STAR SIVOLA
p775
sg23
V19x83
p776
sg25
I81
sg26
I2
sg27
I83
sa(dp777
g21
VSINGLEFARMPAYMENT
p778
sg23
V852x4
p779
sg25
I78
sg26
I3
sg27
I85
sa(dp780
g21
VROLLING DYLAN
p781
sg23
V312x4
p782
sg25
I88
sg26
I4
sg27
I78
sa(dp783
g21
VEL BANDIT
p784
sg23
V101x0
p785
sg25
I95
sg26
I5
sg27
I92
sa(dp786
g21
VCOGRY
p787
sg23
V00x26
p788
sg25
I75
sg26
I6
sg27
I70
sa(dp789
g21
VKERROW
p790
sg23
V126x0
p791
sg25
I72
sg26
I7
sg27
I74
sa(dp792
g21
VTHEATRE TERRITORY
p793
sg23
V233x2
p794
sg25
I90
sg26
I8
sg27
I99
sa(dp795
g21
VDOING FINE
p796
sg23
Vx4x07
p797
sg25
I64
sg26
I9
sg27
I68
sasg47
(lp798
sss.