(dp0
I1542288000
(dp1
S'skyracing_url'
p2
Vhttp://www.skyracing.com.au/index.php?component=racing&task=race&id=107858354&meetingid=106614902&Itemid=89
p3
sS'betfair_raceid'
p4
V29010170.1320
p5
sS'dat2'
p6
(dp7
S'ratings_auto'
p8
(lp9
(lp10
I4
aI6
aI5
aI12
aa(lp11
I4
aI5
aI13
aI14
aa(lp12
I13
aI1
aI3
aI10
aa(lp13
I4
aI5
aI13
aI14
aa(lp14
I5
aI6
aI4
aI13
aa(lp15
I4
aI6
aI12
aI5
aa(lp16
I6
aI4
aI5
aI11
aa(lp17
I4
aI5
aI6
aI13
aasS'horse_details'
p18
(lp19
(dp20
S'horse_name'
p21
VA LITTLE CHAOS
p22
sS'horse_form'
p23
V3x55
p24
sS'rating_2'
p25
I79
sS'horse_number'
p26
I1
sS'rating_1'
p27
I82
sa(dp28
g21
VBLUE BALLERINA
p29
sg23
V5x
p30
sg25
I71
sg26
I2
sg27
I73
sa(dp31
g21
VCUT AND RUN
p32
sg23
V9x9x5
p33
sg25
I73
sg26
I3
sg27
I79
sa(dp34
g21
VDEFINITELYANOSCAR
p35
sg23
Vx12x0
p36
sg25
I98
sg26
I4
sg27
I100
sa(dp37
g21
VDIAMOND GAIT
p38
sg23
V2x58x
p39
sg25
I94
sg26
I5
sg27
I94
sa(dp40
g21
VJILLYTHEJET
p41
sg23
V1x
p42
sg25
I100
sg26
I6
sg27
I97
sa(dp43
g21
VLADY AVERY
p44
sg23
Vx948x
p45
sg25
I77
sg26
I7
sg27
I72
sa(dp46
g21
VNELLEMANI
p47
sg23
Vx88x6
p48
sg25
I62
sg26
I8
sg27
I62
sa(dp49
g21
VPOT DE FLEUR
p50
sg23
V8x0
p51
sg25
I61
sg26
I9
sg27
I65
sa(dp52
g21
VROYALE JONQUILLE
p53
sg23
V55x5
p54
sg25
I68
sg26
I10
sg27
I77
sa(dp55
g21
VSALLY CAN'T WAIT
p56
sg23
V2x4x
p57
sg25
I89
sg26
I11
sg27
I88
sa(dp58
g21
VSIXTY'S BELLE
p59
sg23
V5x
p60
sg25
I91
sg26
I12
sg27
I92
sa(dp61
g21
VSTORM GODDESS
p62
sg23
V55x4
p63
sg25
I84
sg26
I13
sg27
I85
sa(dp64
g21
VYALLA HABIBTI
p65
sg23
Vx545x
p66
sg25
I64
sg26
I14
sg27
I68
sa(dp67
g21
VASTRA VIA
p68
sg23
V
p69
sg25
I83
sg26
I15
sg27
I0
sasS'ratings_manual'
p70
(lp71
sssI1542297600
(dp72
g2
Vhttp://www.skyracing.com.au/index.php?component=racing&task=race&id=107858359&meetingid=106614902&Itemid=89
p73
sg4
V29010170.1600
p74
sg6
(dp75
g8
(lp76
(lp77
I5
aI2
aI4
aI1
aa(lp78
I4
aI9
aI3
aI11
aa(lp79
I4
aI2
aI5
aI10
aa(lp80
I9
aI4
aI11
aI7
aa(lp81
I4
aI9
aI13
aI12
aa(lp82
I4
aI5
aI2
aI1
aa(lp83
I1
aI4
aI5
aI2
aa(lp84
I4
aI9
aI5
aI2
aasg18
(lp85
(dp86
g21
VVELVET MAKER
p87
sg23
V0x35x
p88
sg25
I91
sg26
I1
sg27
I91
sa(dp89
g21
VTHIRD ESTATE
p90
sg23
V75212
p91
sg25
I93
sg26
I2
sg27
I99
sa(dp92
g21
VLISSYCASEY
p93
sg23
V23x30
p94
sg25
I66
sg26
I3
sg27
I64
sa(dp95
g21
VSTILL BELIEVING
p96
sg23
V6x711
p97
sg25
I98
sg26
I4
sg27
I95
sa(dp98
g21
VPIQUE ROCK
p99
sg23
V14x11
p100
sg25
I100
sg26
I5
sg27
I100
sa(dp101
g21
VROSEMARY RUSSET
p102
sg23
V2x2x7
p103
sg25
I84
sg26
I6
sg27
I89
sa(dp104
g21
VORMSKIRK
p105
sg23
V4251x
p106
sg25
I71
sg26
I7
sg27
I74
sa(dp107
g21
VDAYTIME AHEAD
p108
sg23
V713x6
p109
sg25
I71
sg26
I8
sg27
I71
sa(dp110
g21
VGREAT TEMPO
p111
sg23
V9326x
p112
sg25
I74
sg26
I9
sg27
I75
sa(dp113
g21
VJENNYS DAY
p114
sg23
V5x7x2
p115
sg25
I82
sg26
I10
sg27
I85
sa(dp116
g21
VMIDNIGHT GLORY
p117
sg23
V440x0
p118
sg25
I77
sg26
I11
sg27
I79
sa(dp119
g21
VGALACTIC POWER
p120
sg23
V30x78
p121
sg25
I88
sg26
I12
sg27
I70
sa(dp122
g21
VYOUNGOCONNOR
p123
sg23
V5215x
p124
sg25
I78
sg26
I13
sg27
I81
sa(dp125
g21
VMR BACHSTER
p126
sg23
Vx540x
p127
sg25
I63
sg26
I14
sg27
I62
sasg70
(lp128
sssI1542289800
(dp129
g2
Vhttp://www.skyracing.com.au/index.php?component=racing&task=race&id=107858355&meetingid=106614902&Itemid=89
p130
sg4
V29010170.1350
p131
sg6
(dp132
g8
(lp133
(lp134
I3
aI9
aI6
aI4
aa(lp135
I3
aI2
aI4
aI7
aa(lp136
I6
aI9
aI4
aI8
aa(lp137
I3
aI2
aI7
aI6
aa(lp138
I3
aI2
aI9
aI7
aa(lp139
I3
aI9
aI4
aI6
aa(lp140
I3
aI4
aI9
aI2
aa(lp141
I3
aI9
aI2
aI6
aasg18
(lp142
(dp143
g21
VINCH LALA
p144
sg23
V0350x
p145
sg25
I79
sg26
I1
sg27
I82
sa(dp146
g21
VAMIRR
p147
sg23
V178x0
p148
sg25
I90
sg26
I2
sg27
I80
sa(dp149
g21
VKEEP MOVING
p150
sg23
V5x32x
p151
sg25
I100
sg26
I3
sg27
I100
sa(dp152
g21
VCOMBER MILL
p153
sg23
Vx2507
p154
sg25
I87
sg26
I4
sg27
I87
sa(dp155
g21
VDARTAGNAN LE DUN
p156
sg23
V9977x
p157
sg25
I72
sg26
I5
sg27
I72
sa(dp158
g21
VCAP ST VINCENT
p159
sg23
V356x3
p160
sg25
I81
sg26
I6
sg27
I94
sa(dp161
g21
VDAYLAMI KIRK
p162
sg23
V43x07
p163
sg25
I63
sg26
I7
sg27
I66
sa(dp164
g21
VSADMA
p165
sg23
V78x37
p166
sg25
I73
sg26
I8
sg27
I74
sa(dp167
g21
VCENTREOFEXCELLENCE
p168
sg23
V08531
p169
sg25
I99
sg26
I9
sg27
I97
sasg70
(lp170
sssI1542297900
(dp171
g2
Vhttp://www.skyracing.com.au/index.php?component=racing&task=race&id=107858330&meetingid=106779529&Itemid=89
p172
sg4
V29010054.1605
p173
sg6
(dp174
g8
(lp175
(lp176
I1
aI5
aI2
aI3
aa(lp177
I1
aI2
aI5
aI3
aa(lp178
I1
aI2
aI5
aI3
aa(lp179
I1
aI2
aI3
aI5
aa(lp180
I1
aI2
aI4
aI6
aa(lp181
I2
aI5
aI1
aI3
aa(lp182
I1
aI5
aI2
aI6
aa(lp183
I1
aI2
aI5
aI3
aasg18
(lp184
(dp185
g21
VACRONYM
p186
sg23
V4x2
p187
sg25
I100
sg26
I1
sg27
I100
sa(dp188
g21
VCOMEONTHEBULL
p189
sg23
V6x25
p190
sg25
I92
sg26
I2
sg27
I91
sa(dp191
g21
VPOPCORN SUTTON
p192
sg23
V80x5
p193
sg25
I81
sg26
I3
sg27
I86
sa(dp194
g21
VSUMMER HILL
p195
sg23
g69
sg25
I80
sg26
I4
sg27
I0
sa(dp196
g21
VSHANAKEY
p197
sg23
V04
p198
sg25
I98
sg26
I5
sg27
I96
sa(dp199
g21
VTIBBIE AND ME
p200
sg23
g69
sg25
I87
sg26
I6
sg27
I0
sasg70
(lp201
sssI1542290700
(dp202
g2
Vhttp://www.skyracing.com.au/index.php?component=racing&task=race&id=107858341&meetingid=106614934&Itemid=89
p203
sg4
V29010126.1405
p204
sg6
(dp205
g8
(lp206
(lp207
I7
aI9
aI4
aI1
aa(lp208
I7
aI9
aI1
aI4
aa(lp209
I1
aI7
aI9
aI4
aa(lp210
I7
aI9
aI1
aI4
aa(lp211
I7
aI9
aI1
aI4
aa(lp212
I7
aI9
aI4
aI11
aa(lp213
I7
aI9
aI4
aI1
aa(lp214
I7
aI9
aI1
aI4
aasg18
(lp215
(dp216
g21
VATAGUISEAMIX
p217
sg23
V0x8x3
p218
sg25
I90
sg26
I1
sg27
I91
sa(dp219
g21
VDEMON FOU
p220
sg23
V99
p221
sg25
I80
sg26
I2
sg27
I80
sa(dp222
g21
VGAME IN THE PARK
p223
sg23
V0675x
p224
sg25
I71
sg26
I3
sg27
I72
sa(dp225
g21
VKHANISARI
p226
sg23
V2x0
p227
sg25
I95
sg26
I4
sg27
I93
sa(dp228
g21
VOUR BOY
p229
sg23
V60x8x
p230
sg25
I87
sg26
I5
sg27
I85
sa(dp231
g21
VREALT OR
p232
sg23
V6x8
p233
sg25
I75
sg26
I6
sg27
I74
sa(dp234
g21
VREPRESENTED
p235
sg23
Vx4x26
p236
sg25
I100
sg26
I7
sg27
I100
sa(dp237
g21
VSERVEONTIME
p238
sg23
Vx686x
p239
sg25
I73
sg26
I8
sg27
I75
sa(dp240
g21
VSOUTHFIELD TORR
p241
sg23
V34x4
p242
sg25
I99
sg26
I9
sg27
I98
sa(dp243
g21
VSUM FUN NOW
p244
sg23
V0x
p245
sg25
I78
sg26
I10
sg27
I79
sa(dp246
g21
VDORA'S FIELD
p247
sg23
V78410
p248
sg25
I86
sg26
I11
sg27
I89
sasg70
(lp249
sssI1542298200
(dp250
g2
Vhttp://www.skyracing.com.au/index.php?component=racing&task=race&id=107858345&meetingid=106614934&Itemid=89
p251
sg4
V29010126.1610
p252
sg6
(dp253
g8
(lp254
(lp255
I6
aI5
aI4
aI3
aa(lp256
I6
aI5
aI4
aI3
aa(lp257
I5
aI3
aI1
aI2
aa(lp258
I6
aI5
aI4
aI3
aa(lp259
I6
aI5
aI4
aI1
aa(lp260
I5
aI6
aI4
aI3
aa(lp261
I6
aI5
aI1
aI4
aa(lp262
I5
aI6
aI4
aI3
aasg18
(lp263
(dp264
g21
VAGENT WESTY
p265
sg23
g69
sg25
I92
sg26
I1
sg27
I0
sa(dp266
g21
VAHEAD OF THE GAME
p267
sg23
g69
sg25
I84
sg26
I2
sg27
I0
sa(dp268
g21
VBILLY BROWN
p269
sg23
V5x0
p270
sg25
I78
sg26
I3
sg27
I81
sa(dp271
g21
VCAPTAIN TOMMY
p272
sg23
V83x
p273
sg25
I88
sg26
I4
sg27
I89
sa(dp274
g21
VROMEO BROWN
p275
sg23
V3x8
p276
sg25
I98
sg26
I5
sg27
I92
sa(dp277
g21
VSOUTHFIELD STONE
p278
sg23
V3x
p279
sg25
I100
sg26
I6
sg27
I100
sasg70
(lp280
sssI1542292500
(dp281
g2
Vhttp://www.skyracing.com.au/index.php?component=racing&task=race&id=107858342&meetingid=106614934&Itemid=89
p282
sg4
V29010126.1435
p283
sg6
(dp284
g8
(lp285
(lp286
I2
aI3
aI1
aI4
aa(lp287
I2
aI3
aI4
aI1
aa(lp288
I2
aI4
aI1
aI3
aa(lp289
I2
aI4
aI3
aI1
aa(lp290
I2
aI4
aI3
aI1
aa(lp291
I2
aI3
aI1
aI4
aa(lp292
I3
aI2
aI1
aI4
aa(lp293
I2
aI3
aI4
aI1
aasg18
(lp294
(dp295
g21
VKILCARA
p296
sg23
V64x04
p297
sg25
I94
sg26
I1
sg27
I94
sa(dp298
g21
VMISTY BLOOM
p299
sg23
V230x1
p300
sg25
I100
sg26
I2
sg27
I100
sa(dp301
g21
VMRS BURBIDGE
p302
sg23
V81432
p303
sg25
I98
sg26
I3
sg27
I97
sa(dp304
g21
VHOOVER FEVER
p305
sg23
V38099
p306
sg25
I85
sg26
I4
sg27
I88
sasg70
(lp307
sssI1542283800
(dp308
g2
Vhttp://www.skyracing.com.au/index.php?component=racing&task=race&id=107858309&meetingid=106614918&Itemid=89
p309
sg4
V29008520.1210
p310
sg6
(dp311
g8
(lp312
(lp313
I1
aI6
aI7
aI4
aa(lp314
I3
aI1
aI4
aI8
aa(lp315
I2
aI6
aI7
aI5
aa(lp316
I4
aI2
aI5
aI7
aa(lp317
I6
aI7
aI4
aI9
aa(lp318
I4
aI1
aI7
aI6
aa(lp319
I5
aI7
aI1
aI2
aa(lp320
I4
aI6
aI1
aI7
aasg18
(lp321
(dp322
g21
VSHEARIAN
p323
sg23
V60062
p324
sg25
I100
sg26
I1
sg27
I100
sa(dp325
g21
VSTANLEY
p326
sg23
V3x606
p327
sg25
I85
sg26
I2
sg27
I79
sa(dp328
g21
VSOOQAAN
p329
sg23
V05800
p330
sg25
I73
sg26
I3
sg27
I62
sa(dp331
g21
VMR COCO BEAN
p332
sg23
V4x40x
p333
sg25
I84
sg26
I4
sg27
I85
sa(dp334
g21
VLA SIOUX
p335
sg23
V81006
p336
sg25
I99
sg26
I5
sg27
I74
sa(dp337
g21
VHULA GIRL
p338
sg23
V52534
p339
sg25
I79
sg26
I6
sg27
I97
sa(dp340
g21
VBREAK THE SILENCE
p341
sg23
V81746
p342
sg25
I91
sg26
I7
sg27
I91
sa(dp343
g21
VRULER OF THE NILE
p344
sg23
V68566
p345
sg25
I65
sg26
I8
sg27
I68
sa(dp346
g21
VLIMERICK LORD
p347
sg23
V33337
p348
sg25
I72
sg26
I9
sg27
I71
sa(dp349
g21
VMY CHEROKEE
p350
sg23
V98x60
p351
sg25
I61
sg26
I10
sg27
I57
sasg70
(lp352
sssI1542285600
(dp353
g2
Vhttp://www.skyracing.com.au/index.php?component=racing&task=race&id=107858310&meetingid=106614918&Itemid=89
p354
sg4
V29008520.1240
p355
sg6
(dp356
g8
(lp357
(lp358
I1
aI6
aI2
aI4
aa(lp359
I4
aI1
aI8
aI2
aa(lp360
I1
aI2
aI7
aI4
aa(lp361
I4
aI2
aI8
aI1
aa(lp362
I4
aI1
aI2
aI6
aa(lp363
I1
aI6
aI2
aI4
aa(lp364
I1
aI4
aI6
aI8
aa(lp365
I1
aI4
aI2
aI6
aasg18
(lp366
(dp367
g21
VFIELDSMAN
p368
sg23
V42843
p369
sg25
I100
sg26
I1
sg27
I100
sa(dp370
g21
VASSIMILE
p371
sg23
V39672
p372
sg25
I88
sg26
I2
sg27
I91
sa(dp373
g21
VFINISHER
p374
sg23
V200x9
p375
sg25
I62
sg26
I3
sg27
I61
sa(dp376
g21
VZODIAKOS
p377
sg23
V00086
p378
sg25
I98
sg26
I4
sg27
I88
sa(dp379
g21
VCOULDN'T COULD SHE
p380
sg23
V27050
p381
sg25
I73
sg26
I5
sg27
I66
sa(dp382
g21
VAMITY ISLAND
p383
sg23
V37x57
p384
sg25
I94
sg26
I6
sg27
I95
sa(dp385
g21
VMAJESTE
p386
sg23
V44520
p387
sg25
I79
sg26
I7
sg27
I83
sa(dp388
g21
VBOOTS AND SPURS
p389
sg23
V60070
p390
sg25
I84
sg26
I8
sg27
I75
sa(dp391
g21
VLUATH
p392
sg23
V4469x
p393
sg25
I64
sg26
I9
sg27
I0
sa(dp394
g21
VGENERAL TUFTO
p395
sg23
V60x4x
p396
sg25
I70
sg26
I10
sg27
I70
sasg70
(lp397
sssI1542296100
(dp398
g2
Vhttp://www.skyracing.com.au/index.php?component=racing&task=race&id=107858329&meetingid=106779529&Itemid=89
p399
sg4
V29010054.1535
p400
sg6
(dp401
g8
(lp402
(lp403
I2
aI1
aI5
aI3
aa(lp404
I2
aI3
aI1
aI9
aa(lp405
I2
aI1
aI5
aI8
aa(lp406
I2
aI3
aI1
aI9
aa(lp407
I2
aI1
aI3
aI8
aa(lp408
I2
aI1
aI5
aI8
aa(lp409
I2
aI1
aI3
aI5
aa(lp410
I2
aI1
aI3
aI5
aasg18
(lp411
(dp412
g21
VDINARIA DES OBEAUX
p413
sg23
V325x2
p414
sg25
I98
sg26
I1
sg27
I99
sa(dp415
g21
VSHATTERED LOVE
p416
sg23
V125x2
p417
sg25
I100
sg26
I2
sg27
I100
sa(dp418
g21
VYOUCANTCALLHERTHAT
p419
sg23
V116x2
p420
sg25
I85
sg26
I3
sg27
I86
sa(dp421
g21
VMISS EYECATCHER
p422
sg23
V5000x
p423
sg25
I75
sg26
I4
sg27
I74
sa(dp424
g21
VCAMELIA DE COTTE
p425
sg23
V4x114
p426
sg25
I91
sg26
I5
sg27
I90
sa(dp427
g21
VDAWN IN THE PARK
p428
sg23
V01875
p429
sg25
I71
sg26
I6
sg27
I69
sa(dp430
g21
VOH ME OH MY
p431
sg23
V06x71
p432
sg25
I65
sg26
I7
sg27
I66
sa(dp433
g21
VPOLAR PRESENT
p434
sg23
V43522
p435
sg25
I79
sg26
I8
sg27
I81
sa(dp436
g21
VTIMEFORWEST
p437
sg23
V1951x
p438
sg25
I81
sg26
I9
sg27
I78
sasg70
(lp439
sssI1542297000
(dp440
g2
Vhttp://www.skyracing.com.au/index.php?component=racing&task=race&id=107858316&meetingid=106614918&Itemid=89
p441
sg4
V29008520.1550
p442
sg6
(dp443
g8
(lp444
(lp445
I4
aI9
aI7
aI13
aa(lp446
I1
aI3
aI2
aI7
aa(lp447
I2
aI4
aI7
aI11
aa(lp448
I2
aI1
aI6
aI5
aa(lp449
I3
aI14
aI1
aI7
aa(lp450
I7
aI4
aI9
aI13
aa(lp451
I4
aI9
aI13
aI6
aa(lp452
I7
aI4
aI2
aI1
aasg18
(lp453
(dp454
g21
VALPHA TAURI
p455
sg23
V6688x
p456
sg25
I81
sg26
I1
sg27
I78
sa(dp457
g21
VCOLLATE
p458
sg23
V9x990
p459
sg25
I86
sg26
I2
sg27
I75
sa(dp460
g21
VMONTANA DAWN
p461
sg23
V4x007
p462
sg25
I74
sg26
I3
sg27
I73
sa(dp463
g21
VBEE MACHINE
p464
sg23
V16951
p465
sg25
I100
sg26
I4
sg27
I100
sa(dp466
g21
VGOING NATIVE
p467
sg23
V789x0
p468
sg25
I79
sg26
I5
sg27
I87
sa(dp469
g21
VSALAZAR
p470
sg23
V84000
p471
sg25
I90
sg26
I6
sg27
I86
sa(dp472
g21
VSPACE WAR
p473
sg23
V23355
p474
sg25
I96
sg26
I7
sg27
I93
sa(dp475
g21
VCANIMAR
p476
sg23
V70969
p477
sg25
I67
sg26
I8
sg27
I63
sa(dp478
g21
VSONG OF SUMMER
p479
sg23
V05455
p480
sg25
I94
sg26
I9
sg27
I99
sa(dp481
g21
VMOREMONEYMOREPARTY
p482
sg23
Vx7489
p483
sg25
I72
sg26
I10
sg27
I70
sa(dp484
g21
VAFRICAN SHOWGIRL
p485
sg23
V09x66
p486
sg25
I77
sg26
I11
sg27
I81
sa(dp487
g21
VQUICK MONET
p488
sg23
V2060x
p489
sg25
I63
sg26
I12
sg27
I65
sa(dp490
g21
VBOND ANGEL
p491
sg23
V24503
p492
sg25
I89
sg26
I13
sg27
I90
sa(dp493
g21
VKHELEYF'S GIRL
p494
sg23
V0679x
p495
sg25
I71
sg26
I14
sg27
I69
sasg70
(lp496
sssI1542288300
(dp497
g2
Vhttp://www.skyracing.com.au/index.php?component=racing&task=race&id=107858325&meetingid=106779529&Itemid=89
p498
sg4
V29010054.1325
p499
sg6
(dp500
g8
(lp501
(lp502
I2
aI1
aI7
aI8
aa(lp503
I1
aI5
aI2
aI6
aa(lp504
I1
aI2
aI6
aI4
aa(lp505
I5
aI3
aI1
aI2
aa(lp506
I1
aI5
aI8
aI2
aa(lp507
I2
aI1
aI7
aI3
aa(lp508
I2
aI7
aI1
aI9
aa(lp509
I1
aI2
aI5
aI7
aasg18
(lp510
(dp511
g21
VBENNY IN MILAN
p512
sg23
V50812
p513
sg25
I97
sg26
I1
sg27
I97
sa(dp514
g21
VTINTOWN ROBIN
p515
sg23
V80x21
p516
sg25
I100
sg26
I2
sg27
I100
sa(dp517
g21
VBRIDGE NATIVE
p518
sg23
V5x037
p519
sg25
I74
sg26
I3
sg27
I82
sa(dp520
g21
VCUSP OF CARABELLI
p521
sg23
V29518
p522
sg25
I68
sg26
I4
sg27
I76
sa(dp523
g21
VSUNSET SADIE
p524
sg23
V5320x
p525
sg25
I70
sg26
I5
sg27
I79
sa(dp526
g21
VFLEURYS FORT
p527
sg23
V04783
p528
sg25
I80
sg26
I6
sg27
I69
sa(dp529
g21
VMILOMYNIT
p530
sg23
V8x363
p531
sg25
I91
sg26
I7
sg27
I91
sa(dp532
g21
VASKARI
p533
sg23
Vx0033
p534
sg25
I81
sg26
I8
sg27
I85
sa(dp535
g21
VCUSTOMER
p536
sg23
V0x000
p537
sg25
I86
sg26
I9
sg27
I68
sa(dp538
g21
VTIANTU
p539
sg23
V53777
p540
sg25
I61
sg26
I10
sg27
I60
sasg70
(lp541
sssI1542289200
(dp542
g2
Vhttp://www.skyracing.com.au/index.php?component=racing&task=race&id=107858312&meetingid=106614918&Itemid=89
p543
sg4
V29008520.1340
p544
sg6
(dp545
g8
(lp546
(lp547
I5
aI4
aI2
aI14
aa(lp548
I12
aI1
aI6
aI9
aa(lp549
I5
aI6
aI10
aI11
aa(lp550
I1
aI2
aI3
aI5
aa(lp551
I7
aI10
aI12
aI1
aa(lp552
I4
aI5
aI10
aI6
aa(lp553
I5
aI10
aI4
aI14
aa(lp554
I5
aI1
aI10
aI4
aasg18
(lp555
(dp556
g21
VTRICKY DICKY
p557
sg23
V9x206
p558
sg25
I74
sg26
I1
sg27
I76
sa(dp559
g21
VSOMETHING LUCKY
p560
sg23
V3518x
p561
sg25
I84
sg26
I2
sg27
I91
sa(dp562
g21
VPUDS
p563
sg23
V14x77
p564
sg25
I80
sg26
I3
sg27
I80
sa(dp565
g21
VCOOL SPIRIT
p566
sg23
V1x21x
p567
sg25
I97
sg26
I4
sg27
I97
sa(dp568
g21
VSAAHEQ
p569
sg23
V3x113
p570
sg25
I100
sg26
I5
sg27
I100
sa(dp571
g21
VEAST STREET REVUE
p572
sg23
V72400
p573
sg25
I78
sg26
I6
sg27
I84
sa(dp574
g21
VJOEGOGO
p575
sg23
V54354
p576
sg25
I64
sg26
I7
sg27
I65
sa(dp577
g21
VLANDING NIGHT
p578
sg23
V2515x
p579
sg25
I72
sg26
I8
sg27
I72
sa(dp580
g21
VOUR LORD
p581
sg23
Vx2590
p582
sg25
I75
sg26
I9
sg27
I60
sa(dp583
g21
VGLAMOROUS ROCKET
p584
sg23
V82221
p585
sg25
I94
sg26
I10
sg27
I85
sa(dp586
g21
VRUMSHAK
p587
sg23
V74105
p588
sg25
I71
sg26
I11
sg27
I66
sa(dp589
g21
VARZAAK
p590
sg23
V62686
p591
sg25
I62
sg26
I12
sg27
I70
sa(dp592
g21
VJACK TAYLOR
p593
sg23
V54763
p594
sg25
I90
sg26
I13
sg27
I73
sa(dp595
g21
VGIFT IN TIME
p596
sg23
V1343x
p597
sg25
I89
sg26
I14
sg27
I88
sasg70
(lp598
sssI1542290100
(dp599
g2
Vhttp://www.skyracing.com.au/index.php?component=racing&task=race&id=107858326&meetingid=106779529&Itemid=89
p600
sg4
V29010054.1355
p601
sg6
(dp602
g8
(lp603
(lp604
I6
aI5
aI3
aI1
aa(lp605
I8
aI1
aI5
aI3
aa(lp606
I1
aI2
aI3
aI6
aa(lp607
I8
aI1
aI5
aI3
aa(lp608
I8
aI6
aI5
aI7
aa(lp609
I6
aI5
aI3
aI4
aa(lp610
I1
aI5
aI6
aI4
aa(lp611
I6
aI5
aI8
aI1
aasg18
(lp612
(dp613
g21
VDORANS RIVER
p614
sg23
V41469
p615
sg25
I97
sg26
I1
sg27
I85
sa(dp616
g21
VMASSINI'S TRAP
p617
sg23
V31339
p618
sg25
I72
sg26
I2
sg27
I69
sa(dp619
g21
VTIME FOR MABEL
p620
sg23
V60361
p621
sg25
I84
sg26
I3
sg27
I94
sa(dp622
g21
VSMALL WORLD
p623
sg23
V001x0
p624
sg25
I79
sg26
I4
sg27
I79
sa(dp625
g21
VTHERMISTOCLES
p626
sg23
Vx35x3
p627
sg25
I100
sg26
I5
sg27
I98
sa(dp628
g21
VCOOLDINE BOG
p629
sg23
V23251
p630
sg25
I92
sg26
I6
sg27
I100
sa(dp631
g21
VODIT
p632
sg23
V05042
p633
sg25
I87
sg26
I7
sg27
I84
sa(dp634
g21
VPRESENTING MAHLER
p635
sg23
V41500
p636
sg25
I75
sg26
I8
sg27
I75
sasg70
(lp637
sssI1542291900
(dp638
g2
Vhttp://www.skyracing.com.au/index.php?component=racing&task=race&id=107858356&meetingid=106614902&Itemid=89
p639
sg4
V29010170.1425
p640
sg6
(dp641
g8
(lp642
(lp643
I1
aI3
aI2
aI5
aa(lp644
I3
aI2
aI1
aI4
aa(lp645
I1
aI4
aI5
aI2
aa(lp646
I3
aI1
aI2
aI4
aa(lp647
I3
aI2
aI5
aI4
aa(lp648
I1
aI3
aI2
aI5
aa(lp649
I1
aI3
aI2
aI5
aa(lp650
I3
aI1
aI2
aI5
aasg18
(lp651
(dp652
g21
VSHANNON HILL
p653
sg23
V1x1
p654
sg25
I100
sg26
I1
sg27
I100
sa(dp655
g21
VGEORDIE B
p656
sg23
V1x
p657
sg25
I92
sg26
I2
sg27
I93
sa(dp658
g21
VSAMARQUAND
p659
sg23
V1x
p660
sg25
I99
sg26
I3
sg27
I96
sa(dp661
g21
VANNIE BONNY
p662
sg23
V1x5
p663
sg25
I83
sg26
I4
sg27
I83
sa(dp664
g21
VBURN BABY BYRNE
p665
sg23
V21x33
p666
sg25
I87
sg26
I5
sg27
I89
sasg70
(lp667
sssI1542295200
(dp668
g2
Vhttp://www.skyracing.com.au/index.php?component=racing&task=race&id=107858315&meetingid=106614918&Itemid=89
p669
sg4
V29008520.1520
p670
sg6
(dp671
g8
(lp672
(lp673
I10
aI7
aI12
aI11
aa(lp674
I2
aI3
aI9
aI4
aa(lp675
I3
aI9
aI8
aI6
aa(lp676
I3
aI7
aI6
aI9
aa(lp677
I2
aI12
aI3
aI9
aa(lp678
I10
aI7
aI11
aI12
aa(lp679
I10
aI8
aI7
aI12
aa(lp680
I3
aI7
aI10
aI2
aasg18
(lp681
(dp682
g21
VCOUNTRY'N'WESTERN
p683
sg23
V77190
p684
sg25
I92
sg26
I1
sg27
I0
sa(dp685
g21
VINLAWED
p686
sg23
V8000x
p687
sg25
I78
sg26
I2
sg27
I70
sa(dp688
g21
VFLOOD DEFENCE
p689
sg23
V83257
p690
sg25
I85
sg26
I3
sg27
I82
sa(dp691
g21
VLEAN ON PETE
p692
sg23
V0520x
p693
sg25
I73
sg26
I4
sg27
I84
sa(dp694
g21
VCOLOURFIELD
p695
sg23
V3x90x
p696
sg25
I67
sg26
I5
sg27
I62
sa(dp697
g21
VPRINCESS HARLEY
p698
sg23
V46634
p699
sg25
I70
sg26
I6
sg27
I79
sa(dp700
g21
VLONG SOCKS
p701
sg23
V4x47x
p702
sg25
I96
sg26
I7
sg27
I99
sa(dp703
g21
VICONIC CODE
p704
sg23
V65501
p705
sg25
I93
sg26
I8
sg27
I87
sa(dp706
g21
VHUSSAR BALLAD
p707
sg23
V05305
p708
sg25
I70
sg26
I9
sg27
I70
sa(dp709
g21
VGIVEN CHOICE
p710
sg23
V577x1
p711
sg25
I100
sg26
I10
sg27
I100
sa(dp712
g21
VKABRIT
p713
sg23
V432x0
p714
sg25
I83
sg26
I11
sg27
I92
sa(dp715
g21
VGO ON GAL
p716
sg23
V66x59
p717
sg25
I89
sg26
I12
sg27
I95
sa(dp718
g21
VTHE LOCK MASTER
p719
sg23
V4790x
p720
sg25
I75
sg26
I13
sg27
I74
sa(dp721
g21
VANNA JAMMEELA
p722
sg23
V60526
p723
sg25
I63
sg26
I14
sg27
I64
sasg70
(lp724
sssI1542293700
(dp725
g2
Vhttp://www.skyracing.com.au/index.php?component=racing&task=race&id=107858357&meetingid=106614902&Itemid=89
p726
sg4
V29010170.1455
p727
sg6
(dp728
g8
(lp729
(lp730
I9
aI6
aI2
aI8
aa(lp731
I3
aI2
aI4
aI1
aa(lp732
I5
aI6
aI3
aI9
aa(lp733
I2
aI1
aI5
aI8
aa(lp734
I3
aI4
aI5
aI8
aa(lp735
I6
aI9
aI2
aI8
aa(lp736
I2
aI9
aI8
aI4
aa(lp737
I2
aI6
aI3
aI9
aasg18
(lp738
(dp739
g21
VHEY BILL
p740
sg23
V1921x
p741
sg25
I80
sg26
I1
sg27
I79
sa(dp742
g21
VAGAMEMMON
p743
sg23
V5x1x3
p744
sg25
I100
sg26
I2
sg27
I89
sa(dp745
g21
VMUCKLE ROE
p746
sg23
V249x6
p747
sg25
I72
sg26
I3
sg27
I74
sa(dp748
g21
VTHE HAPPY CHAPPY
p749
sg23
Vx49x4
p750
sg25
I85
sg26
I4
sg27
I68
sa(dp751
g21
VLITTLE WINDMILL
p752
sg23
V13125
p753
sg25
I66
sg26
I5
sg27
I66
sa(dp754
g21
VHEPIJEU
p755
sg23
V01112
p756
sg25
I83
sg26
I6
sg27
I95
sa(dp757
g21
VDREAMSOFTHEATRE
p758
sg23
V16213
p759
sg25
I73
sg26
I7
sg27
I80
sa(dp760
g21
VROYAL TARA
p761
sg23
V5822x
p762
sg25
I97
sg26
I8
sg27
I87
sa(dp763
g21
VGARDINERS HILL
p764
sg23
V37x21
p765
sg25
I90
sg26
I9
sg27
I100
sasg70
(lp766
sssI1542294600
(dp767
g2
Vhttp://www.skyracing.com.au/index.php?component=racing&task=race&id=107858343&meetingid=106614934&Itemid=89
p768
sg4
V29010126.1510
p769
sg6
(dp770
g8
(lp771
(lp772
I2
aI3
aI5
aI4
aa(lp773
I4
aI1
aI6
aI2
aa(lp774
I2
aI3
aI4
aI6
aa(lp775
I4
aI6
aI2
aI3
aa(lp776
I3
aI4
aI7
aI2
aa(lp777
I3
aI2
aI5
aI4
aa(lp778
I3
aI2
aI5
aI4
aa(lp779
I2
aI3
aI4
aI6
aasg18
(lp780
(dp781
g21
VCOOL MACAVITY
p782
sg23
V70700
p783
sg25
I88
sg26
I1
sg27
I82
sa(dp784
g21
VMAGICAL THOMAS
p785
sg23
V42113
p786
sg25
I100
sg26
I2
sg27
I100
sa(dp787
g21
VBORAK
p788
sg23
V136x1
p789
sg25
I95
sg26
I3
sg27
I95
sa(dp790
g21
VMEAD VALE
p791
sg23
Vx3x25
p792
sg25
I84
sg26
I4
sg27
I87
sa(dp793
g21
VCATCHIN TIME
p794
sg23
V3322x
p795
sg25
I93
sg26
I5
sg27
I94
sa(dp796
g21
VSILVER QUAY
p797
sg23
V065x0
p798
sg25
I71
sg26
I6
sg27
I74
sa(dp799
g21
VMR LANDO
p800
sg23
V970x0
p801
sg25
I76
sg26
I7
sg27
I78
sa(dp802
g21
VTHUNDERING HOME
p803
sg23
V0x8x0
p804
sg25
I80
sg26
I8
sg27
I70
sasg70
(lp805
sssI1542296400
(dp806
g2
Vhttp://www.skyracing.com.au/index.php?component=racing&task=race&id=107858344&meetingid=106614934&Itemid=89
p807
sg4
V29010126.1540
p808
sg6
(dp809
g8
(lp810
(lp811
I3
aI2
aI1
aa(lp812
I3
aI2
aI1
aa(lp813
I2
aI3
aI1
aa(lp814
I2
aI3
aI1
aa(lp815
I3
aI2
aI1
aa(lp816
I3
aI2
aI1
aa(lp817
I3
aI2
aI1
aa(lp818
I3
aI2
aI1
aasg18
(lp819
(dp820
g21
VDIABLERETS
p821
sg23
Vx09x0
p822
sg25
I90
sg26
I1
sg27
I90
sa(dp823
g21
VFULL
p824
sg23
V88114
p825
sg25
I99
sg26
I2
sg27
I96
sa(dp826
g21
VNIGHT OF SIN
p827
sg23
V535x7
p828
sg25
I100
sg26
I3
sg27
I100
sasg70
(lp829
sssI1542286200
(dp830
g2
Vhttp://www.skyracing.com.au/index.php?component=racing&task=race&id=107858324&meetingid=106779529&Itemid=89
p831
sg4
V29010054.1250
p832
sg6
(dp833
g8
(lp834
(lp835
I3
aI4
aI1
aI5
aa(lp836
I4
aI6
aI3
aI5
aa(lp837
I4
aI3
aI1
aI2
aa(lp838
I4
aI1
aI3
aI5
aa(lp839
I3
aI6
aI4
aI5
aa(lp840
I3
aI4
aI1
aI5
aa(lp841
I3
aI6
aI4
aI1
aa(lp842
I4
aI3
aI1
aI6
aasg18
(lp843
(dp844
g21
VBOLD GESTURE
p845
sg23
V0x7x
p846
sg25
I86
sg26
I1
sg27
I92
sa(dp847
g21
VFLEMEN HARRY
p848
sg23
g69
sg25
I78
sg26
I2
sg27
I0
sa(dp849
g21
VNOTEBOOK
p850
sg23
V5x1x2
p851
sg25
I100
sg26
I3
sg27
I100
sa(dp852
g21
VSALTY BOY
p853
sg23
V1x343
p854
sg25
I98
sg26
I4
sg27
I95
sa(dp855
g21
VSPYGLASS HILL
p856
sg23
V2x5x
p857
sg25
I81
sg26
I5
sg27
I85
sa(dp858
g21
VASK MARY
p859
sg23
V1110x
p860
sg25
I92
sg26
I6
sg27
I81
sa(dp861
g21
VICOSTNOTHING
p862
sg23
V8x
p863
sg25
I77
sg26
I7
sg27
I78
sasg70
(lp864
sssI1542288600
(dp865
g2
Vhttp://www.skyracing.com.au/index.php?component=racing&task=race&id=107858340&meetingid=106614934&Itemid=89
p866
sg4
V29010126.1330
p867
sg6
(dp868
g8
(lp869
(lp870
I4
aI1
aI2
aI3
aa(lp871
I2
aI1
aI3
aI4
aa(lp872
I4
aI1
aI2
aI3
aa(lp873
I2
aI1
aI4
aI3
aa(lp874
I4
aI2
aI3
aI1
aa(lp875
I4
aI2
aI1
aI3
aa(lp876
I1
aI2
aI4
aI3
aa(lp877
I4
aI2
aI1
aI3
aasg18
(lp878
(dp879
g21
VBRAQUEUR D'OR
p880
sg23
V2x0x9
p881
sg25
I100
sg26
I1
sg27
I99
sa(dp882
g21
VFOX APPEAL
p883
sg23
V2004x
p884
sg25
I91
sg26
I2
sg27
I94
sa(dp885
g21
VBRAMBLE BROOK
p886
sg23
V4316x
p887
sg25
I88
sg26
I3
sg27
I86
sa(dp888
g21
VBEAU DU BRIZAIS
p889
sg23
V0x632
p890
sg25
I95
sg26
I4
sg27
I100
sasg70
(lp891
sssI1542286800
(dp892
g2
Vhttp://www.skyracing.com.au/index.php?component=racing&task=race&id=107858339&meetingid=106614934&Itemid=89
p893
sg4
V29010126.1300
p894
sg6
(dp895
g8
(lp896
(lp897
I4
aI7
aI2
aI1
aa(lp898
I2
aI5
aI7
aI1
aa(lp899
I5
aI4
aI1
aI7
aa(lp900
I7
aI4
aI1
aI2
aa(lp901
I7
aI5
aI2
aI4
aa(lp902
I7
aI4
aI2
aI1
aa(lp903
I4
aI7
aI2
aI1
aa(lp904
I7
aI4
aI2
aI5
aasg18
(lp905
(dp906
g21
VAVOCADEAU
p907
sg23
V39853
p908
sg25
I88
sg26
I1
sg27
I81
sa(dp909
g21
VTACTICAL MANOEUVRE
p910
sg23
V2307x
p911
sg25
I92
sg26
I2
sg27
I93
sa(dp912
g21
VNEETSIDE
p913
sg23
V945x6
p914
sg25
I84
sg26
I3
sg27
I88
sa(dp915
g21
VLOVE THE LEADER
p916
sg23
V0x091
p917
sg25
I100
sg26
I4
sg27
I100
sa(dp918
g21
VGETADOLLAR
p919
sg23
V75730
p920
sg25
I72
sg26
I5
sg27
I70
sa(dp921
g21
VRUBY FOOL
p922
sg23
V476x7
p923
sg25
I80
sg26
I6
sg27
I79
sa(dp924
g21
VGEORGINA JOY
p925
sg23
V52381
p926
sg25
I96
sg26
I7
sg27
I96
sa(dp927
g21
VNENERGY'S QUEST
p928
sg23
V0x9x0
p929
sg25
I76
sg26
I8
sg27
I73
sasg70
(lp930
sssI1542291300
(dp931
g2
Vhttp://www.skyracing.com.au/index.php?component=racing&task=race&id=107858313&meetingid=106614918&Itemid=89
p932
sg4
V29008520.1415
p933
sg6
(dp934
g8
(lp935
(lp936
I2
aI1
aI4
aI3
aa(lp937
I2
aI8
aI6
aI9
aa(lp938
I2
aI4
aI10
aI6
aa(lp939
I2
aI1
aI4
aI3
aa(lp940
I2
aI4
aI6
aI10
aa(lp941
I2
aI1
aI4
aI10
aa(lp942
I2
aI1
aI4
aI3
aa(lp943
I2
aI4
aI1
aI6
aasg18
(lp944
(dp945
g21
VBEECHWOOD IZZY
p946
sg23
V10x2x
p947
sg25
I97
sg26
I1
sg27
I97
sa(dp948
g21
VSYLVIA'S MOTHER
p949
sg23
V41221
p950
sg25
I100
sg26
I2
sg27
I100
sa(dp951
g21
VESSENZA
p952
sg23
V37280
p953
sg25
I90
sg26
I3
sg27
I90
sa(dp954
g21
VFRENCH TWIST
p955
sg23
V26703
p956
sg25
I95
sg26
I4
sg27
I94
sa(dp957
g21
VTIMETODOCK
p958
sg23
V05410
p959
sg25
I88
sg26
I5
sg27
I0
sa(dp960
g21
VNO BILLS
p961
sg23
V53450
p962
sg25
I72
sg26
I6
sg27
I71
sa(dp963
g21
VMATTYMILLER
p964
sg23
V06405
p965
sg25
I77
sg26
I7
sg27
I76
sa(dp966
g21
VSIR OX
p967
sg23
V669x
p968
sg25
I82
sg26
I8
sg27
I81
sa(dp969
g21
VLADS ORDER
p970
sg23
V4504x
p971
sg25
I78
sg26
I9
sg27
I78
sa(dp972
g21
VNERVOUS NERYS
p973
sg23
V73479
p974
sg25
I85
sg26
I10
sg27
I88
sa(dp975
g21
VPISTE DE REFLEXION
p976
sg23
V080
p977
sg25
I74
sg26
I11
sg27
I73
sasg70
(lp978
sssI1542292200
(dp979
g2
Vhttp://www.skyracing.com.au/index.php?component=racing&task=race&id=107858327&meetingid=106779529&Itemid=89
p980
sg4
V29010054.1430
p981
sg6
(dp982
g8
(lp983
(lp984
I2
aI4
aI1
aI3
aa(lp985
I2
aI1
aI4
aI3
aa(lp986
I1
aI4
aI3
aI2
aa(lp987
I4
aI1
aI2
aI3
aa(lp988
I2
aI1
aI4
aI3
aa(lp989
I1
aI2
aI3
aI4
aa(lp990
I2
aI4
aI1
aI3
aa(lp991
I1
aI2
aI4
aI3
aasg18
(lp992
(dp993
g21
VCAPITAL FORCE
p994
sg23
Vx3435
p995
sg25
I94
sg26
I1
sg27
I86
sa(dp996
g21
VROARING BULL
p997
sg23
Vx660x
p998
sg25
I100
sg26
I2
sg27
I100
sa(dp999
g21
VCATCH MY DRIFT
p1000
sg23
V05633
p1001
sg25
I86
sg26
I3
sg27
I82
sa(dp1002
g21
VCHAMBORD DU LYS
p1003
sg23
V2x443
p1004
sg25
I95
sg26
I4
sg27
I95
sasg70
(lp1005
sssI1542293100
(dp1006
g2
Vhttp://www.skyracing.com.au/index.php?component=racing&task=race&id=107858314&meetingid=106614918&Itemid=89
p1007
sg4
V29008520.1445
p1008
sg6
(dp1009
g8
(lp1010
(lp1011
I10
aI9
aI8
aI2
aa(lp1012
I5
aI10
aI9
aI4
aa(lp1013
I5
aI10
aI11
aI8
aa(lp1014
I9
aI10
aI4
aI8
aa(lp1015
I9
aI10
aI8
aI4
aa(lp1016
I10
aI9
aI8
aI2
aa(lp1017
I9
aI10
aI8
aI2
aa(lp1018
I10
aI9
aI8
aI5
aasg18
(lp1019
(dp1020
g21
VPHANTASMAL
p1021
sg23
V6
p1022
sg25
I79
sg26
I1
sg27
I78
sa(dp1023
g21
VBIGSHOTTE
p1024
sg23
V6
p1025
sg25
I87
sg26
I2
sg27
I89
sa(dp1026
g21
VDON'T BE SURPRISED
p1027
sg23
V75x
p1028
sg25
I77
sg26
I3
sg27
I77
sa(dp1029
g21
VDORIES DELIGHT
p1030
sg23
V645x
p1031
sg25
I84
sg26
I4
sg27
I84
sa(dp1032
g21
VINVISIBLE SHADOW
p1033
sg23
V58
p1034
sg25
I83
sg26
I5
sg27
I81
sa(dp1035
g21
VLORD DEL BOY
p1036
sg23
V7x9
p1037
sg25
I71
sg26
I6
sg27
I72
sa(dp1038
g21
VDANZENA
p1039
sg23
V6
p1040
sg25
I90
sg26
I7
sg27
I0
sa(dp1041
g21
VJADEYRA
p1042
sg23
V84
p1043
sg25
I95
sg26
I8
sg27
I93
sa(dp1044
g21
VKYNANCE
p1045
sg23
V3222
p1046
sg25
I98
sg26
I9
sg27
I99
sa(dp1047
g21
VMOMENTARILY
p1048
sg23
V3x32
p1049
sg25
I100
sg26
I10
sg27
I100
sa(dp1050
g21
VROUE DE CHARRETTE
p1051
sg23
V790
p1052
sg25
I73
sg26
I11
sg27
I74
sasg70
(lp1053
sssI1542294000
(dp1054
g2
Vhttp://www.skyracing.com.au/index.php?component=racing&task=race&id=107858328&meetingid=106779529&Itemid=89
p1055
sg4
V29010054.1500
p1056
sg6
(dp1057
g8
(lp1058
(lp1059
I4
aI1
aI3
aI2
aa(lp1060
I3
aI4
aI2
aI1
aa(lp1061
I2
aI5
aI1
aI3
aa(lp1062
I3
aI4
aI2
aI1
aa(lp1063
I3
aI1
aI2
aI4
aa(lp1064
I2
aI1
aI4
aI3
aa(lp1065
I4
aI1
aI3
aI5
aa(lp1066
I3
aI2
aI4
aI1
aasg18
(lp1067
(dp1068
g21
VA TOI PHIL
p1069
sg23
V423x6
p1070
sg25
I99
sg26
I1
sg27
I96
sa(dp1071
g21
VALPHA DES OBEAUX
p1072
sg23
V6x0x5
p1073
sg25
I81
sg26
I2
sg27
I82
sa(dp1074
g21
VDOCTOR PHOENIX
p1075
sg23
V1275x
p1076
sg25
I91
sg26
I3
sg27
I94
sa(dp1077
g21
VKEMBOY
p1078
sg23
V4011x
p1079
sg25
I100
sg26
I4
sg27
I100
sa(dp1080
g21
VRASHAAN
p1081
sg23
V251x2
p1082
sg25
I86
sg26
I5
sg27
I80
sasg70
(lp1083
sssI1542287400
(dp1084
g2
Vhttp://www.skyracing.com.au/index.php?component=racing&task=race&id=107858311&meetingid=106614918&Itemid=89
p1085
sg4
V29008520.1310
p1086
sg6
(dp1087
g8
(lp1088
(lp1089
I1
aI2
aI3
aI4
aa(lp1090
I1
aI2
aI3
aI5
aa(lp1091
I1
aI2
aI3
aI5
aa(lp1092
I2
aI1
aI3
aI4
aa(lp1093
I1
aI3
aI14
aI2
aa(lp1094
I1
aI2
aI3
aI4
aa(lp1095
I1
aI2
aI3
aI4
aa(lp1096
I1
aI2
aI3
aI4
aasg18
(lp1097
(dp1098
g21
VANYCITY
p1099
sg23
V122
p1100
sg25
I100
sg26
I1
sg27
I100
sa(dp1101
g21
VTHEATRE OF WAR
p1102
sg23
V34122
p1103
sg25
I99
sg26
I2
sg27
I98
sa(dp1104
g21
VELYSIAN FLAME
p1105
sg23
V61
p1106
sg25
I93
sg26
I3
sg27
I94
sa(dp1107
g21
VXTARA
p1108
sg23
V1235x
p1109
sg25
I90
sg26
I4
sg27
I90
sa(dp1110
g21
VPECKINPAH
p1111
sg23
V64
p1112
sg25
I88
sg26
I5
sg27
I89
sa(dp1113
g21
VGREMOBOY
p1114
sg23
V87
p1115
sg25
I72
sg26
I6
sg27
I73
sa(dp1116
g21
VTAILS I WIN
p1117
sg23
V5
p1118
sg25
I85
sg26
I7
sg27
I86
sa(dp1119
g21
VROCK BOTTOM
p1120
sg23
g69
sg25
I76
sg26
I8
sg27
I0
sa(dp1121
g21
VPRITTY LIVVY
p1122
sg23
V098x0
p1123
sg25
I62
sg26
I9
sg27
I65
sa(dp1124
g21
VROCKY PARK
p1125
sg23
V908x8
p1126
sg25
I67
sg26
I10
sg27
I71
sa(dp1127
g21
VMILLY MONROE
p1128
sg23
V40
p1129
sg25
I78
sg26
I11
sg27
I79
sa(dp1130
g21
VPARKNACILLA
p1131
sg23
V7
p1132
sg25
I68
sg26
I12
sg27
I68
sa(dp1133
g21
VSHE'S AWAKE
p1134
sg23
V6x8
p1135
sg25
I81
sg26
I13
sg27
I81
sa(dp1136
g21
VCUBAN SUN
p1137
sg23
V6x030
p1138
sg25
I74
sg26
I14
sg27
I75
sasg70
(lp1139
sssI1542295800
(dp1140
g2
Vhttp://www.skyracing.com.au/index.php?component=racing&task=race&id=107858358&meetingid=106614902&Itemid=89
p1141
sg4
V29010170.1530
p1142
sg6
(dp1143
g8
(lp1144
(lp1145
I1
aI2
aI9
aI7
aa(lp1146
I1
aI7
aI8
aI10
aa(lp1147
I1
aI8
aI4
aI7
aa(lp1148
I1
aI8
aI4
aI7
aa(lp1149
I1
aI4
aI10
aI9
aa(lp1150
I2
aI1
aI7
aI9
aa(lp1151
I1
aI2
aI9
aI7
aa(lp1152
I1
aI7
aI8
aI2
aasg18
(lp1153
(dp1154
g21
VELYSEES
p1155
sg23
V73431
p1156
sg25
I100
sg26
I1
sg27
I100
sa(dp1157
g21
VSONG FOR SOMEONE
p1158
sg23
V9131x
p1159
sg25
I99
sg26
I2
sg27
I96
sa(dp1160
g21
VADMIRAL SPICE
p1161
sg23
V76555
p1162
sg25
I65
sg26
I3
sg27
I67
sa(dp1163
g21
VBUNCH OF THYME
p1164
sg23
Vx06x3
p1165
sg25
I60
sg26
I4
sg27
I61
sa(dp1166
g21
VCANADIAN GEORGE
p1167
sg23
V33328
p1168
sg25
I75
sg26
I5
sg27
I78
sa(dp1169
g21
VCASWELL BAY
p1170
sg23
g69
sg25
I78
sg26
I6
sg27
I0
sa(dp1171
g21
VDE BRUYNE HORSE
p1172
sg23
V0x670
p1173
sg25
I88
sg26
I7
sg27
I84
sa(dp1174
g21
VFLERE IMSAHO
p1175
sg23
V246x5
p1176
sg25
I81
sg26
I8
sg27
I82
sa(dp1177
g21
VFOR PLEASURE
p1178
sg23
V1382x
p1179
sg25
I91
sg26
I9
sg27
I92
sa(dp1180
g21
VMETATRONS CUBE
p1181
sg23
V21460
p1182
sg25
I71
sg26
I10
sg27
I73
sasg70
(lp1183
sss.