(dp0
I1542117600
(dp1
S'skyracing_url'
p2
Vhttp://www.skyracing.com.au/index.php?component=racing&task=race&id=107767273&meetingid=106608357&Itemid=89
p3
sS'betfair_raceid'
p4
V29007175.1400
p5
sS'dat2'
p6
(dp7
S'ratings_auto'
p8
(lp9
(lp10
I5
aI7
aI2
aI3
aa(lp11
I2
aI5
aI8
aI7
aa(lp12
I2
aI3
aI1
aI8
aa(lp13
I2
aI5
aI8
aI7
aa(lp14
I2
aI8
aI3
aI5
aa(lp15
I7
aI5
aI2
aI3
aa(lp16
I5
aI7
aI8
aI2
aa(lp17
I2
aI5
aI7
aI8
aasS'horse_details'
p18
(lp19
(dp20
S'horse_name'
p21
VDUC DE BEAUCHENE
p22
sS'horse_form'
p23
V29x5
p24
sS'rating_2'
p25
I75
sS'horse_number'
p26
I1
sS'rating_1'
p27
I75
sa(dp28
g21
VGOLDEN PROMISE
p29
sg23
V22
p30
sg25
I89
sg26
I2
sg27
I90
sa(dp31
g21
VGWALIA
p32
sg23
V2x2x3
p33
sg25
I84
sg26
I3
sg27
I86
sa(dp34
g21
VHARD TO FORGET
p35
sg23
V013x0
p36
sg25
I60
sg26
I4
sg27
I62
sa(dp37
g21
VJARVEYS PLATE
p38
sg23
V23x1x
p39
sg25
I100
sg26
I5
sg27
I100
sa(dp40
g21
VLOCKER ROOM TALK
p41
sg23
V2x6x8
p42
sg25
I63
sg26
I6
sg27
I72
sa(dp43
g21
VNEWTOWN BOY
p44
sg23
V22x
p45
sg25
I95
sg26
I7
sg27
I96
sa(dp46
g21
VROUGE VIF
p47
sg23
V1x5
p48
sg25
I90
sg26
I8
sg27
I84
sa(dp49
g21
VSANDY BOY
p50
sg23
V07
p51
sg25
I79
sg26
I9
sg27
I80
sa(dp52
g21
VTWOTWOTHREE
p53
sg23
V224x9
p54
sg25
I70
sg26
I10
sg27
I64
sasS'ratings_manual'
p55
(lp56
sssI1542115200
(dp57
g2
Vhttp://www.skyracing.com.au/index.php?component=racing&task=race&id=107767242&meetingid=106608389&Itemid=89
p58
sg4
V29007178.1320
p59
sg6
(dp60
g8
(lp61
(lp62
I3
aI5
aI2
aI7
aa(lp63
I5
aI7
aI2
aI6
aa(lp64
I1
aI2
aI3
aI4
aa(lp65
I5
aI7
aI3
aI2
aa(lp66
I5
aI2
aI7
aI6
aa(lp67
I7
aI3
aI5
aI2
aa(lp68
I2
aI3
aI5
aI7
aa(lp69
I5
aI7
aI3
aI2
aasg18
(lp70
(dp71
g21
VBEET TOPPER
p72
sg23
V3x00x
p73
sg25
I80
sg26
I1
sg27
I78
sa(dp74
g21
VDOWN THE HIGHWAY
p75
sg23
V1x
p76
sg25
I100
sg26
I2
sg27
I94
sa(dp77
g21
VET MOI ALORS
p78
sg23
V626x
p79
sg25
I96
sg26
I3
sg27
I100
sa(dp80
g21
VMAROCCHINO
p81
sg23
Vx7x6x
p82
sg25
I73
sg26
I4
sg27
I77
sa(dp83
g21
VMERCY MERCY ME
p84
sg23
V1x87x
p85
sg25
I91
sg26
I5
sg27
I96
sa(dp86
g21
VSOARLIKEANEAGLE
p87
sg23
V3x1x
p88
sg25
I83
sg26
I6
sg27
I84
sa(dp89
g21
VCAVOK
p90
sg23
V1x3x
p91
sg25
I85
sg26
I7
sg27
I88
sa(dp92
g21
VIMPULSIVE LEADER
p93
sg23
V2650x
p94
sg25
I67
sg26
I8
sg27
I65
sa(dp95
g21
VPOMME DE NUIT
p96
sg23
V8x0x
p97
sg25
I69
sg26
I9
sg27
I69
sasg55
(lp98
sssI1542122400
(dp99
g2
Vhttp://www.skyracing.com.au/index.php?component=racing&task=race&id=107767246&meetingid=106608389&Itemid=89
p100
sg4
V29007178.1520
p101
sg6
(dp102
g8
(lp103
(lp104
I6
aI1
aI4
aI5
aa(lp105
I1
aI6
aI2
aI3
aa(lp106
I2
aI7
aI4
aI6
aa(lp107
I6
aI4
aI2
aI5
aa(lp108
I6
aI2
aI1
aI7
aa(lp109
I6
aI4
aI1
aI2
aa(lp110
I1
aI3
aI6
aI10
aa(lp111
I6
aI2
aI1
aI4
aasg18
(lp112
(dp113
g21
VCANELIE
p114
sg23
Vx67x0
p115
sg25
I100
sg26
I1
sg27
I96
sa(dp116
g21
VRED HANRAHAN
p117
sg23
Vx4x62
p118
sg25
I77
sg26
I2
sg27
I83
sa(dp119
g21
VNOTRE AMI
p120
sg23
V010x5
p121
sg25
I95
sg26
I3
sg27
I79
sa(dp122
g21
VFORECAST
p123
sg23
Vx7723
p124
sg25
I82
sg26
I4
sg27
I92
sa(dp125
g21
VTRIGGITAS
p126
sg23
V8x32x
p127
sg25
I70
sg26
I5
sg27
I88
sa(dp128
g21
VEVRON
p129
sg23
V523x5
p130
sg25
I90
sg26
I6
sg27
I100
sa(dp131
g21
VKEEL OVER
p132
sg23
V1x4x2
p133
sg25
I85
sg26
I7
sg27
I71
sa(dp134
g21
VDON'T TELL GEORGE
p135
sg23
V0444x
p136
sg25
I61
sg26
I8
sg27
I60
sa(dp137
g21
VMR FICKLE
p138
sg23
V73x10
p139
sg25
I64
sg26
I9
sg27
I74
sa(dp140
g21
VSNIPPETYDOODAH
p141
sg23
V77x1x
p142
sg25
I79
sg26
I10
sg27
I65
sasg55
(lp143
sssI1542125700
(dp144
g2
Vhttp://www.skyracing.com.au/index.php?component=racing&task=race&id=107767331&meetingid=106608405&Itemid=89
p145
sg4
V29005851.1615
p146
sg6
(dp147
g8
(lp148
(lp149
I1
aI3
aI7
aI4
aa(lp150
I1
aI3
aI4
aI7
aa(lp151
I1
aI3
aI4
aI7
aa(lp152
I1
aI3
aI4
aI7
aa(lp153
I3
aI1
aI7
aI4
aa(lp154
I1
aI3
aI7
aI5
aa(lp155
I1
aI3
aI7
aI4
aa(lp156
I1
aI3
aI7
aI4
aasg18
(lp157
(dp158
g21
VFARES KODIAC
p159
sg23
V134
p160
sg25
I100
sg26
I1
sg27
I100
sa(dp161
g21
VBRAINS
p162
sg23
V7
p163
sg25
I76
sg26
I2
sg27
I79
sa(dp164
g21
VBRANDY SPIRIT
p165
sg23
V3
p166
sg25
I95
sg26
I3
sg27
I98
sa(dp167
g21
VGRANDSTAND
p168
sg23
V64246
p169
sg25
I86
sg26
I4
sg27
I85
sa(dp170
g21
VLEGEND ISLAND
p171
sg23
V84
p172
sg25
I78
sg26
I5
sg27
I83
sa(dp173
g21
VOPPORTUNE MOMENT
p174
sg23
V
p175
sg25
I64
sg26
I6
sg27
I0
sa(dp176
g21
VREGULAR
p177
sg23
V25
p178
sg25
I90
sg26
I7
sg27
I91
sa(dp179
g21
VTURQUOISE FRIENDLY
p180
sg23
g175
sg25
I81
sg26
I8
sg27
I0
sa(dp181
g21
VISABELLA RED
p182
sg23
V09x
p183
sg25
I62
sg26
I9
sg27
I70
sa(dp184
g21
VTUNKY
p185
sg23
V99
p186
sg25
I70
sg26
I10
sg27
I74
sasg55
(lp187
sssI1542123000
(dp188
g2
Vhttp://www.skyracing.com.au/index.php?component=racing&task=race&id=107767276&meetingid=106608357&Itemid=89
p189
sg4
V29007175.1530
p190
sg6
(dp191
g8
(lp192
(lp193
I10
aI2
aI6
aI11
aa(lp194
I2
aI1
aI6
aI9
aa(lp195
I2
aI3
aI4
aI1
aa(lp196
I2
aI1
aI8
aI6
aa(lp197
I2
aI4
aI7
aI1
aa(lp198
I2
aI10
aI11
aI4
aa(lp199
I10
aI6
aI2
aI7
aa(lp200
I2
aI1
aI10
aI4
aasg18
(lp201
(dp202
g21
VCALIPTO
p203
sg23
Vx51x7
p204
sg25
I78
sg26
I1
sg27
I74
sa(dp205
g21
VHOGAN'S HEIGHT
p206
sg23
Vx16x3
p207
sg25
I94
sg26
I2
sg27
I97
sa(dp208
g21
VDE RASHER COUNTER
p209
sg23
V972x3
p210
sg25
I76
sg26
I3
sg27
I78
sa(dp211
g21
VTOO MANY DIAMONDS
p212
sg23
V122x6
p213
sg25
I80
sg26
I4
sg27
I88
sa(dp214
g21
VDUSKY LARK
p215
sg23
V3346x
p216
sg25
I74
sg26
I5
sg27
I72
sa(dp217
g21
VTOWN PARKS
p218
sg23
V1144x
p219
sg25
I90
sg26
I6
sg27
I92
sa(dp220
g21
VCREEP DESBOIS
p221
sg23
V5126x
p222
sg25
I98
sg26
I7
sg27
I83
sa(dp223
g21
VOPENING BATSMAN
p224
sg23
Vx443x
p225
sg25
I88
sg26
I8
sg27
I82
sa(dp226
g21
VENJOY RESPONSIBLY
p227
sg23
V3105x
p228
sg25
I71
sg26
I9
sg27
I71
sa(dp229
g21
VTOUCH KICK
p230
sg23
Vx713x
p231
sg25
I100
sg26
I10
sg27
I100
sa(dp232
g21
VCONNA CROSS
p233
sg23
V0x13x
p234
sg25
I84
sg26
I11
sg27
I89
sasg55
(lp235
sssI1542116400
(dp236
g2
Vhttp://www.skyracing.com.au/index.php?component=racing&task=race&id=107767257&meetingid=106608373&Itemid=89
p237
sg4
V29007176.1340
p238
sg6
(dp239
g8
(lp240
(lp241
I3
aI2
aI4
aI1
aa(lp242
I2
aI5
aI1
aI3
aa(lp243
I2
aI1
aI5
aI3
aa(lp244
I1
aI2
aI5
aI3
aa(lp245
I5
aI2
aI3
aI1
aa(lp246
I2
aI3
aI4
aI1
aa(lp247
I3
aI2
aI1
aI4
aa(lp248
I2
aI3
aI1
aI5
aasg18
(lp249
(dp250
g21
VSERGEANT BRODY
p251
sg23
V08x60
p252
sg25
I90
sg26
I1
sg27
I81
sa(dp253
g21
VOPECHEE
p254
sg23
Vx1042
p255
sg25
I98
sg26
I2
sg27
I94
sa(dp256
g21
VSTRONG RESEMBLANCE
p257
sg23
V64x21
p258
sg25
I100
sg26
I3
sg27
I100
sa(dp259
g21
VROBIN DEUZ POIS
p260
sg23
V64x44
p261
sg25
I89
sg26
I4
sg27
I86
sa(dp262
g21
VMIDNIGHT GEM
p263
sg23
V59544
p264
sg25
I83
sg26
I5
sg27
I80
sasg55
(lp265
sssI1542123600
(dp266
g2
Vhttp://www.skyracing.com.au/index.php?component=racing&task=race&id=107767261&meetingid=106608373&Itemid=89
p267
sg4
V29007176.1540
p268
sg6
(dp269
g8
(lp270
(lp271
I5
aI10
aI13
aI15
aa(lp272
I5
aI10
aI13
aI15
aa(lp273
I5
aI10
aI13
aI15
aa(lp274
I5
aI10
aI13
aI15
aa(lp275
I5
aI10
aI13
aI8
aa(lp276
I5
aI10
aI13
aI15
aa(lp277
I5
aI10
aI11
aI1
aa(lp278
I5
aI10
aI13
aI15
aasg18
(lp279
(dp280
g21
VCASCOVA
p281
sg23
g175
sg25
I93
sg26
I1
sg27
I0
sa(dp282
g21
VCOTSWOLD PRINCE
p283
sg23
g175
sg25
I65
sg26
I2
sg27
I0
sa(dp284
g21
VDON'T THINK SO
p285
sg23
g175
sg25
I73
sg26
I3
sg27
I0
sa(dp286
g21
VGLENFINN HALL
p287
sg23
g175
sg25
I66
sg26
I4
sg27
I0
sa(dp288
g21
VLOGAN ROCKS
p289
sg23
V2
p290
sg25
I100
sg26
I5
sg27
I100
sa(dp291
g21
VLOSSIEMOUTH
p292
sg23
g175
sg25
I89
sg26
I6
sg27
I0
sa(dp293
g21
VNOBLE SAFFRON
p294
sg23
g175
sg25
I68
sg26
I7
sg27
I0
sa(dp295
g21
VPONTBLYDDYN
p296
sg23
g175
sg25
I71
sg26
I8
sg27
I0
sa(dp297
g21
VREECELTIC
p298
sg23
g175
sg25
I78
sg26
I9
sg27
I0
sa(dp299
g21
VSAN SEB
p300
sg23
V3
p301
sg25
I99
sg26
I10
sg27
I97
sa(dp302
g21
VSHPADOINKLE DAY
p303
sg23
g175
sg25
I95
sg26
I11
sg27
I0
sa(dp304
g21
VAHORSEWITHNONAME
p305
sg23
g175
sg25
I86
sg26
I12
sg27
I0
sa(dp306
g21
VHAMILTON ISLAND
p307
sg23
V8
p308
sg25
I90
sg26
I13
sg27
I92
sa(dp309
g21
VHEAVENLY SHADES
p310
sg23
g175
sg25
I76
sg26
I14
sg27
I0
sa(dp311
g21
VLIBBRETTA
p312
sg23
V6
p313
sg25
I84
sg26
I15
sg27
I87
sa(dp314
g21
VSORBET
p315
sg23
g175
sg25
I81
sg26
I16
sg27
I0
sasg55
(lp316
sssI1542115800
(dp317
g2
Vhttp://www.skyracing.com.au/index.php?component=racing&task=race&id=107767272&meetingid=106608357&Itemid=89
p318
sg4
V29007175.1330
p319
sg6
(dp320
g8
(lp321
(lp322
I7
aI4
aI2
aI11
aa(lp323
I6
aI4
aI2
aI3
aa(lp324
I2
aI7
aI5
aI1
aa(lp325
I6
aI4
aI8
aI2
aa(lp326
I4
aI8
aI7
aI6
aa(lp327
I2
aI7
aI4
aI11
aa(lp328
I7
aI4
aI2
aI1
aa(lp329
I4
aI2
aI7
aI6
aasg18
(lp330
(dp331
g21
VARCADE ATTRACTION
p332
sg23
g175
sg25
I92
sg26
I1
sg27
I0
sa(dp333
g21
VDR OAKLEY
p334
sg23
V03x4
p335
sg25
I94
sg26
I2
sg27
I91
sa(dp336
g21
VLOUD AS LIONS
p337
sg23
V048x
p338
sg25
I79
sg26
I3
sg27
I74
sa(dp339
g21
VMASSINI MAN
p340
sg23
V6x
p341
sg25
I96
sg26
I4
sg27
I99
sa(dp342
g21
VPANIC AND RUN
p343
sg23
V55x5
p344
sg25
I84
sg26
I5
sg27
I79
sa(dp345
g21
VPEMBERLEY
p346
sg23
V57x
p347
sg25
I80
sg26
I6
sg27
I75
sa(dp348
g21
VPRECIOUS BOUNTY
p349
sg23
V02x0
p350
sg25
I100
sg26
I7
sg27
I100
sa(dp351
g21
VSHANTY ALLEY
p352
sg23
V7x
p353
sg25
I75
sg26
I8
sg27
I68
sa(dp354
g21
VTELSON BARLEY
p355
sg23
V0x5x
p356
sg25
I74
sg26
I9
sg27
I60
sa(dp357
g21
VTURBOTIM
p358
sg23
V0496x
p359
sg25
I70
sg26
I10
sg27
I59
sa(dp360
g21
VWHATSMEANTTOBE
p361
sg23
V504x
p362
sg25
I87
sg26
I11
sg27
I84
sasg55
(lp363
sssI1542117000
(dp364
g2
Vhttp://www.skyracing.com.au/index.php?component=racing&task=race&id=107767243&meetingid=106608389&Itemid=89
p365
sg4
V29007178.1350
p366
sg6
(dp367
g8
(lp368
(lp369
I5
aI1
aI4
aI7
aa(lp370
I2
aI4
aI7
aI8
aa(lp371
I6
aI2
aI1
aI3
aa(lp372
I4
aI3
aI7
aI1
aa(lp373
I7
aI2
aI4
aI1
aa(lp374
I7
aI5
aI1
aI8
aa(lp375
I1
aI5
aI4
aI7
aa(lp376
I7
aI4
aI2
aI5
aasg18
(lp377
(dp378
g21
VBLUE BULLET
p379
sg23
Vx662x
p380
sg25
I98
sg26
I1
sg27
I95
sa(dp381
g21
VCHARLIE PAPA LIMA
p382
sg23
V277x0
p383
sg25
I78
sg26
I2
sg27
I62
sa(dp384
g21
VLOUGH DERG MYSTERY
p385
sg23
V85x6x
p386
sg25
I70
sg26
I3
sg27
I63
sa(dp387
g21
VCHAMPION CHASE
p388
sg23
V5222x
p389
sg25
I94
sg26
I4
sg27
I92
sa(dp390
g21
VCELMA DES BOIS
p391
sg23
Vx531x
p392
sg25
I100
sg26
I5
sg27
I100
sa(dp393
g21
VWITHOUT FRONTIER
p394
sg23
Vx30x6
p395
sg25
I73
sg26
I6
sg27
I68
sa(dp396
g21
VDALKADAM
p397
sg23
Vx385x
p398
sg25
I88
sg26
I7
sg27
I76
sa(dp399
g21
VLIZZIE LANGTON
p400
sg23
V2070x
p401
sg25
I83
sg26
I8
sg27
I72
sasg55
(lp402
sssI1542124200
(dp403
g2
Vhttp://www.skyracing.com.au/index.php?component=racing&task=race&id=107767247&meetingid=106608389&Itemid=89
p404
sg4
V29007178.1550
p405
sg6
(dp406
g8
(lp407
(lp408
I2
aI6
aI5
aI1
aa(lp409
I4
aI2
aI3
aI5
aa(lp410
I3
aI5
aI6
aI7
aa(lp411
I4
aI2
aI3
aI6
aa(lp412
I4
aI6
aI2
aI5
aa(lp413
I2
aI5
aI6
aI4
aa(lp414
I2
aI4
aI6
aI5
aa(lp415
I2
aI4
aI6
aI5
aasg18
(lp416
(dp417
g21
VGENERAL BUX
p418
sg23
Vx674x
p419
sg25
I82
sg26
I1
sg27
I89
sa(dp420
g21
VFINNEGAN'S GARDEN
p421
sg23
V3161x
p422
sg25
I100
sg26
I2
sg27
I100
sa(dp423
g21
VBRITANIO BELLO
p424
sg23
V39x55
p425
sg25
I79
sg26
I3
sg27
I78
sa(dp426
g21
VGORING ONE
p427
sg23
V3593x
p428
sg25
I96
sg26
I4
sg27
I83
sa(dp429
g21
VCHATELIER
p430
sg23
V180x4
p431
sg25
I85
sg26
I5
sg27
I90
sa(dp432
g21
VREMEMBER FOREVER
p433
sg23
Vx36x3
p434
sg25
I92
sg26
I6
sg27
I95
sa(dp435
g21
VUPHAM RUNNING
p436
sg23
V464x4
p437
sg25
I76
sg26
I7
sg27
I75
sasg55
(lp438
sssI1542118200
(dp439
g2
Vhttp://www.skyracing.com.au/index.php?component=racing&task=race&id=107767258&meetingid=106608373&Itemid=89
p440
sg4
V29007176.1410
p441
sg6
(dp442
g8
(lp443
(lp444
I6
aI3
aI2
aI4
aa(lp445
I2
aI3
aI4
aI1
aa(lp446
I6
aI1
aI5
aI2
aa(lp447
I3
aI1
aI2
aI4
aa(lp448
I2
aI3
aI6
aI5
aa(lp449
I3
aI6
aI2
aI4
aa(lp450
I2
aI6
aI1
aI3
aa(lp451
I3
aI2
aI6
aI1
aasg18
(lp452
(dp453
g21
VUNISON
p454
sg23
V103x5
p455
sg25
I82
sg26
I1
sg27
I78
sa(dp456
g21
VDON BERSY
p457
sg23
Vx148x
p458
sg25
I99
sg26
I2
sg27
I91
sa(dp459
g21
VDISTINGO
p460
sg23
V1210x
p461
sg25
I90
sg26
I3
sg27
I94
sa(dp462
g21
VEMBOLE
p463
sg23
V5103x
p464
sg25
I85
sg26
I4
sg27
I85
sa(dp465
g21
VMYSTIC SKY
p466
sg23
V97x32
p467
sg25
I79
sg26
I5
sg27
I82
sa(dp468
g21
VBANDITRY
p469
sg23
V37284
p470
sg25
I100
sg26
I6
sg27
I100
sasg55
(lp471
sssI1542121200
(dp472
g2
Vhttp://www.skyracing.com.au/index.php?component=racing&task=race&id=107767275&meetingid=106608357&Itemid=89
p473
sg4
V29007175.1500
p474
sg6
(dp475
g8
(lp476
(lp477
I2
aI9
aI4
aI11
aa(lp478
I1
aI4
aI6
aI2
aa(lp479
I4
aI2
aI6
aI13
aa(lp480
I5
aI4
aI10
aI12
aa(lp481
I4
aI9
aI6
aI2
aa(lp482
I2
aI9
aI4
aI11
aa(lp483
I2
aI5
aI9
aI4
aa(lp484
I4
aI2
aI9
aI6
aasg18
(lp485
(dp486
g21
VSTOCKBURN
p487
sg23
V6544x
p488
sg25
I73
sg26
I1
sg27
I82
sa(dp489
g21
VMISS MASH
p490
sg23
V9x321
p491
sg25
I98
sg26
I2
sg27
I100
sa(dp492
g21
VSHADOW'S BOY
p493
sg23
V258x6
p494
sg25
I62
sg26
I3
sg27
I67
sa(dp495
g21
VSTYLISH MOMENT
p496
sg23
V3x3x3
p497
sg25
I95
sg26
I4
sg27
I94
sa(dp498
g21
VOSCAR SUNSET
p499
sg23
V7x00x
p500
sg25
I92
sg26
I5
sg27
I79
sa(dp501
g21
VPOINTED AND SHARP
p502
sg23
V325x4
p503
sg25
I78
sg26
I6
sg27
I87
sa(dp504
g21
VCHASE END CHARLIE
p505
sg23
V6x78x
p506
sg25
I70
sg26
I7
sg27
I63
sa(dp507
g21
VLARCH HILL
p508
sg23
V80x36
p509
sg25
I76
sg26
I8
sg27
I85
sa(dp510
g21
VTHE DRONE
p511
sg23
Vx1x2x
p512
sg25
I100
sg26
I9
sg27
I98
sa(dp513
g21
VPICTURE PAINTER
p514
sg23
V261x8
p515
sg25
I64
sg26
I10
sg27
I71
sa(dp516
g21
VSINAKAR
p517
sg23
V2125x
p518
sg25
I87
sg26
I11
sg27
I91
sa(dp519
g21
VPADDYS RUNNER
p520
sg23
V9547x
p521
sg25
I72
sg26
I12
sg27
I74
sa(dp522
g21
VTHE GROOVY HOOVY
p523
sg23
V470x1
p524
sg25
I84
sg26
I13
sg27
I77
sa(dp525
g21
VSAMSON'S REACH
p526
sg23
V136x5
p527
sg25
I80
sg26
I14
sg27
I69
sasg55
(lp528
sssI1542119400
(dp529
g2
Vhttp://www.skyracing.com.au/index.php?component=racing&task=race&id=107767274&meetingid=106608357&Itemid=89
p530
sg4
V29007175.1430
p531
sg6
(dp532
g8
(lp533
(lp534
I2
aI3
aI1
aI6
aa(lp535
I2
aI4
aI5
aI6
aa(lp536
I5
aI1
aI2
aI3
aa(lp537
I5
aI6
aI2
aI4
aa(lp538
I5
aI2
aI4
aI7
aa(lp539
I2
aI3
aI1
aI6
aa(lp540
I2
aI3
aI1
aI6
aa(lp541
I2
aI5
aI3
aI6
aasg18
(lp542
(dp543
g21
VBRELAN D'AS
p544
sg23
Vx500x
p545
sg25
I93
sg26
I1
sg27
I94
sa(dp546
g21
VJURBY
p547
sg23
V0281x
p548
sg25
I100
sg26
I2
sg27
I100
sa(dp549
g21
VIRISH PROPHECY
p550
sg23
V26x4x
p551
sg25
I99
sg26
I3
sg27
I99
sa(dp552
g21
VGOING GOLD
p553
sg23
V3160x
p554
sg25
I84
sg26
I4
sg27
I84
sa(dp555
g21
VAMOOLA GOLD
p556
sg23
V02x57
p557
sg25
I80
sg26
I5
sg27
I80
sa(dp558
g21
VKINGS MONARCH
p559
sg23
V0544x
p560
sg25
I88
sg26
I6
sg27
I89
sa(dp561
g21
VEUREU DU BOULAY
p562
sg23
V6627x
p563
sg25
I77
sg26
I7
sg27
I75
sasg55
(lp564
sssI1542118800
(dp565
g2
Vhttp://www.skyracing.com.au/index.php?component=racing&task=race&id=107767244&meetingid=106608389&Itemid=89
p566
sg4
V29007178.1420
p567
sg6
(dp568
g8
(lp569
(lp570
I3
aI4
aI5
aI1
aa(lp571
I3
aI6
aI4
aI1
aa(lp572
I1
aI6
aI8
aI2
aa(lp573
I6
aI3
aI4
aI7
aa(lp574
I3
aI4
aI6
aI1
aa(lp575
I3
aI4
aI5
aI1
aa(lp576
I1
aI3
aI4
aI5
aa(lp577
I3
aI4
aI6
aI1
aasg18
(lp578
(dp579
g21
VFINAL CHOICE
p580
sg23
V61520
p581
sg25
I98
sg26
I1
sg27
I89
sa(dp582
g21
VBAZOOKA
p583
sg23
V996x0
p584
sg25
I80
sg26
I2
sg27
I84
sa(dp585
g21
VVICENZO MIO
p586
sg23
V4232x
p587
sg25
I100
sg26
I3
sg27
I100
sa(dp588
g21
VMR JACK
p589
sg23
V7x43x
p590
sg25
I94
sg26
I4
sg27
I98
sa(dp591
g21
VARGYLE
p592
sg23
V5050x
p593
sg25
I85
sg26
I5
sg27
I92
sa(dp594
g21
VMAX LIEBERMANN
p595
sg23
V54765
p596
sg25
I84
sg26
I6
sg27
I80
sa(dp597
g21
VANTON CHIGURH
p598
sg23
V8950x
p599
sg25
I73
sg26
I7
sg27
I71
sa(dp600
g21
VSHALAMZAR
p601
sg23
V89456
p602
sg25
I69
sg26
I8
sg27
I74
sasg55
(lp603
sssI1542120000
(dp604
g2
Vhttp://www.skyracing.com.au/index.php?component=racing&task=race&id=107767259&meetingid=106608373&Itemid=89
p605
sg4
V29007176.1440
p606
sg6
(dp607
g8
(lp608
(lp609
I2
aI1
aI7
aI4
aa(lp610
I1
aI2
aI4
aI7
aa(lp611
I2
aI5
aI4
aI3
aa(lp612
I1
aI3
aI5
aI4
aa(lp613
I1
aI2
aI4
aI7
aa(lp614
I2
aI7
aI1
aI4
aa(lp615
I2
aI1
aI5
aI7
aa(lp616
I2
aI1
aI4
aI7
aasg18
(lp617
(dp618
g21
VKILBREE KID
p619
sg23
V162x9
p620
sg25
I99
sg26
I1
sg27
I96
sa(dp621
g21
VMERCERS COURT
p622
sg23
V51112
p623
sg25
I100
sg26
I2
sg27
I100
sa(dp624
g21
VGALLERY EXHIBITION
p625
sg23
Vx0x04
p626
sg25
I77
sg26
I3
sg27
I76
sa(dp627
g21
VUHLAN BUTE
p628
sg23
V415x7
p629
sg25
I78
sg26
I4
sg27
I87
sa(dp630
g21
VAZURE FLY
p631
sg23
V0x0x4
p632
sg25
I92
sg26
I5
sg27
I83
sa(dp633
g21
VGOLD PATROL
p634
sg23
V2031x
p635
sg25
I84
sg26
I6
sg27
I78
sa(dp636
g21
VBY THE BOARDWALK
p637
sg23
Vx045x
p638
sg25
I89
sg26
I7
sg27
I92
sasg55
(lp639
sssI1542113400
(dp640
g2
Vhttp://www.skyracing.com.au/index.php?component=racing&task=race&id=107767241&meetingid=106608389&Itemid=89
p641
sg4
V29007178.1250
p642
sg6
(dp643
g8
(lp644
(lp645
I1
aI5
aI3
aI2
aa(lp646
I1
aI3
aI5
aI2
aa(lp647
I1
aI2
aI3
aI4
aa(lp648
I1
aI3
aI5
aI2
aa(lp649
I1
aI5
aI6
aI4
aa(lp650
I1
aI5
aI3
aI2
aa(lp651
I1
aI6
aI5
aI7
aa(lp652
I1
aI5
aI3
aI6
aasg18
(lp653
(dp654
g21
VGIVING BACK
p655
sg23
V10x
p656
sg25
I100
sg26
I1
sg27
I100
sa(dp657
g21
VANNAJEMIMA
p658
sg23
g175
sg25
I77
sg26
I2
sg27
I0
sa(dp659
g21
VDRIFT
p660
sg23
V0x6x
p661
sg25
I82
sg26
I3
sg27
I93
sa(dp662
g21
VFATIMA BLUSH
p663
sg23
g175
sg25
I80
sg26
I4
sg27
I0
sa(dp664
g21
VMISS HONEY RYDER
p665
sg23
V7x
p666
sg25
I93
sg26
I5
sg27
I95
sa(dp667
g21
VPARODY
p668
sg23
g175
sg25
I99
sg26
I6
sg27
I0
sa(dp669
g21
VWHAT A HOOT
p670
sg23
g175
sg25
I87
sg26
I7
sg27
I0
sasg55
(lp671
sssI1542120600
(dp672
g2
Vhttp://www.skyracing.com.au/index.php?component=racing&task=race&id=107767245&meetingid=106608389&Itemid=89
p673
sg4
V29007178.1450
p674
sg6
(dp675
g8
(lp676
(lp677
I3
aI4
aI1
aI6
aa(lp678
I1
aI2
aI4
aI3
aa(lp679
I1
aI3
aI2
aI4
aa(lp680
I1
aI2
aI3
aI6
aa(lp681
I3
aI4
aI7
aI2
aa(lp682
I3
aI4
aI6
aI2
aa(lp683
I1
aI3
aI2
aI6
aa(lp684
I3
aI1
aI4
aI2
aasg18
(lp685
(dp686
g21
VSPACE ODDITY
p687
sg23
V254x4
p688
sg25
I98
sg26
I1
sg27
I84
sa(dp689
g21
VCURIOUS CARLOS
p690
sg23
V115x9
p691
sg25
I89
sg26
I2
sg27
I77
sa(dp692
g21
VLILLINGTON
p693
sg23
Vx1x14
p694
sg25
I93
sg26
I3
sg27
I100
sa(dp695
g21
VSAVELLO
p696
sg23
V8035x
p697
sg25
I81
sg26
I4
sg27
I92
sa(dp698
g21
VADMIRAL'S SECRET
p699
sg23
V5911x
p700
sg25
I100
sg26
I5
sg27
I95
sa(dp701
g21
VBROUGHTONS RHYTHM
p702
sg23
V33x2x
p703
sg25
I78
sg26
I6
sg27
I79
sa(dp704
g21
VKILINAKIN
p705
sg23
Vx178x
p706
sg25
I76
sg26
I7
sg27
I74
sasg55
(lp707
sssI1542121800
(dp708
g2
Vhttp://www.skyracing.com.au/index.php?component=racing&task=race&id=107767260&meetingid=106608373&Itemid=89
p709
sg4
V29007176.1510
p710
sg6
(dp711
g8
(lp712
(lp713
I2
aI8
aI6
aI3
aa(lp714
I9
aI2
aI6
aI1
aa(lp715
I2
aI9
aI3
aI8
aa(lp716
I1
aI9
aI2
aI8
aa(lp717
I9
aI5
aI2
aI8
aa(lp718
I2
aI8
aI3
aI1
aa(lp719
I3
aI8
aI2
aI6
aa(lp720
I2
aI9
aI8
aI1
aasg18
(lp721
(dp722
g21
VWESTERN STORM
p723
sg23
V65228
p724
sg25
I84
sg26
I1
sg27
I81
sa(dp725
g21
VKINGSTON
p726
sg23
V72131
p727
sg25
I100
sg26
I2
sg27
I100
sa(dp728
g21
VDYLIEV
p729
sg23
V553x8
p730
sg25
I95
sg26
I3
sg27
I87
sa(dp731
g21
VMONSART
p732
sg23
V64x0x
p733
sg25
I68
sg26
I4
sg27
I66
sa(dp734
g21
VTORRENT DES MOTTES
p735
sg23
V26689
p736
sg25
I76
sg26
I5
sg27
I76
sa(dp737
g21
VOOLOGIST
p738
sg23
V8863x
p739
sg25
I87
sg26
I6
sg27
I93
sa(dp740
g21
VMUILEAN NA MADOG
p741
sg23
V9x047
p742
sg25
I61
sg26
I7
sg27
I61
sa(dp743
g21
VPOLARBROOK
p744
sg23
V52x45
p745
sg25
I93
sg26
I8
sg27
I97
sa(dp746
g21
VINDIAN REEL
p747
sg23
V56406
p748
sg25
I78
sg26
I9
sg27
I78
sa(dp749
g21
VJOHN BISCUIT
p750
sg23
V6x58x
p751
sg25
I70
sg26
I10
sg27
I69
sasg55
(lp752
sssI1542114000
(dp753
g2
Vhttp://www.skyracing.com.au/index.php?component=racing&task=race&id=107767271&meetingid=106608357&Itemid=89
p754
sg4
V29007175.1300
p755
sg6
(dp756
g8
(lp757
(lp758
I3
aI1
aI12
aI11
aa(lp759
I2
aI7
aI9
aI10
aa(lp760
I9
aI3
aI2
aI12
aa(lp761
I1
aI9
aI2
aI7
aa(lp762
I7
aI9
aI10
aI3
aa(lp763
I1
aI3
aI12
aI11
aa(lp764
I1
aI12
aI5
aI11
aa(lp765
I9
aI3
aI1
aI2
aasg18
(lp766
(dp767
g21
VBALLYGOWN BAY
p768
sg23
V3x04x
p769
sg25
I100
sg26
I1
sg27
I96
sa(dp770
g21
VNEACHELLS BRIDGE
p771
sg23
Vx53x5
p772
sg25
I85
sg26
I2
sg27
I87
sa(dp773
g21
VTHE GO TOU MAN
p774
sg23
V44x02
p775
sg25
I88
sg26
I3
sg27
I100
sa(dp776
g21
VPEUR DE RIEN
p777
sg23
Vx4x0x
p778
sg25
I75
sg26
I4
sg27
I74
sa(dp779
g21
VKILCULLEN BELLAMY
p780
sg23
Vx434x
p781
sg25
I93
sg26
I5
sg27
I79
sa(dp782
g21
VALMOST GOLD
p783
sg23
V9774x
p784
sg25
I78
sg26
I6
sg27
I78
sa(dp785
g21
VBOMBER'S MOON
p786
sg23
Vx390x
p787
sg25
I73
sg26
I7
sg27
I72
sa(dp788
g21
VGLOBAL RULER
p789
sg23
V0862x
p790
sg25
I82
sg26
I8
sg27
I85
sa(dp791
g21
VAULD SOD
p792
sg23
V37536
p793
sg25
I72
sg26
I9
sg27
I67
sa(dp794
g21
VTHE TOOJUMPA
p795
sg23
V8455x
p796
sg25
I71
sg26
I10
sg27
I70
sa(dp797
g21
VDESTINED TO SHINE
p798
sg23
V60x4x
p799
sg25
I92
sg26
I11
sg27
I89
sa(dp800
g21
VCOCK A DOODLE DOO
p801
sg23
V317x4
p802
sg25
I98
sg26
I12
sg27
I93
sasg55
(lp803
sssI1542114600
(dp804
g2
Vhttp://www.skyracing.com.au/index.php?component=racing&task=race&id=107767256&meetingid=106608373&Itemid=89
p805
sg4
V29007176.1310
p806
sg6
(dp807
g8
(lp808
(lp809
I8
aI9
aI4
aI7
aa(lp810
I4
aI9
aI8
aI5
aa(lp811
I4
aI9
aI5
aI8
aa(lp812
I4
aI9
aI8
aI5
aa(lp813
I4
aI9
aI8
aI2
aa(lp814
I4
aI8
aI9
aI5
aa(lp815
I8
aI9
aI4
aI1
aa(lp816
I4
aI9
aI8
aI5
aasg18
(lp817
(dp818
g21
VBRECON HILL
p819
sg23
Vx5x4x
p820
sg25
I86
sg26
I1
sg27
I79
sa(dp821
g21
VCAVALRY SCOUT
p822
sg23
V4035x
p823
sg25
I62
sg26
I2
sg27
I60
sa(dp824
g21
VESPRIT DE BAILEYS
p825
sg23
V16122
p826
sg25
I81
sg26
I3
sg27
I85
sa(dp827
g21
VFERROBIN
p828
sg23
V2x3
p829
sg25
I94
sg26
I4
sg27
I91
sa(dp830
g21
VMIDNIGHT SONATA
p831
sg23
V6x5
p832
sg25
I70
sg26
I5
sg27
I76
sa(dp833
g21
VMONK'S VIEW
p834
sg23
V08x0x
p835
sg25
I68
sg26
I6
sg27
I69
sa(dp836
g21
VRED ROYALIST
p837
sg23
V3163x
p838
sg25
I79
sg26
I7
sg27
I81
sa(dp839
g21
VTHAT'S A GIVEN
p840
sg23
V10x3
p841
sg25
I100
sg26
I8
sg27
I100
sa(dp842
g21
VWILLIAM HUNTER
p843
sg23
V465x2
p844
sg25
I98
sg26
I9
sg27
I98
sa(dp845
g21
VQUIZZACLE NOMAD
p846
sg23
V4613x
p847
sg25
I75
sg26
I10
sg27
I68
sasg55
(lp848
sss.