(dp0
I1544361600
(dp1
S'skyracing_url'
p2
Vhttp://www.skyracing.com.au/index.php?component=racing&task=race&id=108669635&meetingid=107748738&Itemid=89
p3
sS'betfair_raceid'
p4
V29040811.1320
p5
sS'dat2'
p6
(dp7
S'ratings_auto'
p8
(lp9
(lp10
I2
aI13
aI4
aI6
aa(lp11
I2
aI4
aI12
aI6
aa(lp12
I4
aI6
aI5
aI1
aa(lp13
I2
aI4
aI12
aI3
aa(lp14
I2
aI4
aI6
aI12
aa(lp15
I2
aI4
aI13
aI6
aa(lp16
I4
aI2
aI11
aI13
aa(lp17
I2
aI4
aI6
aI13
aasS'horse_details'
p18
(lp19
(dp20
S'horse_name'
p21
VBRECON HILL
p22
sS'horse_form'
p23
V5x4x1
p24
sS'rating_2'
p25
I88
sS'horse_number'
p26
I1
sS'rating_1'
p27
I80
sa(dp28
g21
VBREWIN'UPASTORM
p29
sg23
V1x14x
p30
sg25
I100
sg26
I2
sg27
I100
sa(dp31
g21
VBRUNEL WOODS
p32
sg23
Vx3x2x
p33
sg25
I73
sg26
I3
sg27
I76
sa(dp34
g21
VFLASH THE STEEL
p35
sg23
V31x32
p36
sg25
I98
sg26
I4
sg27
I94
sa(dp37
g21
VHAVANA HERMANO
p38
sg23
V0x744
p39
sg25
I71
sg26
I5
sg27
I68
sa(dp40
g21
VKYLLACHY GALA
p41
sg23
V8x642
p42
sg25
I84
sg26
I6
sg27
I90
sa(dp43
g21
VLOCHINVER
p44
sg23
V1x4x0
p45
sg25
I79
sg26
I7
sg27
I63
sa(dp46
g21
VLYNDSAYS LAD
p47
sg23
V7x5x
p48
sg25
I83
sg26
I8
sg27
I84
sa(dp49
g21
VOSTUNI
p50
sg23
V8x0
p51
sg25
I77
sg26
I9
sg27
I78
sa(dp52
g21
VPEMBERLEY
p53
sg23
V57x5
p54
sg25
I66
sg26
I10
sg27
I71
sa(dp55
g21
VSERMANDO
p56
sg23
V1231x
p57
sg25
I91
sg26
I11
sg27
I89
sa(dp58
g21
VSPECIAL ACCEPTANCE
p59
sg23
V24x4
p60
sg25
I71
sg26
I12
sg27
I73
sa(dp61
g21
VWINSTON C
p62
sg23
V0x825
p63
sg25
I93
sg26
I13
sg27
I96
sa(dp64
g21
VASK JILLY
p65
sg23
V0
p66
sg25
I62
sg26
I14
sg27
I65
sasS'ratings_manual'
p67
(lp68
sssI1544356800
(dp69
g2
Vhttp://www.skyracing.com.au/index.php?component=racing&task=race&id=108669603&meetingid=107748754&Itemid=89
p70
sg4
V29040856.1200
p71
sg6
(dp72
g8
(lp73
(lp74
I10
aI7
aI11
aI3
aa(lp75
I4
aI10
aI2
aI11
aa(lp76
I10
aI2
aI11
aI8
aa(lp77
I4
aI10
aI2
aI7
aa(lp78
I10
aI4
aI2
aI7
aa(lp79
I7
aI11
aI10
aI4
aa(lp80
I10
aI1
aI7
aI11
aa(lp81
I10
aI4
aI7
aI2
aasg18
(lp82
(dp83
g21
VALONE NO MORE
p84
sg23
V2241x
p85
sg25
I95
sg26
I1
sg27
I82
sa(dp86
g21
VARDGLASS STAR
p87
sg23
V38
p88
sg25
I73
sg26
I2
sg27
I68
sa(dp89
g21
VARMATTIEKAN
p90
sg23
V4x86
p91
sg25
I89
sg26
I3
sg27
I86
sa(dp92
g21
VBIG BAD DREAM
p93
sg23
Vx23x7
p94
sg25
I83
sg26
I4
sg27
I77
sa(dp95
g21
VBRIDANE HIGH
p96
sg23
V2x55
p97
sg25
I71
sg26
I5
sg27
I65
sa(dp98
g21
VEXPRESS DES MOTTES
p99
sg23
V3x5
p100
sg25
I76
sg26
I6
sg27
I72
sa(dp101
g21
VLEOSTAR
p102
sg23
V3202x
p103
sg25
I96
sg26
I7
sg27
I94
sa(dp104
g21
VMINT GOLD
p105
sg23
V36
p106
sg25
I86
sg26
I8
sg27
I80
sa(dp107
g21
VPINSPOT
p108
sg23
V456x7
p109
sg25
I78
sg26
I9
sg27
I73
sa(dp110
g21
VROMEO BROWN
p111
sg23
V3x82
p112
sg25
I100
sg26
I10
sg27
I100
sa(dp113
g21
VWEST COAST LASS
p114
sg23
V62x42
p115
sg25
I90
sg26
I11
sg27
I89
sasg67
(lp116
sssI1544362500
(dp117
g2
Vhttp://www.skyracing.com.au/index.php?component=racing&task=race&id=108669606&meetingid=107748754&Itemid=89
p118
sg4
V29040856.1335
p119
sg6
(dp120
g8
(lp121
(lp122
I12
aI1
aI6
aI3
aa(lp123
I2
aI5
aI11
aI12
aa(lp124
I12
aI4
aI6
aI10
aa(lp125
I3
aI9
aI5
aI8
aa(lp126
I12
aI6
aI5
aI11
aa(lp127
I12
aI1
aI6
aI10
aa(lp128
I3
aI12
aI1
aI6
aa(lp129
I12
aI6
aI5
aI1
aasg18
(lp130
(dp131
g21
VEMPIRE DE MAULDE
p132
sg23
Vx44x3
p133
sg25
I100
sg26
I1
sg27
I99
sa(dp134
g21
VNEWSTART
p135
sg23
V14x09
p136
sg25
I89
sg26
I2
sg27
I75
sa(dp137
g21
VAGE OF GLORY
p138
sg23
V7x51x
p139
sg25
I95
sg26
I3
sg27
I91
sa(dp140
g21
VBALLYNANTY
p141
sg23
V06x55
p142
sg25
I70
sg26
I4
sg27
I68
sa(dp143
g21
VTHEPENSIONFUND
p144
sg23
V3x450
p145
sg25
I74
sg26
I5
sg27
I73
sa(dp146
g21
VXPO UNIVERSEL
p147
sg23
V16381
p148
sg25
I92
sg26
I6
sg27
I95
sa(dp149
g21
VBOGARDUS
p150
sg23
V01434
p151
sg25
I84
sg26
I7
sg27
I78
sa(dp152
g21
VNO BOUNDARIES
p153
sg23
V40x00
p154
sg25
I71
sg26
I8
sg27
I70
sa(dp155
g21
VJOKERS AND ROGUES
p156
sg23
Vx054x
p157
sg25
I83
sg26
I9
sg27
I83
sa(dp158
g21
VWISHING WELL
p159
sg23
V73490
p160
sg25
I78
sg26
I10
sg27
I88
sa(dp161
g21
VPRINCE DUNDEE
p162
sg23
V56x6x
p163
sg25
I75
sg26
I11
sg27
I86
sa(dp164
g21
VLAS TUNAS
p165
sg23
V1x043
p166
sg25
I99
sg26
I12
sg27
I100
sasg67
(lp167
sssI1544367000
(dp168
g2
Vhttp://www.skyracing.com.au/index.php?component=racing&task=race&id=108669623&meetingid=107754560&Itemid=89
p169
sg4
V29040851.1450
p170
sg6
(dp171
g8
(lp172
(lp173
I9
aI16
aI8
aI11
aa(lp174
I8
aI9
aI7
aI11
aa(lp175
I7
aI5
aI2
aI1
aa(lp176
I8
aI1
aI7
aI4
aa(lp177
I16
aI9
aI11
aI8
aa(lp178
I8
aI9
aI16
aI3
aa(lp179
I9
aI2
aI8
aI11
aa(lp180
I8
aI9
aI16
aI7
aasg18
(lp181
(dp182
g21
VSONNY B
p183
sg23
V0x5x7
p184
sg25
I62
sg26
I1
sg27
I59
sa(dp185
g21
VSHIMMER'S ROCK
p186
sg23
V108x5
p187
sg25
I97
sg26
I2
sg27
I70
sa(dp188
g21
VCHATHAM STREET LAD
p189
sg23
V90x47
p190
sg25
I79
sg26
I3
sg27
I83
sa(dp191
g21
VMASTERSTONEMASON
p192
sg23
V2x07x
p193
sg25
I65
sg26
I4
sg27
I62
sa(dp194
g21
VANTIMATTER
p195
sg23
V62882
p196
sg25
I86
sg26
I5
sg27
I88
sa(dp197
g21
VGENEVA BARRACKS
p198
sg23
V4730x
p199
sg25
I74
sg26
I6
sg27
I73
sa(dp200
g21
VVOICES OF SPRING
p201
sg23
Vx48x5
p202
sg25
I77
sg26
I7
sg27
I78
sa(dp203
g21
VDE BENNO
p204
sg23
V5520x
p205
sg25
I94
sg26
I8
sg27
I93
sa(dp206
g21
VCAPPACURRY ZAK
p207
sg23
V8014x
p208
sg25
I100
sg26
I9
sg27
I100
sa(dp209
g21
VWAIT HERE
p210
sg23
Vx982x
p211
sg25
I95
sg26
I10
sg27
I63
sa(dp212
g21
VSPANCIL HILL
p213
sg23
V1122x
p214
sg25
I92
sg26
I11
sg27
I90
sa(dp215
g21
VPOUND A STROKE
p216
sg23
V12x50
p217
sg25
I69
sg26
I12
sg27
I69
sa(dp218
g21
VLADY IN LAVENDER
p219
sg23
Vx08x6
p220
sg25
I71
sg26
I13
sg27
I76
sa(dp221
g21
VWADE HARPER
p222
sg23
V5590x
p223
sg25
I66
sg26
I14
sg27
I66
sa(dp224
g21
VHERO'S WELCOME
p225
sg23
V0060x
p226
sg25
I84
sg26
I15
sg27
I86
sa(dp227
g21
VSPARE BRAKES
p228
sg23
V1233x
p229
sg25
I88
sg26
I16
sg27
I97
sa(dp230
g21
VKILN ROCK
p231
sg23
V20x7x
p232
sg25
I80
sg26
I17
sg27
I82
sasg67
(lp233
sssI1544367900
(dp234
g2
Vhttp://www.skyracing.com.au/index.php?component=racing&task=race&id=108669668&meetingid=107754576&Itemid=89
p235
sg4
V29040844.1505
p236
sg6
(dp237
g8
(lp238
(lp239
I8
aI7
aI6
aI1
aa(lp240
I8
aI2
aI4
aI5
aa(lp241
I8
aI2
aI6
aI9
aa(lp242
I1
aI4
aI9
aI2
aa(lp243
I8
aI9
aI13
aI4
aa(lp244
I8
aI7
aI6
aI2
aa(lp245
I5
aI8
aI1
aI7
aa(lp246
I8
aI2
aI7
aI6
aasg18
(lp247
(dp248
g21
VMON LINO
p249
sg23
V09x90
p250
sg25
I92
sg26
I1
sg27
I91
sa(dp251
g21
VCRESUS DE GRISSAY
p252
sg23
V646x2
p253
sg25
I84
sg26
I2
sg27
I89
sa(dp254
g21
VSNUGSBOROUGH HALL
p255
sg23
Vx0x56
p256
sg25
I71
sg26
I3
sg27
I74
sa(dp257
g21
VFLYNSINI
p258
sg23
V129x5
p259
sg25
I77
sg26
I4
sg27
I79
sa(dp260
g21
VNICOLE'S MILAN
p261
sg23
V300x6
p262
sg25
I93
sg26
I5
sg27
I84
sa(dp263
g21
VGUIDED BY YOU
p264
sg23
V0x537
p265
sg25
I88
sg26
I6
sg27
I94
sa(dp266
g21
VTREASURE CHEST
p267
sg23
V06x85
p268
sg25
I98
sg26
I7
sg27
I98
sa(dp269
g21
VSE MO LAOCH
p270
sg23
V33122
p271
sg25
I100
sg26
I8
sg27
I100
sa(dp272
g21
VTHEKINGOFCONNEMARA
p273
sg23
V80652
p274
sg25
I78
sg26
I9
sg27
I81
sa(dp275
g21
VASITSOHAPPENS
p276
sg23
V733x0
p277
sg25
I69
sg26
I10
sg27
I72
sa(dp278
g21
VSELECT OPPORTUNITY
p279
sg23
V01050
p280
sg25
I74
sg26
I11
sg27
I77
sa(dp281
g21
VHAWK EYE DOWN
p282
sg23
V50x00
p283
sg25
I67
sg26
I12
sg27
I61
sa(dp284
g21
VWITNESS OF FASHION
p285
sg23
V104x6
p286
sg25
I81
sg26
I13
sg27
I62
sa(dp287
g21
VENDURING LOVE
p288
sg23
Vx360x
p289
sg25
I63
sg26
I14
sg27
I67
sa(dp290
g21
VSEANATHAIR
p291
sg23
V7908x
p292
sg25
I60
sg26
I15
sg27
I69
sasg67
(lp293
sssI1544359200
(dp294
g2
Vhttp://www.skyracing.com.au/index.php?component=racing&task=race&id=108669619&meetingid=107754560&Itemid=89
p295
sg4
V29040851.1240
p296
sg6
(dp297
g8
(lp298
(lp299
I5
aI12
aI7
aI3
aa(lp300
I5
aI7
aI12
aI2
aa(lp301
I2
aI17
aI12
aI13
aa(lp302
I5
aI3
aI7
aI9
aa(lp303
I5
aI7
aI2
aI22
aa(lp304
I7
aI5
aI12
aI3
aa(lp305
I5
aI3
aI9
aI7
aa(lp306
I5
aI7
aI12
aI2
aasg18
(lp307
(dp308
g21
VBACHELOR PAD
p309
sg23
V
p310
sg25
I67
sg26
I1
sg27
I0
sa(dp311
g21
VCASTLETOWN QUARY
p312
sg23
V1x313
p313
sg25
I93
sg26
I2
sg27
I89
sa(dp314
g21
VCOME TO ME
p315
sg23
V1x6x
p316
sg25
I98
sg26
I3
sg27
I93
sa(dp317
g21
VDARVER STAR
p318
sg23
g310
sg25
I69
sg26
I4
sg27
I0
sa(dp319
g21
VGETAWAY JOHN
p320
sg23
V110x3
p321
sg25
I100
sg26
I5
sg27
I100
sa(dp322
g21
VGLIB SPEECH
p323
sg23
V149x9
p324
sg25
I77
sg26
I6
sg27
I75
sa(dp325
g21
VIMPATIENT PARTNER
p326
sg23
V23x1x
p327
sg25
I91
sg26
I7
sg27
I95
sa(dp328
g21
VIT'S FRIGHTENING
p329
sg23
V60x0
p330
sg25
I57
sg26
I8
sg27
I51
sa(dp331
g21
VLIGHTHOUSE WARRIER
p332
sg23
V21x2x
p333
sg25
I96
sg26
I9
sg27
I90
sa(dp334
g21
VMEGALOMANIAC
p335
sg23
V8x
p336
sg25
I75
sg26
I10
sg27
I76
sa(dp337
g21
VMR JACARANDA
p338
sg23
V0x
p339
sg25
I55
sg26
I11
sg27
I59
sa(dp340
g21
VPRESENTED WELL
p341
sg23
V2x2x2
p342
sg25
I89
sg26
I12
sg27
I99
sa(dp343
g21
VRAGIN CAJUN
p344
sg23
V04x00
p345
sg25
I84
sg26
I13
sg27
I85
sa(dp346
g21
VTOMASBAR
p347
sg23
g310
sg25
I59
sg26
I14
sg27
I0
sa(dp348
g21
VTOO MUCH TO ASK
p349
sg23
g310
sg25
I60
sg26
I15
sg27
I0
sa(dp350
g21
VAUTOMATIC
p351
sg23
V6x
p352
sg25
I53
sg26
I16
sg27
I60
sa(dp353
g21
VDONT GO MAD
p354
sg23
V06058
p355
sg25
I87
sg26
I17
sg27
I87
sa(dp356
g21
VENCORE LUI
p357
sg23
V5
p358
sg25
I81
sg26
I18
sg27
I78
sa(dp359
g21
VPRESENTING POINT
p360
sg23
V7x0
p361
sg25
I52
sg26
I19
sg27
I62
sa(dp362
g21
VSKYPUNCH
p363
sg23
V99x
p364
sg25
I50
sg26
I20
sg27
I65
sa(dp365
g21
VWOLFOFALLSTREETS
p366
sg23
V67x9x
p367
sg25
I70
sg26
I21
sg27
I71
sa(dp368
g21
VCOOL SAINT
p369
sg23
V3x
p370
sg25
I83
sg26
I22
sg27
I81
sa(dp371
g21
VKATE O C B
p372
sg23
g310
sg25
I72
sg26
I23
sg27
I0
sa(dp373
g21
VOUR ANNIVERSARY
p374
sg23
V0x000
p375
sg25
I79
sg26
I24
sg27
I66
sa(dp376
g21
VLOVELY CARRIG
p377
sg23
V0
p378
sg25
I66
sg26
I25
sg27
I68
sa(dp379
g21
VDAWSON'S COTTAGE
p380
sg23
g310
sg25
I63
sg26
I26
sg27
I0
sa(dp381
g21
VKILMURRY
p382
sg23
g310
sg25
I64
sg26
I27
sg27
I0
sasg67
(lp383
sssI1544358000
(dp384
g2
Vhttp://www.skyracing.com.au/index.php?component=racing&task=race&id=108669663&meetingid=107754576&Itemid=89
p385
sg4
V29040844.1220
p386
sg6
(dp387
g8
(lp388
(lp389
I3
aI5
aI1
aI2
aa(lp390
I5
aI3
aI1
aI2
aa(lp391
I1
aI3
aI4
aI2
aa(lp392
I5
aI3
aI1
aI4
aa(lp393
I3
aI5
aI1
aI4
aa(lp394
I3
aI5
aI1
aI2
aa(lp395
I3
aI5
aI1
aI2
aa(lp396
I3
aI5
aI1
aI4
aasg18
(lp397
(dp398
g21
VDUE REWARD
p399
sg23
V119x2
p400
sg25
I94
sg26
I1
sg27
I91
sa(dp401
g21
VMINELLA TIMES
p402
sg23
Vx4x7x
p403
sg25
I85
sg26
I2
sg27
I86
sa(dp404
g21
VBALLYNEETY
p405
sg23
V3x1
p406
sg25
I100
sg26
I3
sg27
I100
sa(dp407
g21
VROCK ROAD
p408
sg23
V29x51
p409
sg25
I81
sg26
I4
sg27
I83
sa(dp410
g21
VCOUNT SIMON
p411
sg23
V4225x
p412
sg25
I95
sg26
I5
sg27
I99
sasg67
(lp413
sssI1544360100
(dp414
g2
Vhttp://www.skyracing.com.au/index.php?component=racing&task=race&id=108669664&meetingid=107754576&Itemid=89
p415
sg4
V29040844.1255
p416
sg6
(dp417
g8
(lp418
(lp419
I15
aI8
aI7
aI6
aa(lp420
I15
aI13
aI8
aI12
aa(lp421
I13
aI6
aI19
aI7
aa(lp422
I15
aI13
aI8
aI19
aa(lp423
I15
aI8
aI19
aI13
aa(lp424
I15
aI8
aI7
aI6
aa(lp425
I15
aI8
aI7
aI11
aa(lp426
I15
aI8
aI13
aI7
aasg18
(lp427
(dp428
g21
VAONGHUS SONG
p429
sg23
V13x
p430
sg25
I93
sg26
I1
sg27
I89
sa(dp431
g21
VBELTRAME
p432
sg23
V0x60
p433
sg25
I62
sg26
I2
sg27
I60
sa(dp434
g21
VBOOTLEGGER
p435
sg23
g310
sg25
I72
sg26
I3
sg27
I0
sa(dp436
g21
VCAPTAIN COURAGEOUS
p437
sg23
Vx47x0
p438
sg25
I69
sg26
I4
sg27
I62
sa(dp439
g21
VCOCKBRIDGE PADDY
p440
sg23
g310
sg25
I64
sg26
I5
sg27
I0
sa(dp441
g21
VCUNEO
p442
sg23
V321x3
p443
sg25
I87
sg26
I6
sg27
I93
sa(dp444
g21
VDIAMOND TURF
p445
sg23
Vx31x2
p446
sg25
I95
sg26
I7
sg27
I96
sa(dp447
g21
VDREAM CONTI
p448
sg23
V1x
p449
sg25
I99
sg26
I8
sg27
I97
sa(dp450
g21
VESTHERS PRESENT
p451
sg23
V86x80
p452
sg25
I60
sg26
I9
sg27
I59
sa(dp453
g21
VGOLDEN DRUMLEE
p454
sg23
V1x0x9
p455
sg25
I78
sg26
I10
sg27
I65
sa(dp456
g21
VHOTEL DU NORD
p457
sg23
V1x5x
p458
sg25
I90
sg26
I11
sg27
I79
sa(dp459
g21
VPRESS CONFERENCE
p460
sg23
V1x27x
p461
sg25
I84
sg26
I12
sg27
I85
sa(dp462
g21
VSCHOOL BOY HOURS
p463
sg23
V37x2
p464
sg25
I82
sg26
I13
sg27
I87
sa(dp465
g21
VTAKE REVENGE
p466
sg23
V15x3x
p467
sg25
I73
sg26
I14
sg27
I67
sa(dp468
g21
VTORNADO FLYER
p469
sg23
V131x
p470
sg25
I100
sg26
I15
sg27
I100
sa(dp471
g21
VTWODOORSDOWN
p472
sg23
V637x
p473
sg25
I67
sg26
I16
sg27
I69
sa(dp474
g21
VDISCORDANTLY
p475
sg23
V7x
p476
sg25
I70
sg26
I17
sg27
I73
sa(dp477
g21
VDRIFTING BACK
p478
sg23
V3x
p479
sg25
I81
sg26
I18
sg27
I81
sa(dp480
g21
VKALUM RIVER
p481
sg23
V1x222
p482
sg25
I88
sg26
I19
sg27
I90
sa(dp483
g21
VTHEGOAHEADMAN
p484
sg23
V7042x
p485
sg25
I76
sg26
I20
sg27
I76
sa(dp486
g21
VDO AS YOU WISH
p487
sg23
V47x
p488
sg25
I66
sg26
I21
sg27
I71
sasg67
(lp489
sssI1544361000
(dp490
g2
Vhttp://www.skyracing.com.au/index.php?component=racing&task=race&id=108669620&meetingid=107754560&Itemid=89
p491
sg4
V29040851.1310
p492
sg6
(dp493
g8
(lp494
(lp495
I4
aI6
aI2
aI7
aa(lp496
I3
aI7
aI4
aI6
aa(lp497
I7
aI4
aI6
aI2
aa(lp498
I7
aI4
aI6
aI1
aa(lp499
I7
aI3
aI4
aI6
aa(lp500
I7
aI4
aI6
aI2
aa(lp501
I6
aI2
aI4
aI7
aa(lp502
I7
aI4
aI6
aI3
aasg18
(lp503
(dp504
g21
VDERRINROSS
p505
sg23
Vx422x
p506
sg25
I80
sg26
I1
sg27
I81
sa(dp507
g21
VLAVERTEEN
p508
sg23
V402x1
p509
sg25
I94
sg26
I2
sg27
I90
sa(dp510
g21
VTHE BIG DOG
p511
sg23
Vx041x
p512
sg25
I77
sg26
I3
sg27
I72
sa(dp513
g21
VROBIN DE CARLOW
p514
sg23
V11311
p515
sg25
I100
sg26
I4
sg27
I100
sa(dp516
g21
VELWOOD
p517
sg23
V441x7
p518
sg25
I83
sg26
I5
sg27
I78
sa(dp519
g21
VSAMS PROFILE
p520
sg23
V1x3x1
p521
sg25
I99
sg26
I6
sg27
I96
sa(dp522
g21
VPLEASURE DOME
p523
sg23
V11284
p524
sg25
I89
sg26
I7
sg27
I84
sasg67
(lp525
sssI1544361900
(dp526
g2
Vhttp://www.skyracing.com.au/index.php?component=racing&task=race&id=108669665&meetingid=107754576&Itemid=89
p527
sg4
V29040844.1325
p528
sg6
(dp529
g8
(lp530
(lp531
I4
aI13
aI2
aI15
aa(lp532
I2
aI3
aI4
aI7
aa(lp533
I15
aI19
aI6
aI13
aa(lp534
I3
aI9
aI7
aI2
aa(lp535
I2
aI15
aI14
aI7
aa(lp536
I13
aI4
aI15
aI11
aa(lp537
I4
aI2
aI1
aI6
aa(lp538
I2
aI15
aI4
aI13
aasg18
(lp539
(dp540
g21
VPATEEN
p541
sg23
V01x0x
p542
sg25
I93
sg26
I1
sg27
I70
sa(dp543
g21
VAUVERGNAT
p544
sg23
V413x0
p545
sg25
I91
sg26
I2
sg27
I96
sa(dp546
g21
VFORCE OF FORCES
p547
sg23
V055x0
p548
sg25
I67
sg26
I3
sg27
I62
sa(dp549
g21
VGROTESQUE
p550
sg23
Vx33x5
p551
sg25
I100
sg26
I4
sg27
I100
sa(dp552
g21
VCOUNTESS CATHLEEN
p553
sg23
V6410x
p554
sg25
I70
sg26
I5
sg27
I74
sa(dp555
g21
VAASLEAGH DAWN
p556
sg23
V64710
p557
sg25
I96
sg26
I6
sg27
I78
sa(dp558
g21
VSCHMIDT
p559
sg23
V94400
p560
sg25
I60
sg26
I7
sg27
I61
sa(dp561
g21
VWINGS LIKE ARION
p562
sg23
V1167x
p563
sg25
I88
sg26
I8
sg27
I88
sa(dp564
g21
VLITTLE HAARTH
p565
sg23
V6430x
p566
sg25
I65
sg26
I9
sg27
I65
sa(dp567
g21
VARCTIC LIGHT
p568
sg23
V10260
p569
sg25
I80
sg26
I10
sg27
I85
sa(dp570
g21
VSMITHSCORNER
p571
sg23
V5x120
p572
sg25
I87
sg26
I11
sg27
I90
sa(dp573
g21
VCURIOUS TIMES
p574
sg23
V3x2x6
p575
sg25
I73
sg26
I12
sg27
I77
sa(dp576
g21
VJAKE PETER
p577
sg23
V11221
p578
sg25
I97
sg26
I13
sg27
I97
sa(dp579
g21
VARTIC PEARL
p580
sg23
V8500x
p581
sg25
I77
sg26
I14
sg27
I80
sa(dp582
g21
VAR EAGLA NA HEAGLA
p583
sg23
V30391
p584
sg25
I83
sg26
I15
sg27
I93
sa(dp585
g21
VFRUITS OF GLORY
p586
sg23
V08083
p587
sg25
I69
sg26
I16
sg27
I68
sa(dp588
g21
VFROM EDEN
p589
sg23
Vx00x8
p590
sg25
I58
sg26
I17
sg27
I58
sa(dp591
g21
VPARTY PLAYBOY
p592
sg23
Vx7663
p593
sg25
I78
sg26
I18
sg27
I87
sa(dp594
g21
VLILY TROTTER
p595
sg23
V8x638
p596
sg25
I63
sg26
I19
sg27
I67
sasg67
(lp597
sssI1544363700
(dp598
g2
Vhttp://www.skyracing.com.au/index.php?component=racing&task=race&id=108669636&meetingid=107748738&Itemid=89
p599
sg4
V29040811.1355
p600
sg6
(dp601
g8
(lp602
(lp603
I2
aI7
aI11
aI3
aa(lp604
I4
aI5
aI10
aI6
aa(lp605
I6
aI1
aI2
aI3
aa(lp606
I9
aI5
aI11
aI6
aa(lp607
I5
aI7
aI4
aI11
aa(lp608
I7
aI2
aI5
aI3
aa(lp609
I2
aI7
aI3
aI8
aa(lp610
I5
aI7
aI2
aI4
aasg18
(lp611
(dp612
g21
VRAVEN'S TOWER
p613
sg23
V79x33
p614
sg25
I82
sg26
I1
sg27
I79
sa(dp615
g21
VWILLIAM H BONNEY
p616
sg23
V800x1
p617
sg25
I100
sg26
I2
sg27
I100
sa(dp618
g21
VMISTER UNIVERSUM
p619
sg23
V26042
p620
sg25
I92
sg26
I3
sg27
I89
sa(dp621
g21
VESKENDASH
p622
sg23
V61533
p623
sg25
I78
sg26
I4
sg27
I82
sa(dp624
g21
VSPARKLEANDSHINE
p625
sg23
V4x1x4
p626
sg25
I84
sg26
I5
sg27
I85
sa(dp627
g21
VROMANOR
p628
sg23
V11x04
p629
sg25
I68
sg26
I6
sg27
I67
sa(dp630
g21
VSHIROCCAN ROLL
p631
sg23
V3x122
p632
sg25
I96
sg26
I7
sg27
I96
sa(dp633
g21
VPRINCE OF STEAL
p634
sg23
V9x46x
p635
sg25
I89
sg26
I8
sg27
I70
sa(dp636
g21
VFURIOUSLY FAST
p637
sg23
V121x5
p638
sg25
I70
sg26
I9
sg27
I74
sa(dp639
g21
VGREAT HALL
p640
sg23
V63x66
p641
sg25
I73
sg26
I10
sg27
I77
sa(dp642
g21
VBLUSHING RED
p643
sg23
V93x11
p644
sg25
I93
sg26
I11
sg27
I91
sa(dp645
g21
VCOLLODI
p646
sg23
V31605
p647
sg25
I77
sg26
I12
sg27
I71
sasg67
(lp648
sssI1544364600
(dp649
g2
Vhttp://www.skyracing.com.au/index.php?component=racing&task=race&id=108669607&meetingid=107748754&Itemid=89
p650
sg4
V29040856.1410
p651
sg6
(dp652
g8
(lp653
(lp654
I9
aI7
aI6
aI5
aa(lp655
I2
aI3
aI4
aI6
aa(lp656
I5
aI7
aI1
aI9
aa(lp657
I1
aI2
aI3
aI4
aa(lp658
I6
aI4
aI3
aI5
aa(lp659
I6
aI7
aI9
aI5
aa(lp660
I6
aI2
aI7
aI5
aa(lp661
I6
aI7
aI9
aI5
aasg18
(lp662
(dp663
g21
VPERFECT CANDIDATE
p664
sg23
Vx0x00
p665
sg25
I63
sg26
I1
sg27
I65
sa(dp666
g21
VBEEVES
p667
sg23
V7320x
p668
sg25
I99
sg26
I2
sg27
I74
sa(dp669
g21
VUPSILON BLEU
p670
sg23
V27x5x
p671
sg25
I73
sg26
I3
sg27
I83
sa(dp672
g21
VBAND OF BLOOD
p673
sg23
V1060x
p674
sg25
I85
sg26
I4
sg27
I78
sa(dp675
g21
VSILVER TASSIE
p676
sg23
V323x2
p677
sg25
I84
sg26
I5
sg27
I88
sa(dp678
g21
VCULTRAM ABBEY
p679
sg23
V2314x
p680
sg25
I94
sg26
I6
sg27
I92
sa(dp681
g21
VJET MASTER
p682
sg23
V5x831
p683
sg25
I100
sg26
I7
sg27
I98
sa(dp684
g21
VSAMSTOWN
p685
sg23
V0x07x
p686
sg25
I70
sg26
I8
sg27
I70
sa(dp687
g21
VVALLEYOFMILAN
p688
sg23
V315x3
p689
sg25
I78
sg26
I9
sg27
I100
sasg67
(lp690
sssI1544365500
(dp691
g2
Vhttp://www.skyracing.com.au/index.php?component=racing&task=race&id=108669637&meetingid=107748738&Itemid=89
p692
sg4
V29040811.1425
p693
sg6
(dp694
g8
(lp695
(lp696
I4
aI1
aI10
aI9
aa(lp697
I9
aI5
aI4
aI1
aa(lp698
I4
aI2
aI8
aI10
aa(lp699
I5
aI4
aI6
aI1
aa(lp700
I4
aI5
aI2
aI9
aa(lp701
I4
aI1
aI10
aI2
aa(lp702
I10
aI4
aI1
aI3
aa(lp703
I4
aI5
aI1
aI9
aasg18
(lp704
(dp705
g21
VGOD'S OWN
p706
sg23
V333x1
p707
sg25
I93
sg26
I1
sg27
I95
sa(dp708
g21
VART MAURESQUE
p709
sg23
Vx2x72
p710
sg25
I78
sg26
I2
sg27
I84
sa(dp711
g21
VBEGGAR'S WISHES
p712
sg23
V11x14
p713
sg25
I82
sg26
I3
sg27
I78
sa(dp714
g21
VCHARBEL
p715
sg23
V9x312
p716
sg25
I100
sg26
I4
sg27
I100
sa(dp717
g21
VHAMMERSLY LAKE
p718
sg23
V12176
p719
sg25
I60
sg26
I5
sg27
I60
sa(dp720
g21
VJOSSES HILL
p721
sg23
V0400x
p722
sg25
I74
sg26
I6
sg27
I71
sa(dp723
g21
VMILITARIAN
p724
sg23
V34x21
p725
sg25
I67
sg26
I7
sg27
I68
sa(dp726
g21
VSAN BENEDETO
p727
sg23
V3x634
p728
sg25
I71
sg26
I8
sg27
I76
sa(dp729
g21
VTEA FOR TWO
p730
sg23
V8760x
p731
sg25
I85
sg26
I9
sg27
I86
sa(dp732
g21
VRENE'S GIRL
p733
sg23
V112x4
p734
sg25
I99
sg26
I10
sg27
I93
sasg67
(lp735
sssI1544366400
(dp736
g2
Vhttp://www.skyracing.com.au/index.php?component=racing&task=race&id=108669608&meetingid=107748754&Itemid=89
p737
sg4
V29040856.1440
p738
sg6
(dp739
g8
(lp740
(lp741
I9
aI8
aI7
aI1
aa(lp742
I9
aI1
aI8
aI5
aa(lp743
I8
aI4
aI11
aI9
aa(lp744
I1
aI8
aI11
aI4
aa(lp745
I8
aI9
aI4
aI1
aa(lp746
I9
aI8
aI7
aI5
aa(lp747
I9
aI8
aI5
aI7
aa(lp748
I8
aI9
aI1
aI4
aasg18
(lp749
(dp750
g21
VBEE CROSSING
p751
sg23
V2327x
p752
sg25
I89
sg26
I1
sg27
I92
sa(dp753
g21
VBELL OFTHE BONGATE
p754
sg23
V60x0x
p755
sg25
I73
sg26
I2
sg27
I72
sa(dp756
g21
VCORINDA
p757
sg23
V47x5x
p758
sg25
I78
sg26
I3
sg27
I79
sa(dp759
g21
VDONNAS DREAM
p760
sg23
V45x02
p761
sg25
I86
sg26
I4
sg27
I80
sa(dp762
g21
VHARRISONS PROMISE
p763
sg23
V15x8x
p764
sg25
I91
sg26
I5
sg27
I89
sa(dp765
g21
VMRS VONN
p766
sg23
V70x56
p767
sg25
I71
sg26
I6
sg27
I73
sa(dp768
g21
VOFF THE HOOK
p769
sg23
V222x3
p770
sg25
I94
sg26
I7
sg27
I93
sa(dp771
g21
VPETERS COUSIN
p772
sg23
Vx27x2
p773
sg25
I99
sg26
I8
sg27
I96
sa(dp774
g21
VSEA STORY
p775
sg23
V410x2
p776
sg25
I100
sg26
I9
sg27
I100
sa(dp777
g21
VSUNSET MARQUIS
p778
sg23
V64x8x
p779
sg25
I77
sg26
I10
sg27
I75
sa(dp780
g21
VWHITEOAK FLEUR
p781
sg23
V34x0
p782
sg25
I80
sg26
I11
sg27
I85
sasg67
(lp783
sssI1544368800
(dp784
g2
Vhttp://www.skyracing.com.au/index.php?component=racing&task=race&id=108669624&meetingid=107754560&Itemid=89
p785
sg4
V29040851.1520
p786
sg6
(dp787
g8
(lp788
(lp789
I6
aI9
aI10
aI1
aa(lp790
I9
aI2
aI7
aI10
aa(lp791
I9
aI1
aI16
aI3
aa(lp792
I9
aI7
aI1
aI16
aa(lp793
I9
aI10
aI8
aI7
aa(lp794
I6
aI9
aI10
aI1
aa(lp795
I9
aI6
aI10
aI4
aa(lp796
I9
aI6
aI10
aI1
aasg18
(lp797
(dp798
g21
VFIRST CLASS RETURN
p799
sg23
Vx6x68
p800
sg25
I88
sg26
I1
sg27
I93
sa(dp801
g21
VRONALD PUMP
p802
sg23
V4x049
p803
sg25
I77
sg26
I2
sg27
I79
sa(dp804
g21
VSERIOUS EGO
p805
sg23
V87563
p806
sg25
I91
sg26
I3
sg27
I91
sa(dp807
g21
VCITIZEN AL
p808
sg23
V0618x
p809
sg25
I96
sg26
I4
sg27
I82
sa(dp810
g21
VGOLAN CLOUD
p811
sg23
V509x0
p812
sg25
I65
sg26
I5
sg27
I60
sa(dp813
g21
VEIGHT AND BOB
p814
sg23
V00212
p815
sg25
I100
sg26
I6
sg27
I100
sa(dp816
g21
VLAMBS LANE
p817
sg23
V0007x
p818
sg25
I78
sg26
I7
sg27
I66
sa(dp819
g21
VWARRIOR ASSASSIN
p820
sg23
V72x04
p821
sg25
I71
sg26
I8
sg27
I68
sa(dp822
g21
VYOUCANTCALLHERTHAT
p823
sg23
V16x27
p824
sg25
I97
sg26
I9
sg27
I99
sa(dp825
g21
VSIMPLE STEPS
p826
sg23
V1203x
p827
sg25
I92
sg26
I10
sg27
I95
sa(dp828
g21
VTHE CHAPEL FIELD
p829
sg23
V005x
p830
sg25
I63
sg26
I11
sg27
I62
sa(dp831
g21
VWHEREYOUNOW
p832
sg23
V03089
p833
sg25
I61
sg26
I12
sg27
I64
sa(dp834
g21
VOUT OF THE BLUE
p835
sg23
V980
p836
sg25
I73
sg26
I13
sg27
I76
sa(dp837
g21
VBAZAROV
p838
sg23
Vx0056
p839
sg25
I87
sg26
I14
sg27
I88
sa(dp840
g21
VTAKEMEBACK
p841
sg23
V0x459
p842
sg25
I70
sg26
I15
sg27
I69
sa(dp843
g21
VDAWN LIGHT CAVE
p844
sg23
V0x780
p845
sg25
I84
sg26
I16
sg27
I87
sa(dp846
g21
VALLDUCKORNODINNER
p847
sg23
V6x60x
p848
sg25
I80
sg26
I17
sg27
I81
sa(dp849
g21
VGREY HABIT
p850
sg23
V0x080
p851
sg25
I69
sg26
I18
sg27
I70
sa(dp852
g21
VANNIE MAE'S VISION
p853
sg23
V707x7
p854
sg25
I68
sg26
I19
sg27
I72
sa(dp855
g21
VONEMOREASK
p856
sg23
V65x00
p857
sg25
I66
sg26
I20
sg27
I75
sa(dp858
g21
VSCOTCH QUAY
p859
sg23
V0x736
p860
sg25
I82
sg26
I21
sg27
I85
sasg67
(lp861
sssI1544357700
(dp862
g2
Vhttp://www.skyracing.com.au/index.php?component=racing&task=race&id=108669633&meetingid=107748738&Itemid=89
p863
sg4
V29040811.1215
p864
sg6
(dp865
g8
(lp866
(lp867
I5
aI3
aI8
aI7
aa(lp868
I7
aI4
aI5
aI8
aa(lp869
I5
aI8
aI3
aI4
aa(lp870
I2
aI3
aI1
aI5
aa(lp871
I7
aI5
aI4
aI8
aa(lp872
I5
aI3
aI8
aI2
aa(lp873
I3
aI5
aI7
aI2
aa(lp874
I5
aI3
aI8
aI7
aasg18
(lp875
(dp876
g21
VMIXCHIEVOUS
p877
sg23
V15x7x
p878
sg25
I74
sg26
I1
sg27
I76
sa(dp879
g21
VSURF AND TURF
p880
sg23
V74x4x
p881
sg25
I90
sg26
I2
sg27
I84
sa(dp882
g21
VMIDNIGHT GLORY
p883
sg23
V40x01
p884
sg25
I99
sg26
I3
sg27
I99
sa(dp885
g21
VMR JACK
p886
sg23
Vx43x4
p887
sg25
I71
sg26
I4
sg27
I73
sa(dp888
g21
VMISTY BLOOM
p889
sg23
V30x11
p890
sg25
I100
sg26
I5
sg27
I100
sa(dp891
g21
VTRIGGER NICHOL
p892
sg23
V834x8
p893
sg25
I76
sg26
I6
sg27
I78
sa(dp894
g21
VSAN PEDRO DE SENAM
p895
sg23
V466x3
p896
sg25
I88
sg26
I7
sg27
I91
sa(dp897
g21
VSILVER SEA
p898
sg23
V54341
p899
sg25
I93
sg26
I8
sg27
I95
sa(dp900
g21
VTHEREDBALLOON
p901
sg23
Vx2x72
p902
sg25
I84
sg26
I9
sg27
I88
sa(dp903
g21
VRASASEE
p904
sg23
V76925
p905
sg25
I78
sg26
I10
sg27
I83
sa(dp906
g21
VWESTERN MORNING
p907
sg23
V9935x
p908
sg25
I82
sg26
I11
sg27
I72
sasg67
(lp909
sssI1544358600
(dp910
g2
Vhttp://www.skyracing.com.au/index.php?component=racing&task=race&id=108669604&meetingid=107748754&Itemid=89
p911
sg4
V29040856.1230
p912
sg6
(dp913
g8
(lp914
(lp915
I3
aI6
aI7
aI1
aa(lp916
I3
aI4
aI2
aI1
aa(lp917
I3
aI2
aI7
aI5
aa(lp918
I8
aI3
aI7
aI1
aa(lp919
I3
aI2
aI4
aI1
aa(lp920
I3
aI6
aI7
aI1
aa(lp921
I3
aI6
aI8
aI7
aa(lp922
I3
aI7
aI2
aI6
aasg18
(lp923
(dp924
g21
VCASTLETOWN
p925
sg23
V215x7
p926
sg25
I83
sg26
I1
sg27
I87
sa(dp927
g21
VCLAUD AND GOLDIE
p928
sg23
Vx2x45
p929
sg25
I78
sg26
I2
sg27
I77
sa(dp930
g21
VDONNA'S DIAMOND
p931
sg23
V102x2
p932
sg25
I100
sg26
I3
sg27
I100
sa(dp933
g21
VLOVELY SCHTUFF
p934
sg23
V3374x
p935
sg25
I74
sg26
I4
sg27
I80
sa(dp936
g21
VROCKET MAN RODNEY
p937
sg23
V6x6x7
p938
sg25
I69
sg26
I5
sg27
I70
sa(dp939
g21
VSENOR LOMBARDY
p940
sg23
V112x4
p941
sg25
I99
sg26
I6
sg27
I96
sa(dp942
g21
VSLANEMORE HILL
p943
sg23
V341x3
p944
sg25
I93
sg26
I7
sg27
I90
sa(dp945
g21
VCATCHAMAT
p946
sg23
V6x66x
p947
sg25
I87
sg26
I8
sg27
I81
sasg67
(lp948
sssI1544370000
(dp949
g2
Vhttp://www.skyracing.com.au/index.php?component=racing&task=race&id=108669669&meetingid=107754576&Itemid=89
p950
sg4
V29040844.1540
p951
sg6
(dp952
g8
(lp953
(lp954
I2
aI4
aI8
aI7
aa(lp955
I8
aI7
aI2
aI11
aa(lp956
I7
aI2
aI5
aI9
aa(lp957
I8
aI7
aI1
aI9
aa(lp958
I8
aI7
aI2
aI11
aa(lp959
I2
aI4
aI8
aI7
aa(lp960
I2
aI4
aI8
aI7
aa(lp961
I8
aI2
aI7
aI4
aasg18
(lp962
(dp963
g21
VBAILY THUNDER
p964
sg23
V77x
p965
sg25
I80
sg26
I1
sg27
I70
sa(dp966
g21
VCENOTICE
p967
sg23
V431x3
p968
sg25
I100
sg26
I2
sg27
I100
sa(dp969
g21
VECLAIR DE ROCK
p970
sg23
V0x
p971
sg25
I79
sg26
I3
sg27
I73
sa(dp972
g21
VEMBITTERED
p973
sg23
V03x
p974
sg25
I98
sg26
I4
sg27
I95
sa(dp975
g21
VFOUR COUNTRY ROADS
p976
sg23
V5
p977
sg25
I86
sg26
I5
sg27
I80
sa(dp978
g21
VI GOT THIS
p979
sg23
g310
sg25
I74
sg26
I6
sg27
I0
sa(dp980
g21
VMASON JAR
p981
sg23
V304
p982
sg25
I92
sg26
I7
sg27
I86
sa(dp983
g21
VSANTANA PLESSIS
p984
sg23
V3x
p985
sg25
I93
sg26
I8
sg27
I91
sa(dp986
g21
VSTORM FLIGHT
p987
sg23
V70
p988
sg25
I71
sg26
I9
sg27
I61
sa(dp989
g21
VTOUCH OF OSCAR
p990
sg23
V6x
p991
sg25
I87
sg26
I10
sg27
I81
sa(dp992
g21
VYOUNG DEV
p993
sg23
V8093x
p994
sg25
I75
sg26
I11
sg27
I63
sasg67
(lp995
sssI1544359800
(dp996
g2
Vhttp://www.skyracing.com.au/index.php?component=racing&task=race&id=108669634&meetingid=107748738&Itemid=89
p997
sg4
V29040811.1250
p998
sg6
(dp999
g8
(lp1000
(lp1001
I1
aI2
aI7
aI5
aa(lp1002
I1
aI2
aI5
aI7
aa(lp1003
I1
aI2
aI5
aI7
aa(lp1004
I2
aI1
aI5
aI7
aa(lp1005
I2
aI1
aI7
aI5
aa(lp1006
I2
aI1
aI7
aI5
aa(lp1007
I7
aI1
aI2
aI5
aa(lp1008
I1
aI2
aI7
aI5
aasg18
(lp1009
(dp1010
g21
VBAGS GROOVE
p1011
sg23
Vx2x11
p1012
sg25
I100
sg26
I1
sg27
I100
sa(dp1013
g21
VTHOMAS CAMPBELL
p1014
sg23
V00x41
p1015
sg25
I97
sg26
I2
sg27
I96
sa(dp1016
g21
VBASTIEN
p1017
sg23
V1050x
p1018
sg25
I79
sg26
I3
sg27
I76
sa(dp1019
g21
VCHAMERON
p1020
sg23
V1x2x9
p1021
sg25
I84
sg26
I4
sg27
I80
sa(dp1022
g21
VNOW MCGINTY
p1023
sg23
V112x2
p1024
sg25
I87
sg26
I5
sg27
I84
sa(dp1025
g21
VOH LAND ABLOOM
p1026
sg23
V07x42
p1027
sg25
I71
sg26
I6
sg27
I69
sa(dp1028
g21
VRED RISING
p1029
sg23
V210x4
p1030
sg25
I90
sg26
I7
sg27
I90
sa(dp1031
g21
VSILVER KAYF
p1032
sg23
V3x10x
p1033
sg25
I75
sg26
I8
sg27
I71
sasg67
(lp1034
sssI1544363100
(dp1035
g2
Vhttp://www.skyracing.com.au/index.php?component=racing&task=race&id=108669621&meetingid=107754560&Itemid=89
p1036
sg4
V29040851.1345
p1037
sg6
(dp1038
g8
(lp1039
(lp1040
I2
aI6
aI3
aI7
aa(lp1041
I2
aI3
aI5
aI7
aa(lp1042
I1
aI3
aI8
aI2
aa(lp1043
I2
aI3
aI1
aI7
aa(lp1044
I2
aI5
aI3
aI1
aa(lp1045
I2
aI6
aI3
aI7
aa(lp1046
I2
aI6
aI5
aI3
aa(lp1047
I2
aI3
aI1
aI6
aasg18
(lp1048
(dp1049
g21
VA TOI PHIL
p1050
sg23
V23x63
p1051
sg25
I78
sg26
I1
sg27
I82
sa(dp1052
g21
VGREAT FIELD
p1053
sg23
V11x1x
p1054
sg25
I100
sg26
I2
sg27
I100
sa(dp1055
g21
VDOCTOR PHOENIX
p1056
sg23
V275x5
p1057
sg25
I86
sg26
I3
sg27
I92
sa(dp1058
g21
VSUMOS NOVIOS
p1059
sg23
V8110x
p1060
sg25
I83
sg26
I4
sg27
I74
sa(dp1061
g21
VANIBALE FLY
p1062
sg23
V1034x
p1063
sg25
I93
sg26
I5
sg27
I78
sa(dp1064
g21
VCASTLEGRACE PADDY
p1065
sg23
V1x15x
p1066
sg25
I96
sg26
I6
sg27
I95
sa(dp1067
g21
VSPECIAL TIARA
p1068
sg23
V4394x
p1069
sg25
I76
sg26
I7
sg27
I86
sa(dp1070
g21
VTHREE STARS
p1071
sg23
V250x5
p1072
sg25
I69
sg26
I8
sg27
I72
sasg67
(lp1073
sssI1544364000
(dp1074
g2
Vhttp://www.skyracing.com.au/index.php?component=racing&task=race&id=108669666&meetingid=107754576&Itemid=89
p1075
sg4
V29040844.1400
p1076
sg6
(dp1077
g8
(lp1078
(lp1079
I5
aI1
aI4
aI3
aa(lp1080
I3
aI2
aI1
aI5
aa(lp1081
I5
aI4
aI1
aI2
aa(lp1082
I3
aI5
aI2
aI4
aa(lp1083
I5
aI3
aI2
aI1
aa(lp1084
I3
aI5
aI1
aI4
aa(lp1085
I5
aI3
aI1
aI4
aa(lp1086
I5
aI3
aI1
aI4
aasg18
(lp1087
(dp1088
g21
VBALKO DES FLOS
p1089
sg23
Vx14x4
p1090
sg25
I95
sg26
I1
sg27
I97
sa(dp1091
g21
VEDWULF
p1092
sg23
V0187x
p1093
sg25
I82
sg26
I2
sg27
I76
sa(dp1094
g21
VMIN
p1095
sg23
V1224x
p1096
sg25
I91
sg26
I3
sg27
I80
sa(dp1097
g21
VTHE STORYTELLER
p1098
sg23
V151x5
p1099
sg25
I86
sg26
I4
sg27
I92
sa(dp1100
g21
VSHATTERED LOVE
p1101
sg23
V125x2
p1102
sg25
I100
sg26
I5
sg27
I100
sasg67
(lp1103
sssI1544364900
(dp1104
g2
Vhttp://www.skyracing.com.au/index.php?component=racing&task=race&id=108669622&meetingid=107754560&Itemid=89
p1105
sg4
V29040851.1415
p1106
sg6
(dp1107
g8
(lp1108
(lp1109
I1
aI6
aI10
aI4
aa(lp1110
I4
aI1
aI10
aI3
aa(lp1111
I1
aI10
aI3
aI4
aa(lp1112
I10
aI3
aI1
aI4
aa(lp1113
I4
aI1
aI10
aI3
aa(lp1114
I10
aI6
aI1
aI9
aa(lp1115
I4
aI10
aI1
aI6
aa(lp1116
I1
aI10
aI4
aI3
aasg18
(lp1117
(dp1118
g21
VCAMELIA DE COTTE
p1119
sg23
Vx1141
p1120
sg25
I100
sg26
I1
sg27
I100
sa(dp1121
g21
VALIGHTING
p1122
sg23
V3360x
p1123
sg25
I65
sg26
I2
sg27
I69
sa(dp1124
g21
VDAWN SHADOW
p1125
sg23
V6x210
p1126
sg25
I80
sg26
I3
sg27
I80
sa(dp1127
g21
VFORGE MEADOW
p1128
sg23
V08x32
p1129
sg25
I93
sg26
I4
sg27
I85
sa(dp1130
g21
VHIGH SCHOOL DAYS
p1131
sg23
V000x5
p1132
sg25
I70
sg26
I5
sg27
I66
sa(dp1133
g21
VLACKANEEN LEADER
p1134
sg23
V120x4
p1135
sg25
I85
sg26
I6
sg27
I98
sa(dp1136
g21
VMOYHENNA
p1137
sg23
V1245x
p1138
sg25
I62
sg26
I7
sg27
I60
sa(dp1139
g21
VNELLIE PLEDGE
p1140
sg23
V53x84
p1141
sg25
I74
sg26
I8
sg27
I73
sa(dp1142
g21
VOH ME OH MY
p1143
sg23
Vx7144
p1144
sg25
I82
sg26
I9
sg27
I83
sa(dp1145
g21
VTELL ME ANNIE
p1146
sg23
V01x14
p1147
sg25
I98
sg26
I10
sg27
I94
sasg67
(lp1148
sssI1544365800
(dp1149
g2
Vhttp://www.skyracing.com.au/index.php?component=racing&task=race&id=108669667&meetingid=107754576&Itemid=89
p1150
sg4
V29040844.1430
p1151
sg6
(dp1152
g8
(lp1153
(lp1154
I5
aI12
aI7
aI11
aa(lp1155
I5
aI12
aI8
aI1
aa(lp1156
I11
aI8
aI1
aI12
aa(lp1157
I8
aI5
aI7
aI3
aa(lp1158
I5
aI12
aI1
aI8
aa(lp1159
I12
aI5
aI7
aI10
aa(lp1160
I12
aI5
aI7
aI3
aa(lp1161
I5
aI12
aI8
aI7
aasg18
(lp1162
(dp1163
g21
VANOTHER BARNEY
p1164
sg23
V555x9
p1165
sg25
I77
sg26
I1
sg27
I69
sa(dp1166
g21
VART OF SECURITY
p1167
sg23
V6x098
p1168
sg25
I72
sg26
I2
sg27
I74
sa(dp1169
g21
VARTICULUM
p1170
sg23
V4247x
p1171
sg25
I89
sg26
I3
sg27
I84
sa(dp1172
g21
VCALL A CAB
p1173
sg23
V4153x
p1174
sg25
I74
sg26
I4
sg27
I77
sa(dp1175
g21
VGETABIRD
p1176
sg23
V0179x
p1177
sg25
I100
sg26
I5
sg27
I100
sa(dp1178
g21
VMARAKOUSH
p1179
sg23
V0x8x3
p1180
sg25
I78
sg26
I6
sg27
I78
sa(dp1181
g21
VMINISTERFORSPORT
p1182
sg23
V14x1x
p1183
sg25
I94
sg26
I7
sg27
I95
sa(dp1184
g21
VMONOTYPE
p1185
sg23
V91x66
p1186
sg25
I68
sg26
I8
sg27
I70
sa(dp1187
g21
VMOON OVER GERMANY
p1188
sg23
V6x50x
p1189
sg25
I82
sg26
I9
sg27
I81
sa(dp1190
g21
VPORTMORE LOUGH
p1191
sg23
V31x3x
p1192
sg25
I90
sg26
I10
sg27
I87
sa(dp1193
g21
VUISCE BEATHA
p1194
sg23
V127x5
p1195
sg25
I84
sg26
I11
sg27
I90
sa(dp1196
g21
VMITCHOUKA
p1197
sg23
V26x45
p1198
sg25
I97
sg26
I12
sg27
I96
sasg67
(lp1199
sssI1544357100
(dp1200
g2
Vhttp://www.skyracing.com.au/index.php?component=racing&task=race&id=108669618&meetingid=107754560&Itemid=89
p1201
sg4
V29040851.1205
p1202
sg6
(dp1203
g8
(lp1204
(lp1205
I7
aI2
aI12
aI3
aa(lp1206
I2
aI25
aI12
aI13
aa(lp1207
I25
aI12
aI7
aI15
aa(lp1208
I12
aI25
aI13
aI2
aa(lp1209
I2
aI3
aI25
aI17
aa(lp1210
I2
aI7
aI12
aI3
aa(lp1211
I2
aI7
aI1
aI12
aa(lp1212
I2
aI12
aI25
aI7
aasg18
(lp1213
(dp1214
g21
VACRUX CASS
p1215
sg23
V0219x
p1216
sg25
I96
sg26
I1
sg27
I86
sa(dp1217
g21
VBAND OF OUTLAWS
p1218
sg23
V0274x
p1219
sg25
I100
sg26
I2
sg27
I97
sa(dp1220
g21
VBRISK TEMPO
p1221
sg23
V8x233
p1222
sg25
I89
sg26
I3
sg27
I94
sa(dp1223
g21
VFRANKINCENSE
p1224
sg23
V6x7x5
p1225
sg25
I75
sg26
I4
sg27
I78
sa(dp1226
g21
VHAWTHORN
p1227
sg23
g310
sg25
I72
sg26
I5
sg27
I0
sa(dp1228
g21
VLIVINGSTONES QUEST
p1229
sg23
V34044
p1230
sg25
I76
sg26
I6
sg27
I54
sa(dp1231
g21
VMAZE RUNNER
p1232
sg23
V49521
p1233
sg25
I97
sg26
I7
sg27
I100
sa(dp1234
g21
VMOOBORAK
p1235
sg23
V89x97
p1236
sg25
I65
sg26
I8
sg27
I63
sa(dp1237
g21
VPAK ARMY
p1238
sg23
Vx58x7
p1239
sg25
I62
sg26
I9
sg27
I64
sa(dp1240
g21
VPUNTERS POET
p1241
sg23
V5x
p1242
sg25
I66
sg26
I10
sg27
I69
sa(dp1243
g21
VREFORMED MAN
p1244
sg23
V0
p1245
sg25
I60
sg26
I11
sg27
I66
sa(dp1246
g21
VUNION GAP
p1247
sg23
Vx9042
p1248
sg25
I93
sg26
I12
sg27
I96
sa(dp1249
g21
VVISCOUNT WILSON
p1250
sg23
V04x00
p1251
sg25
I81
sg26
I13
sg27
I82
sa(dp1252
g21
VWALKING ON GLASS
p1253
sg23
V00000
p1254
sg25
I56
sg26
I14
sg27
I57
sa(dp1255
g21
VWAY BACK HOME
p1256
sg23
Vx90x3
p1257
sg25
I86
sg26
I15
sg27
I91
sa(dp1258
g21
VCOLOUR ME IN
p1259
sg23
V00000
p1260
sg25
I85
sg26
I16
sg27
I88
sa(dp1261
g21
VEXTRASENSORY
p1262
sg23
Vx0408
p1263
sg25
I91
sg26
I17
sg27
I81
sa(dp1264
g21
VFEYAN
p1265
sg23
V80x0x
p1266
sg25
I54
sg26
I18
sg27
I59
sa(dp1267
g21
VHAVINGAGOODTIME
p1268
sg23
V6596x
p1269
sg25
I70
sg26
I19
sg27
I70
sa(dp1270
g21
VHER APPROVAL
p1271
sg23
Vx08x0
p1272
sg25
I83
sg26
I20
sg27
I84
sa(dp1273
g21
VSHES GOLD
p1274
sg23
V36090
p1275
sg25
I69
sg26
I21
sg27
I71
sa(dp1276
g21
VSWEET CASSIE
p1277
sg23
Vx0050
p1278
sg25
I67
sg26
I22
sg27
I74
sa(dp1279
g21
VULURU PARK
p1280
sg23
V85007
p1281
sg25
I58
sg26
I23
sg27
I67
sa(dp1282
g21
VYOU'LLFINDANDSEE
p1283
sg23
V60x65
p1284
sg25
I53
sg26
I24
sg27
I60
sa(dp1285
g21
VIRISH MINISTER
p1286
sg23
V70068
p1287
sg25
I79
sg26
I25
sg27
I76
sasg67
(lp1288
sssI1544367600
(dp1289
g2
Vhttp://www.skyracing.com.au/index.php?component=racing&task=race&id=108669638&meetingid=107748738&Itemid=89
p1290
sg4
V29040811.1500
p1291
sg6
(dp1292
g8
(lp1293
(lp1294
I7
aI11
aI3
aI6
aa(lp1295
I3
aI1
aI2
aI7
aa(lp1296
I3
aI1
aI2
aI7
aa(lp1297
I7
aI3
aI1
aI2
aa(lp1298
I2
aI7
aI1
aI5
aa(lp1299
I11
aI7
aI3
aI6
aa(lp1300
I11
aI3
aI5
aI7
aa(lp1301
I7
aI3
aI1
aI2
aasg18
(lp1302
(dp1303
g21
VBRIERY EXPRESS
p1304
sg23
V2x1
p1305
sg25
I89
sg26
I1
sg27
I84
sa(dp1306
g21
VELEANOROFAQUITAINE
p1307
sg23
V22x2
p1308
sg25
I81
sg26
I2
sg27
I87
sa(dp1309
g21
VEMMAS JOY
p1310
sg23
V1x1
p1311
sg25
I99
sg26
I3
sg27
I94
sa(dp1312
g21
VGETAWAY MIXIE
p1313
sg23
Vx0x2x
p1314
sg25
I74
sg26
I4
sg27
I73
sa(dp1315
g21
VGIVING BACK
p1316
sg23
V10x1
p1317
sg25
I92
sg26
I5
sg27
I81
sa(dp1318
g21
VHOTTER THAN HELL
p1319
sg23
V2x
p1320
sg25
I84
sg26
I6
sg27
I90
sa(dp1321
g21
VKISSESFORKATIE
p1322
sg23
V3x13
p1323
sg25
I93
sg26
I7
sg27
I100
sa(dp1324
g21
VMAGNETIZE
p1325
sg23
V4
p1326
sg25
I72
sg26
I8
sg27
I76
sa(dp1327
g21
VMIDNIGHT GLEN
p1328
sg23
g310
sg25
I71
sg26
I9
sg27
I0
sa(dp1329
g21
VREGARDING RUTH
p1330
sg23
V39x4
p1331
sg25
I66
sg26
I10
sg27
I69
sa(dp1332
g21
VSILVER FOREVER
p1333
sg23
V1x1
p1334
sg25
I100
sg26
I11
sg27
I96
sa(dp1335
g21
VTIMETOCHILL
p1336
sg23
V635x1
p1337
sg25
I78
sg26
I12
sg27
I78
sa(dp1338
g21
VTOODLEPIP
p1339
sg23
g310
sg25
I76
sg26
I13
sg27
I0
sasg67
(lp1340
sssI1544368500
(dp1341
g2
Vhttp://www.skyracing.com.au/index.php?component=racing&task=race&id=108669609&meetingid=107748754&Itemid=89
p1342
sg4
V29040856.1515
p1343
sg6
(dp1344
g8
(lp1345
(lp1346
I4
aI3
aI2
aI1
aa(lp1347
I4
aI7
aI2
aI5
aa(lp1348
I4
aI10
aI11
aI8
aa(lp1349
I6
aI7
aI10
aI11
aa(lp1350
I7
aI4
aI8
aI10
aa(lp1351
I3
aI4
aI2
aI1
aa(lp1352
I2
aI4
aI3
aI1
aa(lp1353
I4
aI7
aI3
aI2
aasg18
(lp1354
(dp1355
g21
VSCALES OF JUSTICE
p1356
sg23
V86x2x
p1357
sg25
I90
sg26
I1
sg27
I85
sa(dp1358
g21
VTRIANGLE ROCK
p1359
sg23
V845x2
p1360
sg25
I100
sg26
I2
sg27
I89
sa(dp1361
g21
VSILK OR SCARLET
p1362
sg23
V4862x
p1363
sg25
I94
sg26
I3
sg27
I94
sa(dp1364
g21
VBUDARRI
p1365
sg23
V2x733
p1366
sg25
I99
sg26
I4
sg27
I100
sa(dp1367
g21
VST GEORGE'S OVAL
p1368
sg23
V40x05
p1369
sg25
I72
sg26
I5
sg27
I66
sa(dp1370
g21
VKATALYSTIC
p1371
sg23
V47x4x
p1372
sg25
I75
sg26
I6
sg27
I70
sa(dp1373
g21
VLUVLY BOY BLUE
p1374
sg23
V3x98
p1375
sg25
I74
sg26
I7
sg27
I69
sa(dp1376
g21
VHUMPS AND BUMPS
p1377
sg23
V906x1
p1378
sg25
I87
sg26
I8
sg27
I73
sa(dp1379
g21
VCUDGEL
p1380
sg23
V907x
p1381
sg25
I62
sg26
I9
sg27
I58
sa(dp1382
g21
VBORDER VICTOR
p1383
sg23
V20x52
p1384
sg25
I79
sg26
I10
sg27
I75
sa(dp1385
g21
VCHOCOLAT NOIR
p1386
sg23
V0x604
p1387
sg25
I83
sg26
I11
sg27
I81
sa(dp1388
g21
VHEATHER BURNING
p1389
sg23
V906x6
p1390
sg25
I68
sg26
I12
sg27
I64
sa(dp1391
g21
VK O KENNY
p1392
sg23
V9020x
p1393
sg25
I65
sg26
I13
sg27
I60
sa(dp1394
g21
VEXCALIBUR
p1395
sg23
Vx30x6
p1396
sg25
I85
sg26
I14
sg27
I83
sasg67
(lp1397
sssI1544369400
(dp1398
g2
Vhttp://www.skyracing.com.au/index.php?component=racing&task=race&id=108669639&meetingid=107748738&Itemid=89
p1399
sg4
V29040811.1530
p1400
sg6
(dp1401
g8
(lp1402
(lp1403
I9
aI4
aI2
aI5
aa(lp1404
I2
aI5
aI4
aI9
aa(lp1405
I4
aI3
aI9
aI11
aa(lp1406
I2
aI5
aI4
aI3
aa(lp1407
I2
aI9
aI4
aI5
aa(lp1408
I4
aI9
aI2
aI5
aa(lp1409
I2
aI9
aI4
aI5
aa(lp1410
I4
aI2
aI9
aI5
aasg18
(lp1411
(dp1412
g21
VLORD GETAWAY
p1413
sg23
Vx2x60
p1414
sg25
I77
sg26
I1
sg27
I68
sa(dp1415
g21
VTHE BOSS'S DREAM
p1416
sg23
V565x0
p1417
sg25
I100
sg26
I2
sg27
I90
sa(dp1418
g21
VOVER THE ARCH
p1419
sg23
V45x84
p1420
sg25
I70
sg26
I3
sg27
I69
sa(dp1421
g21
VBOUGHTBEFORELUNCH
p1422
sg23
V3x571
p1423
sg25
I96
sg26
I4
sg27
I95
sa(dp1424
g21
VBLACKMILL
p1425
sg23
V5495x
p1426
sg25
I91
sg26
I5
sg27
I87
sa(dp1427
g21
VTANACANDO
p1428
sg23
V3x0x5
p1429
sg25
I85
sg26
I6
sg27
I80
sa(dp1430
g21
VFEARSOME FRED
p1431
sg23
V837x4
p1432
sg25
I79
sg26
I7
sg27
I75
sa(dp1433
g21
VARTHUR'S REUBEN
p1434
sg23
V59x43
p1435
sg25
I83
sg26
I8
sg27
I78
sa(dp1436
g21
VDALKADAM
p1437
sg23
V385x2
p1438
sg25
I94
sg26
I9
sg27
I100
sa(dp1439
g21
VEATON MILLER
p1440
sg23
V23x35
p1441
sg25
I87
sg26
I10
sg27
I83
sa(dp1442
g21
VSTONEBRIGG LEGEND
p1443
sg23
V385x4
p1444
sg25
I73
sg26
I11
sg27
I71
sasg67
(lp1445
sssI1544360700
(dp1446
g2
Vhttp://www.skyracing.com.au/index.php?component=racing&task=race&id=108669605&meetingid=107748754&Itemid=89
p1447
sg4
V29040856.1305
p1448
sg6
(dp1449
g8
(lp1450
(lp1451
I10
aI1
aI8
aI3
aa(lp1452
I7
aI3
aI1
aI5
aa(lp1453
I1
aI3
aI13
aI14
aa(lp1454
I2
aI5
aI4
aI8
aa(lp1455
I12
aI3
aI6
aI15
aa(lp1456
I10
aI1
aI3
aI8
aa(lp1457
I3
aI2
aI1
aI8
aa(lp1458
I1
aI3
aI10
aI8
aasg18
(lp1459
(dp1460
g21
VCALETT MAD
p1461
sg23
Vx9x45
p1462
sg25
I95
sg26
I1
sg27
I97
sa(dp1463
g21
VMYSTEREE
p1464
sg23
Vx03x0
p1465
sg25
I92
sg26
I2
sg27
I88
sa(dp1466
g21
VPROGRESS DRIVE
p1467
sg23
V127x4
p1468
sg25
I100
sg26
I3
sg27
I93
sa(dp1469
g21
VDAWSON CITY
p1470
sg23
V126x8
p1471
sg25
I71
sg26
I4
sg27
I73
sa(dp1472
g21
VLOOKING WELL
p1473
sg23
Vx03x9
p1474
sg25
I87
sg26
I5
sg27
I70
sa(dp1475
g21
VEASY STREET
p1476
sg23
V57227
p1477
sg25
I84
sg26
I6
sg27
I78
sa(dp1478
g21
VAUBUSSON
p1479
sg23
V24x57
p1480
sg25
I79
sg26
I7
sg27
I82
sa(dp1481
g21
VWEST OF THE EDGE
p1482
sg23
V220x4
p1483
sg25
I93
sg26
I8
sg27
I95
sa(dp1484
g21
VDANCING SHADOW
p1485
sg23
V4x3x8
p1486
sg25
I73
sg26
I9
sg27
I76
sa(dp1487
g21
VZERACHIEL
p1488
sg23
Vx241x
p1489
sg25
I99
sg26
I10
sg27
I100
sa(dp1490
g21
VHARRY THE VIKING
p1491
sg23
Vx07x7
p1492
sg25
I68
sg26
I11
sg27
I68
sa(dp1493
g21
VASCOT DE BRUYERE
p1494
sg23
V6x17x
p1495
sg25
I80
sg26
I12
sg27
I86
sa(dp1496
g21
VCARRIGDHOUN
p1497
sg23
V4x636
p1498
sg25
I66
sg26
I13
sg27
I67
sa(dp1499
g21
VTOTAL ASSETS
p1500
sg23
V3x061
p1501
sg25
I89
sg26
I14
sg27
I90
sa(dp1502
g21
VBRIGHT PROSPECT
p1503
sg23
Vx5x53
p1504
sg25
I77
sg26
I15
sg27
I85
sa(dp1505
g21
VSCOTSWELL
p1506
sg23
Vx75x8
p1507
sg25
I65
sg26
I16
sg27
I64
sasg67
(lp1508
sss.