(dp0
I1544450400
(dp1
S'skyracing_url'
p2
Vhttp://www.skyracing.com.au/index.php?component=racing&task=race&id=108732340&meetingid=108213296&Itemid=89
p3
sS'betfair_raceid'
p4
V29043787.1400
p5
sS'dat2'
p6
(dp7
S'ratings_auto'
p8
(lp9
(lp10
I3
aI11
aI6
aI2
aa(lp11
I6
aI10
aI2
aI3
aa(lp12
I8
aI7
aI11
aI6
aa(lp13
I10
aI2
aI3
aI7
aa(lp14
I10
aI8
aI3
aI2
aa(lp15
I6
aI3
aI11
aI1
aa(lp16
I3
aI10
aI6
aI2
aa(lp17
I3
aI6
aI10
aI11
aasS'horse_details'
p18
(lp19
(dp20
S'horse_name'
p21
VHE'S A GOER
p22
sS'horse_form'
p23
Vx4120
p24
sS'rating_2'
p25
I89
sS'horse_number'
p26
I1
sS'rating_1'
p27
I87
sa(dp28
g21
VTHE CANNISTER MAN
p29
sg23
V0421x
p30
sg25
I91
sg26
I2
sg27
I89
sa(dp31
g21
VCLAYTON
p32
sg23
V4172x
p33
sg25
I100
sg26
I3
sg27
I100
sa(dp34
g21
VEDDIEMAURICE
p35
sg23
V5404x
p36
sg25
I73
sg26
I4
sg27
I73
sa(dp37
g21
VROYAL SUNDAY
p38
sg23
Vx19x0
p39
sg25
I81
sg26
I5
sg27
I81
sa(dp40
g21
VVOLPONE JELOIS
p41
sg23
V6x632
p42
sg25
I99
sg26
I6
sg27
I93
sa(dp43
g21
VGREGARIOUS
p44
sg23
V34x00
p45
sg25
I76
sg26
I7
sg27
I78
sa(dp46
g21
VCHIEF BRODY
p47
sg23
V0x1x2
p48
sg25
I78
sg26
I8
sg27
I85
sa(dp49
g21
VHARMONISE
p50
sg23
V57x40
p51
sg25
I72
sg26
I9
sg27
I71
sa(dp52
g21
VTHE GIPPER
p53
sg23
V4x47x
p54
sg25
I94
sg26
I10
sg27
I75
sa(dp55
g21
VODEN
p56
sg23
Vx0x99
p57
sg25
I85
sg26
I11
sg27
I97
sasS'ratings_manual'
p58
(lp59
sssI1544446800
(dp60
g2
Vhttp://www.skyracing.com.au/index.php?component=racing&task=race&id=108732338&meetingid=108213296&Itemid=89
p61
sg4
V29043787.1300
p62
sg6
(dp63
g8
(lp64
(lp65
I2
aI1
aI6
aI5
aa(lp66
I2
aI4
aI3
aI5
aa(lp67
I4
aI3
aI5
aI2
aa(lp68
I2
aI4
aI5
aI6
aa(lp69
I2
aI5
aI6
aI1
aa(lp70
I2
aI1
aI6
aI5
aa(lp71
I2
aI1
aI6
aI5
aa(lp72
I2
aI5
aI4
aI1
aasg18
(lp73
(dp74
g21
VABLAZE
p75
sg23
V56007
p76
sg25
I98
sg26
I1
sg27
I95
sa(dp77
g21
VCODED MESSAGE
p78
sg23
V634x3
p79
sg25
I100
sg26
I2
sg27
I100
sa(dp80
g21
VIMPULSIVE LEADER
p81
sg23
V50x65
p82
sg25
I78
sg26
I3
sg27
I79
sa(dp83
g21
VLADY CHARTREUSE
p84
sg23
V6x07
p85
sg25
I83
sg26
I4
sg27
I84
sa(dp86
g21
VSEE FOREVER
p87
sg23
V2x0
p88
sg25
I87
sg26
I5
sg27
I86
sa(dp89
g21
VASTRA VIA
p90
sg23
V0
p91
sg25
I93
sg26
I6
sg27
I94
sasg58
(lp92
sssI1544448600
(dp93
g2
Vhttp://www.skyracing.com.au/index.php?component=racing&task=race&id=108732339&meetingid=108213296&Itemid=89
p94
sg4
V29043787.1330
p95
sg6
(dp96
g8
(lp97
(lp98
I2
aI1
aI3
aI6
aa(lp99
I1
aI3
aI5
aI2
aa(lp100
I1
aI9
aI4
aI6
aa(lp101
I1
aI2
aI6
aI7
aa(lp102
I3
aI5
aI2
aI8
aa(lp103
I2
aI1
aI3
aI6
aa(lp104
I2
aI3
aI5
aI6
aa(lp105
I1
aI2
aI3
aI6
aasg18
(lp106
(dp107
g21
VPINK GIN
p108
sg23
V795x4
p109
sg25
I84
sg26
I1
sg27
I99
sa(dp110
g21
VHOW'S MY FRIEND
p111
sg23
V2111x
p112
sg25
I100
sg26
I2
sg27
I100
sa(dp113
g21
VFOR CARMEL
p114
sg23
V081x6
p115
sg25
I99
sg26
I3
sg27
I90
sa(dp116
g21
VTZAR DE L'ELFE
p117
sg23
V48x69
p118
sg25
I65
sg26
I4
sg27
I71
sa(dp119
g21
VVERY LIVE
p120
sg23
V20x2x
p121
sg25
I91
sg26
I5
sg27
I83
sa(dp122
g21
VPRAY FOR A RAINBOW
p123
sg23
V324x2
p124
sg25
I89
sg26
I6
sg27
I89
sa(dp125
g21
VBIG TIME FRANK
p126
sg23
V0334x
p127
sg25
I80
sg26
I7
sg27
I80
sa(dp128
g21
VBURGESS DREAM
p129
sg23
V381x9
p130
sg25
I69
sg26
I8
sg27
I66
sa(dp131
g21
VSNOWBALL
p132
sg23
V074x5
p133
sg25
I73
sg26
I9
sg27
I76
sasg58
(lp134
sssI1544444100
(dp135
g2
Vhttp://www.skyracing.com.au/index.php?component=racing&task=race&id=108732322&meetingid=108213280&Itemid=89
p136
sg4
V29043789.1215
p137
sg6
(dp138
g8
(lp139
(lp140
I4
aI1
aI6
aI3
aa(lp141
I1
aI5
aI4
aI6
aa(lp142
I1
aI4
aI6
aI5
aa(lp143
I3
aI2
aI4
aI1
aa(lp144
I1
aI6
aI5
aI4
aa(lp145
I1
aI4
aI3
aI6
aa(lp146
I1
aI6
aI4
aI3
aa(lp147
I1
aI4
aI6
aI3
aasg18
(lp148
(dp149
g21
VGOLDEN JEFFREY
p150
sg23
V96622
p151
sg25
I100
sg26
I1
sg27
I95
sa(dp152
g21
VBALLYCRYSTAL COURT
p153
sg23
V04x6x
p154
sg25
I84
sg26
I2
sg27
I78
sa(dp155
g21
VSURF AND TURF
p156
sg23
V74x4x
p157
sg25
I87
sg26
I3
sg27
I82
sa(dp158
g21
VNENDRUM
p159
sg23
V2x346
p160
sg25
I97
sg26
I4
sg27
I100
sa(dp161
g21
VMAX LIEBERMANN
p162
sg23
V76567
p163
sg25
I77
sg26
I5
sg27
I76
sa(dp164
g21
VOUTCROP
p165
sg23
V90313
p166
sg25
I93
sg26
I6
sg27
I91
sa(dp167
g21
VGREEN ZONE
p168
sg23
V43285
p169
sg25
I79
sg26
I7
sg27
I72
sasg58
(lp170
sssI1544451300
(dp171
g2
Vhttp://www.skyracing.com.au/index.php?component=racing&task=race&id=108732326&meetingid=108213280&Itemid=89
p172
sg4
V29043789.1415
p173
sg6
(dp174
g8
(lp175
(lp176
I3
aI7
aI5
aI6
aa(lp177
I7
aI3
aI5
aI6
aa(lp178
I7
aI3
aI5
aI6
aa(lp179
I7
aI3
aI5
aI6
aa(lp180
I3
aI5
aI6
aI7
aa(lp181
I3
aI7
aI5
aI4
aa(lp182
I6
aI7
aI3
aI5
aa(lp183
I3
aI7
aI5
aI6
aasg18
(lp184
(dp185
g21
VBARNAY
p186
sg23
V21006
p187
sg25
I78
sg26
I1
sg27
I80
sa(dp188
g21
VDON'T THINK SO
p189
sg23
V00
p190
sg25
I76
sg26
I2
sg27
I76
sa(dp191
g21
VLIVA
p192
sg23
V45042
p193
sg25
I100
sg26
I3
sg27
I100
sa(dp194
g21
VMARBLE BAR
p195
sg23
Vx5087
p196
sg25
I84
sg26
I4
sg27
I81
sa(dp197
g21
VPADDY THE CHEF
p198
sg23
V569x6
p199
sg25
I89
sg26
I5
sg27
I90
sa(dp200
g21
VCAN CAN SIXTY TWO
p201
sg23
Vx13x6
p202
sg25
I94
sg26
I6
sg27
I85
sa(dp203
g21
VSARVI
p204
sg23
V65184
p205
sg25
I97
sg26
I7
sg27
I98
sasg58
(lp206
sssI1544445000
(dp207
g2
Vhttp://www.skyracing.com.au/index.php?component=racing&task=race&id=108732337&meetingid=108213296&Itemid=89
p208
sg4
V29043787.1230
p209
sg6
(dp210
g8
(lp211
(lp212
I8
aI2
aI6
aI5
aa(lp213
I2
aI8
aI6
aI5
aa(lp214
I2
aI6
aI9
aI1
aa(lp215
I2
aI5
aI8
aI6
aa(lp216
I8
aI6
aI5
aI4
aa(lp217
I6
aI8
aI2
aI5
aa(lp218
I8
aI4
aI2
aI3
aa(lp219
I2
aI8
aI6
aI5
aasg18
(lp220
(dp221
g21
VGOLDEN HOUR
p222
sg23
V8x
p223
sg25
I74
sg26
I1
sg27
I82
sa(dp224
g21
VJIMMI CHEW
p225
sg23
V2x5
p226
sg25
I94
sg26
I2
sg27
I98
sa(dp227
g21
VMONTANA GREY
p228
sg23
V
p229
sg25
I85
sg26
I3
sg27
I0
sa(dp230
g21
VNIMBY
p231
sg23
g229
sg25
I96
sg26
I4
sg27
I0
sa(dp232
g21
VSOME BOY MCCOY
p233
sg23
V0x
p234
sg25
I79
sg26
I5
sg27
I84
sa(dp235
g21
VTHE DARLEY LAMA
p236
sg23
V93
p237
sg25
I84
sg26
I6
sg27
I88
sa(dp238
g21
VTHOMAS CROMWELL
p239
sg23
g229
sg25
I72
sg26
I7
sg27
I0
sa(dp240
g21
VTRIBESMANS GLORY
p241
sg23
V1x
p242
sg25
I100
sg26
I8
sg27
I100
sa(dp243
g21
VW S GILBERT
p244
sg23
V00
p245
sg25
I62
sg26
I9
sg27
I77
sa(dp246
g21
VCREM FRESH
p247
sg23
g229
sg25
I67
sg26
I10
sg27
I0
sasg58
(lp248
sssI1544445900
(dp249
g2
Vhttp://www.skyracing.com.au/index.php?component=racing&task=race&id=108732323&meetingid=108213280&Itemid=89
p250
sg4
V29043789.1245
p251
sg6
(dp252
g8
(lp253
(lp254
I1
aI4
aI3
aI2
aa(lp255
I1
aI4
aI3
aI2
aa(lp256
I1
aI4
aI2
aI3
aa(lp257
I1
aI3
aI2
aI4
aa(lp258
I1
aI3
aI4
aI2
aa(lp259
I1
aI4
aI3
aI2
aa(lp260
I1
aI4
aI3
aI2
aa(lp261
I1
aI4
aI3
aI2
aasg18
(lp262
(dp263
g21
VDOCTOR DEX
p264
sg23
V5x2x2
p265
sg25
I100
sg26
I1
sg27
I100
sa(dp266
g21
VGET OUT THE GATE
p267
sg23
Vx446x
p268
sg25
I87
sg26
I2
sg27
I88
sa(dp269
g21
VNEFYN POINT
p270
sg23
V3x
p271
sg25
I90
sg26
I3
sg27
I94
sa(dp272
g21
VTHIBAULT
p273
sg23
V3x4x3
p274
sg25
I96
sg26
I4
sg27
I95
sasg58
(lp275
sssI1544453100
(dp276
g2
Vhttp://www.skyracing.com.au/index.php?component=racing&task=race&id=108732327&meetingid=108213280&Itemid=89
p277
sg4
V29043789.1445
p278
sg6
(dp279
g8
(lp280
(lp281
I3
aI5
aI2
aI6
aa(lp282
I2
aI5
aI1
aI9
aa(lp283
I5
aI1
aI9
aI4
aa(lp284
I2
aI1
aI5
aI9
aa(lp285
I2
aI5
aI9
aI1
aa(lp286
I2
aI5
aI3
aI6
aa(lp287
I5
aI3
aI2
aI6
aa(lp288
I5
aI2
aI1
aI3
aasg18
(lp289
(dp290
g21
VTRADITIONAL DANCER
p291
sg23
V64232
p292
sg25
I77
sg26
I1
sg27
I74
sa(dp293
g21
VSWORD OF FATE
p294
sg23
V5114x
p295
sg25
I91
sg26
I2
sg27
I92
sa(dp296
g21
VCOURT LIABILITY
p297
sg23
Vx111x
p298
sg25
I100
sg26
I3
sg27
I100
sa(dp299
g21
VFLY VINNIE
p300
sg23
V198x5
p301
sg25
I68
sg26
I4
sg27
I63
sa(dp302
g21
VISLAND HEIGHTS
p303
sg23
Vx24x1
p304
sg25
I95
sg26
I5
sg27
I98
sa(dp305
g21
VMONTANNA
p306
sg23
V211x5
p307
sg25
I85
sg26
I6
sg27
I89
sa(dp308
g21
VBLUNDER BUSS
p309
sg23
Vx1x35
p310
sg25
I70
sg26
I7
sg27
I69
sa(dp311
g21
VARTHURS SECRET
p312
sg23
V476x2
p313
sg25
I78
sg26
I8
sg27
I78
sa(dp314
g21
VCRAIG STAR
p315
sg23
V95x82
p316
sg25
I81
sg26
I9
sg27
I83
sasg58
(lp317
sssI1544454000
(dp318
g2
Vhttp://www.skyracing.com.au/index.php?component=racing&task=race&id=108732342&meetingid=108213296&Itemid=89
p319
sg4
V29043787.1500
p320
sg6
(dp321
g8
(lp322
(lp323
I1
aI8
aI3
aI7
aa(lp324
I1
aI6
aI4
aI8
aa(lp325
I1
aI6
aI7
aI4
aa(lp326
I1
aI8
aI6
aI4
aa(lp327
I8
aI6
aI1
aI9
aa(lp328
I8
aI1
aI3
aI7
aa(lp329
I8
aI1
aI4
aI3
aa(lp330
I1
aI8
aI6
aI3
aasg18
(lp331
(dp332
g21
VCIGARISI
p333
sg23
V316x6
p334
sg25
I100
sg26
I1
sg27
I100
sa(dp335
g21
VFLIGHT TO MILAN
p336
sg23
V3258x
p337
sg25
I67
sg26
I2
sg27
I63
sa(dp338
g21
VMAX DO BRAZIL
p339
sg23
V8036x
p340
sg25
I86
sg26
I3
sg27
I91
sa(dp341
g21
VTELEGRAPH PLACE
p342
sg23
Vx41x0
p343
sg25
I91
sg26
I4
sg27
I80
sa(dp344
g21
VILLTELLMEMA
p345
sg23
V237x0
p346
sg25
I79
sg26
I5
sg27
I75
sa(dp347
g21
VSOME CAN DANCE
p348
sg23
V45x82
p349
sg25
I72
sg26
I6
sg27
I67
sa(dp350
g21
VDEEBAJ
p351
sg23
V072x5
p352
sg25
I84
sg26
I7
sg27
I85
sa(dp353
g21
VHERESMYNUMBER
p354
sg23
V1219x
p355
sg25
I99
sg26
I8
sg27
I96
sa(dp356
g21
VMINELLA GATHERING
p357
sg23
V2650x
p358
sg25
I73
sg26
I9
sg27
I72
sa(dp359
g21
VELUSIVE COWBOY
p360
sg23
V70x97
p361
sg25
I62
sg26
I10
sg27
I57
sasg58
(lp362
sssI1544452200
(dp363
g2
Vhttp://www.skyracing.com.au/index.php?component=racing&task=race&id=108732341&meetingid=108213296&Itemid=89
p364
sg4
V29043787.1430
p365
sg6
(dp366
g8
(lp367
(lp368
I2
aI1
aI3
aI4
aa(lp369
I1
aI2
aI3
aI4
aa(lp370
I1
aI2
aI3
aI4
aa(lp371
I1
aI2
aI3
aI4
aa(lp372
I2
aI1
aI3
aI4
aa(lp373
I2
aI1
aI3
aI4
aa(lp374
I2
aI1
aI3
aI4
aa(lp375
I1
aI2
aI3
aI4
aasg18
(lp376
(dp377
g21
VBALLY LONGFORD
p378
sg23
V001x4
p379
sg25
I97
sg26
I1
sg27
I95
sa(dp380
g21
VJENNYS SURPRISE
p381
sg23
V9122x
p382
sg25
I100
sg26
I2
sg27
I100
sa(dp383
g21
VBALLYHEIGUE BAY
p384
sg23
V1232x
p385
sg25
I92
sg26
I3
sg27
I91
sa(dp386
g21
VSIZING BRISBANE
p387
sg23
V82x6x
p388
sg25
I88
sg26
I4
sg27
I87
sasg58
(lp389
sssI1544457600
(dp390
g2
Vhttp://www.skyracing.com.au/index.php?component=racing&task=race&id=108732398&meetingid=108213357&Itemid=89
p391
sg4
V29042369.1600
p392
sg6
(dp393
g8
(lp394
(lp395
I6
aI2
aI1
aI4
aa(lp396
I6
aI1
aI2
aI4
aa(lp397
I6
aI1
aI4
aI2
aa(lp398
I6
aI2
aI1
aI4
aa(lp399
I6
aI2
aI1
aI3
aa(lp400
I6
aI2
aI1
aI4
aa(lp401
I6
aI2
aI1
aI4
aa(lp402
I6
aI2
aI1
aI4
aasg18
(lp403
(dp404
g21
VASTONE MAN
p405
sg23
V88676
p406
sg25
I92
sg26
I1
sg27
I92
sa(dp407
g21
VINVOLVED
p408
sg23
V42x
p409
sg25
I95
sg26
I2
sg27
I98
sa(dp410
g21
VSAVLAD
p411
sg23
g229
sg25
I80
sg26
I3
sg27
I0
sa(dp412
g21
VVIENTO DE CONDOR
p413
sg23
V9
p414
sg25
I89
sg26
I4
sg27
I89
sa(dp415
g21
VNICKY NOOK
p416
sg23
g229
sg25
I82
sg26
I5
sg27
I0
sa(dp417
g21
VKYNANCE
p418
sg23
V32224
p419
sg25
I100
sg26
I6
sg27
I100
sasg58
(lp420
sssI1544447700
(dp421
g2
Vhttp://www.skyracing.com.au/index.php?component=racing&task=race&id=108732324&meetingid=108213280&Itemid=89
p422
sg4
V29043789.1315
p423
sg6
(dp424
g8
(lp425
(lp426
I3
aI1
aI2
aa(lp427
I1
aI3
aI2
aa(lp428
I1
aI2
aI3
aa(lp429
I1
aI3
aI2
aa(lp430
I3
aI1
aI2
aa(lp431
I1
aI3
aI2
aa(lp432
I3
aI1
aI2
aa(lp433
I1
aI3
aI2
aasg18
(lp434
(dp435
g21
VWOLFCATCHER
p436
sg23
V1x656
p437
sg25
I95
sg26
I1
sg27
I97
sa(dp438
g21
VMY CHARITY
p439
sg23
V882x8
p440
sg25
I92
sg26
I2
sg27
I92
sa(dp441
g21
VSPECIAL PREP
p442
sg23
V1x38x
p443
sg25
I100
sg26
I3
sg27
I100
sasg58
(lp444
sssI1544455800
(dp445
g2
Vhttp://www.skyracing.com.au/index.php?component=racing&task=race&id=108732397&meetingid=108213357&Itemid=89
p446
sg4
V29042369.1530
p447
sg6
(dp448
g8
(lp449
(lp450
I3
aI7
aI12
aI11
aa(lp451
I5
aI2
aI9
aI7
aa(lp452
I9
aI7
aI3
aI11
aa(lp453
I11
aI13
aI5
aI3
aa(lp454
I5
aI3
aI7
aI11
aa(lp455
I7
aI3
aI12
aI11
aa(lp456
I1
aI7
aI5
aI3
aa(lp457
I3
aI7
aI5
aI11
aasg18
(lp458
(dp459
g21
VCHAMPAGNE RULES
p460
sg23
V00920
p461
sg25
I97
sg26
I1
sg27
I76
sa(dp462
g21
VDUTCH ARTIST
p463
sg23
V00052
p464
sg25
I70
sg26
I2
sg27
I70
sa(dp465
g21
VMOSSY'S LODGE
p466
sg23
V31252
p467
sg25
I100
sg26
I3
sg27
I100
sa(dp468
g21
VROSEMAY
p469
sg23
V54237
p470
sg25
I91
sg26
I4
sg27
I83
sa(dp471
g21
VSATCHVILLE FLYER
p472
sg23
V04307
p473
sg25
I85
sg26
I5
sg27
I80
sa(dp474
g21
VTOP OFFER
p475
sg23
V21687
p476
sg25
I70
sg26
I6
sg27
I67
sa(dp477
g21
VBOND ANGEL
p478
sg23
V50318
p479
sg25
I94
sg26
I7
sg27
I95
sa(dp480
g21
VPEACHEY CARNEHAN
p481
sg23
V28807
p482
sg25
I77
sg26
I8
sg27
I72
sa(dp483
g21
VCLIVE CLIFTON
p484
sg23
Vx7658
p485
sg25
I66
sg26
I9
sg27
I65
sa(dp486
g21
VVOICE OF A LEADER
p487
sg23
V78256
p488
sg25
I73
sg26
I10
sg27
I74
sa(dp489
g21
VMAGICAL MOLLY JOE
p490
sg23
V67501
p491
sg25
I79
sg26
I11
sg27
I87
sa(dp492
g21
VFINAL ATTACK
p493
sg23
Vx0133
p494
sg25
I89
sg26
I12
sg27
I91
sa(dp495
g21
VIDOL DEPUTY
p496
sg23
V42x00
p497
sg25
I81
sg26
I13
sg27
I63
sasg58
(lp498
sssI1544454900
(dp499
g2
Vhttp://www.skyracing.com.au/index.php?component=racing&task=race&id=108732328&meetingid=108213280&Itemid=89
p500
sg4
V29043789.1515
p501
sg6
(dp502
g8
(lp503
(lp504
I1
aI2
aI3
aI4
aa(lp505
I2
aI1
aI3
aI4
aa(lp506
I2
aI1
aI3
aI4
aa(lp507
I2
aI1
aI3
aI4
aa(lp508
I3
aI1
aI4
aI2
aa(lp509
I1
aI2
aI3
aI4
aa(lp510
I1
aI2
aI3
aI4
aa(lp511
I1
aI2
aI3
aI4
aasg18
(lp512
(dp513
g21
VTHYNE FOR GOLD
p514
sg23
V441x1
p515
sg25
I100
sg26
I1
sg27
I100
sa(dp516
g21
VELMONO
p517
sg23
V223x2
p518
sg25
I98
sg26
I2
sg27
I98
sa(dp519
g21
VATTENTION PLEASE
p520
sg23
V3x825
p521
sg25
I93
sg26
I3
sg27
I94
sa(dp522
g21
VSHAIYZAR
p523
sg23
V65357
p524
sg25
I87
sg26
I4
sg27
I85
sa(dp525
g21
VTOP CAT DJ
p526
sg23
Vx4663
p527
sg25
I84
sg26
I5
sg27
I83
sasg58
(lp528
sssI1544459400
(dp529
g2
Vhttp://www.skyracing.com.au/index.php?component=racing&task=race&id=108732399&meetingid=108213357&Itemid=89
p530
sg4
V29042369.1630
p531
sg6
(dp532
g8
(lp533
(lp534
I2
aI5
aI1
aI3
aa(lp535
I2
aI6
aI3
aI5
aa(lp536
I2
aI1
aI3
aI4
aa(lp537
I1
aI3
aI2
aI7
aa(lp538
I2
aI8
aI3
aI4
aa(lp539
I3
aI2
aI5
aI1
aa(lp540
I1
aI2
aI5
aI3
aa(lp541
I2
aI3
aI1
aI5
aasg18
(lp542
(dp543
g21
VSTEEL TRAIN
p544
sg23
V7x0x8
p545
sg25
I98
sg26
I1
sg27
I90
sa(dp546
g21
VUNFORGIVING MINUTE
p547
sg23
V72963
p548
sg25
I100
sg26
I2
sg27
I100
sa(dp549
g21
VLOS CAMACHOS
p550
sg23
V32920
p551
sg25
I94
sg26
I3
sg27
I77
sa(dp552
g21
VMISTY BIRNAM
p553
sg23
V39055
p554
sg25
I84
sg26
I4
sg27
I68
sa(dp555
g21
VZAPPER CASS
p556
sg23
V70015
p557
sg25
I88
sg26
I5
sg27
I96
sa(dp558
g21
VTAVENER
p559
sg23
V7705x
p560
sg25
I76
sg26
I6
sg27
I65
sa(dp561
g21
VSECONDO
p562
sg23
V760x7
p563
sg25
I78
sg26
I7
sg27
I71
sa(dp564
g21
VANIF
p565
sg23
Vx006x
p566
sg25
I69
sg26
I8
sg27
I59
sa(dp567
g21
VCAPTAIN SEDGWICK
p568
sg23
V53889
p569
sg25
I61
sg26
I9
sg27
I51
sa(dp570
g21
VSHOVEL IT ON
p571
sg23
V46789
p572
sg25
I64
sg26
I10
sg27
I54
sasg58
(lp573
sssI1544449500
(dp574
g2
Vhttp://www.skyracing.com.au/index.php?component=racing&task=race&id=108732325&meetingid=108213280&Itemid=89
p575
sg4
V29043789.1345
p576
sg6
(dp577
g8
(lp578
(lp579
I1
aI3
aI2
aI4
aa(lp580
I1
aI2
aI3
aI4
aa(lp581
I1
aI3
aI2
aI4
aa(lp582
I1
aI3
aI2
aI4
aa(lp583
I3
aI1
aI4
aI2
aa(lp584
I1
aI3
aI2
aI4
aa(lp585
I3
aI1
aI5
aI2
aa(lp586
I1
aI3
aI2
aI4
aasg18
(lp587
(dp588
g21
VONTOPOFTHEWORLD
p589
sg23
V11321
p590
sg25
I100
sg26
I1
sg27
I100
sa(dp591
g21
VMONSIEUR CO
p592
sg23
V45x53
p593
sg25
I91
sg26
I2
sg27
I93
sa(dp594
g21
VCIVIL UNREST
p595
sg23
Vx2223
p596
sg25
I98
sg26
I3
sg27
I97
sa(dp597
g21
VCHAIN OF BEACONS
p598
sg23
V24x34
p599
sg25
I84
sg26
I4
sg27
I87
sa(dp600
g21
VCHARLIE SNOW ANGEL
p601
sg23
V1x6x5
p602
sg25
I88
sg26
I5
sg27
I81
sasg58
(lp603
sss.