(dp0
I1544188800
(dp1
S'skyracing_url'
p2
Vhttp://www.skyracing.com.au/index.php?component=racing&task=race&id=108664366&meetingid=107747502&Itemid=89
p3
sS'betfair_raceid'
p4
V29039645.1320
p5
sS'dat2'
p6
(dp7
S'ratings_auto'
p8
(lp9
(lp10
I1
aI2
aI5
aI3
aa(lp11
I5
aI4
aI6
aI3
aa(lp12
I4
aI6
aI1
aI2
aa(lp13
I4
aI6
aI3
aI2
aa(lp14
I4
aI6
aI5
aI3
aa(lp15
I5
aI1
aI2
aI3
aa(lp16
I1
aI2
aI3
aI5
aa(lp17
I4
aI5
aI6
aI1
aasS'horse_details'
p18
(lp19
(dp20
S'horse_name'
p21
VDENILIQUIN
p22
sS'horse_form'
p23
V1x
p24
sS'rating_2'
p25
I100
sS'horse_number'
p26
I1
sS'rating_1'
p27
I100
sa(dp28
g21
VTORPILLO
p29
sg23
V1x
p30
sg25
I96
sg26
I2
sg27
I96
sa(dp31
g21
VBELARGUS
p32
sg23
V3x11x
p33
sg25
I93
sg26
I3
sg27
I88
sa(dp34
g21
VCASWELL BAY
p35
sg23
V3
p36
sg25
I84
sg26
I4
sg27
I83
sa(dp37
g21
VIL RE DI NESSUNO
p38
sg23
V5388x
p39
sg25
I86
sg26
I5
sg27
I91
sa(dp40
g21
VROUDRAPOUR
p41
sg23
V4x753
p42
sg25
I79
sg26
I6
sg27
I78
sasS'ratings_manual'
p43
(lp44
sssI1544196000
(dp45
g2
Vhttp://www.skyracing.com.au/index.php?component=racing&task=race&id=108664341&meetingid=107747518&Itemid=89
p46
sg4
V29039646.1520
p47
sg6
(dp48
g8
(lp49
(lp50
I3
aI2
aI1
aI4
aa(lp51
I3
aI2
aI1
aI4
aa(lp52
I3
aI1
aI2
aI4
aa(lp53
I3
aI2
aI1
aI4
aa(lp54
I3
aI2
aI5
aI4
aa(lp55
I3
aI2
aI1
aI4
aa(lp56
I3
aI1
aI4
aI2
aa(lp57
I3
aI2
aI5
aI4
aasg18
(lp58
(dp59
g21
VBIG BAD BEAR
p60
sg23
V
p61
sg25
I98
sg26
I1
sg27
I0
sa(dp62
g21
VCELLAR VIE
p63
sg23
V7x
p64
sg25
I89
sg26
I2
sg27
I99
sa(dp65
g21
VCHAMPAGNE WELL
p66
sg23
V371x5
p67
sg25
I100
sg26
I3
sg27
I100
sa(dp68
g21
VDESAI
p69
sg23
g61
sg25
I94
sg26
I4
sg27
I0
sa(dp70
g21
VENZILLERYA
p71
sg23
g61
sg25
I84
sg26
I5
sg27
I0
sa(dp72
g21
VJUSTCALL'M JOHN
p73
sg23
V0x
p74
sg25
I78
sg26
I6
sg27
I91
sasg43
(lp75
sssI1544194800
(dp76
g2
Vhttp://www.skyracing.com.au/index.php?component=racing&task=race&id=108664369&meetingid=107747502&Itemid=89
p77
sg4
V29039645.1500
p78
sg6
(dp79
g8
(lp80
(lp81
I9
aI8
aI3
aI1
aa(lp82
I6
aI1
aI3
aI8
aa(lp83
I8
aI1
aI3
aI4
aa(lp84
I6
aI1
aI5
aI3
aa(lp85
I8
aI1
aI3
aI9
aa(lp86
I3
aI9
aI8
aI1
aa(lp87
I3
aI9
aI8
aI5
aa(lp88
I8
aI3
aI1
aI9
aasg18
(lp89
(dp90
g21
VPETE THE FEAT
p91
sg23
V271x7
p92
sg25
I80
sg26
I1
sg27
I81
sa(dp93
g21
VWICKED WILLY
p94
sg23
V400x5
p95
sg25
I69
sg26
I2
sg27
I85
sa(dp96
g21
VMENDIP EXPRESS
p97
sg23
Vx15x6
p98
sg25
I100
sg26
I3
sg27
I89
sa(dp99
g21
VPERFORM
p100
sg23
Vx94x7
p101
sg25
I68
sg26
I4
sg27
I67
sa(dp102
g21
VPOTTERS CORNER
p103
sg23
V342x9
p104
sg25
I86
sg26
I5
sg27
I74
sa(dp105
g21
VKNOCKANRAWLEY
p106
sg23
V0553x
p107
sg25
I81
sg26
I6
sg27
I78
sa(dp108
g21
VHEY BILL
p109
sg23
V921x6
p110
sg25
I77
sg26
I7
sg27
I69
sa(dp111
g21
VTHOMAS CRAPPER
p112
sg23
V96x01
p113
sg25
I94
sg26
I8
sg27
I97
sa(dp114
g21
VFIFTY SHADES
p115
sg23
V130x2
p116
sg25
I97
sg26
I9
sg27
I100
sasg43
(lp117
sssI1544192100
(dp118
g2
Vhttp://www.skyracing.com.au/index.php?component=racing&task=race&id=108664339&meetingid=107747518&Itemid=89
p119
sg4
V29039646.1415
p120
sg6
(dp121
g8
(lp122
(lp123
I1
aI2
aI3
aI4
aa(lp124
I1
aI2
aI3
aI4
aa(lp125
I3
aI2
aI1
aI5
aa(lp126
I1
aI2
aI3
aI4
aa(lp127
I4
aI2
aI1
aI3
aa(lp128
I2
aI3
aI1
aI4
aa(lp129
I1
aI2
aI4
aI3
aa(lp130
I2
aI1
aI3
aI4
aasg18
(lp131
(dp132
g21
VSOCKSY
p133
sg23
V427x9
p134
sg25
I100
sg26
I1
sg27
I100
sa(dp135
g21
VBRAAVOS
p136
sg23
V354x2
p137
sg25
I97
sg26
I2
sg27
I92
sa(dp138
g21
VTRAVERTINE
p139
sg23
V35344
p140
sg25
I90
sg26
I3
sg27
I87
sa(dp141
g21
VLAC SACRE
p142
sg23
V2242x
p143
sg25
I89
sg26
I4
sg27
I81
sa(dp144
g21
VLATE DATE
p145
sg23
V6x5x0
p146
sg25
I84
sg26
I5
sg27
I77
sasg43
(lp147
sssI1544190000
(dp148
g2
Vhttp://www.skyracing.com.au/index.php?component=racing&task=race&id=108664338&meetingid=107747518&Itemid=89
p149
sg4
V29039646.1340
p150
sg6
(dp151
g8
(lp152
(lp153
I6
aI5
aI1
aI7
aa(lp154
I1
aI7
aI12
aI10
aa(lp155
I5
aI11
aI8
aI4
aa(lp156
I1
aI9
aI6
aI4
aa(lp157
I1
aI8
aI7
aI12
aa(lp158
I6
aI5
aI1
aI7
aa(lp159
I6
aI5
aI1
aI4
aa(lp160
I1
aI6
aI5
aI7
aasg18
(lp161
(dp162
g21
VUBALTIQUE
p163
sg23
V1340x
p164
sg25
I90
sg26
I1
sg27
I92
sa(dp165
g21
VGOLDEN JEFFREY
p166
sg23
V96622
p167
sg25
I89
sg26
I2
sg27
I93
sa(dp168
g21
VRELKADAM
p169
sg23
Vx44x3
p170
sg25
I78
sg26
I3
sg27
I81
sa(dp171
g21
VSCHIAPARANNIE
p172
sg23
V2x3x6
p173
sg25
I93
sg26
I4
sg27
I85
sa(dp174
g21
VAPTERIX
p175
sg23
V41233
p176
sg25
I96
sg26
I5
sg27
I97
sa(dp177
g21
VCULMINATION
p178
sg23
V1593x
p179
sg25
I100
sg26
I6
sg27
I100
sa(dp180
g21
VDRUMS OF WAR
p181
sg23
V2414x
p182
sg25
I82
sg26
I7
sg27
I87
sa(dp183
g21
VNINEPOINTSIXTHREE
p184
sg23
Vx8x02
p185
sg25
I70
sg26
I8
sg27
I74
sa(dp186
g21
VCALL THE COPS
p187
sg23
V4578x
p188
sg25
I84
sg26
I9
sg27
I77
sa(dp189
g21
VSTARPLEX
p190
sg23
V445x0
p191
sg25
I76
sg26
I10
sg27
I68
sa(dp192
g21
VEX S'ELANCE
p193
sg23
Vx7667
p194
sg25
I70
sg26
I11
sg27
I70
sa(dp195
g21
VROCKLIFFE
p196
sg23
V347x4
p197
sg25
I73
sg26
I12
sg27
I78
sasg43
(lp198
sssI1544195400
(dp199
g2
Vhttp://www.skyracing.com.au/index.php?component=racing&task=race&id=108664355&meetingid=107747486&Itemid=89
p200
sg4
V29039653.1510
p201
sg6
(dp202
g8
(lp203
(lp204
I2
aI5
aI8
aI4
aa(lp205
I2
aI1
aI8
aI4
aa(lp206
I2
aI8
aI5
aI9
aa(lp207
I2
aI6
aI11
aI9
aa(lp208
I8
aI9
aI11
aI5
aa(lp209
I2
aI8
aI5
aI11
aa(lp210
I5
aI2
aI1
aI4
aa(lp211
I2
aI8
aI5
aI11
aasg18
(lp212
(dp213
g21
VMALAPIE
p214
sg23
V931x5
p215
sg25
I89
sg26
I1
sg27
I83
sa(dp216
g21
VTHE TWO AMIGOS
p217
sg23
V14x12
p218
sg25
I100
sg26
I2
sg27
I100
sa(dp219
g21
VCALIN DU BRIZAIS
p220
sg23
V44342
p221
sg25
I82
sg26
I3
sg27
I88
sa(dp222
g21
VBIG MEADOW
p223
sg23
V0344x
p224
sg25
I91
sg26
I4
sg27
I92
sa(dp225
g21
VGARRANE
p226
sg23
V10x22
p227
sg25
I99
sg26
I5
sg27
I98
sa(dp228
g21
VCAP HORNER
p229
sg23
V137x5
p230
sg25
I75
sg26
I6
sg27
I73
sa(dp231
g21
VDYLANSEOGHAN
p232
sg23
V311x4
p233
sg25
I74
sg26
I7
sg27
I77
sa(dp234
g21
VFIREBIRD FLYER
p235
sg23
V889x2
p236
sg25
I94
sg26
I8
sg27
I94
sa(dp237
g21
VCRANK EM UP
p238
sg23
V58x32
p239
sg25
I79
sg26
I9
sg27
I78
sa(dp240
g21
VONEIDA TRIBE
p241
sg23
V2186x
p242
sg25
I70
sg26
I10
sg27
I71
sa(dp243
g21
VYANMARE
p244
sg23
V576x0
p245
sg25
I85
sg26
I11
sg27
I84
sasg43
(lp246
sssI1544185500
(dp247
g2
Vhttp://www.skyracing.com.au/index.php?component=racing&task=race&id=108664350&meetingid=107747486&Itemid=89
p248
sg4
V29039653.1225
p249
sg6
(dp250
g8
(lp251
(lp252
I1
aI5
aI4
aI6
aa(lp253
I2
aI1
aI6
aI9
aa(lp254
I1
aI5
aI6
aI2
aa(lp255
I1
aI2
aI6
aI9
aa(lp256
I1
aI9
aI2
aI6
aa(lp257
I1
aI4
aI5
aI6
aa(lp258
I5
aI2
aI1
aI9
aa(lp259
I1
aI2
aI6
aI5
aasg18
(lp260
(dp261
g21
VGET WISHING
p262
sg23
V86x13
p263
sg25
I97
sg26
I1
sg27
I100
sa(dp264
g21
VGALACTIC POWER
p265
sg23
V0x787
p266
sg25
I93
sg26
I2
sg27
I84
sa(dp267
g21
VTOP DECISION
p268
sg23
V24x0x
p269
sg25
I72
sg26
I3
sg27
I73
sa(dp270
g21
VSCALES
p271
sg23
V0924x
p272
sg25
I92
sg26
I4
sg27
I94
sa(dp273
g21
VKATIE CONNELL
p274
sg23
V66x45
p275
sg25
I100
sg26
I5
sg27
I96
sa(dp276
g21
VKALARIKA
p277
sg23
V12x50
p278
sg25
I88
sg26
I6
sg27
I90
sa(dp279
g21
VJIGSAW FINANCIAL
p280
sg23
V157x0
p281
sg25
I86
sg26
I7
sg27
I71
sa(dp282
g21
VTHE MAJOR
p283
sg23
V462x8
p284
sg25
I77
sg26
I8
sg27
I77
sa(dp285
g21
VMINELLA VOUCHER
p286
sg23
V113x0
p287
sg25
I82
sg26
I9
sg27
I78
sa(dp288
g21
VMR LANDO
p289
sg23
V70x07
p290
sg25
I74
sg26
I10
sg27
I81
sa(dp291
g21
VICE KONIG
p292
sg23
Vx344x
p293
sg25
I78
sg26
I11
sg27
I87
sa(dp294
g21
VWAITINONASUNNYDAY
p295
sg23
Vx527x
p296
sg25
I71
sg26
I12
sg27
I70
sasg43
(lp297
sssI1544191500
(dp298
g2
Vhttp://www.skyracing.com.au/index.php?component=racing&task=race&id=108664353&meetingid=107747486&Itemid=89
p299
sg4
V29039653.1405
p300
sg6
(dp301
g8
(lp302
(lp303
I12
aI8
aI13
aI2
aa(lp304
I7
aI4
aI5
aI8
aa(lp305
I8
aI5
aI4
aI9
aa(lp306
I3
aI4
aI8
aI5
aa(lp307
I13
aI12
aI8
aI11
aa(lp308
I8
aI12
aI13
aI9
aa(lp309
I3
aI8
aI12
aI2
aa(lp310
I8
aI12
aI13
aI4
aasg18
(lp311
(dp312
g21
VDE RASHER COUNTER
p313
sg23
V72x30
p314
sg25
I73
sg26
I1
sg27
I78
sa(dp315
g21
VDR DES
p316
sg23
V171x3
p317
sg25
I87
sg26
I2
sg27
I90
sa(dp318
g21
VZAMDY MAN
p319
sg23
V10x5x
p320
sg25
I93
sg26
I3
sg27
I83
sa(dp321
g21
VEAMON AN CNOIC
p322
sg23
V90x85
p323
sg25
I86
sg26
I4
sg27
I76
sa(dp324
g21
VARTHUR'S GIFT
p325
sg23
V440x4
p326
sg25
I72
sg26
I5
sg27
I73
sa(dp327
g21
VCREEP DESBOIS
p328
sg23
V126x0
p329
sg25
I76
sg26
I6
sg27
I70
sa(dp330
g21
VTOWN PARKS
p331
sg23
V144x0
p332
sg25
I68
sg26
I7
sg27
I68
sa(dp333
g21
VSIRUH DU LAC
p334
sg23
V113x1
p335
sg25
I100
sg26
I8
sg27
I97
sa(dp336
g21
VMOLINEAUX
p337
sg23
V231x5
p338
sg25
I79
sg26
I9
sg27
I87
sa(dp339
g21
VDUSKY LARK
p340
sg23
V346x6
p341
sg25
I67
sg26
I10
sg27
I64
sa(dp342
g21
VSHOW ON THE ROAD
p343
sg23
V18x43
p344
sg25
I82
sg26
I11
sg27
I85
sa(dp345
g21
VAWAKE AT MIDNIGHT
p346
sg23
V37x11
p347
sg25
I97
sg26
I12
sg27
I100
sa(dp348
g21
VRISK AND ROLL
p349
sg23
V5x202
p350
sg25
I90
sg26
I13
sg27
I93
sasg43
(lp351
sssI1544197200
(dp352
g2
Vhttp://www.skyracing.com.au/index.php?component=racing&task=race&id=108664356&meetingid=107747486&Itemid=89
p353
sg4
V29039653.1540
p354
sg6
(dp355
g8
(lp356
(lp357
I7
aI11
aI5
aI3
aa(lp358
I11
aI6
aI5
aI3
aa(lp359
I1
aI2
aI3
aI4
aa(lp360
I5
aI11
aI6
aI3
aa(lp361
I5
aI3
aI11
aI7
aa(lp362
I7
aI11
aI3
aI5
aa(lp363
I7
aI3
aI9
aI11
aa(lp364
I11
aI5
aI7
aI3
aasg18
(lp365
(dp366
g21
VARCHIRONDEL
p367
sg23
V0
p368
sg25
I76
sg26
I1
sg27
I79
sa(dp369
g21
VBIG BAMBOO
p370
sg23
g61
sg25
I62
sg26
I2
sg27
I0
sa(dp371
g21
VCASPERS COURT
p372
sg23
V6x1x
p373
sg25
I98
sg26
I3
sg27
I85
sa(dp374
g21
VEASY WOOD
p375
sg23
g61
sg25
I86
sg26
I4
sg27
I0
sa(dp376
g21
VENDLESS FLIGHT
p377
sg23
V35x
p378
sg25
I89
sg26
I5
sg27
I93
sa(dp379
g21
VHALDON HILL
p380
sg23
V4x
p381
sg25
I73
sg26
I6
sg27
I75
sa(dp382
g21
VJASMIN DES BORDES
p383
sg23
V2x
p384
sg25
I100
sg26
I7
sg27
I100
sa(dp385
g21
VLAMANVER BEL AMI
p386
sg23
g61
sg25
I68
sg26
I8
sg27
I0
sa(dp387
g21
VNOT A NAIL
p388
sg23
g61
sg25
I95
sg26
I9
sg27
I0
sa(dp389
g21
VRUPERT VALENTINO
p390
sg23
V0x
p391
sg25
I61
sg26
I10
sg27
I70
sa(dp392
g21
VSPRINGCOMBE JOE
p393
sg23
V28x
p394
sg25
I90
sg26
I11
sg27
I95
sa(dp395
g21
VARCTIC FOOTPRINT
p396
sg23
g61
sg25
I64
sg26
I12
sg27
I0
sa(dp397
g21
VCHETSFORD WATER
p398
sg23
g61
sg25
I79
sg26
I13
sg27
I0
sa(dp399
g21
VDORRANA
p400
sg23
g61
sg25
I72
sg26
I14
sg27
I0
sa(dp401
g21
VQUEEN OF THE COURT
p402
sg23
V201x
p403
sg25
I82
sg26
I15
sg27
I81
sasg43
(lp404
sssI1544184600
(dp405
g2
Vhttp://www.skyracing.com.au/index.php?component=racing&task=race&id=108664335&meetingid=107747518&Itemid=89
p406
sg4
V29039646.1210
p407
sg6
(dp408
g8
(lp409
(lp410
I5
aI2
aI8
aI10
aa(lp411
I2
aI5
aI10
aI6
aa(lp412
I5
aI2
aI8
aI6
aa(lp413
I6
aI2
aI1
aI5
aa(lp414
I5
aI10
aI2
aI3
aa(lp415
I5
aI2
aI8
aI6
aa(lp416
I2
aI5
aI8
aI3
aa(lp417
I5
aI2
aI8
aI6
aasg18
(lp418
(dp419
g21
VRAJAPUR
p420
sg23
V859x4
p421
sg25
I72
sg26
I1
sg27
I66
sa(dp422
g21
VBAHAMA MOON
p423
sg23
V900x3
p424
sg25
I97
sg26
I2
sg27
I97
sa(dp425
g21
VNORTHERN SKY
p426
sg23
V3690x
p427
sg25
I82
sg26
I3
sg27
I69
sa(dp428
g21
VDOMESTIC DIVA
p429
sg23
V50x68
p430
sg25
I66
sg26
I4
sg27
I76
sa(dp431
g21
VMILLIE THE MINX
p432
sg23
V3x231
p433
sg25
I100
sg26
I5
sg27
I100
sa(dp434
g21
VSURRENDER
p435
sg23
V54449
p436
sg25
I78
sg26
I6
sg27
I81
sa(dp437
g21
VJAYCOLS STAR
p438
sg23
V60557
p439
sg25
I73
sg26
I7
sg27
I78
sa(dp440
g21
VMAC CENNETIG
p441
sg23
Vx8050
p442
sg25
I92
sg26
I8
sg27
I91
sa(dp443
g21
VMAGIC OF MILAN
p444
sg23
V6660x
p445
sg25
I61
sg26
I9
sg27
I62
sa(dp446
g21
VSORY
p447
sg23
V2347x
p448
sg25
I86
sg26
I10
sg27
I87
sasg43
(lp449
sssI1544189400
(dp450
g2
Vhttp://www.skyracing.com.au/index.php?component=racing&task=race&id=108664352&meetingid=107747486&Itemid=89
p451
sg4
V29039653.1330
p452
sg6
(dp453
g8
(lp454
(lp455
I3
aI1
aI2
aI5
aa(lp456
I3
aI15
aI1
aI12
aa(lp457
I3
aI15
aI9
aI2
aa(lp458
I3
aI15
aI1
aI5
aa(lp459
I3
aI15
aI5
aI11
aa(lp460
I3
aI2
aI1
aI5
aa(lp461
I3
aI5
aI1
aI11
aa(lp462
I3
aI15
aI1
aI2
aasg18
(lp463
(dp464
g21
VSAMARQUAND
p465
sg23
V1x1
p466
sg25
I100
sg26
I1
sg27
I99
sa(dp467
g21
VGETAWAY TRUMP
p468
sg23
V46x41
p469
sg25
I91
sg26
I2
sg27
I96
sa(dp470
g21
VREMASTERED
p471
sg23
Vx21x1
p472
sg25
I95
sg26
I3
sg27
I100
sa(dp473
g21
VAPPLE MACK
p474
sg23
V9x70
p475
sg25
I65
sg26
I4
sg27
I61
sa(dp476
g21
VAPRES LE DELUGE
p477
sg23
V1x
p478
sg25
I97
sg26
I5
sg27
I93
sa(dp479
g21
VCHAMPAGNE IDEAS
p480
sg23
V63x40
p481
sg25
I63
sg26
I6
sg27
I63
sa(dp482
g21
VCHAMPIONS CLUB
p483
sg23
V7
p484
sg25
I74
sg26
I7
sg27
I74
sa(dp485
g21
VCOME ON TEDDY
p486
sg23
V2x
p487
sg25
I88
sg26
I8
sg27
I92
sa(dp488
g21
VCOMEONTHEBULL
p489
sg23
V6x253
p490
sg25
I76
sg26
I9
sg27
I77
sa(dp491
g21
VDESSIE'S DIAMOND
p492
sg23
V336
p493
sg25
I82
sg26
I10
sg27
I82
sa(dp494
g21
VGRANITIC
p495
sg23
V1x
p496
sg25
I93
sg26
I11
sg27
I88
sa(dp497
g21
VHEY BUD
p498
sg23
V2x4x
p499
sg25
I78
sg26
I12
sg27
I78
sa(dp500
g21
VMUSICAL SLAVE
p501
sg23
V6x6x
p502
sg25
I87
sg26
I13
sg27
I86
sa(dp503
g21
VTEA TIME ON MARS
p504
sg23
Vx0x70
p505
sg25
I68
sg26
I14
sg27
I67
sa(dp506
g21
VTEDHAM
p507
sg23
V3x43
p508
sg25
I83
sg26
I15
sg27
I84
sa(dp509
g21
VFRANCE DU LUKKA
p510
sg23
V869x
p511
sg25
I67
sg26
I16
sg27
I68
sa(dp512
g21
VMIDNIGHT TIPPLE
p513
sg23
V47x
p514
sg25
I72
sg26
I17
sg27
I71
sa(dp515
g21
VSEA PRESENT
p516
sg23
V00x
p517
sg25
I61
sg26
I18
sg27
I64
sasg43
(lp518
sssI1544193300
(dp519
g2
Vhttp://www.skyracing.com.au/index.php?component=racing&task=race&id=108664354&meetingid=107747486&Itemid=89
p520
sg4
V29039653.1435
p521
sg6
(dp522
g8
(lp523
(lp524
I1
aI5
aI2
aI7
aa(lp525
I5
aI2
aI6
aI7
aa(lp526
I2
aI7
aI6
aI3
aa(lp527
I5
aI6
aI7
aI2
aa(lp528
I6
aI1
aI5
aI2
aa(lp529
I2
aI5
aI1
aI4
aa(lp530
I1
aI2
aI5
aI6
aa(lp531
I5
aI2
aI6
aI1
aasg18
(lp532
(dp533
g21
VBLACK OP
p534
sg23
V1221x
p535
sg25
I100
sg26
I1
sg27
I100
sa(dp536
g21
VDEFI DU SEUIL
p537
sg23
V4x7x5
p538
sg25
I99
sg26
I2
sg27
I92
sa(dp539
g21
VEDDY
p540
sg23
Vx84x9
p541
sg25
I79
sg26
I3
sg27
I74
sa(dp542
g21
VSPRING WOLF
p543
sg23
Vx8x0x
p544
sg25
I73
sg26
I4
sg27
I80
sa(dp545
g21
VTOPOFTHEGAME
p546
sg23
Vx412x
p547
sg25
I94
sg26
I5
sg27
I98
sa(dp548
g21
VWESTEND STORY
p549
sg23
V121x0
p550
sg25
I84
sg26
I6
sg27
I84
sa(dp551
g21
VWHITE MOON
p552
sg23
V117x7
p553
sg25
I86
sg26
I7
sg27
I85
sasg43
(lp554
sssI1544186400
(dp555
g2
Vhttp://www.skyracing.com.au/index.php?component=racing&task=race&id=108664336&meetingid=107747518&Itemid=89
p556
sg4
V29039646.1240
p557
sg6
(dp558
g8
(lp559
(lp560
I2
aI3
aI1
aI7
aa(lp561
I6
aI5
aI10
aI7
aa(lp562
I6
aI7
aI1
aI4
aa(lp563
I3
aI6
aI5
aI7
aa(lp564
I4
aI10
aI1
aI6
aa(lp565
I2
aI3
aI1
aI5
aa(lp566
I2
aI3
aI1
aI7
aa(lp567
I2
aI3
aI6
aI4
aasg18
(lp568
(dp569
g21
VDEW POND
p570
sg23
V06855
p571
sg25
I84
sg26
I1
sg27
I72
sa(dp572
g21
VECLAT DE STAR
p573
sg23
V1x
p574
sg25
I100
sg26
I2
sg27
I100
sa(dp575
g21
VETTILA DE SIVOLA
p576
sg23
V1x
p577
sg25
I98
sg26
I3
sg27
I98
sa(dp578
g21
VFISHER GREEN
p579
sg23
V60844
p580
sg25
I75
sg26
I4
sg27
I58
sa(dp581
g21
VMAGIC DRAGON
p582
sg23
V670
p583
sg25
I70
sg26
I5
sg27
I66
sa(dp584
g21
VOLDTIMER
p585
sg23
V5x70
p586
sg25
I62
sg26
I6
sg27
I52
sa(dp587
g21
VPULLMAN BROWN
p588
sg23
V06500
p589
sg25
I78
sg26
I7
sg27
I68
sa(dp590
g21
VTHOSEDAYSAREGONE
p591
sg23
Vx2879
p592
sg25
I91
sg26
I8
sg27
I91
sa(dp593
g21
VEMMA LAMB
p594
sg23
V55x28
p595
sg25
I88
sg26
I9
sg27
I77
sa(dp596
g21
VLADY OF DERRYGALLY
p597
sg23
V923x0
p598
sg25
I65
sg26
I10
sg27
I61
sasg43
(lp599
sssI1544196600
(dp600
g2
Vhttp://www.skyracing.com.au/index.php?component=racing&task=race&id=108664370&meetingid=107747502&Itemid=89
p601
sg4
V29039645.1530
p602
sg6
(dp603
g8
(lp604
(lp605
I1
aI2
aI9
aI5
aa(lp606
I2
aI1
aI4
aI5
aa(lp607
I1
aI9
aI8
aI2
aa(lp608
I1
aI8
aI6
aI5
aa(lp609
I1
aI4
aI9
aI2
aa(lp610
I1
aI2
aI9
aI8
aa(lp611
I1
aI2
aI9
aI5
aa(lp612
I1
aI2
aI9
aI8
aasg18
(lp613
(dp614
g21
VTHISTIMENEXTYEAR
p615
sg23
V3x413
p616
sg25
I100
sg26
I1
sg27
I100
sa(dp617
g21
VMY BROTHER
p618
sg23
V24x32
p619
sg25
I95
sg26
I2
sg27
I98
sa(dp620
g21
VALCANAR
p621
sg23
V4x048
p622
sg25
I82
sg26
I3
sg27
I83
sa(dp623
g21
VPRIMAL FOCUS
p624
sg23
V33505
p625
sg25
I68
sg26
I4
sg27
I68
sa(dp626
g21
VULYSSES
p627
sg23
Vx235x
p628
sg25
I85
sg26
I5
sg27
I86
sa(dp629
g21
VKESTREL VALLEY
p630
sg23
V5734x
p631
sg25
I76
sg26
I6
sg27
I72
sa(dp632
g21
VSHAW'S CROSS
p633
sg23
V077x2
p634
sg25
I78
sg26
I7
sg27
I79
sa(dp635
g21
VVLANNON
p636
sg23
V49240
p637
sg25
I72
sg26
I8
sg27
I74
sa(dp638
g21
VMALANGEN
p639
sg23
V22530
p640
sg25
I91
sg26
I9
sg27
I90
sasg43
(lp641
sssI1544187000
(dp642
g2
Vhttp://www.skyracing.com.au/index.php?component=racing&task=race&id=108664365&meetingid=107747502&Itemid=89
p643
sg4
V29039645.1250
p644
sg6
(dp645
g8
(lp646
(lp647
I7
aI1
aI4
aI5
aa(lp648
I3
aI1
aI4
aI5
aa(lp649
I7
aI6
aI4
aI3
aa(lp650
I2
aI3
aI5
aI7
aa(lp651
I4
aI5
aI6
aI7
aa(lp652
I7
aI4
aI1
aI6
aa(lp653
I1
aI4
aI7
aI2
aa(lp654
I7
aI4
aI1
aI3
aasg18
(lp655
(dp656
g21
VCLONDAW WESTIE
p657
sg23
V7111x
p658
sg25
I100
sg26
I1
sg27
I98
sa(dp659
g21
VSWIFT CRUSADOR
p660
sg23
V2347x
p661
sg25
I84
sg26
I2
sg27
I80
sa(dp662
g21
VRED DEVIL STAR
p663
sg23
Vx13x8
p664
sg25
I76
sg26
I3
sg27
I76
sa(dp665
g21
VDAREBIN
p666
sg23
V2x312
p667
sg25
I93
sg26
I4
sg27
I92
sa(dp668
g21
VVICENZO MIO
p669
sg23
V232x3
p670
sg25
I87
sg26
I5
sg27
I86
sa(dp671
g21
VENOLA GAY
p672
sg23
V2x0x3
p673
sg25
I79
sg26
I6
sg27
I84
sa(dp674
g21
VCAP ST VINCENT
p675
sg23
V6x311
p676
sg25
I99
sg26
I7
sg27
I100
sa(dp677
g21
VTHE BOOM IS BACK
p678
sg23
V7x708
p679
sg25
I72
sg26
I8
sg27
I70
sasg43
(lp680
sssI1544194200
(dp681
g2
Vhttp://www.skyracing.com.au/index.php?component=racing&task=race&id=108664340&meetingid=107747518&Itemid=89
p682
sg4
V29039646.1450
p683
sg6
(dp684
g8
(lp685
(lp686
I3
aI2
aI1
aI4
aa(lp687
I2
aI3
aI4
aI5
aa(lp688
I4
aI2
aI5
aI3
aa(lp689
I1
aI3
aI2
aI4
aa(lp690
I2
aI4
aI3
aI1
aa(lp691
I2
aI3
aI1
aI4
aa(lp692
I2
aI3
aI1
aI4
aa(lp693
I2
aI3
aI4
aI1
aasg18
(lp694
(dp695
g21
VFLEMENS STORY
p696
sg23
V1x43x
p697
sg25
I94
sg26
I1
sg27
I90
sa(dp698
g21
VSCHIEHALLION MUNRO
p699
sg23
V4x3x2
p700
sg25
I99
sg26
I2
sg27
I96
sa(dp701
g21
VTHE BIG GALLOPER
p702
sg23
V625x0
p703
sg25
I100
sg26
I3
sg27
I100
sa(dp704
g21
VALICE LISLE
p705
sg23
V460x3
p706
sg25
I85
sg26
I4
sg27
I89
sa(dp707
g21
VMILLROSE BELL
p708
sg23
V657x0
p709
sg25
I84
sg26
I5
sg27
I84
sasg43
(lp710
sssI1544190900
(dp711
g2
Vhttp://www.skyracing.com.au/index.php?component=racing&task=race&id=108664367&meetingid=107747502&Itemid=89
p712
sg4
V29039645.1355
p713
sg6
(dp714
g8
(lp715
(lp716
I3
aI1
aI7
aI8
aa(lp717
I5
aI6
aI1
aI8
aa(lp718
I1
aI6
aI8
aI13
aa(lp719
I2
aI1
aI6
aI5
aa(lp720
I6
aI1
aI5
aI7
aa(lp721
I3
aI1
aI7
aI9
aa(lp722
I3
aI1
aI9
aI7
aa(lp723
I1
aI6
aI3
aI5
aasg18
(lp724
(dp725
g21
VTHE BOTTOM BAR
p726
sg23
V123x2
p727
sg25
I98
sg26
I1
sg27
I97
sa(dp728
g21
VOH LAND ABLOOM
p729
sg23
V07x42
p730
sg25
I69
sg26
I2
sg27
I70
sa(dp731
g21
VMAGOO
p732
sg23
Vx1x1x
p733
sg25
I100
sg26
I3
sg27
I100
sa(dp734
g21
VWARTHOG
p735
sg23
V0327x
p736
sg25
I87
sg26
I4
sg27
I88
sa(dp737
g21
VPRIVATE MALONE
p738
sg23
V4226x
p739
sg25
I81
sg26
I5
sg27
I76
sa(dp740
g21
VLITHIC
p741
sg23
V44x42
p742
sg25
I71
sg26
I6
sg27
I78
sa(dp743
g21
VTURTLE WARS
p744
sg23
V3915x
p745
sg25
I96
sg26
I7
sg27
I95
sa(dp746
g21
VKINGS WALK
p747
sg23
Vx14x3
p748
sg25
I89
sg26
I8
sg27
I93
sa(dp749
g21
VSECRET LEGACY
p750
sg23
V331x5
p751
sg25
I92
sg26
I9
sg27
I91
sa(dp752
g21
VINAMINNA
p753
sg23
Vx14x7
p754
sg25
I83
sg26
I10
sg27
I67
sa(dp755
g21
VSMUGGLER'S BLUES
p756
sg23
V4x3x8
p757
sg25
I79
sg26
I11
sg27
I83
sa(dp758
g21
VEARLY DU LEMO
p759
sg23
Vx25x0
p760
sg25
I74
sg26
I12
sg27
I81
sa(dp761
g21
VGLEN ROCCO
p762
sg23
V53x01
p763
sg25
I93
sg26
I13
sg27
I86
sa(dp764
g21
VPOINTED AND SHARP
p765
sg23
V25x48
p766
sg25
I67
sg26
I14
sg27
I68
sa(dp767
g21
VTRIGGITAS
p768
sg23
Vx32x5
p769
sg25
I64
sg26
I15
sg27
I65
sa(dp770
g21
VMOLLY CAREW
p771
sg23
V3745x
p772
sg25
I76
sg26
I16
sg27
I74
sasg43
(lp773
sssI1544192700
(dp774
g2
Vhttp://www.skyracing.com.au/index.php?component=racing&task=race&id=108664368&meetingid=107747502&Itemid=89
p775
sg4
V29039645.1425
p776
sg6
(dp777
g8
(lp778
(lp779
I4
aI10
aI3
aI6
aa(lp780
I6
aI5
aI3
aI9
aa(lp781
I3
aI9
aI7
aI1
aa(lp782
I6
aI3
aI9
aI5
aa(lp783
I6
aI3
aI7
aI9
aa(lp784
I10
aI4
aI6
aI3
aa(lp785
I4
aI10
aI6
aI7
aa(lp786
I3
aI6
aI4
aI10
aasg18
(lp787
(dp788
g21
VAMATEUR
p789
sg23
V310x6
p790
sg25
I65
sg26
I1
sg27
I61
sa(dp791
g21
VANOTHER GO
p792
sg23
V649x7
p793
sg25
I60
sg26
I2
sg27
I60
sa(dp794
g21
VDARLAC
p795
sg23
Vx7x14
p796
sg25
I79
sg26
I3
sg27
I88
sa(dp797
g21
VDOWN THE HIGHWAY
p798
sg23
V1x1
p799
sg25
I100
sg26
I4
sg27
I100
sa(dp800
g21
VMERCY MERCY ME
p801
sg23
Vx87x2
p802
sg25
I75
sg26
I5
sg27
I71
sa(dp803
g21
VMY WAY
p804
sg23
V32x2x
p805
sg25
I89
sg26
I6
sg27
I86
sa(dp806
g21
VQUOI DE NEUF
p807
sg23
V1x1
p808
sg25
I90
sg26
I7
sg27
I81
sa(dp809
g21
VTRIO FOR RIO
p810
sg23
V21x31
p811
sg25
I72
sg26
I8
sg27
I70
sa(dp812
g21
VTRUCKIN AWAY
p813
sg23
V3x1
p814
sg25
I84
sg26
I9
sg27
I78
sa(dp815
g21
VALSA MIX
p816
sg23
V1x1x1
p817
sg25
I98
sg26
I10
sg27
I96
sasg43
(lp818
sssI1544187600
(dp819
g2
Vhttp://www.skyracing.com.au/index.php?component=racing&task=race&id=108664351&meetingid=107747486&Itemid=89
p820
sg4
V29039653.1300
p821
sg6
(dp822
g8
(lp823
(lp824
I13
aI6
aI1
aI5
aa(lp825
I1
aI2
aI5
aI4
aa(lp826
I1
aI5
aI10
aI6
aa(lp827
I2
aI3
aI5
aI10
aa(lp828
I2
aI5
aI1
aI4
aa(lp829
I6
aI1
aI5
aI13
aa(lp830
I13
aI2
aI6
aI1
aa(lp831
I1
aI5
aI2
aI6
aasg18
(lp832
(dp833
g21
VWATERLOO WARRIOR
p834
sg23
V22x59
p835
sg25
I92
sg26
I1
sg27
I91
sa(dp836
g21
VMIDNIGHT MONTY
p837
sg23
V239x8
p838
sg25
I94
sg26
I2
sg27
I84
sa(dp839
g21
VTARRONA
p840
sg23
Vx0x3x
p841
sg25
I70
sg26
I3
sg27
I71
sa(dp842
g21
VBELLAMY'S GREY
p843
sg23
V3432x
p844
sg25
I77
sg26
I4
sg27
I76
sa(dp845
g21
VTEA TIME FRED
p846
sg23
V42732
p847
sg25
I87
sg26
I5
sg27
I89
sa(dp848
g21
VVANGO DE VAIGE
p849
sg23
V60x31
p850
sg25
I99
sg26
I6
sg27
I96
sa(dp851
g21
VPAHASKA
p852
sg23
V76x72
p853
sg25
I79
sg26
I7
sg27
I73
sa(dp854
g21
VECHO WATT
p855
sg23
V865x8
p856
sg25
I84
sg26
I8
sg27
I65
sa(dp857
g21
VMIGHTY VIC
p858
sg23
V3660x
p859
sg25
I68
sg26
I9
sg27
I63
sa(dp860
g21
VGAMBLING GAMUT
p861
sg23
Vx0x44
p862
sg25
I65
sg26
I10
sg27
I68
sa(dp863
g21
VIN THE PIPELINE
p864
sg23
Vx32x0
p865
sg25
I74
sg26
I11
sg27
I80
sa(dp866
g21
VBACT TO BLACK
p867
sg23
V5x26x
p868
sg25
I81
sg26
I12
sg27
I81
sa(dp869
g21
VGONNABEGOOD
p870
sg23
V46x12
p871
sg25
I100
sg26
I13
sg27
I100
sasg43
(lp872
sssI1544188200
(dp873
g2
Vhttp://www.skyracing.com.au/index.php?component=racing&task=race&id=108664337&meetingid=107747518&Itemid=89
p874
sg4
V29039646.1310
p875
sg6
(dp876
g8
(lp877
(lp878
I1
aI2
aI4
aI3
aa(lp879
I1
aI2
aI4
aI3
aa(lp880
I1
aI2
aI4
aI5
aa(lp881
I4
aI5
aI6
aI2
aa(lp882
I5
aI1
aI2
aI4
aa(lp883
I4
aI1
aI2
aI3
aa(lp884
I1
aI2
aI4
aI3
aa(lp885
I1
aI4
aI2
aI5
aasg18
(lp886
(dp887
g21
VTROUBLED SOUL
p888
sg23
V77341
p889
sg25
I100
sg26
I1
sg27
I100
sa(dp890
g21
VINCH LALA
p891
sg23
V350x3
p892
sg25
I98
sg26
I2
sg27
I97
sa(dp893
g21
VTICKERTY BOO
p894
sg23
Vx5550
p895
sg25
I88
sg26
I3
sg27
I82
sa(dp896
g21
VTROOBLUE
p897
sg23
V4x984
p898
sg25
I90
sg26
I4
sg27
I87
sa(dp899
g21
VRINGARINGAROSIE
p900
sg23
V07435
p901
sg25
I80
sg26
I5
sg27
I76
sa(dp902
g21
VGOGO BALOO
p903
sg23
V378x6
p904
sg25
I82
sg26
I6
sg27
I78
sasg43
(lp905
sss.