(dp0
I1543759200
(dp1
S'skyracing_url'
p2
Vhttp://www.skyracing.com.au/index.php?component=racing&task=race&id=108380378&meetingid=107360789&Itemid=89
p3
sS'betfair_raceid'
p4
V29031948.1400
p5
sS'dat2'
p6
(dp7
S'ratings_auto'
p8
(lp9
(lp10
I2
aI5
aI6
aI7
aa(lp11
I6
aI5
aI7
aI1
aa(lp12
I5
aI2
aI7
aI6
aa(lp13
I5
aI8
aI3
aI4
aa(lp14
I5
aI12
aI7
aI4
aa(lp15
I2
aI5
aI6
aI7
aa(lp16
I1
aI4
aI5
aI2
aa(lp17
I5
aI2
aI6
aI7
aasS'horse_details'
p18
(lp19
(dp20
S'horse_name'
p21
VKELPIES MYTH
p22
sS'horse_form'
p23
V07x83
p24
sS'rating_2'
p25
I97
sS'horse_number'
p26
I1
sS'rating_1'
p27
I83
sa(dp28
g21
VIOLANI
p29
sg23
V01114
p30
sg25
I100
sg26
I2
sg27
I100
sa(dp31
g21
VMONFASS
p32
sg23
V3352x
p33
sg25
I86
sg26
I3
sg27
I87
sa(dp34
g21
VMORNING WITH IVAN
p35
sg23
V114x9
p36
sg25
I91
sg26
I4
sg27
I77
sa(dp37
g21
VTAKE A BREAK
p38
sg23
V32114
p39
sg25
I94
sg26
I5
sg27
I99
sa(dp40
g21
VBARRYS JACK
p41
sg23
V605x4
p42
sg25
I89
sg26
I6
sg27
I93
sa(dp43
g21
VWAZOWSKI
p44
sg23
V42343
p45
sg25
I78
sg26
I7
sg27
I92
sa(dp46
g21
VFELIX MENDELSSOHN
p47
sg23
V65x05
p48
sg25
I72
sg26
I8
sg27
I68
sa(dp49
g21
VSUGGESTION
p50
sg23
V5x238
p51
sg25
I82
sg26
I9
sg27
I84
sa(dp52
g21
VPISTOL
p53
sg23
V30x07
p54
sg25
I71
sg26
I10
sg27
I71
sa(dp55
g21
VGREEN ZONE
p56
sg23
V44328
p57
sg25
I75
sg26
I11
sg27
I78
sa(dp58
g21
VXPO UNIVERSEL
p59
sg23
V21638
p60
sg25
I74
sg26
I12
sg27
I74
sasS'ratings_manual'
p61
(lp62
sssI1543765200
(dp63
g2
Vhttp://www.skyracing.com.au/index.php?component=racing&task=race&id=108380411&meetingid=107752418&Itemid=89
p64
sg4
V29031929.1540
p65
sg6
(dp66
g8
(lp67
(lp68
I9
aI3
aI2
aI7
aa(lp69
I9
aI7
aI3
aI2
aa(lp70
I9
aI7
aI14
aI1
aa(lp71
I9
aI7
aI3
aI2
aa(lp72
I9
aI7
aI3
aI2
aa(lp73
I2
aI9
aI7
aI3
aa(lp74
I3
aI9
aI2
aI7
aa(lp75
I9
aI7
aI3
aI2
aasg18
(lp76
(dp77
g21
VASSEMBLE
p78
sg23
V23x
p79
sg25
I84
sg26
I1
sg27
I81
sa(dp80
g21
VDIOL KER
p81
sg23
V251x
p82
sg25
I93
sg26
I2
sg27
I89
sa(dp83
g21
VENVOI ALLEN
p84
sg23
V1x
p85
sg25
I100
sg26
I3
sg27
I98
sa(dp86
g21
VFELICITY'S CHOICE
p87
sg23
V
p88
sg25
I77
sg26
I4
sg27
I0
sa(dp89
g21
VJASON THE MILITANT
p90
sg23
g88
sg25
I79
sg26
I5
sg27
I0
sa(dp91
g21
VLE RUESKI
p92
sg23
g88
sg25
I72
sg26
I6
sg27
I0
sa(dp93
g21
VPORT STANLEY
p94
sg23
V01x3
p95
sg25
I91
sg26
I7
sg27
I83
sa(dp96
g21
VRAINBOW KING
p97
sg23
V5x
p98
sg25
I62
sg26
I8
sg27
I74
sa(dp99
g21
VSOLDIER AT WAR
p100
sg23
V2x2
p101
sg25
I96
sg26
I9
sg27
I100
sa(dp102
g21
VSTONES AND ROSES
p103
sg23
g88
sg25
I88
sg26
I10
sg27
I0
sa(dp104
g21
VTHE BLAME GAME
p105
sg23
g88
sg25
I65
sg26
I11
sg27
I0
sa(dp106
g21
VBLUE HEATHER
p107
sg23
g88
sg25
I82
sg26
I12
sg27
I0
sa(dp108
g21
VDON'T BET ON IT
p109
sg23
g88
sg25
I74
sg26
I13
sg27
I0
sa(dp110
g21
VFUR ELISE
p111
sg23
V7
p112
sg25
I70
sg26
I14
sg27
I76
sasg61
(lp113
sssI1543755300
(dp114
g2
Vhttp://www.skyracing.com.au/index.php?component=racing&task=race&id=108380376&meetingid=107360789&Itemid=89
p115
sg4
V29031948.1255
p116
sg6
(dp117
g8
(lp118
(lp119
I2
aI9
aI7
aI5
aa(lp120
I6
aI2
aI7
aI8
aa(lp121
I1
aI2
aI5
aI6
aa(lp122
I1
aI6
aI8
aI4
aa(lp123
I7
aI2
aI8
aI5
aa(lp124
I7
aI2
aI9
aI4
aa(lp125
I7
aI2
aI5
aI1
aa(lp126
I2
aI7
aI1
aI6
aasg18
(lp127
(dp128
g21
VBON CHIC
p129
sg23
V41701
p130
sg25
I89
sg26
I1
sg27
I89
sa(dp131
g21
VSECRET ESCAPE
p132
sg23
V313x2
p133
sg25
I100
sg26
I2
sg27
I100
sa(dp134
g21
VDARK SUNSET
p135
sg23
V4144x
p136
sg25
I84
sg26
I3
sg27
I83
sa(dp137
g21
VVICTORIA SAYS
p138
sg23
Vx6x40
p139
sg25
I83
sg26
I4
sg27
I85
sa(dp140
g21
VCHAMPAGNE TO GO
p141
sg23
V34x31
p142
sg25
I92
sg26
I5
sg27
I90
sa(dp143
g21
VBABY TICKER
p144
sg23
V258x5
p145
sg25
I77
sg26
I6
sg27
I76
sa(dp146
g21
VPRINCESS MONONOKE
p147
sg23
V4211x
p148
sg25
I97
sg26
I7
sg27
I93
sa(dp149
g21
VBEYONDTEMPTATION
p150
sg23
V713x0
p151
sg25
I73
sg26
I8
sg27
I73
sa(dp152
g21
VHIDDEN DILEMMA
p153
sg23
V6x714
p154
sg25
I93
sg26
I9
sg27
I97
sa(dp155
g21
VREIVERS LODGE
p156
sg23
V56x88
p157
sg25
I72
sg26
I10
sg27
I71
sa(dp158
g21
VTHEATRE ACT
p159
sg23
V4x552
p160
sg25
I79
sg26
I11
sg27
I79
sasg61
(lp161
sssI1543753500
(dp162
g2
Vhttp://www.skyracing.com.au/index.php?component=racing&task=race&id=108380375&meetingid=107360789&Itemid=89
p163
sg4
V29031948.1225
p164
sg6
(dp165
g8
(lp166
(lp167
I10
aI3
aI7
aI5
aa(lp168
I3
aI4
aI10
aI5
aa(lp169
I5
aI1
aI4
aI8
aa(lp170
I3
aI10
aI5
aI1
aa(lp171
I10
aI3
aI4
aI5
aa(lp172
I3
aI7
aI10
aI5
aa(lp173
I3
aI7
aI10
aI4
aa(lp174
I3
aI10
aI5
aI4
aasg18
(lp175
(dp176
g21
VAIN'T MY FAULT
p177
sg23
Vx41x5
p178
sg25
I86
sg26
I1
sg27
I83
sa(dp179
g21
VBLAYDON
p180
sg23
Vx7x45
p181
sg25
I78
sg26
I2
sg27
I75
sa(dp182
g21
VGARRETTSTOWN
p183
sg23
V1x6
p184
sg25
I98
sg26
I3
sg27
I94
sa(dp185
g21
VHITMAN FRED
p186
sg23
V5x735
p187
sg25
I89
sg26
I4
sg27
I86
sa(dp188
g21
VHUNTSMANS JOG
p189
sg23
V2x4
p190
sg25
I90
sg26
I5
sg27
I87
sa(dp191
g21
VSALVEN
p192
sg23
V030x
p193
sg25
I81
sg26
I6
sg27
I77
sa(dp194
g21
VTHE CON MAN
p195
sg23
V1x
p196
sg25
I100
sg26
I7
sg27
I92
sa(dp197
g21
VTHE STING
p198
sg23
Vx78x5
p199
sg25
I77
sg26
I8
sg27
I72
sa(dp200
g21
VCUSHY BUTTERFIELD
p201
sg23
V008x0
p202
sg25
I70
sg26
I9
sg27
I67
sa(dp203
g21
VPAPER PROMISE
p204
sg23
Vx117x
p205
sg25
I94
sg26
I10
sg27
I100
sa(dp206
g21
VTERMINAL ONE
p207
sg23
V3x6
p208
sg25
I73
sg26
I11
sg27
I71
sasg61
(lp209
sssI1543761000
(dp210
g2
Vhttp://www.skyracing.com.au/index.php?component=racing&task=race&id=108380379&meetingid=107360789&Itemid=89
p211
sg4
V29031948.1430
p212
sg6
(dp213
g8
(lp214
(lp215
I2
aI1
aI8
aI7
aa(lp216
I6
aI1
aI2
aI4
aa(lp217
I1
aI2
aI3
aI4
aa(lp218
I1
aI2
aI4
aI3
aa(lp219
I4
aI6
aI2
aI1
aa(lp220
I2
aI1
aI7
aI8
aa(lp221
I3
aI1
aI2
aI8
aa(lp222
I2
aI1
aI4
aI6
aasg18
(lp223
(dp224
g21
VMAHLER LAD
p225
sg23
V219x2
p226
sg25
I100
sg26
I1
sg27
I95
sa(dp227
g21
VMISFITS
p228
sg23
V59x61
p229
sg25
I96
sg26
I2
sg27
I100
sa(dp230
g21
VKNOCKNAMONA
p231
sg23
V46x46
p232
sg25
I90
sg26
I3
sg27
I83
sa(dp233
g21
VKINGS ECLIPSE
p234
sg23
Vx20x5
p235
sg25
I72
sg26
I4
sg27
I70
sa(dp236
g21
VACHILL ROAD BOY
p237
sg23
V149x3
p238
sg25
I73
sg26
I5
sg27
I78
sa(dp239
g21
VNORTONTHORPELEGEND
p240
sg23
V400x0
p241
sg25
I80
sg26
I6
sg27
I74
sa(dp242
g21
VPURPLE HARRY
p243
sg23
V8624x
p244
sg25
I84
sg26
I7
sg27
I87
sa(dp245
g21
VFRANK THE SLINK
p246
sg23
V7x022
p247
sg25
I87
sg26
I8
sg27
I90
sasg61
(lp248
sssI1543755900
(dp249
g2
Vhttp://www.skyracing.com.au/index.php?component=racing&task=race&id=108380406&meetingid=107752418&Itemid=89
p250
sg4
V29031929.1305
p251
sg6
(dp252
g8
(lp253
(lp254
I1
aI2
aI4
aI5
aa(lp255
I2
aI1
aI4
aI5
aa(lp256
I2
aI1
aI5
aI3
aa(lp257
I2
aI1
aI4
aI5
aa(lp258
I5
aI1
aI4
aI2
aa(lp259
I2
aI4
aI1
aI3
aa(lp260
I4
aI1
aI2
aI3
aa(lp261
I2
aI1
aI4
aI5
aasg18
(lp262
(dp263
g21
VARAMON
p264
sg23
V1x121
p265
sg25
I97
sg26
I1
sg27
I100
sa(dp266
g21
VQUICK GRABIM
p267
sg23
V0x114
p268
sg25
I90
sg26
I2
sg27
I92
sa(dp269
g21
VTRIPLICATE
p270
sg23
V4x112
p271
sg25
I84
sg26
I3
sg27
I75
sa(dp272
g21
VCOMMANDER OF FLEET
p273
sg23
V11x1
p274
sg25
I100
sg26
I4
sg27
I83
sa(dp275
g21
VTINTANGLE
p276
sg23
V13x01
p277
sg25
I86
sg26
I5
sg27
I79
sasg61
(lp278
sssI1543754700
(dp279
g2
Vhttp://www.skyracing.com.au/index.php?component=racing&task=race&id=108380420&meetingid=107360805&Itemid=89
p280
sg4
V29031950.1245
p281
sg6
(dp282
g8
(lp283
(lp284
I1
aI2
aI3
aI4
aa(lp285
I4
aI2
aI3
aI1
aa(lp286
I2
aI3
aI1
aI5
aa(lp287
I1
aI2
aI4
aI3
aa(lp288
I2
aI3
aI1
aI4
aa(lp289
I2
aI1
aI3
aI4
aa(lp290
I2
aI1
aI3
aI4
aa(lp291
I2
aI1
aI3
aI4
aasg18
(lp292
(dp293
g21
VVANCOUVER
p294
sg23
V31x82
p295
sg25
I100
sg26
I1
sg27
I100
sa(dp296
g21
VCABERNET D'ALENE
p297
sg23
V118x8
p298
sg25
I95
sg26
I2
sg27
I94
sa(dp299
g21
VEXCELLENT TEAM
p300
sg23
V42322
p301
sg25
I93
sg26
I3
sg27
I88
sa(dp302
g21
VBAZOOKA
p303
sg23
V96x07
p304
sg25
I89
sg26
I4
sg27
I83
sa(dp305
g21
VKITSUNE
p306
sg23
Vx0x08
p307
sg25
I82
sg26
I5
sg27
I78
sasg61
(lp308
sssI1543761600
(dp309
g2
Vhttp://www.skyracing.com.au/index.php?component=racing&task=race&id=108380409&meetingid=107752418&Itemid=89
p310
sg4
V29031929.1440
p311
sg6
(dp312
g8
(lp313
(lp314
I9
aI5
aI6
aI8
aa(lp315
I9
aI1
aI4
aI2
aa(lp316
I9
aI2
aI7
aI10
aa(lp317
I6
aI9
aI10
aI1
aa(lp318
I6
aI9
aI1
aI5
aa(lp319
I6
aI9
aI5
aI10
aa(lp320
I9
aI6
aI5
aI10
aa(lp321
I9
aI6
aI5
aI1
aasg18
(lp322
(dp323
g21
VBAPAUME
p324
sg23
V0521x
p325
sg25
I75
sg26
I1
sg27
I72
sa(dp326
g21
VDORTMUND PARK
p327
sg23
V481x5
p328
sg25
I84
sg26
I2
sg27
I77
sa(dp329
g21
VEARLY DOORS
p330
sg23
Vx930x
p331
sg25
I69
sg26
I3
sg27
I69
sa(dp332
g21
VSHANESHILL
p333
sg23
Vx338x
p334
sg25
I64
sg26
I4
sg27
I63
sa(dp335
g21
VSUPASUNDAE
p336
sg23
V1221x
p337
sg25
I91
sg26
I5
sg27
I98
sa(dp338
g21
VSUTTON PLACE
p339
sg23
V0x10x
p340
sg25
I97
sg26
I6
sg27
I92
sa(dp341
g21
VWICKLOW BRAVE
p342
sg23
V11364
p343
sg25
I61
sg26
I7
sg27
I59
sa(dp344
g21
VFARCLAS
p345
sg23
V2215x
p346
sg25
I78
sg26
I8
sg27
I86
sa(dp347
g21
VAPPLE'S JADE
p348
sg23
Vx33x1
p349
sg25
I100
sg26
I9
sg27
I100
sa(dp350
g21
VLIMINI
p351
sg23
V23100
p352
sg25
I86
sg26
I10
sg27
I82
sasg61
(lp353
sssI1543762800
(dp354
g2
Vhttp://www.skyracing.com.au/index.php?component=racing&task=race&id=108380380&meetingid=107360789&Itemid=89
p355
sg4
V29031948.1500
p356
sg6
(dp357
g8
(lp358
(lp359
I2
aI3
aI4
aI6
aa(lp360
I3
aI4
aI1
aI9
aa(lp361
I1
aI2
aI9
aI4
aa(lp362
I1
aI9
aI2
aI3
aa(lp363
I3
aI2
aI4
aI8
aa(lp364
I2
aI3
aI4
aI6
aa(lp365
I3
aI4
aI6
aI1
aa(lp366
I2
aI3
aI4
aI1
aasg18
(lp367
(dp368
g21
VTOO MANY CHIEFS
p369
sg23
V1x8x4
p370
sg25
I83
sg26
I1
sg27
I69
sa(dp371
g21
VJUSTATENNER
p372
sg23
V21132
p373
sg25
I89
sg26
I2
sg27
I100
sa(dp374
g21
VWESTERN RULES
p375
sg23
V219x0
p376
sg25
I100
sg26
I3
sg27
I97
sa(dp377
g21
VRIVABODIVA
p378
sg23
V15x41
p379
sg25
I93
sg26
I4
sg27
I93
sa(dp380
g21
VLETEMGO
p381
sg23
V34x03
p382
sg25
I66
sg26
I5
sg27
I60
sa(dp383
g21
VCHICORIA
p384
sg23
V5411x
p385
sg25
I97
sg26
I6
sg27
I89
sa(dp386
g21
VMOORLANDS MIST
p387
sg23
V80x11
p388
sg25
I71
sg26
I7
sg27
I74
sa(dp389
g21
VANOTHER MATTIE
p390
sg23
V433x5
p391
sg25
I60
sg26
I8
sg27
I63
sa(dp392
g21
VTOP BILLING
p393
sg23
V434x0
p394
sg25
I80
sg26
I9
sg27
I84
sa(dp395
g21
VBROADWAY BELLE
p396
sg23
V631x4
p397
sg25
I76
sg26
I10
sg27
I78
sasg61
(lp398
sssI1543763400
(dp399
g2
Vhttp://www.skyracing.com.au/index.php?component=racing&task=race&id=108380410&meetingid=107752418&Itemid=89
p400
sg4
V29031929.1510
p401
sg6
(dp402
g8
(lp403
(lp404
I11
aI4
aI6
aI5
aa(lp405
I5
aI1
aI3
aI21
aa(lp406
I1
aI21
aI11
aI5
aa(lp407
I11
aI5
aI2
aI13
aa(lp408
I5
aI21
aI20
aI11
aa(lp409
I4
aI11
aI5
aI6
aa(lp410
I1
aI4
aI11
aI5
aa(lp411
I5
aI11
aI4
aI1
aasg18
(lp412
(dp413
g21
VJEZKI
p414
sg23
V100x2
p415
sg25
I96
sg26
I1
sg27
I84
sa(dp416
g21
VBLAZER
p417
sg23
V4x28x
p418
sg25
I74
sg26
I2
sg27
I71
sa(dp419
g21
VDAVIDS CHARM
p420
sg23
V96128
p421
sg25
I72
sg26
I3
sg27
I74
sa(dp422
g21
VOFF YOU GO
p423
sg23
V311x1
p424
sg25
I98
sg26
I4
sg27
I96
sa(dp425
g21
VTOMBSTONE
p426
sg23
V6x513
p427
sg25
I89
sg26
I5
sg27
I91
sa(dp428
g21
VSTRATUM
p429
sg23
V31000
p430
sg25
I90
sg26
I6
sg27
I93
sa(dp431
g21
VSAGLAWY
p432
sg23
V1395x
p433
sg25
I70
sg26
I7
sg27
I67
sa(dp434
g21
VBRELADE
p435
sg23
Vx725x
p436
sg25
I83
sg26
I8
sg27
I81
sa(dp437
g21
VIVANOVICH GORBATOV
p438
sg23
V38200
p439
sg25
I61
sg26
I9
sg27
I55
sa(dp440
g21
VHEARTS ARE TRUMPS
p441
sg23
V42121
p442
sg25
I94
sg26
I10
sg27
I87
sa(dp443
g21
VWONDER LAISH
p444
sg23
V7x831
p445
sg25
I100
sg26
I11
sg27
I100
sa(dp446
g21
VPLINTH
p447
sg23
V00424
p448
sg25
I63
sg26
I12
sg27
I59
sa(dp449
g21
VMORGA
p450
sg23
V23337
p451
sg25
I59
sg26
I13
sg27
I58
sa(dp452
g21
VCAUSEY ARCH
p453
sg23
V15223
p454
sg25
I78
sg26
I14
sg27
I76
sa(dp455
g21
VTUDOR CITY
p456
sg23
V59423
p457
sg25
I69
sg26
I15
sg27
I68
sa(dp458
g21
VBREX DRAGO
p459
sg23
V11020
p460
sg25
I65
sg26
I16
sg27
I61
sa(dp461
g21
VSAPPHIRE LADY
p462
sg23
V12561
p463
sg25
I86
sg26
I17
sg27
I86
sa(dp464
g21
VSTOOSHIE
p465
sg23
V53236
p466
sg25
I80
sg26
I18
sg27
I80
sa(dp467
g21
VCUT THE MUSTARD
p468
sg23
V1600x
p469
sg25
I85
sg26
I19
sg27
I63
sa(dp470
g21
VTHE HOLY ONE
p471
sg23
V33x47
p472
sg25
I68
sg26
I20
sg27
I66
sa(dp473
g21
VTORNADO WATCH
p474
sg23
V710x2
p475
sg25
I66
sg26
I21
sg27
I65
sa(dp476
g21
VTARA DYLAN
p477
sg23
Vx0263
p478
sg25
I77
sg26
I22
sg27
I77
sasg61
(lp479
sssI1543759800
(dp480
g2
Vhttp://www.skyracing.com.au/index.php?component=racing&task=race&id=108380408&meetingid=107752418&Itemid=89
p481
sg4
V29031929.1410
p482
sg6
(dp483
g8
(lp484
(lp485
I1
aI3
aI2
aI7
aa(lp486
I2
aI1
aI4
aI3
aa(lp487
I2
aI1
aI4
aI3
aa(lp488
I2
aI1
aI4
aI3
aa(lp489
I2
aI1
aI3
aI7
aa(lp490
I1
aI3
aI2
aI7
aa(lp491
I1
aI9
aI3
aI4
aa(lp492
I1
aI2
aI3
aI4
aasg18
(lp493
(dp494
g21
VOUT SAM
p495
sg23
V33x15
p496
sg25
I100
sg26
I1
sg27
I100
sa(dp497
g21
VROGUE ANGEL
p498
sg23
V13620
p499
sg25
I80
sg26
I2
sg27
I94
sa(dp500
g21
VFITZHENRY
p501
sg23
V212x6
p502
sg25
I96
sg26
I3
sg27
I98
sa(dp503
g21
VVELOCITY BOY
p504
sg23
Vx9x20
p505
sg25
I94
sg26
I4
sg27
I81
sa(dp506
g21
VMAJOR DESTINATION
p507
sg23
V03207
p508
sg25
I76
sg26
I5
sg27
I70
sa(dp509
g21
VKILKISHEN
p510
sg23
V5634x
p511
sg25
I70
sg26
I6
sg27
I80
sa(dp512
g21
VOATHKEEPER
p513
sg23
V023x8
p514
sg25
I83
sg26
I7
sg27
I88
sa(dp515
g21
VUNDRESSED
p516
sg23
V2259x
p517
sg25
I67
sg26
I8
sg27
I73
sa(dp518
g21
VDINNIE'S VINNIE
p519
sg23
V841x6
p520
sg25
I88
sg26
I9
sg27
I65
sa(dp521
g21
VUNE LAVANDIERE
p522
sg23
V49x58
p523
sg25
I61
sg26
I10
sg27
I62
sasg61
(lp524
sssI1543756500
(dp525
g2
Vhttp://www.skyracing.com.au/index.php?component=racing&task=race&id=108380421&meetingid=107360805&Itemid=89
p526
sg4
V29031950.1315
p527
sg6
(dp528
g8
(lp529
(lp530
I4
aI2
aI3
aI1
aa(lp531
I4
aI2
aI3
aI1
aa(lp532
I2
aI3
aI1
aI6
aa(lp533
I2
aI4
aI3
aI1
aa(lp534
I4
aI2
aI1
aI6
aa(lp535
I4
aI2
aI3
aI1
aa(lp536
I4
aI2
aI3
aI6
aa(lp537
I2
aI4
aI3
aI1
aasg18
(lp538
(dp539
g21
VAVONMORE
p540
sg23
V634x3
p541
sg25
I81
sg26
I1
sg27
I86
sa(dp542
g21
VCEARA BE
p543
sg23
Vx0x63
p544
sg25
I95
sg26
I2
sg27
I95
sa(dp545
g21
VCUT AND RUN
p546
sg23
Vx9x55
p547
sg25
I93
sg26
I3
sg27
I92
sa(dp548
g21
VIT'S O KAY
p549
sg23
V421x8
p550
sg25
I100
sg26
I4
sg27
I100
sa(dp551
g21
VRUBY DU BERLAIS
p552
sg23
g88
sg25
I80
sg26
I5
sg27
I0
sa(dp553
g21
VSHOW OF FORCE
p554
sg23
V16880
p555
sg25
I88
sg26
I6
sg27
I84
sasg61
(lp556
sssI1543760400
(dp557
g2
Vhttp://www.skyracing.com.au/index.php?component=racing&task=race&id=108380423&meetingid=107360805&Itemid=89
p558
sg4
V29031950.1420
p559
sg6
(dp560
g8
(lp561
(lp562
I5
aI3
aI2
aI6
aa(lp563
I3
aI1
aI4
aI6
aa(lp564
I3
aI6
aI5
aI2
aa(lp565
I3
aI2
aI1
aI5
aa(lp566
I3
aI4
aI5
aI2
aa(lp567
I5
aI2
aI3
aI6
aa(lp568
I5
aI2
aI3
aI6
aa(lp569
I3
aI5
aI2
aI6
aasg18
(lp570
(dp571
g21
VMY MANEKINEKO
p572
sg23
V93985
p573
sg25
I78
sg26
I1
sg27
I78
sa(dp574
g21
VAMANTO
p575
sg23
V134x3
p576
sg25
I94
sg26
I2
sg27
I93
sa(dp577
g21
VMASTER WORK
p578
sg23
Vx00x1
p579
sg25
I97
sg26
I3
sg27
I97
sa(dp580
g21
VTHE TWISLER
p581
sg23
V31x68
p582
sg25
I82
sg26
I4
sg27
I84
sa(dp583
g21
VWORLD PREMIER
p584
sg23
V30x51
p585
sg25
I100
sg26
I5
sg27
I100
sa(dp586
g21
VCOMEHERE HI
p587
sg23
V08204
p588
sg25
I87
sg26
I6
sg27
I89
sasg61
(lp589
sssI1543757100
(dp590
g2
Vhttp://www.skyracing.com.au/index.php?component=racing&task=race&id=108380377&meetingid=107360789&Itemid=89
p591
sg4
V29031948.1325
p592
sg6
(dp593
g8
(lp594
(lp595
I2
aI4
aI1
aI3
aa(lp596
I1
aI2
aI4
aI3
aa(lp597
I3
aI2
aI1
aI4
aa(lp598
I4
aI2
aI3
aI1
aa(lp599
I4
aI2
aI1
aI3
aa(lp600
I3
aI2
aI4
aI1
aa(lp601
I2
aI4
aI3
aI1
aa(lp602
I2
aI4
aI3
aI1
aasg18
(lp603
(dp604
g21
VGOT AWAY
p605
sg23
V16x0x
p606
sg25
I90
sg26
I1
sg27
I94
sa(dp607
g21
VRONS DREAM
p608
sg23
V101x1
p609
sg25
I100
sg26
I2
sg27
I100
sa(dp610
g21
VELUSIVE THEATRE
p611
sg23
V30x45
p612
sg25
I88
sg26
I3
sg27
I80
sa(dp613
g21
VPEARL ROYALE
p614
sg23
V1x16x
p615
sg25
I96
sg26
I4
sg27
I98
sasg61
(lp616
sssI1543764600
(dp617
g2
Vhttp://www.skyracing.com.au/index.php?component=racing&task=race&id=108380381&meetingid=107360789&Itemid=89
p618
sg4
V29031948.1530
p619
sg6
(dp620
g8
(lp621
(lp622
I1
aI2
aI3
aI4
aa(lp623
I1
aI2
aI4
aI3
aa(lp624
I5
aI3
aI4
aI6
aa(lp625
I1
aI2
aI4
aI5
aa(lp626
I4
aI2
aI3
aI5
aa(lp627
I1
aI2
aI4
aI3
aa(lp628
I1
aI2
aI6
aI3
aa(lp629
I1
aI2
aI4
aI3
aasg18
(lp630
(dp631
g21
VCARALINE
p632
sg23
V2321x
p633
sg25
I100
sg26
I1
sg27
I100
sa(dp634
g21
VWHITSUNDAYS
p635
sg23
V1554x
p636
sg25
I97
sg26
I2
sg27
I98
sa(dp637
g21
VPRESENT FLIGHT
p638
sg23
V49x55
p639
sg25
I91
sg26
I3
sg27
I91
sa(dp640
g21
VCALIVIGNY
p641
sg23
V643x3
p642
sg25
I83
sg26
I4
sg27
I86
sa(dp643
g21
VROMULUS DU DONJON
p644
sg23
V5x270
p645
sg25
I78
sg26
I5
sg27
I79
sa(dp646
g21
VINSTINGTIVE
p647
sg23
V32272
p648
sg25
I89
sg26
I6
sg27
I81
sasg61
(lp649
sssI1543754100
(dp650
g2
Vhttp://www.skyracing.com.au/index.php?component=racing&task=race&id=108380405&meetingid=107752418&Itemid=89
p651
sg4
V29031929.1235
p652
sg6
(dp653
g8
(lp654
(lp655
I1
aI2
aI5
aI3
aa(lp656
I1
aI5
aI4
aI2
aa(lp657
I1
aI5
aI2
aI6
aa(lp658
I1
aI5
aI4
aI2
aa(lp659
I1
aI5
aI2
aI4
aa(lp660
I2
aI1
aI5
aI3
aa(lp661
I2
aI1
aI3
aI5
aa(lp662
I1
aI5
aI2
aI4
aasg18
(lp663
(dp664
g21
VCHIEF JUSTICE
p665
sg23
Vx1112
p666
sg25
I99
sg26
I1
sg27
I100
sa(dp667
g21
VCOEUR SUBLIME
p668
sg23
V1x1
p669
sg25
I100
sg26
I2
sg27
I93
sa(dp670
g21
VHUMANISTE
p671
sg23
V482x1
p672
sg25
I93
sg26
I3
sg27
I81
sa(dp673
g21
VIRISH MINISTER
p674
sg23
V07006
p675
sg25
I75
sg26
I4
sg27
I70
sa(dp676
g21
VLEVER DU SOLEIL
p677
sg23
V33201
p678
sg25
I89
sg26
I5
sg27
I87
sa(dp679
g21
VOUR LEGEND
p680
sg23
V00422
p681
sg25
I82
sg26
I6
sg27
I78
sa(dp682
g21
VGRASPING AT STRAWS
p683
sg23
V20575
p684
sg25
I78
sg26
I7
sg27
I75
sa(dp685
g21
VSO ENJOY
p686
sg23
V828x0
p687
sg25
I70
sg26
I8
sg27
I68
sasg61
(lp688
sssI1543757700
(dp689
g2
Vhttp://www.skyracing.com.au/index.php?component=racing&task=race&id=108380407&meetingid=107752418&Itemid=89
p690
sg4
V29031929.1335
p691
sg6
(dp692
g8
(lp693
(lp694
I1
aI7
aI4
aI2
aa(lp695
I2
aI7
aI3
aI1
aa(lp696
I7
aI2
aI3
aI1
aa(lp697
I7
aI2
aI3
aI9
aa(lp698
I3
aI2
aI1
aI11
aa(lp699
I2
aI7
aI1
aI4
aa(lp700
I1
aI4
aI2
aI7
aa(lp701
I2
aI7
aI1
aI3
aasg18
(lp702
(dp703
g21
VBLOW BY BLOW
p704
sg23
V47x12
p705
sg25
I96
sg26
I1
sg27
I100
sa(dp706
g21
VCADMIUM
p707
sg23
V15213
p708
sg25
I91
sg26
I2
sg27
I83
sa(dp709
g21
VCUBOMANIA
p710
sg23
V11314
p711
sg25
I87
sg26
I3
sg27
I77
sa(dp712
g21
VDELTA WORK
p713
sg23
V312x1
p714
sg25
I100
sg26
I4
sg27
I94
sa(dp715
g21
VDISCORAMA
p716
sg23
V725x1
p717
sg25
I83
sg26
I5
sg27
I74
sa(dp718
g21
VJETZ
p719
sg23
V28x91
p720
sg25
I76
sg26
I6
sg27
I72
sa(dp721
g21
VLE RICHEBOURG
p722
sg23
V0x511
p723
sg25
I94
sg26
I7
sg27
I98
sa(dp724
g21
VMIND'S EYE
p725
sg23
V04x21
p726
sg25
I84
sg26
I8
sg27
I80
sa(dp727
g21
VRASHAAN
p728
sg23
V51x24
p729
sg25
I79
sg26
I9
sg27
I67
sa(dp730
g21
VDAWN SHADOW
p731
sg23
V16x21
p732
sg25
I73
sg26
I10
sg27
I68
sa(dp733
g21
VHIGH NELLIE
p734
sg23
V38493
p735
sg25
I71
sg26
I11
sg27
I65
sasg61
(lp736
sssI1543758300
(dp737
g2
Vhttp://www.skyracing.com.au/index.php?component=racing&task=race&id=108380422&meetingid=107360805&Itemid=89
p738
sg4
V29031950.1345
p739
sg6
(dp740
g8
(lp741
(lp742
I1
aI5
aI3
aI2
aa(lp743
I1
aI3
aI2
aI5
aa(lp744
I3
aI2
aI1
aI5
aa(lp745
I1
aI5
aI3
aI4
aa(lp746
I1
aI4
aI3
aI2
aa(lp747
I3
aI1
aI5
aI2
aa(lp748
I1
aI4
aI2
aI5
aa(lp749
I1
aI3
aI5
aI2
aasg18
(lp750
(dp751
g21
VTRANS EXPRESS
p752
sg23
V23x72
p753
sg25
I98
sg26
I1
sg27
I100
sa(dp754
g21
VSTAR FOOT
p755
sg23
V0x486
p756
sg25
I92
sg26
I2
sg27
I83
sa(dp757
g21
VNAVAJO WAR DANCE
p758
sg23
Vx28x4
p759
sg25
I86
sg26
I3
sg27
I88
sa(dp760
g21
VSPORTY YANKEE
p761
sg23
Vx0x05
p762
sg25
I84
sg26
I4
sg27
I82
sa(dp763
g21
VWELLUPTOSCRATCH
p764
sg23
V07x23
p765
sg25
I100
sg26
I5
sg27
I98
sasg61
(lp766
sssI1543762200
(dp767
g2
Vhttp://www.skyracing.com.au/index.php?component=racing&task=race&id=108380424&meetingid=107360805&Itemid=89
p768
sg4
V29031950.1450
p769
sg6
(dp770
g8
(lp771
(lp772
I3
aI2
aI6
aI1
aa(lp773
I2
aI4
aI1
aI5
aa(lp774
I1
aI2
aI3
aI5
aa(lp775
I2
aI4
aI3
aI7
aa(lp776
I4
aI2
aI3
aI1
aa(lp777
I2
aI6
aI3
aI1
aa(lp778
I3
aI2
aI6
aI1
aa(lp779
I2
aI3
aI4
aI1
aasg18
(lp780
(dp781
g21
VSTONECOLDSOBA
p782
sg23
V84986
p783
sg25
I85
sg26
I1
sg27
I86
sa(dp784
g21
VHAASAB
p785
sg23
V759x2
p786
sg25
I96
sg26
I2
sg27
I94
sa(dp787
g21
VTHEREDBALLOON
p788
sg23
Vx2x72
p789
sg25
I100
sg26
I3
sg27
I100
sa(dp790
g21
VVENETIAN PROPOSAL
p791
sg23
V53x98
p792
sg25
I80
sg26
I4
sg27
I77
sa(dp793
g21
VBOOBOROWIE
p794
sg23
V93346
p795
sg25
I82
sg26
I5
sg27
I82
sa(dp796
g21
VHELF
p797
sg23
V815x5
p798
sg25
I93
sg26
I6
sg27
I92
sa(dp799
g21
VARTISTE DU GOUET
p800
sg23
Vx45x0
p801
sg25
I69
sg26
I7
sg27
I71
sa(dp802
g21
VKILCARAGH BOY
p803
sg23
V75087
p804
sg25
I76
sg26
I8
sg27
I75
sasg61
(lp805
sss.