(dp0
I1544016000
(dp1
S'skyracing_url'
p2
Vhttp://www.skyracing.com.au/index.php?component=racing&task=race&id=108470606&meetingid=107746114&Itemid=89
p3
sS'betfair_raceid'
p4
V29037004.1320
p5
sS'dat2'
p6
(dp7
S'ratings_auto'
p8
(lp9
(lp10
I3
aI1
aI2
aI4
aa(lp11
I1
aI3
aI2
aI4
aa(lp12
I1
aI3
aI2
aI4
aa(lp13
I1
aI3
aI2
aI4
aa(lp14
I3
aI1
aI2
aI4
aa(lp15
I3
aI1
aI2
aI4
aa(lp16
I3
aI1
aI2
aI4
aa(lp17
I3
aI1
aI2
aI4
aasS'horse_details'
p18
(lp19
(dp20
S'horse_name'
p21
VSPRINGTOWN LAKE
p22
sS'horse_form'
p23
V310x1
p24
sS'rating_2'
p25
I96
sS'horse_number'
p26
I1
sS'rating_1'
p27
I99
sa(dp28
g21
VKNOCKROBIN
p29
sg23
V123x3
p30
sg25
I92
sg26
I2
sg27
I94
sa(dp31
g21
VMR WHIPPED
p32
sg23
V120x3
p33
sg25
I100
sg26
I3
sg27
I100
sa(dp34
g21
VTRESHNISH
p35
sg23
V77x54
p36
sg25
I88
sg26
I4
sg27
I85
sasS'ratings_manual'
p37
(lp38
sssI1544020800
(dp39
g2
Vhttp://www.skyracing.com.au/index.php?component=racing&task=race&id=108470565&meetingid=107746146&Itemid=89
p40
sg4
V29035822.1440
p41
sg6
(dp42
g8
(lp43
(lp44
I8
aI1
aI2
aI5
aa(lp45
I2
aI4
aI1
aI7
aa(lp46
I1
aI2
aI4
aI8
aa(lp47
I2
aI1
aI4
aI5
aa(lp48
I2
aI9
aI4
aI8
aa(lp49
I8
aI1
aI2
aI5
aa(lp50
I8
aI2
aI1
aI5
aa(lp51
I2
aI1
aI8
aI4
aasg18
(lp52
(dp53
g21
VPIVOTAL FLAME
p54
sg23
V44547
p55
sg25
I93
sg26
I1
sg27
I98
sa(dp56
g21
VBECCA CAMPBELL
p57
sg23
V52734
p58
sg25
I99
sg26
I2
sg27
I94
sa(dp59
g21
VNESS OF BRODGAR
p60
sg23
Vx57x0
p61
sg25
I68
sg26
I3
sg27
I70
sa(dp62
g21
VLUNA MAGIC
p63
sg23
V27007
p64
sg25
I86
sg26
I4
sg27
I80
sa(dp65
g21
VSINGULAR QUEST
p66
sg23
V6x27x
p67
sg25
I90
sg26
I5
sg27
I90
sa(dp68
g21
VIONA ISLAND
p69
sg23
V6805x
p70
sg25
I79
sg26
I6
sg27
I70
sa(dp71
g21
VWAROFINDEPENDENCE
p72
sg23
V44440
p73
sg25
I82
sg26
I7
sg27
I84
sa(dp74
g21
VLIBERISQUE
p75
sg23
V22216
p76
sg25
I100
sg26
I8
sg27
I100
sa(dp77
g21
VTIGERFISH
p78
sg23
V02295
p79
sg25
I88
sg26
I9
sg27
I87
sa(dp80
g21
VBANTA BAY
p81
sg23
Vx5700
p82
sg25
I77
sg26
I10
sg27
I78
sa(dp83
g21
VCHORUS OF LIES
p84
sg23
Vx89x9
p85
sg25
I71
sg26
I11
sg27
I73
sa(dp86
g21
VMORNING SEQUEL
p87
sg23
Vx079x
p88
sg25
I74
sg26
I12
sg27
I0
sasg37
(lp89
sssI1544016900
(dp90
g2
Vhttp://www.skyracing.com.au/index.php?component=racing&task=race&id=108470563&meetingid=107746146&Itemid=89
p91
sg4
V29035822.1335
p92
sg6
(dp93
g8
(lp94
(lp95
I1
aI4
aI2
aI3
aa(lp96
I1
aI4
aI6
aI5
aa(lp97
I1
aI2
aI5
aI3
aa(lp98
I1
aI4
aI6
aI3
aa(lp99
I1
aI3
aI4
aI6
aa(lp100
I1
aI2
aI4
aI3
aa(lp101
I1
aI4
aI2
aI3
aa(lp102
I1
aI4
aI2
aI3
aasg18
(lp103
(dp104
g21
VCANTINIERE
p105
sg23
V21
p106
sg25
I100
sg26
I1
sg27
I100
sa(dp107
g21
VFRANK ROGERS
p108
sg23
V6
p109
sg25
I92
sg26
I2
sg27
I92
sa(dp110
g21
VMOCHALOV
p111
sg23
V0x3x
p112
sg25
I87
sg26
I3
sg27
I89
sa(dp113
g21
VSINGING SHERIFF
p114
sg23
V88x
p115
sg25
I97
sg26
I4
sg27
I96
sa(dp116
g21
VBLACK LACE
p117
sg23
V48500
p118
sg25
I78
sg26
I5
sg27
I79
sa(dp119
g21
VGIVEPEACEACHANCE
p120
sg23
V00x
p121
sg25
I83
sg26
I6
sg27
I81
sasg37
(lp122
sssI1544027400
(dp123
g2
Vhttp://www.skyracing.com.au/index.php?component=racing&task=race&id=108470665&meetingid=107746130&Itemid=89
p124
sg4
V29035823.1630
p125
sg6
(dp126
g8
(lp127
(lp128
I8
aI1
aI6
aI7
aa(lp129
I8
aI6
aI7
aI2
aa(lp130
I8
aI6
aI7
aI2
aa(lp131
I8
aI2
aI7
aI6
aa(lp132
I8
aI6
aI2
aI1
aa(lp133
I1
aI8
aI2
aI6
aa(lp134
I8
aI1
aI9
aI6
aa(lp135
I8
aI6
aI2
aI1
aasg18
(lp136
(dp137
g21
VEYE OF THE WATER
p138
sg23
Vx4183
p139
sg25
I99
sg26
I1
sg27
I94
sa(dp140
g21
VLUCACHANGRETTA
p141
sg23
V80
p142
sg25
I62
sg26
I2
sg27
I83
sa(dp143
g21
VPUSH BACK
p144
sg23
V
p145
sg25
I73
sg26
I3
sg27
I0
sa(dp146
g21
VSAN CARLOS
p147
sg23
g145
sg25
I63
sg26
I4
sg27
I0
sa(dp148
g21
VSCORCHED BREATH
p149
sg23
g145
sg25
I72
sg26
I5
sg27
I0
sa(dp150
g21
VTE AMO TE AMO
p151
sg23
V74
p152
sg25
I89
sg26
I6
sg27
I89
sa(dp153
g21
VTOTAL COMMITMENT
p154
sg23
V66
p155
sg25
I80
sg26
I7
sg27
I86
sa(dp156
g21
VAL MESSILA
p157
sg23
V32
p158
sg25
I100
sg26
I8
sg27
I100
sa(dp159
g21
VMAGIC IMAGE
p160
sg23
g145
sg25
I90
sg26
I9
sg27
I0
sa(dp161
g21
VMEGHAN SPARKLE
p162
sg23
g145
sg25
I83
sg26
I10
sg27
I0
sasg37
(lp163
sssI1544018700
(dp164
g2
Vhttp://www.skyracing.com.au/index.php?component=racing&task=race&id=108470564&meetingid=107746146&Itemid=89
p165
sg4
V29035822.1405
p166
sg6
(dp167
g8
(lp168
(lp169
I2
aI9
aI3
aI6
aa(lp170
I2
aI6
aI5
aI10
aa(lp171
I2
aI3
aI4
aI7
aa(lp172
I2
aI8
aI3
aI1
aa(lp173
I2
aI10
aI5
aI3
aa(lp174
I2
aI9
aI6
aI5
aa(lp175
I5
aI2
aI8
aI9
aa(lp176
I2
aI3
aI9
aI6
aasg18
(lp177
(dp178
g21
VFAMOUS DYNASTY
p179
sg23
V51740
p180
sg25
I74
sg26
I1
sg27
I77
sa(dp181
g21
VLAZARUS
p182
sg23
Vx7412
p183
sg25
I100
sg26
I2
sg27
I100
sa(dp184
g21
VBETSALOTTIE
p185
sg23
V25002
p186
sg25
I85
sg26
I3
sg27
I94
sa(dp187
g21
VVANITY VANITY
p188
sg23
V56693
p189
sg25
I79
sg26
I4
sg27
I84
sa(dp190
g21
VMUSIC MAJOR
p191
sg23
V80787
p192
sg25
I99
sg26
I5
sg27
I89
sa(dp193
g21
VTEMPLIER
p194
sg23
V23x0x
p195
sg25
I90
sg26
I6
sg27
I90
sa(dp196
g21
VWALLY'S WISDOM
p197
sg23
V415x4
p198
sg25
I75
sg26
I7
sg27
I79
sa(dp199
g21
VMISS INGA SOCK
p200
sg23
V0x006
p201
sg25
I94
sg26
I8
sg27
I81
sa(dp202
g21
VGUARDIOLA
p203
sg23
V6x224
p204
sg25
I89
sg26
I9
sg27
I98
sa(dp205
g21
VDOLPHIN VILLAGE
p206
sg23
V80688
p207
sg25
I83
sg26
I10
sg27
I74
sa(dp208
g21
VSILKEN MOONLIGHT
p209
sg23
V8x696
p210
sg25
I71
sg26
I11
sg27
I70
sa(dp211
g21
VMILLIE MAY
p212
sg23
V0x897
p213
sg25
I71
sg26
I12
sg27
I67
sa(dp214
g21
VMISTRESS NELLIE
p215
sg23
V26977
p216
sg25
I67
sg26
I13
sg27
I71
sasg37
(lp217
sssI1544011800
(dp218
g2
Vhttp://www.skyracing.com.au/index.php?component=racing&task=race&id=108470589&meetingid=107746162&Itemid=89
p219
sg4
V29037003.1210
p220
sg6
(dp221
g8
(lp222
(lp223
I9
aI8
aI3
aI2
aa(lp224
I8
aI9
aI3
aI5
aa(lp225
I3
aI8
aI10
aI9
aa(lp226
I8
aI7
aI9
aI5
aa(lp227
I8
aI9
aI1
aI2
aa(lp228
I9
aI8
aI3
aI2
aa(lp229
I9
aI2
aI8
aI4
aa(lp230
I8
aI9
aI3
aI2
aasg18
(lp231
(dp232
g21
VLASSANA ANGEL
p233
sg23
V85706
p234
sg25
I72
sg26
I1
sg27
I75
sa(dp235
g21
VSPADER
p236
sg23
V58x0x
p237
sg25
I93
sg26
I2
sg27
I86
sa(dp238
g21
VTAKE THE HIGH ROAD
p239
sg23
V80858
p240
sg25
I82
sg26
I3
sg27
I91
sa(dp241
g21
VSTREET ART
p242
sg23
V0960x
p243
sg25
I89
sg26
I4
sg27
I69
sa(dp244
g21
VMAY MIST
p245
sg23
V9x08x
p246
sg25
I64
sg26
I5
sg27
I63
sa(dp247
g21
VBRIDAL MARCH
p248
sg23
V68x00
p249
sg25
I76
sg26
I6
sg27
I78
sa(dp250
g21
VNOWHERETOEXIT
p251
sg23
Vx745x
p252
sg25
I78
sg26
I7
sg27
I82
sa(dp253
g21
VFIELD EXHIBITION
p254
sg23
V08651
p255
sg25
I95
sg26
I8
sg27
I99
sa(dp256
g21
VLET'S SWAY
p257
sg23
V63223
p258
sg25
I100
sg26
I9
sg27
I100
sa(dp259
g21
VPOT DE FLEUR
p260
sg23
V8x00
p261
sg25
I61
sg26
I10
sg27
I60
sasg37
(lp262
sssI1544021400
(dp263
g2
Vhttp://www.skyracing.com.au/index.php?component=racing&task=race&id=108470594&meetingid=107746162&Itemid=89
p264
sg4
V29037003.1450
p265
sg6
(dp266
g8
(lp267
(lp268
I1
aI4
aI3
aI2
aa(lp269
I3
aI2
aI5
aI4
aa(lp270
I3
aI2
aI1
aI4
aa(lp271
I2
aI5
aI3
aI1
aa(lp272
I3
aI1
aI4
aI2
aa(lp273
I3
aI1
aI4
aI5
aa(lp274
I1
aI4
aI2
aI3
aa(lp275
I3
aI1
aI2
aI4
aasg18
(lp276
(dp277
g21
VDESTINED TO SHINE
p278
sg23
Vx4x21
p279
sg25
I100
sg26
I1
sg27
I100
sa(dp280
g21
VCARROLLS MILAN
p281
sg23
Vx6x24
p282
sg25
I88
sg26
I2
sg27
I87
sa(dp283
g21
VDARK INVADER
p284
sg23
V23515
p285
sg25
I90
sg26
I3
sg27
I91
sa(dp286
g21
VSTOP TALKING
p287
sg23
V67521
p288
sg25
I97
sg26
I4
sg27
I98
sa(dp289
g21
VCUBAN PETE
p290
sg23
V739x6
p291
sg25
I83
sg26
I5
sg27
I82
sa(dp292
g21
VBLACK ANTHEM
p293
sg23
V63x77
p294
sg25
I79
sg26
I6
sg27
I78
sa(dp295
g21
VTHOMAS CROWN
p296
sg23
V74700
p297
sg25
I77
sg26
I7
sg27
I74
sasg37
(lp298
sssI1544023200
(dp299
g2
Vhttp://www.skyracing.com.au/index.php?component=racing&task=race&id=108470595&meetingid=107746162&Itemid=89
p300
sg4
V29037003.1520
p301
sg6
(dp302
g8
(lp303
(lp304
I11
aI12
aI16
aI10
aa(lp305
I12
aI10
aI16
aI11
aa(lp306
I12
aI16
aI11
aI15
aa(lp307
I16
aI12
aI10
aI11
aa(lp308
I12
aI16
aI11
aI10
aa(lp309
I10
aI16
aI11
aI12
aa(lp310
I11
aI12
aI2
aI10
aa(lp311
I12
aI16
aI11
aI10
aasg18
(lp312
(dp313
g21
VEARLY MORNING RAIN
p314
sg23
g145
sg25
I72
sg26
I1
sg27
I0
sa(dp315
g21
VELLARNA
p316
sg23
g145
sg25
I95
sg26
I2
sg27
I0
sa(dp317
g21
VHIGHLAND WAY
p318
sg23
V0
p319
sg25
I66
sg26
I3
sg27
I70
sa(dp320
g21
VJAUNTY SORIA
p321
sg23
V42x5x
p322
sg25
I80
sg26
I4
sg27
I78
sa(dp323
g21
VLIST ONE
p324
sg23
V6x
p325
sg25
I88
sg26
I5
sg27
I84
sa(dp326
g21
VLUGG RIVER
p327
sg23
g145
sg25
I76
sg26
I6
sg27
I0
sa(dp328
g21
VMADAM MALINA
p329
sg23
g145
sg25
I87
sg26
I7
sg27
I0
sa(dp330
g21
VMARLOW MOSS
p331
sg23
g145
sg25
I83
sg26
I8
sg27
I0
sa(dp332
g21
VMICK MONA
p333
sg23
g145
sg25
I68
sg26
I9
sg27
I0
sa(dp334
g21
VMISS DELIGHTED
p335
sg23
V9x32x
p336
sg25
I91
sg26
I10
sg27
I85
sa(dp337
g21
VMISTY WHISKY
p338
sg23
V2
p339
sg25
I100
sg26
I11
sg27
I100
sa(dp340
g21
VNORTHERN PRINCESS
p341
sg23
V2
p342
sg25
I97
sg26
I12
sg27
I96
sa(dp343
g21
VOUR ROCKSTAR
p344
sg23
V0
p345
sg25
I65
sg26
I13
sg27
I66
sa(dp346
g21
VPOGO I AM
p347
sg23
g145
sg25
I79
sg26
I14
sg27
I0
sa(dp348
g21
VSAGA SUCCES
p349
sg23
V9
p350
sg25
I75
sg26
I15
sg27
I75
sa(dp351
g21
VTEME SPIRIT
p352
sg23
V2x9
p353
sg25
I93
sg26
I16
sg27
I93
sasg37
(lp354
sssI1544022000
(dp355
g2
Vhttp://www.skyracing.com.au/index.php?component=racing&task=race&id=108470609&meetingid=107746114&Itemid=89
p356
sg4
V29037004.1500
p357
sg6
(dp358
g8
(lp359
(lp360
I3
aI5
aI1
aI7
aa(lp361
I4
aI3
aI6
aI2
aa(lp362
I7
aI2
aI5
aI4
aa(lp363
I1
aI4
aI2
aI5
aa(lp364
I3
aI5
aI4
aI6
aa(lp365
I3
aI5
aI1
aI7
aa(lp366
I3
aI1
aI5
aI7
aa(lp367
I3
aI5
aI4
aI1
aasg18
(lp368
(dp369
g21
VBIGIRONONHISHIP
p370
sg23
V3x15x
p371
sg25
I94
sg26
I1
sg27
I93
sa(dp372
g21
VVOIE DANS VOIE
p373
sg23
V236x5
p374
sg25
I81
sg26
I2
sg27
I83
sa(dp375
g21
VHILLS OF DUBAI
p376
sg23
V1123x
p377
sg25
I100
sg26
I3
sg27
I100
sa(dp378
g21
VSTRONGLY SUGGESTED
p379
sg23
V20599
p380
sg25
I76
sg26
I4
sg27
I74
sa(dp381
g21
VSTEPS AND STAIRS
p382
sg23
V131x2
p383
sg25
I99
sg26
I5
sg27
I96
sa(dp384
g21
VMASTERPLAN
p385
sg23
V9x608
p386
sg25
I78
sg26
I6
sg27
I78
sa(dp387
g21
VABSOLUTELY DYLAN
p388
sg23
V78x13
p389
sg25
I88
sg26
I7
sg27
I86
sasg37
(lp390
sssI1544015400
(dp391
g2
Vhttp://www.skyracing.com.au/index.php?component=racing&task=race&id=108470591&meetingid=107746162&Itemid=89
p392
sg4
V29037003.1310
p393
sg6
(dp394
g8
(lp395
(lp396
I1
aI2
aI4
aI5
aa(lp397
I2
aI5
aI3
aI1
aa(lp398
I2
aI1
aI3
aI4
aa(lp399
I5
aI1
aI4
aI3
aa(lp400
I2
aI3
aI1
aI5
aa(lp401
I2
aI1
aI4
aI5
aa(lp402
I2
aI4
aI1
aI5
aa(lp403
I2
aI1
aI5
aI3
aasg18
(lp404
(dp405
g21
VMYSTIC SKY
p406
sg23
V7x321
p407
sg25
I95
sg26
I1
sg27
I100
sa(dp408
g21
VGIVEAWAY GLANCE
p409
sg23
V68561
p410
sg25
I100
sg26
I2
sg27
I94
sa(dp411
g21
VCUBSWIN
p412
sg23
Vx2646
p413
sg25
I83
sg26
I3
sg27
I76
sa(dp414
g21
VFLORAL BOUQUET
p415
sg23
V119x3
p416
sg25
I91
sg26
I4
sg27
I88
sa(dp417
g21
VLLANTARA
p418
sg23
V2511x
p419
sg25
I89
sg26
I5
sg27
I80
sasg37
(lp420
sssI1544013000
(dp421
g2
Vhttp://www.skyracing.com.au/index.php?component=racing&task=race&id=108470561&meetingid=107746146&Itemid=89
p422
sg4
V29035822.1230
p423
sg6
(dp424
g8
(lp425
(lp426
I6
aI1
aI2
aI5
aa(lp427
I1
aI6
aI3
aI2
aa(lp428
I1
aI6
aI3
aI2
aa(lp429
I6
aI2
aI1
aI5
aa(lp430
I6
aI1
aI2
aI3
aa(lp431
I6
aI1
aI2
aI5
aa(lp432
I2
aI1
aI6
aI5
aa(lp433
I6
aI1
aI2
aI3
aasg18
(lp434
(dp435
g21
VSILCA MISTRESS
p436
sg23
V227x1
p437
sg25
I100
sg26
I1
sg27
I99
sa(dp438
g21
VCURIOUS FOX
p439
sg23
V41723
p440
sg25
I91
sg26
I2
sg27
I92
sa(dp441
g21
VPORTO FERRO
p442
sg23
V58580
p443
sg25
I79
sg26
I3
sg27
I78
sa(dp444
g21
VANGEL ISLINGTON
p445
sg23
V423x9
p446
sg25
I82
sg26
I4
sg27
I84
sa(dp447
g21
VMAKE MAGIC
p448
sg23
V5414x
p449
sg25
I85
sg26
I5
sg27
I85
sa(dp450
g21
VWIRRAL GIRL
p451
sg23
V26561
p452
sg25
I98
sg26
I6
sg27
I100
sasg37
(lp453
sssI1544018100
(dp454
g2
Vhttp://www.skyracing.com.au/index.php?component=racing&task=race&id=108470607&meetingid=107746114&Itemid=89
p455
sg4
V29037004.1355
p456
sg6
(dp457
g8
(lp458
(lp459
I1
aI3
aI4
aI5
aa(lp460
I3
aI5
aI4
aI2
aa(lp461
I5
aI3
aI4
aI2
aa(lp462
I3
aI1
aI4
aI2
aa(lp463
I3
aI2
aI4
aI1
aa(lp464
I3
aI1
aI4
aI5
aa(lp465
I1
aI4
aI3
aI5
aa(lp466
I3
aI4
aI1
aI5
aasg18
(lp467
(dp468
g21
VDEMOPOLIS
p469
sg23
V1x
p470
sg25
I100
sg26
I1
sg27
I100
sa(dp471
g21
VNOBLE WARRIOR
p472
sg23
V02x1
p473
sg25
I81
sg26
I2
sg27
I76
sa(dp474
g21
VTHE BIG BITE
p475
sg23
V1x0x1
p476
sg25
I95
sg26
I3
sg27
I95
sa(dp477
g21
VDARKSIDEOFTARNSIDE
p478
sg23
V71646
p479
sg25
I92
sg26
I4
sg27
I86
sa(dp480
g21
VDIOCESE
p481
sg23
V123x4
p482
sg25
I85
sg26
I5
sg27
I84
sa(dp483
g21
VFIBONACCI
p484
sg23
Vx12x0
p485
sg25
I78
sg26
I6
sg27
I80
sasg37
(lp486
sssI1544009400
(dp487
g2
Vhttp://www.skyracing.com.au/index.php?component=racing&task=race&id=108470559&meetingid=107746146&Itemid=89
p488
sg4
V29035822.1130
p489
sg6
(dp490
g8
(lp491
(lp492
I3
aI10
aI8
aI6
aa(lp493
I2
aI7
aI14
aI1
aa(lp494
I2
aI6
aI10
aI9
aa(lp495
I2
aI7
aI12
aI10
aa(lp496
I7
aI2
aI3
aI1
aa(lp497
I3
aI10
aI8
aI6
aa(lp498
I3
aI10
aI8
aI2
aa(lp499
I2
aI7
aI3
aI10
aasg18
(lp500
(dp501
g21
VONEOVDEM
p502
sg23
V533x9
p503
sg25
I73
sg26
I1
sg27
I86
sa(dp504
g21
VIN THE RED
p505
sg23
V59060
p506
sg25
I90
sg26
I2
sg27
I73
sa(dp507
g21
VKAFEEL
p508
sg23
V1215x
p509
sg25
I100
sg26
I3
sg27
I100
sa(dp510
g21
VKNOCKOUT BLOW
p511
sg23
V3698x
p512
sg25
I71
sg26
I4
sg27
I76
sa(dp513
g21
VFIERY BREATH
p514
sg23
V7x00x
p515
sg25
I82
sg26
I5
sg27
I71
sa(dp516
g21
VSHOWMETHEDOUGH
p517
sg23
Vx5838
p518
sg25
I85
sg26
I6
sg27
I91
sa(dp519
g21
VINAAM
p520
sg23
V99006
p521
sg25
I78
sg26
I7
sg27
I79
sa(dp522
g21
VRIPLEY
p523
sg23
V78x4x
p524
sg25
I94
sg26
I8
sg27
I95
sa(dp525
g21
VGLOBAL HUMOR
p526
sg23
V69804
p527
sg25
I87
sg26
I9
sg27
I87
sa(dp528
g21
VDOLLAR VALUE
p529
sg23
V05515
p530
sg25
I97
sg26
I10
sg27
I96
sa(dp531
g21
VVENTRILOQUIST
p532
sg23
Vx090x
p533
sg25
I77
sg26
I11
sg27
I82
sa(dp534
g21
VWILSON
p535
sg23
V55040
p536
sg25
I64
sg26
I12
sg27
I71
sa(dp537
g21
VFROZEN LAKE
p538
sg23
V60x00
p539
sg25
I63
sg26
I13
sg27
I65
sa(dp540
g21
VCLEMENT
p541
sg23
V176x0
p542
sg25
I70
sg26
I14
sg27
I63
sasg37
(lp543
sssI1544019900
(dp544
g2
Vhttp://www.skyracing.com.au/index.php?component=racing&task=race&id=108470608&meetingid=107746114&Itemid=89
p545
sg4
V29037004.1425
p546
sg6
(dp547
g8
(lp548
(lp549
I8
aI10
aI5
aI6
aa(lp550
I3
aI9
aI11
aI4
aa(lp551
I3
aI10
aI9
aI6
aa(lp552
I4
aI7
aI11
aI3
aa(lp553
I11
aI10
aI3
aI6
aa(lp554
I8
aI10
aI5
aI6
aa(lp555
I8
aI10
aI6
aI2
aa(lp556
I10
aI3
aI8
aI11
aasg18
(lp557
(dp558
g21
VCHAMPAGNE CITY
p559
sg23
Vx414x
p560
sg25
I87
sg26
I1
sg27
I88
sa(dp561
g21
VTAXMEIFYOUCAN
p562
sg23
V30x37
p563
sg25
I86
sg26
I2
sg27
I79
sa(dp564
g21
VWILLIAM OF ORANGE
p565
sg23
V61554
p566
sg25
I75
sg26
I3
sg27
I76
sa(dp567
g21
VSECRETE STREAM
p568
sg23
V3x53x
p569
sg25
I81
sg26
I4
sg27
I80
sa(dp570
g21
VENVOL DE LA COUR
p571
sg23
Vx141x
p572
sg25
I94
sg26
I5
sg27
I94
sa(dp573
g21
VNAYATI
p574
sg23
V18x36
p575
sg25
I90
sg26
I6
sg27
I90
sa(dp576
g21
VMINELLA CHARMER
p577
sg23
V04x0x
p578
sg25
I71
sg26
I7
sg27
I70
sa(dp579
g21
VBILLINGSLEY
p580
sg23
V01x1x
p581
sg25
I99
sg26
I8
sg27
I100
sa(dp582
g21
VBECKY THE THATCHER
p583
sg23
V22864
p584
sg25
I78
sg26
I9
sg27
I85
sa(dp585
g21
VIDILICO
p586
sg23
V12x12
p587
sg25
I100
sg26
I10
sg27
I97
sa(dp588
g21
VVOCALISER
p589
sg23
V156x0
p590
sg25
I74
sg26
I11
sg27
I73
sasg37
(lp591
sssI1544011200
(dp592
g2
Vhttp://www.skyracing.com.au/index.php?component=racing&task=race&id=108470560&meetingid=107746146&Itemid=89
p593
sg4
V29035822.1200
p594
sg6
(dp595
g8
(lp596
(lp597
I2
aI6
aI1
aI4
aa(lp598
I2
aI3
aI1
aI4
aa(lp599
I2
aI3
aI1
aI6
aa(lp600
I3
aI2
aI4
aI1
aa(lp601
I6
aI2
aI4
aI12
aa(lp602
I2
aI6
aI4
aI1
aa(lp603
I2
aI6
aI1
aI4
aa(lp604
I2
aI6
aI3
aI1
aasg18
(lp605
(dp606
g21
VCOOLAGH MAGIC
p607
sg23
V366x0
p608
sg25
I94
sg26
I1
sg27
I94
sa(dp609
g21
VIN THE COVE
p610
sg23
V44431
p611
sg25
I100
sg26
I2
sg27
I100
sa(dp612
g21
VSAVOY BROWN
p613
sg23
V40955
p614
sg25
I84
sg26
I3
sg27
I84
sa(dp615
g21
VPAGEANT MASTER
p616
sg23
Vx5820
p617
sg25
I91
sg26
I4
sg27
I92
sa(dp618
g21
VCOMEONFEELTHEFORCE
p619
sg23
V445x9
p620
sg25
I81
sg26
I5
sg27
I80
sa(dp621
g21
VVALLEY BELLE
p622
sg23
V30412
p623
sg25
I98
sg26
I6
sg27
I97
sa(dp624
g21
VON THE BOB
p625
sg23
V77x9
p626
sg25
I74
sg26
I7
sg27
I73
sa(dp627
g21
VJEWEL OF THE SEA
p628
sg23
V48467
p629
sg25
I89
sg26
I8
sg27
I89
sa(dp630
g21
VEVER ROCK
p631
sg23
V4x670
p632
sg25
I76
sg26
I9
sg27
I76
sa(dp633
g21
VKEEP IT COUNTRY TV
p634
sg23
V54586
p635
sg25
I79
sg26
I10
sg27
I79
sa(dp636
g21
VFARUMP
p637
sg23
V0640x
p638
sg25
I67
sg26
I11
sg27
I64
sa(dp639
g21
VHABANERA
p640
sg23
V3x067
p641
sg25
I71
sg26
I12
sg27
I71
sa(dp642
g21
VKANDINSKY
p643
sg23
V09x9
p644
sg25
I70
sg26
I13
sg27
I71
sasg37
(lp645
sssI1544013600
(dp646
g2
Vhttp://www.skyracing.com.au/index.php?component=racing&task=race&id=108470590&meetingid=107746162&Itemid=89
p647
sg4
V29037003.1240
p648
sg6
(dp649
g8
(lp650
(lp651
I1
aI6
aI4
aI8
aa(lp652
I1
aI2
aI3
aI4
aa(lp653
I1
aI4
aI2
aI6
aa(lp654
I1
aI2
aI3
aI4
aa(lp655
I9
aI2
aI4
aI8
aa(lp656
I4
aI1
aI6
aI8
aa(lp657
I6
aI2
aI1
aI4
aa(lp658
I1
aI4
aI2
aI6
aasg18
(lp659
(dp660
g21
VLONGHOUSESIGNORA
p661
sg23
V427x4
p662
sg25
I94
sg26
I1
sg27
I100
sa(dp663
g21
VBOLVING
p664
sg23
V042x6
p665
sg25
I97
sg26
I2
sg27
I81
sa(dp666
g21
VASK CATKIN
p667
sg23
V450x3
p668
sg25
I75
sg26
I3
sg27
I73
sa(dp669
g21
VORTENZIA
p670
sg23
V47137
p671
sg25
I88
sg26
I4
sg27
I90
sa(dp672
g21
VNOMINATION GAME
p673
sg23
Vx6643
p674
sg25
I70
sg26
I5
sg27
I68
sa(dp675
g21
VGOLD BONNE RAINE
p676
sg23
Vx6325
p677
sg25
I100
sg26
I6
sg27
I96
sa(dp678
g21
VMUILEAN NA MADOG
p679
sg23
Vx0477
p680
sg25
I64
sg26
I7
sg27
I60
sa(dp681
g21
VRUBY RUSSET
p682
sg23
V0425x
p683
sg25
I81
sg26
I8
sg27
I82
sa(dp684
g21
VSHININSTAR
p685
sg23
V3x533
p686
sg25
I80
sg26
I9
sg27
I76
sasg37
(lp687
sssI1544022600
(dp688
g2
Vhttp://www.skyracing.com.au/index.php?component=racing&task=race&id=108470566&meetingid=107746146&Itemid=89
p689
sg4
V29035822.1510
p690
sg6
(dp691
g8
(lp692
(lp693
I7
aI12
aI11
aI10
aa(lp694
I13
aI7
aI14
aI4
aa(lp695
I7
aI4
aI2
aI6
aa(lp696
I13
aI14
aI4
aI9
aa(lp697
I14
aI7
aI13
aI12
aa(lp698
I7
aI12
aI11
aI10
aa(lp699
I7
aI11
aI12
aI9
aa(lp700
I7
aI13
aI14
aI12
aasg18
(lp701
(dp702
g21
VPARTY ROYAL
p703
sg23
Vx0234
p704
sg25
I73
sg26
I1
sg27
I73
sa(dp705
g21
VRAHMAH
p706
sg23
Vx0245
p707
sg25
I79
sg26
I2
sg27
I84
sa(dp708
g21
VPRINCE CHARMIN'
p709
sg23
Vx570x
p710
sg25
I86
sg26
I3
sg27
I75
sa(dp711
g21
VARGYLE
p712
sg23
V050x2
p713
sg25
I83
sg26
I4
sg27
I87
sa(dp714
g21
VNAFAAYES
p715
sg23
V45902
p716
sg25
I66
sg26
I5
sg27
I72
sa(dp717
g21
VPLANETOID
p718
sg23
V39844
p719
sg25
I87
sg26
I6
sg27
I71
sa(dp720
g21
VMIZEN MASTER
p721
sg23
V415x1
p722
sg25
I100
sg26
I7
sg27
I100
sa(dp723
g21
VSEVENTII
p724
sg23
V54628
p725
sg25
I68
sg26
I8
sg27
I79
sa(dp726
g21
VSLOWFOOT
p727
sg23
V77476
p728
sg25
I77
sg26
I9
sg27
I67
sa(dp729
g21
VMISKIN
p730
sg23
V3422x
p731
sg25
I92
sg26
I10
sg27
I92
sa(dp732
g21
VALEXIS CARRINGTON
p733
sg23
V66223
p734
sg25
I94
sg26
I11
sg27
I93
sa(dp735
g21
VEARTHLY
p736
sg23
V53232
p737
sg25
I96
sg26
I12
sg27
I98
sa(dp738
g21
VSEA'S ARIA
p739
sg23
V23964
p740
sg25
I63
sg26
I13
sg27
I62
sa(dp741
g21
VKNAB ROCK
p742
sg23
V37075
p743
sg25
I71
sg26
I14
sg27
I81
sasg37
(lp744
sssI1544014800
(dp745
g2
Vhttp://www.skyracing.com.au/index.php?component=racing&task=race&id=108470562&meetingid=107746146&Itemid=89
p746
sg4
V29035822.1300
p747
sg6
(dp748
g8
(lp749
(lp750
I4
aI3
aI5
aI6
aa(lp751
I4
aI3
aI2
aI5
aa(lp752
I4
aI2
aI3
aI5
aa(lp753
I4
aI2
aI3
aI5
aa(lp754
I2
aI4
aI3
aI5
aa(lp755
I3
aI4
aI5
aI6
aa(lp756
I4
aI5
aI3
aI6
aa(lp757
I4
aI3
aI2
aI5
aasg18
(lp758
(dp759
g21
VDRAGON MALL
p760
sg23
V127x9
p761
sg25
I79
sg26
I1
sg27
I0
sa(dp762
g21
VGORING
p763
sg23
V0x062
p764
sg25
I82
sg26
I2
sg27
I78
sa(dp765
g21
VSCARLET DRAGON
p766
sg23
V30x34
p767
sg25
I90
sg26
I3
sg27
I95
sa(dp768
g21
VTOAST OF NEW YORK
p769
sg23
V10x24
p770
sg25
I100
sg26
I4
sg27
I100
sa(dp771
g21
VNORTH FACE
p772
sg23
V126
p773
sg25
I96
sg26
I5
sg27
I90
sa(dp774
g21
VMANGO TANGO
p775
sg23
V3174x
p776
sg25
I85
sg26
I6
sg27
I81
sasg37
(lp777
sssI1544014200
(dp778
g2
Vhttp://www.skyracing.com.au/index.php?component=racing&task=race&id=108470605&meetingid=107746114&Itemid=89
p779
sg4
V29037004.1250
p780
sg6
(dp781
g8
(lp782
(lp783
I3
aI1
aI10
aI4
aa(lp784
I7
aI4
aI2
aI1
aa(lp785
I7
aI2
aI1
aI6
aa(lp786
I7
aI2
aI6
aI1
aa(lp787
I7
aI10
aI2
aI6
aa(lp788
I1
aI3
aI10
aI7
aa(lp789
I3
aI10
aI1
aI4
aa(lp790
I7
aI1
aI2
aI3
aasg18
(lp791
(dp792
g21
VBROWNDODD
p793
sg23
V6
p794
sg25
I92
sg26
I1
sg27
I94
sa(dp795
g21
VBUDDHA SCHEME
p796
sg23
V3x4
p797
sg25
I78
sg26
I2
sg27
I73
sa(dp798
g21
VHALLOWEEN HARRY
p799
sg23
V1x
p800
sg25
I100
sg26
I3
sg27
I100
sa(dp801
g21
VKOOTENAY RIVER
p802
sg23
V122x8
p803
sg25
I85
sg26
I4
sg27
I80
sa(dp804
g21
VLEOPARD
p805
sg23
V9x5x9
p806
sg25
I72
sg26
I5
sg27
I66
sa(dp807
g21
VMODERN WARFAIR
p808
sg23
V2x4
p809
sg25
I73
sg26
I6
sg27
I70
sa(dp810
g21
VNEWTIDE
p811
sg23
V2x4
p812
sg25
I83
sg26
I7
sg27
I78
sa(dp813
g21
VQUASI
p814
sg23
V08x
p815
sg25
I60
sg26
I8
sg27
I55
sa(dp816
g21
VTORONTO SOUND
p817
sg23
V3x00x
p818
sg25
I67
sg26
I9
sg27
I61
sa(dp819
g21
VLEVEROCK LASS
p820
sg23
V1x
p821
sg25
I98
sg26
I10
sg27
I87
sasg37
(lp822
sssI1544025300
(dp823
g2
Vhttp://www.skyracing.com.au/index.php?component=racing&task=race&id=108470664&meetingid=107746130&Itemid=89
p824
sg4
V29035823.1555
p825
sg6
(dp826
g8
(lp827
(lp828
I1
aI7
aI3
aI6
aa(lp829
I1
aI7
aI3
aI2
aa(lp830
I7
aI3
aI2
aI6
aa(lp831
I1
aI7
aI3
aI4
aa(lp832
I7
aI3
aI1
aI2
aa(lp833
I1
aI7
aI6
aI3
aa(lp834
I1
aI7
aI3
aI6
aa(lp835
I7
aI1
aI3
aI6
aasg18
(lp836
(dp837
g21
VJAMES STREET
p838
sg23
V2118x
p839
sg25
I100
sg26
I1
sg27
I100
sa(dp840
g21
VMOLAAHETH
p841
sg23
V6
p842
sg25
I71
sg26
I2
sg27
I70
sa(dp843
g21
VREVOLUTIONISE
p844
sg23
V55
p845
sg25
I93
sg26
I3
sg27
I90
sa(dp846
g21
VRICOCHET
p847
sg23
V9x
p848
sg25
I81
sg26
I4
sg27
I81
sa(dp849
g21
VSHUG
p850
sg23
g145
sg25
I61
sg26
I5
sg27
I0
sa(dp851
g21
VSPEED KING
p852
sg23
V0
p853
sg25
I86
sg26
I6
sg27
I88
sa(dp854
g21
VTURQUOISE FRIENDLY
p855
sg23
V4
p856
sg25
I99
sg26
I7
sg27
I97
sa(dp857
g21
VFREEDREAMS
p858
sg23
g145
sg25
I66
sg26
I8
sg27
I0
sa(dp859
g21
VFREESIA GOLD
p860
sg23
V54x
p861
sg25
I77
sg26
I9
sg27
I77
sa(dp862
g21
VRING OUT THE BELLS
p863
sg23
V08x
p864
sg25
I79
sg26
I10
sg27
I78
sasg37
(lp865
sssI1544017500
(dp866
g2
Vhttp://www.skyracing.com.au/index.php?component=racing&task=race&id=108470592&meetingid=107746162&Itemid=89
p867
sg4
V29037003.1345
p868
sg6
(dp869
g8
(lp870
(lp871
I1
aI7
aI4
aI3
aa(lp872
I1
aI3
aI2
aI4
aa(lp873
I1
aI2
aI4
aI5
aa(lp874
I1
aI2
aI3
aI4
aa(lp875
I1
aI7
aI3
aI4
aa(lp876
I1
aI7
aI4
aI6
aa(lp877
I7
aI1
aI3
aI4
aa(lp878
I1
aI7
aI4
aI3
aasg18
(lp879
(dp880
g21
VSUMKINDOFKING
p881
sg23
V5x132
p882
sg25
I100
sg26
I1
sg27
I100
sa(dp883
g21
VGINGILI
p884
sg23
V1x0x4
p885
sg25
I82
sg26
I2
sg27
I75
sa(dp886
g21
VDAUPHINE EREINE
p887
sg23
V234x0
p888
sg25
I91
sg26
I3
sg27
I86
sa(dp889
g21
VBEAU DU BRIZAIS
p890
sg23
Vx6323
p891
sg25
I88
sg26
I4
sg27
I90
sa(dp892
g21
VUHLAN BUTE
p893
sg23
V15x75
p894
sg25
I72
sg26
I5
sg27
I72
sa(dp895
g21
VMORIANOUR
p896
sg23
V4x3x2
p897
sg25
I80
sg26
I6
sg27
I81
sa(dp898
g21
VGARDINERS HILL
p899
sg23
Vx2113
p900
sg25
I98
sg26
I7
sg27
I98
sa(dp901
g21
VPEMBROKE HOUSE
p902
sg23
V21x22
p903
sg25
I75
sg26
I8
sg27
I79
sasg37
(lp904
sssI1544019300
(dp905
g2
Vhttp://www.skyracing.com.au/index.php?component=racing&task=race&id=108470593&meetingid=107746162&Itemid=89
p906
sg4
V29037003.1415
p907
sg6
(dp908
g8
(lp909
(lp910
I5
aI1
aI2
aI3
aa(lp911
I4
aI1
aI2
aI5
aa(lp912
I1
aI2
aI4
aI3
aa(lp913
I4
aI1
aI2
aI5
aa(lp914
I5
aI2
aI1
aI4
aa(lp915
I2
aI5
aI1
aI4
aa(lp916
I5
aI1
aI2
aI3
aa(lp917
I1
aI2
aI5
aI4
aasg18
(lp918
(dp919
g21
VCOUP DE PINCEAU
p920
sg23
V1x6x1
p921
sg25
I96
sg26
I1
sg27
I97
sa(dp922
g21
VTHECLOCKISTICKING
p923
sg23
Vx2541
p924
sg25
I91
sg26
I2
sg27
I87
sa(dp925
g21
VDARIUS DES BOIS
p926
sg23
V7x12x
p927
sg25
I85
sg26
I3
sg27
I85
sa(dp928
g21
VHEAD TO THE STARS
p929
sg23
V220x0
p930
sg25
I81
sg26
I4
sg27
I78
sa(dp931
g21
VRED RIVER
p932
sg23
Vx131x
p933
sg25
I100
sg26
I5
sg27
I100
sasg37
(lp934
sssI1544012400
(dp935
g2
Vhttp://www.skyracing.com.au/index.php?component=racing&task=race&id=108470604&meetingid=107746114&Itemid=89
p936
sg4
V29037004.1220
p937
sg6
(dp938
g8
(lp939
(lp940
I1
aI9
aI4
aI5
aa(lp941
I5
aI3
aI1
aI4
aa(lp942
I1
aI6
aI7
aI4
aa(lp943
I5
aI3
aI4
aI8
aa(lp944
I1
aI4
aI3
aI5
aa(lp945
I4
aI1
aI9
aI5
aa(lp946
I9
aI1
aI4
aI2
aa(lp947
I1
aI4
aI5
aI3
aasg18
(lp948
(dp949
g21
VQURI
p950
sg23
Vx2x21
p951
sg25
I100
sg26
I1
sg27
I100
sa(dp952
g21
VPADDYS RUNNER
p953
sg23
V547x0
p954
sg25
I84
sg26
I2
sg27
I80
sa(dp955
g21
VBALLYMAGROARTY BOY
p956
sg23
Vx957x
p957
sg25
I79
sg26
I3
sg27
I76
sa(dp958
g21
VJUST BOBBY
p959
sg23
V3x1x0
p960
sg25
I91
sg26
I4
sg27
I88
sa(dp961
g21
VEMERALD CHIEFTAN
p962
sg23
V266x7
p963
sg25
I85
sg26
I5
sg27
I84
sa(dp964
g21
VSOLWAY LARK
p965
sg23
V70085
p966
sg25
I67
sg26
I6
sg27
I64
sa(dp967
g21
VCHOCOLAT NOIR
p968
sg23
V30x60
p969
sg25
I70
sg26
I7
sg27
I71
sa(dp970
g21
VTURTLE CASK
p971
sg23
V25x00
p972
sg25
I77
sg26
I8
sg27
I67
sa(dp973
g21
VAGENT LOUISE
p974
sg23
V0512x
p975
sg25
I96
sg26
I9
sg27
I98
sasg37
(lp976
sssI1544023800
(dp977
g2
Vhttp://www.skyracing.com.au/index.php?component=racing&task=race&id=108470610&meetingid=107746114&Itemid=89
p978
sg4
V29037004.1530
p979
sg6
(dp980
g8
(lp981
(lp982
I1
aI2
aI3
aI4
aa(lp983
I1
aI2
aI3
aI4
aa(lp984
I1
aI2
aI3
aI4
aa(lp985
I1
aI2
aI3
aI4
aa(lp986
I1
aI2
aI3
aI4
aa(lp987
I1
aI2
aI3
aI4
aa(lp988
I9
aI2
aI4
aI1
aa(lp989
I1
aI2
aI3
aI4
aasg18
(lp990
(dp991
g21
VBIG NASTY
p992
sg23
g145
sg25
I85
sg26
I1
sg27
I0
sa(dp993
g21
VCHUFFY CHUFFNELL
p994
sg23
g145
sg25
I95
sg26
I2
sg27
I0
sa(dp995
g21
VEBONY JEWEL
p996
sg23
g145
sg25
I77
sg26
I3
sg27
I0
sa(dp997
g21
VFARRANTS WAY
p998
sg23
g145
sg25
I93
sg26
I4
sg27
I0
sa(dp999
g21
VGETAWAY MISSION
p1000
sg23
g145
sg25
I69
sg26
I5
sg27
I0
sa(dp1001
g21
VMR GREY SKY
p1002
sg23
g145
sg25
I81
sg26
I6
sg27
I0
sa(dp1003
g21
VSEYMOUR SOX
p1004
sg23
g145
sg25
I60
sg26
I7
sg27
I0
sa(dp1005
g21
VSUPERVISOR
p1006
sg23
g145
sg25
I78
sg26
I8
sg27
I0
sa(dp1007
g21
VTOWER VIEW
p1008
sg23
g145
sg25
I100
sg26
I9
sg27
I0
sa(dp1009
g21
VAMORLETTE
p1010
sg23
g145
sg25
I65
sg26
I10
sg27
I0
sasg37
(lp1011
sss.