(dp0
I1542372000
(dp1
S'skyracing_url'
p2
Vhttp://www.skyracing.com.au/index.php?component=racing&task=race&id=107912657&meetingid=106619488&Itemid=89
p3
sS'betfair_raceid'
p4
V29011681.1240
p5
sS'dat2'
p6
(dp7
S'ratings_auto'
p8
(lp9
(lp10
I4
aI5
aI8
aI7
aa(lp11
I2
aI1
aI4
aI3
aa(lp12
I3
aI5
aI4
aI6
aa(lp13
I1
aI3
aI2
aI7
aa(lp14
I4
aI8
aI7
aI3
aa(lp15
I5
aI4
aI8
aI7
aa(lp16
I3
aI4
aI5
aI7
aa(lp17
I4
aI5
aI3
aI8
aasS'horse_details'
p18
(lp19
(dp20
S'horse_name'
p21
VWALK IN THE MILL
p22
sS'horse_form'
p23
V5130x
p24
sS'rating_2'
p25
I77
sS'horse_number'
p26
I1
sS'rating_1'
p27
I74
sa(dp28
g21
VJAMESON
p29
sg23
V4465x
p30
sg25
I80
sg26
I2
sg27
I78
sa(dp31
g21
VLOVELY JOB
p32
sg23
V1x4x4
p33
sg25
I92
sg26
I3
sg27
I80
sa(dp34
g21
VTHE YOUNG MASTER
p35
sg23
V608x1
p36
sg25
I94
sg26
I4
sg27
I100
sa(dp37
g21
VSKY PIRATE
p38
sg23
V31322
p39
sg25
I100
sg26
I5
sg27
I97
sa(dp40
g21
VSTATION MASTER
p41
sg23
V6x0x2
p42
sg25
I98
sg26
I6
sg27
I84
sa(dp43
g21
VBALLY LONGFORD
p44
sg23
Vx001x
p45
sg25
I88
sg26
I7
sg27
I92
sa(dp46
g21
VFOR GOOD MEASURE
p47
sg23
V4x3x5
p48
sg25
I78
sg26
I8
sg27
I95
sa(dp49
g21
VBEARLY LEGAL
p50
sg23
Vx007x
p51
sg25
I72
sg26
I9
sg27
I70
sa(dp52
g21
VPRESENTING JULIO
p53
sg23
Vx0633
p54
sg25
I85
sg26
I10
sg27
I87
sa(dp55
g21
VBOSCO DI ALCO
p56
sg23
V38554
p57
sg25
I74
sg26
I11
sg27
I76
sasS'ratings_manual'
p58
(lp59
sssI1542369600
(dp60
g2
Vhttp://www.skyracing.com.au/index.php?component=racing&task=race&id=107912597&meetingid=106619520&Itemid=89
p61
sg4
V29011796.1200
p62
sg6
(dp63
g8
(lp64
(lp65
I1
aI3
aI7
aI5
aa(lp66
I7
aI5
aI4
aI1
aa(lp67
I7
aI1
aI2
aI6
aa(lp68
I7
aI5
aI1
aI4
aa(lp69
I7
aI1
aI5
aI4
aa(lp70
I1
aI3
aI7
aI5
aa(lp71
I1
aI3
aI7
aI5
aa(lp72
I7
aI1
aI5
aI3
aasg18
(lp73
(dp74
g21
VWEATHER FRONT
p75
sg23
V11521
p76
sg25
I100
sg26
I1
sg27
I100
sa(dp77
g21
VBROOMEY ROAD
p78
sg23
V706
p79
sg25
I70
sg26
I2
sg27
I72
sa(dp80
g21
VEMPIRE DE MAULDE
p81
sg23
V1x44x
p82
sg25
I96
sg26
I3
sg27
I96
sa(dp83
g21
VINTO THE BREACH
p84
sg23
V77x
p85
sg25
I78
sg26
I4
sg27
I80
sa(dp86
g21
VPOINT BREAK
p87
sg23
V3463x
p88
sg25
I89
sg26
I5
sg27
I88
sa(dp89
g21
VRAECIUS FELIX
p90
sg23
V6
p91
sg25
I83
sg26
I6
sg27
I82
sa(dp92
g21
VREMEMBER THE DAYS
p93
sg23
V26444
p94
sg25
I90
sg26
I7
sg27
I92
sa(dp95
g21
VLEGALIZED
p96
sg23
Vx5x96
p97
sg25
I75
sg26
I8
sg27
I74
sasg58
(lp98
sssI1542382500
(dp99
g2
Vhttp://www.skyracing.com.au/index.php?component=racing&task=race&id=107912662&meetingid=106619488&Itemid=89
p100
sg4
V29011681.1535
p101
sg6
(dp102
g8
(lp103
(lp104
I8
aI4
aI5
aI6
aa(lp105
I5
aI4
aI7
aI6
aa(lp106
I4
aI5
aI1
aI2
aa(lp107
I4
aI7
aI8
aI5
aa(lp108
I4
aI7
aI6
aI5
aa(lp109
I4
aI8
aI5
aI6
aa(lp110
I8
aI4
aI5
aI6
aa(lp111
I4
aI5
aI8
aI7
aasg18
(lp112
(dp113
g21
VPERCY VEER
p114
sg23
V35115
p115
sg25
I73
sg26
I1
sg27
I78
sa(dp116
g21
VCAPTAIN PEACOCK
p117
sg23
Vx1128
p118
sg25
I63
sg26
I2
sg27
I63
sa(dp119
g21
VCOOLANLY
p120
sg23
Vx05x8
p121
sg25
I82
sg26
I3
sg27
I82
sa(dp122
g21
VDARLAC
p123
sg23
V2x7x1
p124
sg25
I99
sg26
I4
sg27
I96
sa(dp125
g21
VDOUBLE TREASURE
p126
sg23
V011x2
p127
sg25
I94
sg26
I5
sg27
I91
sa(dp128
g21
VKAPGARRY
p129
sg23
V12x21
p130
sg25
I85
sg26
I6
sg27
I86
sa(dp131
g21
VNESTOR PARK
p132
sg23
V1x50x
p133
sg25
I79
sg26
I7
sg27
I69
sa(dp134
g21
VPYM
p135
sg23
V29x12
p136
sg25
I100
sg26
I8
sg27
I100
sa(dp137
g21
VTRICKS AND TRAILS
p138
sg23
V0x32x
p139
sg25
I71
sg26
I9
sg27
I73
sasg58
(lp140
sssI1542377700
(dp141
g2
Vhttp://www.skyracing.com.au/index.php?component=racing&task=race&id=107912601&meetingid=106619520&Itemid=89
p142
sg4
V29011796.1415
p143
sg6
(dp144
g8
(lp145
(lp146
I5
aI4
aI6
aI2
aa(lp147
I5
aI4
aI2
aI6
aa(lp148
I1
aI2
aI3
aI5
aa(lp149
I4
aI2
aI1
aI6
aa(lp150
I5
aI6
aI2
aI4
aa(lp151
I2
aI5
aI4
aI6
aa(lp152
I5
aI6
aI4
aI2
aa(lp153
I5
aI2
aI4
aI6
aasg18
(lp154
(dp155
g21
VARCHVIEW SUNSHINE
p156
sg23
V59x08
p157
sg25
I78
sg26
I1
sg27
I75
sa(dp158
g21
VDONNAS DREAM
p159
sg23
V645x0
p160
sg25
I87
sg26
I2
sg27
I80
sa(dp161
g21
VINAJIFFY
p162
sg23
V00x0
p163
sg25
I83
sg26
I3
sg27
I77
sa(dp164
g21
VROCOCO STYLE
p165
sg23
Vx0x39
p166
sg25
I95
sg26
I4
sg27
I96
sa(dp167
g21
VRUBYTWO
p168
sg23
V2x1x4
p169
sg25
I100
sg26
I5
sg27
I100
sa(dp170
g21
VTERMINAL ONE
p171
sg23
V3x
p172
sg25
I92
sg26
I6
sg27
I93
sasg58
(lp173
sssI1542378300
(dp174
g2
Vhttp://www.skyracing.com.au/index.php?component=racing&task=race&id=107912660&meetingid=106619488&Itemid=89
p175
sg4
V29011681.1425
p176
sg6
(dp177
g8
(lp178
(lp179
I6
aI3
aI5
aI7
aa(lp180
I1
aI3
aI2
aI4
aa(lp181
I1
aI2
aI4
aI3
aa(lp182
I1
aI2
aI4
aI5
aa(lp183
I1
aI2
aI6
aI4
aa(lp184
I3
aI6
aI5
aI7
aa(lp185
I6
aI3
aI5
aI7
aa(lp186
I1
aI3
aI2
aI6
aasg18
(lp187
(dp188
g21
VCOUNT MERIBEL
p189
sg23
V650x1
p190
sg25
I78
sg26
I1
sg27
I78
sa(dp191
g21
VGRAASTEN
p192
sg23
V16x13
p193
sg25
I76
sg26
I2
sg27
I74
sa(dp194
g21
VJENKINS
p195
sg23
V000x1
p196
sg25
I93
sg26
I3
sg27
I95
sa(dp197
g21
VLE BREUIL
p198
sg23
V015x1
p199
sg25
I82
sg26
I4
sg27
I84
sa(dp200
g21
VJERRYSBACK
p201
sg23
V1x11x
p202
sg25
I96
sg26
I5
sg27
I91
sa(dp203
g21
VMR WHIPPED
p204
sg23
V1120x
p205
sg25
I100
sg26
I6
sg27
I100
sa(dp206
g21
VWHITE MOON
p207
sg23
Vx117x
p208
sg25
I86
sg26
I7
sg27
I88
sasg58
(lp209
sssI1542376200
(dp210
g2
Vhttp://www.skyracing.com.au/index.php?component=racing&task=race&id=107912659&meetingid=106619488&Itemid=89
p211
sg4
V29011681.1350
p212
sg6
(dp213
g8
(lp214
(lp215
I2
aI1
aI3
aI7
aa(lp216
I2
aI3
aI4
aI5
aa(lp217
I4
aI5
aI7
aI6
aa(lp218
I2
aI5
aI3
aI6
aa(lp219
I6
aI7
aI2
aI5
aa(lp220
I2
aI1
aI3
aI7
aa(lp221
I2
aI3
aI1
aI5
aa(lp222
I2
aI3
aI5
aI7
aasg18
(lp223
(dp224
g21
VA HARE BREATH
p225
sg23
V1x88x
p226
sg25
I95
sg26
I1
sg27
I96
sa(dp227
g21
VBUN DORAN
p228
sg23
V3x35x
p229
sg25
I100
sg26
I2
sg27
I100
sa(dp230
g21
VDOITFORTHEVILLAGE
p231
sg23
V4264x
p232
sg25
I94
sg26
I3
sg27
I91
sa(dp233
g21
VSHANAHAN'S TURN
p234
sg23
V920x3
p235
sg25
I78
sg26
I4
sg27
I78
sa(dp236
g21
VROCK ON ROCKY
p237
sg23
V10x83
p238
sg25
I76
sg26
I5
sg27
I77
sa(dp239
g21
VMOVIE LEGEND
p240
sg23
V275x1
p241
sg25
I85
sg26
I6
sg27
I82
sa(dp242
g21
VPEPPAY LE PUGH
p243
sg23
V16213
p244
sg25
I82
sg26
I7
sg27
I89
sasg58
(lp245
sssI1542383100
(dp246
g2
Vhttp://www.skyracing.com.au/index.php?component=racing&task=race&id=107912633&meetingid=106619504&Itemid=89
p247
sg4
V29010189.1545
p248
sg6
(dp249
g8
(lp250
(lp251
I2
aI4
aI6
aI8
aa(lp252
I9
aI6
aI5
aI4
aa(lp253
I4
aI2
aI3
aI7
aa(lp254
I3
aI4
aI5
aI10
aa(lp255
I8
aI4
aI3
aI6
aa(lp256
I4
aI2
aI8
aI6
aa(lp257
I2
aI4
aI6
aI8
aa(lp258
I4
aI2
aI3
aI6
aasg18
(lp259
(dp260
g21
VCLASSY CAILIN
p261
sg23
V496
p262
sg25
I77
sg26
I1
sg27
I77
sa(dp263
g21
VBROUGHTON EXCELS
p264
sg23
V0x512
p265
sg25
I100
sg26
I2
sg27
I100
sa(dp266
g21
VWATCH TAN
p267
sg23
V24643
p268
sg25
I88
sg26
I3
sg27
I86
sa(dp269
g21
VSPIRIT OF ZEBEDEE
p270
sg23
V23812
p271
sg25
I97
sg26
I4
sg27
I96
sa(dp272
g21
VFAIRWAY TO HEAVEN
p273
sg23
V6x300
p274
sg25
I82
sg26
I5
sg27
I80
sa(dp275
g21
VMALAYSIAN BOLEH
p276
sg23
V45576
p277
sg25
I92
sg26
I6
sg27
I93
sa(dp278
g21
VCHARLIE ALPHA
p279
sg23
V65429
p280
sg25
I79
sg26
I7
sg27
I82
sa(dp281
g21
VDROP KICK MURPHI
p282
sg23
V93733
p283
sg25
I95
sg26
I8
sg27
I88
sa(dp284
g21
VCOMPTON PRINCE
p285
sg23
V09870
p286
sg25
I84
sg26
I9
sg27
I68
sa(dp287
g21
VAFRICAN GIRL
p288
sg23
V2098x
p289
sg25
I69
sg26
I10
sg27
I72
sa(dp290
g21
VSTORM TROOPER
p291
sg23
V6x706
p292
sg25
I70
sg26
I11
sg27
I73
sa(dp293
g21
VPRANCEABOOTTHETOON
p294
sg23
V47860
p295
sg25
I73
sg26
I12
sg27
I69
sasg58
(lp296
sssI1542380400
(dp297
g2
Vhttp://www.skyracing.com.au/index.php?component=racing&task=race&id=107912661&meetingid=106619488&Itemid=89
p298
sg4
V29011681.1500
p299
sg6
(dp300
g8
(lp301
(lp302
I1
aI3
aI2
aI4
aa(lp303
I1
aI2
aI3
aI4
aa(lp304
I4
aI7
aI3
aI5
aa(lp305
I1
aI2
aI3
aI4
aa(lp306
I1
aI4
aI3
aI2
aa(lp307
I1
aI3
aI2
aI4
aa(lp308
I1
aI4
aI3
aI5
aa(lp309
I1
aI3
aI2
aI4
aasg18
(lp310
(dp311
g21
VTIGER ROLL
p312
sg23
V5x11x
p313
sg25
I100
sg26
I1
sg27
I100
sa(dp314
g21
VBLESS THE WINGS
p315
sg23
V0034x
p316
sg25
I88
sg26
I2
sg27
I93
sa(dp317
g21
VJOSIES ORDERS
p318
sg23
V021x0
p319
sg25
I92
sg26
I3
sg27
I98
sa(dp320
g21
VMIDNIGHT SHOT
p321
sg23
V86151
p322
sg25
I96
sg26
I4
sg27
I87
sa(dp323
g21
VBAY OF FREEDOM
p324
sg23
Vx7x07
p325
sg25
I79
sg26
I5
sg27
I80
sa(dp326
g21
VJAROB
p327
sg23
V3474x
p328
sg25
I77
sg26
I6
sg27
I76
sa(dp329
g21
VFACT OF THE MATTER
p330
sg23
V44227
p331
sg25
I81
sg26
I7
sg27
I83
sasg58
(lp332
sssI1542376800
(dp333
g2
Vhttp://www.skyracing.com.au/index.php?component=racing&task=race&id=107912630&meetingid=106619504&Itemid=89
p334
sg4
V29010189.1400
p335
sg6
(dp336
g8
(lp337
(lp338
I1
aI2
aI4
aI6
aa(lp339
I4
aI5
aI1
aI2
aa(lp340
I4
aI5
aI1
aI2
aa(lp341
I5
aI4
aI2
aI1
aa(lp342
I1
aI2
aI4
aI5
aa(lp343
I1
aI2
aI4
aI6
aa(lp344
I1
aI2
aI4
aI6
aa(lp345
I1
aI4
aI2
aI5
aasg18
(lp346
(dp347
g21
VUNCLE JERRY
p348
sg23
V86211
p349
sg25
I100
sg26
I1
sg27
I100
sa(dp350
g21
VGASLIGHT
p351
sg23
V8424
p352
sg25
I98
sg26
I2
sg27
I99
sa(dp353
g21
VTREASURE QUEST
p354
sg23
V2247x
p355
sg25
I76
sg26
I3
sg27
I77
sa(dp356
g21
VDENIS THE DIVA
p357
sg23
V643
p358
sg25
I91
sg26
I4
sg27
I90
sa(dp359
g21
VST OUEN
p360
sg23
V0x180
p361
sg25
I69
sg26
I5
sg27
I71
sa(dp362
g21
VPORT OF LEITH
p363
sg23
V3309x
p364
sg25
I87
sg26
I6
sg27
I88
sa(dp365
g21
VTERESITA ALVAREZ
p366
sg23
V855x
p367
sg25
I80
sg26
I7
sg27
I83
sa(dp368
g21
VCALL HIM AL
p369
sg23
V77567
p370
sg25
I83
sg26
I8
sg27
I80
sasg58
(lp371
sssI1542381900
(dp372
g2
Vhttp://www.skyracing.com.au/index.php?component=racing&task=race&id=107912603&meetingid=106619520&Itemid=89
p373
sg4
V29011796.1525
p374
sg6
(dp375
g8
(lp376
(lp377
I4
aI6
aI5
aI3
aa(lp378
I4
aI3
aI6
aI1
aa(lp379
I1
aI2
aI3
aI4
aa(lp380
I4
aI5
aI3
aI6
aa(lp381
I4
aI5
aI1
aI2
aa(lp382
I5
aI4
aI6
aI3
aa(lp383
I8
aI4
aI6
aI2
aa(lp384
I4
aI5
aI6
aI3
aasg18
(lp385
(dp386
g21
VBEAUTY DRAGON
p387
sg23
V
p388
sg25
I63
sg26
I1
sg27
I0
sa(dp389
g21
VDOTHRAKI PRINCE
p390
sg23
g388
sg25
I89
sg26
I2
sg27
I0
sa(dp391
g21
VFAST AND FRIENDLY
p392
sg23
V0x
p393
sg25
I73
sg26
I3
sg27
I80
sa(dp394
g21
VJUST CALL ME AL
p395
sg23
V4x
p396
sg25
I96
sg26
I4
sg27
I100
sa(dp397
g21
VLITTLE BAVINGTON
p398
sg23
V86x
p399
sg25
I79
sg26
I5
sg27
I85
sa(dp400
g21
VLOOK NOW
p401
sg23
V4x
p402
sg25
I91
sg26
I6
sg27
I97
sa(dp403
g21
VMALYSTIC
p404
sg23
g388
sg25
I81
sg26
I7
sg27
I0
sa(dp405
g21
VWILHELM VONVENSTER
p406
sg23
g388
sg25
I100
sg26
I8
sg27
I0
sa(dp407
g21
VLUCYHILUCYLOW
p408
sg23
g388
sg25
I62
sg26
I9
sg27
I0
sa(dp409
g21
VPICCALILLI PIE
p410
sg23
g388
sg25
I71
sg26
I10
sg27
I0
sasg58
(lp411
sssI1542375600
(dp412
g2
Vhttp://www.skyracing.com.au/index.php?component=racing&task=race&id=107912600&meetingid=106619520&Itemid=89
p413
sg4
V29011796.1340
p414
sg6
(dp415
g8
(lp416
(lp417
I2
aI1
aI3
aa(lp418
I1
aI2
aI3
aa(lp419
I2
aI1
aI3
aa(lp420
I1
aI2
aI3
aa(lp421
I1
aI2
aI3
aa(lp422
I2
aI1
aI3
aa(lp423
I2
aI3
aI1
aa(lp424
I2
aI1
aI3
aasg18
(lp425
(dp426
g21
VJET MASTER
p427
sg23
V05x83
p428
sg25
I95
sg26
I1
sg27
I96
sa(dp429
g21
VBRAVE SPARTACUS
p430
sg23
V95024
p431
sg25
I100
sg26
I2
sg27
I100
sa(dp432
g21
VULIS DE VASSY
p433
sg23
V356x4
p434
sg25
I92
sg26
I3
sg27
I91
sasg58
(lp435
sssI1542371400
(dp436
g2
Vhttp://www.skyracing.com.au/index.php?component=racing&task=race&id=107912598&meetingid=106619520&Itemid=89
p437
sg4
V29011796.1230
p438
sg6
(dp439
g8
(lp440
(lp441
I3
aI1
aI2
aa(lp442
I3
aI1
aI2
aa(lp443
I1
aI3
aI2
aa(lp444
I3
aI1
aI2
aa(lp445
I3
aI1
aI2
aa(lp446
I1
aI3
aI2
aa(lp447
I1
aI3
aI2
aa(lp448
I3
aI1
aI2
aasg18
(lp449
(dp450
g21
VCHOZEN
p451
sg23
V166x1
p452
sg25
I100
sg26
I1
sg27
I95
sa(dp453
g21
VFREE RANGE
p454
sg23
V14070
p455
sg25
I90
sg26
I2
sg27
I92
sa(dp456
g21
VCOUSIN OSCAR
p457
sg23
V25x44
p458
sg25
I98
sg26
I3
sg27
I100
sasg58
(lp459
sssI1542378900
(dp460
g2
Vhttp://www.skyracing.com.au/index.php?component=racing&task=race&id=107912631&meetingid=106619504&Itemid=89
p461
sg4
V29010189.1435
p462
sg6
(dp463
g8
(lp464
(lp465
I2
aI3
aI1
aI4
aa(lp466
I2
aI3
aI4
aI5
aa(lp467
I3
aI5
aI6
aI1
aa(lp468
I2
aI4
aI1
aI3
aa(lp469
I2
aI4
aI3
aI6
aa(lp470
I4
aI2
aI3
aI1
aa(lp471
I2
aI3
aI1
aI6
aa(lp472
I2
aI3
aI4
aI1
aasg18
(lp473
(dp474
g21
VLACUSTRE
p475
sg23
V7x24
p476
sg25
I90
sg26
I1
sg27
I92
sa(dp477
g21
VHEEYAAM
p478
sg23
V2x22x
p479
sg25
I100
sg26
I2
sg27
I100
sa(dp480
g21
VNASSYA
p481
sg23
Vx4532
p482
sg25
I98
sg26
I3
sg27
I95
sa(dp483
g21
VMISS MUMTAZ
p484
sg23
V35167
p485
sg25
I81
sg26
I4
sg27
I82
sa(dp486
g21
VCUILLIN
p487
sg23
V07x37
p488
sg25
I80
sg26
I5
sg27
I74
sa(dp489
g21
VDIXIELAND DIVA
p490
sg23
V43189
p491
sg25
I86
sg26
I6
sg27
I78
sasg58
(lp492
sssI1542370800
(dp493
g2
Vhttp://www.skyracing.com.au/index.php?component=racing&task=race&id=107912627&meetingid=106619504&Itemid=89
p494
sg4
V29010189.1220
p495
sg6
(dp496
g8
(lp497
(lp498
I7
aI1
aI4
aI8
aa(lp499
I9
aI4
aI1
aI6
aa(lp500
I4
aI7
aI5
aI3
aa(lp501
I9
aI1
aI4
aI3
aa(lp502
I8
aI4
aI1
aI9
aa(lp503
I1
aI7
aI4
aI12
aa(lp504
I7
aI1
aI10
aI8
aa(lp505
I4
aI1
aI7
aI9
aasg18
(lp506
(dp507
g21
VSEPRANI
p508
sg23
V32714
p509
sg25
I96
sg26
I1
sg27
I96
sa(dp510
g21
VRED CYMBAL
p511
sg23
V8985x
p512
sg25
I79
sg26
I2
sg27
I78
sa(dp513
g21
VPORTO FERRO
p514
sg23
V15858
p515
sg25
I71
sg26
I3
sg27
I70
sa(dp516
g21
VHARRY BEAU
p517
sg23
V58453
p518
sg25
I87
sg26
I4
sg27
I95
sa(dp519
g21
VEVENING ATTIRE
p520
sg23
Vx84x2
p521
sg25
I86
sg26
I5
sg27
I82
sa(dp522
g21
VANONYMOUS JOHN
p523
sg23
V23655
p524
sg25
I77
sg26
I6
sg27
I87
sa(dp525
g21
VCURIOUS FOX
p526
sg23
V34172
p527
sg25
I100
sg26
I7
sg27
I100
sa(dp528
g21
VLETMESTOPYOUTHERE
p529
sg23
V14904
p530
sg25
I94
sg26
I8
sg27
I92
sa(dp531
g21
VDIAMOND LADY
p532
sg23
V32560
p533
sg25
I71
sg26
I9
sg27
I70
sa(dp534
g21
VINDIAN PURSUIT
p535
sg23
V14063
p536
sg25
I91
sg26
I10
sg27
I75
sa(dp537
g21
VWINKLEMANN
p538
sg23
Vx2445
p539
sg25
I74
sg26
I11
sg27
I74
sa(dp540
g21
VKATH'S LUSTRE
p541
sg23
V54284
p542
sg25
I82
sg26
I12
sg27
I85
sasg58
(lp543
sssI1542374700
(dp544
g2
Vhttp://www.skyracing.com.au/index.php?component=racing&task=race&id=107912629&meetingid=106619504&Itemid=89
p545
sg4
V29010189.1325
p546
sg6
(dp547
g8
(lp548
(lp549
I8
aI1
aI9
aI2
aa(lp550
I5
aI6
aI4
aI3
aa(lp551
I1
aI8
aI4
aI9
aa(lp552
I2
aI5
aI4
aI3
aa(lp553
I4
aI3
aI9
aI8
aa(lp554
I1
aI8
aI2
aI9
aa(lp555
I8
aI1
aI9
aI10
aa(lp556
I8
aI1
aI4
aI2
aasg18
(lp557
(dp558
g21
VREBEL ASSAULT
p559
sg23
V13672
p560
sg25
I98
sg26
I1
sg27
I95
sa(dp561
g21
VITSAKINDAMAGIC
p562
sg23
V2364x
p563
sg25
I77
sg26
I2
sg27
I87
sa(dp564
g21
VTOM'S ROCK
p565
sg23
V3467x
p566
sg25
I71
sg26
I3
sg27
I76
sa(dp567
g21
VMAKAARIM
p568
sg23
Vx0x59
p569
sg25
I64
sg26
I4
sg27
I73
sa(dp570
g21
VGOSSIPING
p571
sg23
V778x8
p572
sg25
I81
sg26
I5
sg27
I70
sa(dp573
g21
VFRANK BRIDGE
p574
sg23
V50770
p575
sg25
I79
sg26
I6
sg27
I65
sa(dp576
g21
VRAMPANT LION
p577
sg23
V51920
p578
sg25
I60
sg26
I7
sg27
I58
sa(dp579
g21
VSUN HAT
p580
sg23
V5x11
p581
sg25
I100
sg26
I8
sg27
I100
sa(dp582
g21
VDE VEGAS KID
p583
sg23
Vx1174
p584
sg25
I94
sg26
I9
sg27
I92
sa(dp585
g21
VMARSHAL DAN
p586
sg23
V76x83
p587
sg25
I85
sg26
I10
sg27
I80
sasg58
(lp588
sssI1542379800
(dp589
g2
Vhttp://www.skyracing.com.au/index.php?component=racing&task=race&id=107912602&meetingid=106619520&Itemid=89
p590
sg4
V29011796.1450
p591
sg6
(dp592
g8
(lp593
(lp594
I3
aI2
aI1
aa(lp595
I1
aI3
aI2
aa(lp596
I1
aI3
aI2
aa(lp597
I1
aI2
aI3
aa(lp598
I3
aI1
aI2
aa(lp599
I3
aI2
aI1
aa(lp600
I1
aI3
aI2
aa(lp601
I3
aI1
aI2
aasg18
(lp602
(dp603
g21
VSHENEEDEDTHERUN
p604
sg23
V139x6
p605
sg25
I96
sg26
I1
sg27
I94
sa(dp606
g21
VEXPRESSTIME
p607
sg23
V3783x
p608
sg25
I91
sg26
I2
sg27
I96
sa(dp609
g21
VDAWNIERIVER
p610
sg23
Vx4362
p611
sg25
I100
sg26
I3
sg27
I100
sasg58
(lp612
sssI1542374100
(dp613
g2
Vhttp://www.skyracing.com.au/index.php?component=racing&task=race&id=107912658&meetingid=106619488&Itemid=89
p614
sg4
V29011681.1315
p615
sg6
(dp616
g8
(lp617
(lp618
I7
aI1
aI2
aI9
aa(lp619
I15
aI1
aI6
aI9
aa(lp620
I9
aI5
aI17
aI3
aa(lp621
I15
aI1
aI12
aI9
aa(lp622
I15
aI9
aI5
aI1
aa(lp623
I1
aI7
aI2
aI5
aa(lp624
I15
aI7
aI1
aI5
aa(lp625
I1
aI15
aI9
aI7
aasg18
(lp626
(dp627
g21
VDREAM DU GRAND VAL
p628
sg23
V23x3x
p629
sg25
I95
sg26
I1
sg27
I96
sa(dp630
g21
VSNAPDRAGON FIRE
p631
sg23
V324x1
p632
sg25
I93
sg26
I2
sg27
I93
sa(dp633
g21
VVOODOO DOLL
p634
sg23
V33822
p635
sg25
I91
sg26
I3
sg27
I80
sa(dp636
g21
VVISIOMAN
p637
sg23
V28x23
p638
sg25
I73
sg26
I4
sg27
I77
sa(dp639
g21
VNORMAL NORMAN
p640
sg23
V36212
p641
sg25
I97
sg26
I5
sg27
I84
sa(dp642
g21
VROCKPOINT
p643
sg23
V27x2x
p644
sg25
I78
sg26
I6
sg27
I87
sa(dp645
g21
VDOSTAL PHIL
p646
sg23
V1x4x2
p647
sg25
I100
sg26
I7
sg27
I100
sa(dp648
g21
VSIZING CUSIMANO
p649
sg23
V221x5
p650
sg25
I77
sg26
I8
sg27
I72
sa(dp651
g21
VKAPDAD
p652
sg23
V232x2
p653
sg25
I89
sg26
I9
sg27
I91
sa(dp654
g21
VJACBEQUICK
p655
sg23
V11241
p656
sg25
I70
sg26
I10
sg27
I75
sa(dp657
g21
VTRY AGAIN
p658
sg23
V21931
p659
sg25
I82
sg26
I11
sg27
I81
sa(dp660
g21
VFIELDS OF FORTUNE
p661
sg23
V3x194
p662
sg25
I59
sg26
I12
sg27
I55
sa(dp663
g21
VTHE TWISLER
p664
sg23
V631x6
p665
sg25
I55
sg26
I13
sg27
I50
sa(dp666
g21
VRED HOT CHILLY
p667
sg23
V53224
p668
sg25
I65
sg26
I14
sg27
I59
sa(dp669
g21
VVOCALISER
p670
sg23
V3156x
p671
sg25
I87
sg26
I15
sg27
I70
sa(dp672
g21
VANTUNES
p673
sg23
V2x23x
p674
sg25
I84
sg26
I16
sg27
I90
sa(dp675
g21
VSNOOKERED
p676
sg23
V33142
p677
sg25
I69
sg26
I17
sg27
I64
sa(dp678
g21
VGRAND CANYON
p679
sg23
V9x914
p680
sg25
I63
sg26
I18
sg27
I60
sa(dp681
g21
VGUIDO RENI
p682
sg23
V75244
p683
sg25
I60
sg26
I19
sg27
I62
sa(dp684
g21
VMY BROTHER
p685
sg23
Vx24x3
p686
sg25
I66
sg26
I20
sg27
I66
sasg58
(lp687
sssI1542381000
(dp688
g2
Vhttp://www.skyracing.com.au/index.php?component=racing&task=race&id=107912632&meetingid=106619504&Itemid=89
p689
sg4
V29010189.1510
p690
sg6
(dp691
g8
(lp692
(lp693
I6
aI10
aI5
aI3
aa(lp694
I10
aI8
aI6
aI2
aa(lp695
I6
aI8
aI10
aI1
aa(lp696
I8
aI10
aI6
aI2
aa(lp697
I10
aI8
aI3
aI5
aa(lp698
I10
aI6
aI5
aI3
aa(lp699
I10
aI6
aI5
aI3
aa(lp700
I10
aI6
aI8
aI5
aasg18
(lp701
(dp702
g21
VCHIEF SITTINGBULL
p703
sg23
V97x88
p704
sg25
I72
sg26
I1
sg27
I71
sa(dp705
g21
VDEFINITION
p706
sg23
V44x45
p707
sg25
I78
sg26
I2
sg27
I76
sa(dp708
g21
VHORATIO STAR
p709
sg23
V52x
p710
sg25
I88
sg26
I3
sg27
I86
sa(dp711
g21
VLORD DIGBY
p712
sg23
g388
sg25
I63
sg26
I4
sg27
I0
sa(dp713
g21
VNATCH
p714
sg23
V2235x
p715
sg25
I91
sg26
I5
sg27
I87
sa(dp716
g21
VREFEREE
p717
sg23
V4
p718
sg25
I99
sg26
I6
sg27
I100
sa(dp719
g21
VQUEEN OF PARIS
p720
sg23
g388
sg25
I74
sg26
I7
sg27
I0
sa(dp721
g21
VRARE
p722
sg23
V2356
p723
sg25
I83
sg26
I8
sg27
I78
sa(dp724
g21
VSTAY IN THE LIGHT
p725
sg23
V93080
p726
sg25
I60
sg26
I9
sg27
I69
sa(dp727
g21
VWOHILEH
p728
sg23
V2225
p729
sg25
I100
sg26
I10
sg27
I94
sasg58
(lp730
sssI1542373500
(dp731
g2
Vhttp://www.skyracing.com.au/index.php?component=racing&task=race&id=107912599&meetingid=106619520&Itemid=89
p732
sg4
V29011796.1305
p733
sg6
(dp734
g8
(lp735
(lp736
I4
aI5
aI2
aI1
aa(lp737
I4
aI3
aI5
aI1
aa(lp738
I4
aI5
aI6
aI7
aa(lp739
I4
aI5
aI7
aI2
aa(lp740
I5
aI4
aI2
aI3
aa(lp741
I4
aI5
aI2
aI1
aa(lp742
I4
aI5
aI2
aI1
aa(lp743
I4
aI5
aI2
aI3
aasg18
(lp744
(dp745
g21
VCOISA BLANCO
p746
sg23
V6508x
p747
sg25
I87
sg26
I1
sg27
I88
sa(dp748
g21
VCOURT BALOO
p749
sg23
V92975
p750
sg25
I94
sg26
I2
sg27
I92
sa(dp751
g21
VPERMISSION GRANTED
p752
sg23
V86x38
p753
sg25
I82
sg26
I3
sg27
I81
sa(dp754
g21
VKOVERA
p755
sg23
V65521
p756
sg25
I100
sg26
I4
sg27
I100
sa(dp757
g21
VBERTIE BLAKE
p758
sg23
V00042
p759
sg25
I95
sg26
I5
sg27
I96
sa(dp760
g21
VPEGASUS WALK
p761
sg23
V67x80
p762
sg25
I78
sg26
I6
sg27
I76
sa(dp763
g21
VGENTLEMAN JAMES
p764
sg23
Vx0486
p765
sg25
I77
sg26
I7
sg27
I78
sasg58
(lp766
sssI1542372600
(dp767
g2
Vhttp://www.skyracing.com.au/index.php?component=racing&task=race&id=107912628&meetingid=106619504&Itemid=89
p768
sg4
V29010189.1250
p769
sg6
(dp770
g8
(lp771
(lp772
I6
aI8
aI4
aI7
aa(lp773
I6
aI8
aI4
aI5
aa(lp774
I6
aI8
aI4
aI1
aa(lp775
I8
aI4
aI6
aI2
aa(lp776
I6
aI8
aI4
aI9
aa(lp777
I8
aI6
aI7
aI4
aa(lp778
I8
aI6
aI7
aI4
aa(lp779
I6
aI8
aI4
aI7
aasg18
(lp780
(dp781
g21
VSTORM BLITZ
p782
sg23
g388
sg25
I79
sg26
I1
sg27
I0
sa(dp783
g21
VZEEBAD
p784
sg23
V80x
p785
sg25
I68
sg26
I2
sg27
I79
sa(dp786
g21
VLORNA COLE
p787
sg23
g388
sg25
I75
sg26
I3
sg27
I0
sa(dp788
g21
VMADAME VITESSE
p789
sg23
V75
p790
sg25
I89
sg26
I4
sg27
I92
sa(dp791
g21
VMISS PRESIDENT
p792
sg23
V0x8x
p793
sg25
I81
sg26
I5
sg27
I81
sa(dp794
g21
VORANGE BLOSSOM
p795
sg23
Vx6606
p796
sg25
I100
sg26
I6
sg27
I100
sa(dp797
g21
VRAHEEB
p798
sg23
g388
sg25
I93
sg26
I7
sg27
I89
sa(dp799
g21
VSHINING
p800
sg23
V46392
p801
sg25
I98
sg26
I8
sg27
I95
sa(dp802
g21
VWHAT A DAZZLER
p803
sg23
g388
sg25
I71
sg26
I9
sg27
I0
sasg58
(lp804
sss.