(dp0
S"[u'29025913', [1, 0]]"
p1
(lp2
(dp3
S'betslip'
p4
(dp5
S'home'
p6
(dp7
S'price'
p8
V1.03
p9
sS'num'
p10
I1
sS'bsUUID'
p11
V34605b5dc5e196bfb8039384b184978cc56496a8
p12
sS'bsmId'
p13
V924.165683923
p14
sS'bsmSt'
p15
V1543167817000
p16
sS'eventId'
p17
V29025913
p18
sS'player_name'
p19
VC Markes
p20
sS'bssId'
p21
V11378329
p22
sS'odds'
p23
F1.03
sS'gaTab'
p24
VR2FtZQ==
p25
sS'bseId'
p26
g18
sS'bsGroup'
p27
g18
sS'den'
p28
I33
ssS'away'
p29
(dp30
g8
V10.0
p31
sg10
I9
sg11
Va404fb44742974eff6c995c4439bf435d037bfb1
p32
sg13
V924.165683923
p33
sg15
V1543167817000
p34
sg17
V29025913
p35
sg19
VJ Bendeck
p36
sg21
V9623244
p37
sg23
F10.0
sg24
VR2FtZQ==
p38
sg26
g35
sg27
g35
sg28
I1
sssS'stake'
p39
F4.3333333333333295
sS'serve'
p40
Vhome
p41
sS'game'
p42
I6
sS'total_stake'
p43
F4.463333333333329
sS'scores'
p44
(dp45
g6
I5
sg29
I0
ssS'bet_side'
p46
g41
sasS"[u'29025899', [0, 1]]"
p47
(lp48
(dp49
g4
(dp50
g6
(dp51
g8
V4.5
p52
sg10
I7
sg11
V56b63d1203d0b217c633e76365518cc936b7ed9a
p53
sg13
V924.165683623
p54
sg15
V1543168438000
p55
sg17
V29025899
p56
sg19
VE Ribeiro Lago
p57
sg21
V13581373
p58
sg23
F4.5
sg24
VR2FtZQ==
p59
sg26
g56
sg27
g56
sg28
I2
ssg29
(dp60
g8
V1.14
p61
sg10
I1
sg11
V8ee5f00fd7316ea9d22540ddbec71a88e5c6aeea
p62
sg13
V924.165683623
p63
sg15
V1543168438000
p64
sg17
V29025899
p65
sg19
VB Smith
p66
sg21
V10344925
p67
sg23
F1.14
sg24
VR2FtZQ==
p68
sg26
g65
sg27
g65
sg28
I7
sssg39
F0.9285714285714293
sg40
Vaway
p69
sg42
I4
sg43
F1.0585714285714292
sg44
(dp70
g6
I0
sg29
I3
ssg46
g69
sasS"[u'29026068', [1, 0]]"
p71
(lp72
(dp73
g4
(dp74
g6
(dp75
g8
V1.06
p76
sg10
I1
sg11
V03e96a522e0c7141b3dae32a5a324bd18533fb03
p77
sg13
V924.165683609
p78
sg15
V1543168533000
p79
sg17
V29026068
p80
sg19
VV Vacherot
p81
sg21
V9638091
p82
sg23
F1.06
sg24
VR2FtZQ==
p83
sg26
g80
sg27
g80
sg28
I16
ssg29
(dp84
g8
V7.5
p85
sg10
I13
sg11
V71273f212144d171a6d4dc37ad61e1402a2a7f5c
p86
sg13
V924.165683609
p87
sg15
V1543168533000
p88
sg17
V29026068
p89
sg19
VC Huang
p90
sg21
V9953158
p91
sg23
F7.5
sg24
VR2FtZQ==
p92
sg26
g89
sg27
g89
sg28
I2
sssg39
F0.13
sg40
Vhome
p93
sg42
I8
sg43
F0.13
sg44
(dp94
g6
I4
sg29
I3
ssg46
g93
saNas.