(dp0
I1545398400
(dp1
S'horse_data'
p2
(lp3
(dp4
S'odds'
p5
F4.0
sS'tf_rank'
p6
I3
sS'horse_name'
p7
Vdustin des mottes
p8
sS'hints'
p9
I0
sa(dp10
g5
F41.0
sg6
I0
sg7
Vloves destination
p11
sg9
I0
sa(dp12
g5
F4.33
sg6
I1
sg7
Vazzerti
p13
sg9
I1
sa(dp14
g5
F4.5
sg6
I2
sg7
Vrisk and roll
p15
sg9
I1
sa(dp16
g5
F7.0
sg6
I0
sg7
Vgortroe joe
p17
sg9
I0
sa(dp18
g5
F5.0
sg6
I0
sg7
Vbrianstorm
p19
sg9
I0
sasS'race_url'
p20
Vhttps://www.racinguk.com/racecards/ascot/204719-bet-with-ascot-novices-limited-handicap-chase-3
p21
sS'place_hint'
p22
Vrisk and roll could be advantaged by a prominent position which looks likely in this field. of the better-fancied horses, azzerti is most likely to be ridden furthest from the pace.
p23
ssI1545403200
(dp24
g2
(lp25
(dp26
g5
F15.0
sg6
I0
sg7
Vtricky dicky
p27
sg9
I0
sa(dp28
g5
F13.0
sg6
I0
sg7
Vjashma
p29
sg9
I1
sa(dp30
g5
F17.0
sg6
I0
sg7
Verissimus maximus
p31
sg9
I0
sa(dp32
g5
F9.0
sg6
I0
sg7
Vacclaim the nation
p33
sg9
I0
sa(dp34
g5
F17.0
sg6
I0
sg7
Vcaptain lars
p35
sg9
I0
sa(dp36
g5
F13.0
sg6
I0
sg7
Vbowson fred
p37
sg9
I0
sa(dp38
g5
F15.0
sg6
I1
sg7
Vgnaad
p39
sg9
I0
sa(dp40
g5
F19.0
sg6
I0
sg7
Vjust that lord
p41
sg9
I0
sa(dp42
g5
F19.0
sg6
I0
sg7
Vornate
p43
sg9
I0
sa(dp44
g5
F21.0
sg6
I0
sg7
Veskimo point
p45
sg9
I0
sa(dp46
g5
F8.0
sg6
I3
sg7
Vsomething lucky
p47
sg9
I0
sa(dp48
g5
F12.0
sg6
I2
sg7
Vsamovar
p49
sg9
I1
sa(dp50
g5
F5.0
sg6
I0
sg7
Vmoonraker
p51
sg9
I0
sasg20
Vhttps://www.racinguk.com/racecards/southwell/204744-betway-heed-your-hunch-handicap-3
p52
sg22
Va strongly contested lead could count against samovar, who is expected to try and race close up. a strong early pace seems highly likely. jashma could be suited if held up as expected.
p53
ssI1545409800
(dp54
g2
(lp55
(dp56
g5
F34.0
sg6
I0
sg7
Vhell left loose
p57
sg9
I0
sa(dp58
g5
F17.0
sg6
I3
sg7
Vassociate rock
p59
sg9
I0
sa(dp60
g5
F2.75
sg6
I2
sg7
Vfairy fast
p61
sg9
I0
sa(dp62
g5
F2.2
sg6
I1
sg7
Vthats not me
p63
sg9
I0
sa(dp64
g5
F13.0
sg6
I0
sg7
Vlavengro lad
p65
sg9
I0
sa(dp66
g5
F51.0
sg6
I0
sg7
Vaction dan
p67
sg9
I0
sa(dp68
g5
F13.0
sg6
I0
sg7
Vannabelle rock
p69
sg9
I0
sa(dp70
g5
F51.0
sg6
I0
sg7
Vbettys heart
p71
sg9
I0
sasg20
Vhttps://www.racinguk.com/racecards/dundalk-ireland/204775-irish-stallion-farms-european-breeders-fund
p72
sg22
S''
p73
ssI1545401100
(dp74
g2
(lp75
(dp76
g5
F10.0
sg6
I0
sg7
Vsheilas treat
p77
sg9
I0
sa(dp78
g5
F26.0
sg6
I0
sg7
Vfinal frontier
p79
sg9
I0
sa(dp80
g5
F21.0
sg6
I0
sg7
Vshearian
p81
sg9
I0
sa(dp82
g5
F6.0
sg6
I3
sg7
Vhammer gun
p83
sg9
I1
sa(dp84
g5
F34.0
sg6
I0
sg7
Vmakambe
p85
sg9
I0
sa(dp86
g5
F13.0
sg6
I0
sg7
Vcustard the dragon
p87
sg9
I0
sa(dp88
g5
F3.25
sg6
I1
sg7
Vmatterhorn
p89
sg9
I1
sa(dp90
g5
F3.75
sg6
I2
sg7
Vthree weeks
p91
sg9
I0
sa(dp92
g5
F17.0
sg6
I0
sg7
Vmama africa
p93
sg9
I0
sasg20
Vhttps://www.racinguk.com/racecards/southwell/204743-sun-racing-handicap-4
p94
sg22
Vthe pace doesnt look like being overly strong here and matterhorn should still be served best by being ridden prominently. the leaders will have to go harder than the predicted pace forecast if the hold-up horses such as hammer gun are going to come into things.
p95
ssI1545402000
(dp96
g2
(lp97
(dp98
g5
F17.0
sg6
I0
sg7
Vtaking a chance
p99
sg9
I1
sa(dp100
g5
F8.0
sg6
I0
sg7
Vfire ahead
p101
sg9
I0
sa(dp102
g5
F8.0
sg6
I3
sg7
Vmalangen
p103
sg9
I1
sa(dp104
g5
F3.0
sg6
I1
sg7
Vthe crazed moon
p105
sg9
I0
sa(dp106
g5
F23.0
sg6
I0
sg7
Vkahdian
p107
sg9
I0
sa(dp108
g5
F6.5
sg6
I2
sg7
Vblue skimmer
p109
sg9
I0
sa(dp110
g5
F34.0
sg6
I0
sg7
Vthe lady rules
p111
sg9
I0
sa(dp112
g5
F29.0
sg6
I0
sg7
Vnowheretoexit
p113
sg9
I0
sa(dp114
g5
F34.0
sg6
I0
sg7
Vright royals day
p115
sg9
I0
sa(dp116
g5
F34.0
sg6
I0
sg7
Vpullman brown
p117
sg9
I0
sa(dp118
g5
F5.5
sg6
I0
sg7
Vbrigadier bob
p119
sg9
I0
sasg20
Vhttps://www.racinguk.com/racecards/uttoxeter/204733-june-taylor-memorial-novices-handicap-hurdle-5
p120
sg22
Vthis could develop into a sprint for home, and malangen could be well placed to capitalise. of the better-fancied horses, taking a chance is most likely to be ridden furthest from the pace.
p121
ssI1545412500
(dp122
g2
(lp123
(dp124
g5
F6.0
sg6
I0
sg7
Vexcelleration
p125
sg9
I0
sa(dp126
g5
F7.0
sg6
I0
sg7
Vsinging the blues
p127
sg9
I0
sa(dp128
g5
F6.0
sg6
I1
sg7
Vproceed
p129
sg9
I1
sa(dp130
g5
F7.5
sg6
I2
sg7
Vturn of luck
p131
sg9
I1
sa(dp132
g5
F11.0
sg6
I0
sg7
Vdestinys rock
p133
sg9
I0
sa(dp134
g5
F13.0
sg6
I0
sg7
Vjetstream
p135
sg9
I0
sa(dp136
g5
F21.0
sg6
I0
sg7
Vfolies bergeres
p137
sg9
I0
sa(dp138
g5
F67.0
sg6
I0
sg7
Vrivas rob roy
p139
sg9
I0
sa(dp140
g5
F23.0
sg6
I0
sg7
Vqayed
p141
sg9
I0
sa(dp142
g5
F12.0
sg6
I0
sg7
Vmarie toulouse
p143
sg9
I0
sa(dp144
g5
F6.5
sg6
I3
sg7
Vecho cove
p145
sg9
I0
sasg20
Vhttps://www.racinguk.com/racecards/wolverhampton/204725-betway-live-casino-handicap-6
p146
sg22
Vturn of luck might not get things all its own way near the head of affairs but shouldnt be held back by that alone. proceed might not benefit from being ridden as far back as usual for all the gallop is likely to be a reasonable one.
p147
ssI1545413400
(dp148
g2
(lp149
(dp150
g5
F2.5
sg6
I1
sg7
Vcrockford
p151
sg9
I0
sa(dp152
g5
F26.0
sg6
I3
sg7
Valanari
p153
sg9
I0
sa(dp154
g5
F51.0
sg6
I0
sg7
Vable dealer
p155
sg9
I0
sa(dp156
g5
F101.0
sg6
I0
sg7
Vsword of arakan
p157
sg9
I0
sa(dp158
g5
F29.0
sg6
I0
sg7
Vjames will
p159
sg9
I0
sa(dp160
g5
F101.0
sg6
I0
sg7
Veunoia
p161
sg9
I0
sa(dp162
g5
F26.0
sg6
I0
sg7
Vdinard rose
p163
sg9
I0
sa(dp164
g5
F51.0
sg6
I0
sg7
Vindiana grey
p165
sg9
I0
sa(dp166
g5
F2.38
sg6
I2
sg7
Vsky seven
p167
sg9
I0
sa(dp168
g5
F51.0
sg6
I0
sg7
Vsnow hope
p169
sg9
I0
sa(dp170
g5
F13.0
sg6
I0
sg7
Vdare to flare
p171
sg9
I0
sa(dp172
g5
F51.0
sg6
I0
sg7
Vsea sister
p173
sg9
I0
sa(dp174
g5
F21.0
sg6
I0
sg7
Vlyrical attraction
p175
sg9
I0
sa(dp176
g5
F15.0
sg6
I0
sg7
Vholy hymn
p177
sg9
I0
sasg20
Vhttps://www.racinguk.com/racecards/dundalk-ireland/204777-irish-stallion-farms-european-breeders-fund-maiden
p178
sg22
g73
ssI1545404100
(dp179
g2
(lp180
(dp181
g5
F6.0
sg6
I0
sg7
Vcarlo rocks
p182
sg9
I0
sa(dp183
g5
F29.0
sg6
I0
sg7
Vrollerball rocco
p184
sg9
I0
sa(dp185
g5
F12.0
sg6
I0
sg7
Vtanacando
p186
sg9
I0
sa(dp187
g5
F4.5
sg6
I3
sg7
Vthe bosss dream
p188
sg9
I1
sa(dp189
g5
F9.0
sg6
I0
sg7
Vup the drive
p190
sg9
I0
sa(dp191
g5
F11.0
sg6
I0
sg7
Vmagic mustard
p192
sg9
I0
sa(dp193
g5
F6.5
sg6
I1
sg7
Vthe boola bee
p194
sg9
I1
sa(dp195
g5
F4.5
sg6
I2
sg7
Veddy
p196
sg9
I0
sasg20
Vhttps://www.racinguk.com/racecards/uttoxeter/204735-dove-valley-marquees-novices-handicap-chase-4
p197
sg22
Vthe bosss dream could be advantaged by a prominent position which looks likely in this field. of the better-fancied horses, the boola bee is most likely to be ridden furthest from the pace.
p198
ssI1545414300
(dp199
g2
(lp200
(dp201
g5
F51.0
sg6
I0
sg7
Vsweetest smile
p202
sg9
I0
sa(dp203
g5
F7.0
sg6
I2
sg7
Vshoofly
p204
sg9
I1
sa(dp205
g5
F51.0
sg6
I0
sg7
Vmistress viz
p206
sg9
I0
sa(dp207
g5
F41.0
sg6
I0
sg7
Vlegendoire
p208
sg9
I0
sa(dp209
g5
F6.0
sg6
I3
sg7
Vacadian angel
p210
sg9
I0
sa(dp211
g5
F19.0
sg6
I0
sg7
Vmulsanne chase
p212
sg9
I0
sa(dp213
g5
F23.0
sg6
I0
sg7
Vone liner
p214
sg9
I0
sa(dp215
g5
F21.0
sg6
I0
sg7
Vbird for life
p216
sg9
I1
sa(dp217
g5
F13.0
sg6
I0
sg7
Vembers glow
p218
sg9
I0
sa(dp219
g5
F2.25
sg6
I1
sg7
Vyour band
p220
sg9
I0
sa(dp221
g5
F17.0
sg6
I0
sg7
Vdemophon
p222
sg9
I0
sa(dp223
g5
F41.0
sg6
I0
sg7
Vdesert grey
p224
sg9
I0
sasg20
Vhttps://www.racinguk.com/racecards/wolverhampton/204726-play-4toscore-at-betway-handicap-6-d-i
p225
sg22
Vthis could develop into a sprint for home, and shoofly could be well placed to capitalise. of the better-fancied horses, bird for life is most likely to be ridden furthest from the pace.
p226
ssI1545415200
(dp227
g2
(lp228
(dp229
g5
F5.0
sg6
I0
sg7
Vwar hero
p230
sg9
I0
sa(dp231
g5
F3.75
sg6
I2
sg7
Vkoybig
p232
sg9
I0
sa(dp233
g5
F4.33
sg6
I1
sg7
Vhave a nice day
p234
sg9
I0
sa(dp235
g5
F7.0
sg6
I0
sg7
Vsmart stinger
p236
sg9
I1
sa(dp237
g5
F34.0
sg6
I0
sg7
Vgymkhana
p238
sg9
I0
sa(dp239
g5
F34.0
sg6
I0
sg7
Vwaitaki
p240
sg9
I0
sa(dp241
g5
F17.0
sg6
I0
sg7
Vkasbah
p242
sg9
I0
sa(dp243
g5
F9.0
sg6
I0
sg7
Vdescendant
p244
sg9
I1
sasg20
Vhttps://www.racinguk.com/racecards/dundalk-ireland/204778-crowne-plaza-leading-jockey-trainer-awards-2018-handicap
p245
sg22
Vsmart stinger shouldnt be inconvenienced if looking to adopt a prominent position. the leaders will have to go harder than the predicted pace forecast if the hold-up horses such as descendant are going to come into things.
p246
ssI1545396900
(dp247
g2
(lp248
(dp249
g5
F4.33
sg6
I0
sg7
Vbee machine
p250
sg9
I0
sa(dp251
g5
F8.5
sg6
I0
sg7
Vdiamond pursuit
p252
sg9
I1
sa(dp253
g5
F5.0
sg6
I0
sg7
Vforeign legion
p254
sg9
I0
sa(dp255
g5
F13.0
sg6
I3
sg7
Vthunder buddy
p256
sg9
I0
sa(dp257
g5
F51.0
sg6
I0
sg7
Vsir walter
p258
sg9
I0
sa(dp259
g5
F13.0
sg6
I0
sg7
Vfirst breath
p260
sg9
I0
sa(dp261
g5
F51.0
sg6
I0
sg7
Vprince consort
p262
sg9
I0
sa(dp263
g5
F67.0
sg6
I0
sg7
Vwestfield wonder
p264
sg9
I0
sa(dp265
g5
F5.0
sg6
I1
sg7
Vdont do it
p266
sg9
I1
sa(dp267
g5
F6.0
sg6
I2
sg7
Vbond angel
p268
sg9
I0
sasg20
Vhttps://www.racinguk.com/racecards/southwell/204741-follow-top-tipsters-at-sun-racing-handicap-6-d-i
p269
sg22
Vof those forecasted with a better chance, dont do it could be most vulnerable in a race in which competition for the lead looks to be fierce. there is a chance of a pace burnout early, and diamond pursuit is one who may benefit from being produced later.
p270
ssI1545397800
(dp271
g2
(lp272
(dp273
g5
F26.0
sg6
I0
sg7
Von the road
p274
sg9
I0
sa(dp275
g5
F41.0
sg6
I0
sg7
Vdesert de bruyere
p276
sg9
I0
sa(dp277
g5
F34.0
sg6
I0
sg7
Vmoidore
p278
sg9
I0
sa(dp279
g5
F13.0
sg6
I0
sg7
Vbryden boy
p280
sg9
I0
sa(dp281
g5
F7.0
sg6
I0
sg7
Vlord getaway
p282
sg9
I0
sa(dp283
g5
F26.0
sg6
I0
sg7
Vthe welsh paddies
p284
sg9
I0
sa(dp285
g5
F21.0
sg6
I0
sg7
Vdr robin
p286
sg9
I0
sa(dp287
g5
F3.75
sg6
I1
sg7
Vdeebaj
p288
sg9
I1
sa(dp289
g5
F9.0
sg6
I3
sg7
Vballymagroarty boy
p290
sg9
I0
sa(dp291
g5
F11.0
sg6
I0
sg7
Vmoonlight dancer
p292
sg9
I0
sa(dp293
g5
F7.5
sg6
I0
sg7
Vimperial nemesis
p294
sg9
I0
sa(dp295
g5
F7.0
sg6
I2
sg7
Vperfect summer
p296
sg9
I1
sa(dp297
g5
F23.0
sg6
I0
sg7
Vgray day
p298
sg9
I0
sasg20
Vhttps://www.racinguk.com/racecards/uttoxeter/204729-actionclad-handicap-hurdle-4
p299
sg22
Vthere is a chance of a pace burnout early, and perfect summer is one who could suffer as a result. there is a chance of a pace burnout early, and deebaj is one who may benefit from being produced later.
p300
ssI1545404700
(dp301
g2
(lp302
(dp303
g5
F17.0
sg6
I0
sg7
Vbradford bridge
p304
sg9
I0
sa(dp305
g5
F7.0
sg6
I2
sg7
Vno no juliet
p306
sg9
I0
sa(dp307
g5
F17.0
sg6
I0
sg7
Vsolstice star
p308
sg9
I1
sa(dp309
g5
F34.0
sg6
I0
sg7
Vzero grand
p310
sg9
I0
sa(dp311
g5
F15.0
sg6
I0
sg7
Vpilansberg
p312
sg9
I0
sa(dp313
g5
F13.0
sg6
I0
sg7
Vkapgarry
p314
sg9
I0
sa(dp315
g5
F5.0
sg6
I0
sg7
Vle musee
p316
sg9
I0
sa(dp317
g5
F34.0
sg6
I0
sg7
Vsam red
p318
sg9
I0
sa(dp319
g5
F15.0
sg6
I0
sg7
Vhit the highway
p320
sg9
I0
sa(dp321
g5
F51.0
sg6
I0
sg7
Vlittle boy boru
p322
sg9
I0
sa(dp323
g5
F5.5
sg6
I1
sg7
Valways resolute
p324
sg9
I0
sa(dp325
g5
F9.0
sg6
I3
sg7
Vno hiding place
p326
sg9
I0
sa(dp327
g5
F11.0
sg6
I0
sg7
Vdarling maltaix
p328
sg9
I1
sa(dp329
g5
F29.0
sg6
I0
sg7
Vmilrow
p330
sg9
I0
sasg20
Vhttps://www.racinguk.com/racecards/ascot/204722-thames-materials-conditional-jockeys-handicap-hurdle-3
p331
sg22
Vof those forecasted with a better chance, solstice star could be most vulnerable in a race in which competition for the lead looks to be fierce. there is a chance of a pace burnout early, and darling maltaix is one who may benefit from being produced later.
p332
ssI1545417900
(dp333
g2
(lp334
(dp335
g5
F2.88
sg6
I1
sg7
Vcorinthia knight
p336
sg9
I1
sa(dp337
g5
F26.0
sg6
I0
sg7
Vmokaatil
p338
sg9
I0
sa(dp339
g5
F13.0
sg6
I0
sg7
Vtropics
p340
sg9
I0
sa(dp341
g5
F7.0
sg6
I3
sg7
Vfoxy forever
p342
sg9
I1
sa(dp343
g5
F15.0
sg6
I0
sg7
Vdouble up
p344
sg9
I0
sa(dp345
g5
F17.0
sg6
I0
sg7
Vjumira bridge
p346
sg9
I0
sa(dp347
g5
F21.0
sg6
I0
sg7
Valsvinder
p348
sg9
I0
sa(dp349
g5
F19.0
sg6
I0
sg7
Vdynamo walt
p350
sg9
I0
sa(dp351
g5
F4.5
sg6
I2
sg7
Vgracious john
p352
sg9
I0
sa(dp353
g5
F10.0
sg6
I0
sg7
Vdoctor sardonicus
p354
sg9
I0
sasg20
Vhttps://www.racinguk.com/racecards/wolverhampton/204730-betway-heed-your-hunch-handicap-2
p355
sg22
Vof those forecasted with a better chance, corinthia knight could be most vulnerable in a race in which competition for the lead looks to be fierce. such a hotly-contested pace as is on the cards here may be to the benefit of foxy forever who is likely to make a challenge late.
p356
ssI1545418800
(dp357
g2
(lp358
(dp359
g5
F41.0
sg6
I0
sg7
Vcarbon dating
p360
sg9
I0
sa(dp361
g5
F4.33
sg6
I3
sg7
Vmarkhan
p362
sg9
I0
sa(dp363
g5
F11.0
sg6
I0
sg7
Vcommander won
p364
sg9
I1
sa(dp365
g5
F3.75
sg6
I1
sg7
Vtoo precious
p366
sg9
I1
sa(dp367
g5
F7.0
sg6
I0
sg7
Vspruce meadows
p368
sg9
I0
sa(dp369
g5
F17.0
sg6
I0
sg7
Vtouch of gold
p370
sg9
I0
sa(dp371
g5
F4.5
sg6
I2
sg7
Vkerosin
p372
sg9
I0
sa(dp373
g5
F41.0
sg6
I0
sg7
Vtooreen legend
p374
sg9
I0
sa(dp375
g5
F41.0
sg6
I0
sg7
Vadmodum
p376
sg9
I0
sa(dp377
g5
F51.0
sg6
I0
sg7
Vviscount wilson
p378
sg9
I0
sasg20
Vhttps://www.racinguk.com/racecards/dundalk-ireland/204780-winter-series-at-dundalk-2019-handicap
p379
sg22
Vthis could develop into a sprint for home, and commander won could be well placed to capitalise. of the better-fancied horses, too precious is most likely to be ridden furthest from the pace.
p380
ssI1545400500
(dp381
g2
(lp382
(dp383
g5
F4.33
sg6
I1
sg7
Vthomas darby
p384
sg9
I0
sa(dp385
g5
F7.5
sg6
I0
sg7
Vdanny kirwan
p386
sg9
I0
sa(dp387
g5
F15.0
sg6
I0
sg7
Vthistle do nicely
p388
sg9
I0
sa(dp389
g5
F3.75
sg6
I2
sg7
Vangels breath
p390
sg9
I0
sa(dp391
g5
F6.5
sg6
I0
sg7
Vseddon
p392
sg9
I0
sa(dp393
g5
F41.0
sg6
I0
sg7
Vgarbanzo
p394
sg9
I0
sa(dp395
g5
F19.0
sg6
I0
sg7
Veclair dainay
p396
sg9
I0
sa(dp397
g5
F11.0
sg6
I3
sg7
Vchampagne court
p398
sg9
I0
sa(dp399
g5
F101.0
sg6
I0
sg7
Vsunday at augusta
p400
sg9
I0
sa(dp401
g5
F21.0
sg6
I0
sg7
Vencore champs
p402
sg9
I0
sasg20
Vhttps://www.racinguk.com/racecards/ascot/204720-sky-bet-supreme-trial-novices-hurdle-kennel-gate-grade-2-1
p403
sg22
g73
ssI1545420600
(dp404
g2
(lp405
(dp406
g5
F21.0
sg6
I0
sg7
Vnew vocation
p407
sg9
I0
sa(dp408
g5
F11.0
sg6
I0
sg7
Vspanish dawn
p409
sg9
I0
sa(dp410
g5
F67.0
sg6
I0
sg7
Vraise the tempo
p411
sg9
I0
sa(dp412
g5
F21.0
sg6
I0
sg7
Vcoach bombay
p413
sg9
I1
sa(dp414
g5
F6.0
sg6
I1
sg7
Vescallonia
p415
sg9
I0
sa(dp416
g5
F5.5
sg6
I2
sg7
Vmaid in manhattan
p417
sg9
I1
sa(dp418
g5
F67.0
sg6
I0
sg7
Vlady scathach
p419
sg9
I0
sa(dp420
g5
F15.0
sg6
I0
sg7
Vcrossingoz
p421
sg9
I0
sa(dp422
g5
F17.0
sg6
I0
sg7
Vten bears
p423
sg9
I0
sa(dp424
g5
F11.0
sg6
I0
sg7
Vmotcomb street
p425
sg9
I0
sa(dp426
g5
F6.0
sg6
I3
sg7
Vqueluz
p427
sg9
I1
sa(dp428
g5
F21.0
sg6
I0
sg7
Vstealth
p429
sg9
I0
sa(dp430
g5
F11.0
sg6
I0
sg7
Veasy boy
p431
sg9
I0
sa(dp432
g5
F15.0
sg6
I0
sg7
Vvolte
p433
sg9
I1
sasg20
Vhttps://www.racinguk.com/racecards/dundalk-ireland/204781-dundalk-stadium-racing-returns-friday-4th-january-2019-handicap-d-i
p434
sg22
Va strongly contested lead could count against coach bombay and queluz, who are expected to contest that lead. a strong early pace seems highly likely. volte and maid in manhattan could be suited by being ridden further from the pace.
p435
ssI1545405300
(dp436
g2
(lp437
(dp438
g5
F4.5
sg6
I1
sg7
Vpurple rock
p439
sg9
I1
sa(dp440
g5
F13.0
sg6
I0
sg7
Vcolwood
p441
sg9
I0
sa(dp442
g5
F13.0
sg6
I0
sg7
Valexis carrington
p443
sg9
I0
sa(dp444
g5
F8.0
sg6
I0
sg7
Vsellingallthetime
p445
sg9
I0
sa(dp446
g5
F21.0
sg6
I0
sg7
Vkatie gale
p447
sg9
I0
sa(dp448
g5
F3.75
sg6
I2
sg7
Vcousin khee
p449
sg9
I0
sa(dp450
g5
F3.75
sg6
I3
sg7
Vgalileos spear
p451
sg9
I1
sasg20
Vhttps://www.racinguk.com/racecards/southwell/205020-play-4toscore-at-betway-handicap-5
p452
sg22
Vthis could develop into a sprint for home, and galileos spear could be well placed to capitalise. of the better-fancied horses, purple rock is most likely to be ridden furthest from the pace.
p453
ssI1545421500
(dp454
g2
(lp455
(dp456
g5
F6.0
sg6
I0
sg7
Vteresita alvarez
p457
sg9
I0
sa(dp458
g5
F11.0
sg6
I0
sg7
Vfortissimo
p459
sg9
I0
sa(dp460
g5
F5.5
sg6
I0
sg7
Valbert finney
p461
sg9
I0
sa(dp462
g5
F26.0
sg6
I0
sg7
Vclassic star
p463
sg9
I0
sa(dp464
g5
F7.0
sg6
I0
sg7
Vmaterial girl
p465
sg9
I0
sa(dp466
g5
F11.0
sg6
I0
sg7
Vdeira surprise
p467
sg9
I0
sa(dp468
g5
F67.0
sg6
I0
sg7
Vtru grit
p469
sg9
I0
sa(dp470
g5
F5.0
sg6
I1
sg7
Vin the cove
p471
sg9
I0
sa(dp472
g5
F13.0
sg6
I3
sg7
Vcoolagh magic
p473
sg9
I1
sa(dp474
g5
F13.0
sg6
I0
sg7
Vlondon rock
p475
sg9
I0
sasg20
Vhttps://www.racinguk.com/racecards/wolverhampton/204734-ladbrokes-home-of-the-odds-boost-nursery-handicap-5
p476
sg22
Vof those forecasted with a better chance, woodside wonder could be most vulnerable in a race in which competition for the lead looks to be fierce. such a hotly-contested pace as is on the cards here may be to the benefit of coolagh magic who is likely to make a challenge late.
p477
ssI1545422400
(dp478
g2
(lp479
(dp480
g5
F9.0
sg6
I0
sg7
Vaunty audrey
p481
sg9
I0
sa(dp482
g5
F10.0
sg6
I0
sg7
Vmanorov
p483
sg9
I0
sa(dp484
g5
F29.0
sg6
I0
sg7
Vgetaway queen
p485
sg9
I0
sa(dp486
g5
F13.0
sg6
I0
sg7
Vmr moondance
p487
sg9
I1
sa(dp488
g5
F17.0
sg6
I0
sg7
Vspanish soprano
p489
sg9
I0
sa(dp490
g5
F26.0
sg6
I0
sg7
Vsheedy
p491
sg9
I0
sa(dp492
g5
F26.0
sg6
I3
sg7
Vsteelyeyed
p493
sg9
I0
sa(dp494
g5
F13.0
sg6
I0
sg7
Vlady kimberley
p495
sg9
I0
sa(dp496
g5
F8.5
sg6
I0
sg7
Vmiss louise
p497
sg9
I1
sa(dp498
g5
F41.0
sg6
I0
sg7
Vthe factory girl
p499
sg9
I0
sa(dp500
g5
F34.0
sg6
I0
sg7
Vstoneboat bill
p501
sg9
I0
sa(dp502
g5
F7.5
sg6
I1
sg7
Vragtime red
p503
sg9
I0
sa(dp504
g5
F8.5
sg6
I0
sg7
Vfeisty katerina
p505
sg9
I0
sa(dp506
g5
F5.0
sg6
I2
sg7
Vmcguigan
p507
sg9
I0
sasg20
Vhttps://www.racinguk.com/racecards/dundalk-ireland/205109-dundalk-stadium-racing-returns-friday-4th-january-2019-handicap-d-ii
p508
sg22
Vmiss louise shouldnt be inconvenienced if looking to adopt a prominent position. mr moondance might not benefit from being ridden as far back as usual for all the gallop is likely to be a reasonable one.
p509
ssI1545423300
(dp510
g2
(lp511
(dp512
g5
F12.0
sg6
I0
sg7
Vmaiden navigator
p513
sg9
I0
sa(dp514
g5
F5.5
sg6
I0
sg7
Vessenza
p515
sg9
I0
sa(dp516
g5
F29.0
sg6
I0
sg7
Vreasoned
p517
sg9
I0
sa(dp518
g5
F67.0
sg6
I0
sg7
Vsecret magic
p519
sg9
I0
sa(dp520
g5
F21.0
sg6
I0
sg7
Vamor kethley
p521
sg9
I0
sa(dp522
g5
F7.0
sg6
I0
sg7
Vinvincibella
p523
sg9
I0
sa(dp524
g5
F3.75
sg6
I3
sg7
Valeeka
p525
sg9
I0
sa(dp526
g5
F5.0
sg6
I2
sg7
Vvery dainty
p527
sg9
I0
sa(dp528
g5
F7.5
sg6
I1
sg7
Vremembering you
p529
sg9
I0
sa(dp530
g5
F101.0
sg6
I0
sg7
Vcala sveva
p531
sg9
I0
sa(dp532
g5
F101.0
sg6
I0
sg7
Vtintern spirit
p533
sg9
I0
sasg20
Vhttps://www.racinguk.com/racecards/wolverhampton/204736-ladbrokes-fillies-novice-auction-stakes-5
p534
sg22
g73
ssI1545396300
(dp535
g2
(lp536
(dp537
g5
F151.0
sg6
I0
sg7
Vdrama king
p538
sg9
I0
sa(dp539
g5
F201.0
sg6
I0
sg7
Vhigh up in the air
p540
sg9
I0
sa(dp541
g5
F4.5
sg6
I1
sg7
Vigor
p542
sg9
I0
sa(dp543
g5
F67.0
sg6
I0
sg7
Vdarksideoftarnside
p544
sg9
I0
sa(dp545
g5
F13.0
sg6
I0
sg7
Vlarkbarrow lad
p546
sg9
I0
sa(dp547
g5
F41.0
sg6
I0
sg7
Vreve
p548
sg9
I0
sa(dp549
g5
F7.5
sg6
I3
sg7
Vsouthern sam
p550
sg9
I0
sa(dp551
g5
F1.73
sg6
I2
sg7
Vgallahers cross
p552
sg9
I0
sa(dp553
g5
F67.0
sg6
I0
sg7
Vmanofthemoment
p554
sg9
I0
sa(dp555
g5
F101.0
sg6
I0
sg7
Valkopop
p556
sg9
I0
sa(dp557
g5
F251.0
sg6
I0
sg7
Vel hageb rose
p558
sg9
I0
sa(dp559
g5
F15.0
sg6
I0
sg7
Vask dillon
p560
sg9
I0
sasg20
Vhttps://www.racinguk.com/racecards/ascot/204718-eventmasters-co-uk-maiden-hurdle-3
p561
sg22
g73
ssI1545425100
(dp562
g2
(lp563
(dp564
g5
F126.0
sg6
I0
sg7
Vdancing jaquetta
p565
sg9
I0
sa(dp566
g5
F29.0
sg6
I0
sg7
Vhooflepuff
p567
sg9
I0
sa(dp568
g5
F4.5
sg6
I3
sg7
Vglorious emaraty
p569
sg9
I0
sa(dp570
g5
F19.0
sg6
I0
sg7
Vwar and glory
p571
sg9
I0
sa(dp572
g5
F81.0
sg6
I0
sg7
Vmaktay
p573
sg9
I0
sa(dp574
g5
F15.0
sg6
I0
sg7
Vjailbreak
p575
sg9
I0
sa(dp576
g5
F2.75
sg6
I1
sg7
Vmolaaheth
p577
sg9
I0
sa(dp578
g5
F3.25
sg6
I2
sg7
Vevasive power
p579
sg9
I0
sa(dp580
g5
F51.0
sg6
I0
sg7
Vdistant mirage
p581
sg9
I0
sa(dp582
g5
F81.0
sg6
I0
sg7
Vkyllachy warrior
p583
sg9
I0
sasg20
Vhttps://www.racinguk.com/racecards/wolverhampton/205021-ladbrokes-home-of-the-odds-boost-novice-stakes-5
p584
sg22
Va decent pace still shouldnt detract from the chances of those who race on or near the front end such as scorched breath. benny and the jets might not benefit from being ridden as far back as usual for all the gallop is likely to be a reasonable one.
p585
ssI1545406800
(dp586
g2
(lp587
(dp588
g5
F67.0
sg6
I0
sg7
Vgolden taipan
p589
sg9
I0
sa(dp590
g5
F10.0
sg6
I0
sg7
Veden du houx
p591
sg9
I0
sa(dp592
g5
F11.0
sg6
I0
sg7
Veason
p593
sg9
I0
sa(dp594
g5
F10.0
sg6
I0
sg7
Vthose tiger feet
p595
sg9
I0
sa(dp596
g5
F21.0
sg6
I0
sg7
Vchapmanshype
p597
sg9
I0
sa(dp598
g5
F15.0
sg6
I0
sg7
Venrilo
p599
sg9
I1
sa(dp600
g5
F9.0
sg6
I2
sg7
Vthor de cerisy
p601
sg9
I1
sa(dp602
g5
F4.5
sg6
I3
sg7
Vhazzaar
p603
sg9
I0
sa(dp604
g5
F41.0
sg6
I0
sg7
Vmontego grey
p605
sg9
I0
sa(dp606
g5
F9.0
sg6
I0
sg7
Vimperial alcazar
p607
sg9
I0
sa(dp608
g5
F4.33
sg6
I1
sg7
Vthe glancing queen
p609
sg9
I0
sasg20
Vhttps://www.racinguk.com/racecards/ascot/204723-st-andrews-holdings-championship-standard-open-national-hunt-flat-listed-1
p610
sg22
Vthor de cerisy might not get things all its own way near the head of affairs but shouldnt be held back by that alone. the forecast decent pace still isnt likely to sway the advantage towards those usually ridden further back such as is enrilo.
p611
ssI1545399000
(dp612
g2
(lp613
(dp614
g5
F34.0
sg6
I0
sg7
Vmr wing
p615
sg9
I0
sa(dp616
g5
F4.5
sg6
I3
sg7
Vmusbaq
p617
sg9
I0
sa(dp618
g5
F17.0
sg6
I0
sg7
Vyuppy love
p619
sg9
I0
sa(dp620
g5
F6.5
sg6
I1
sg7
Vitsupforgrabsnow
p621
sg9
I1
sa(dp622
g5
F34.0
sg6
I0
sg7
Vastrojewel
p623
sg9
I0
sa(dp624
g5
F6.5
sg6
I2
sg7
Vmakofitwhatyouwill
p625
sg9
I0
sa(dp626
g5
F8.0
sg6
I0
sg7
Vfoxrush take time
p627
sg9
I0
sa(dp628
g5
F7.0
sg6
I0
sg7
Vbenaras
p629
sg9
I0
sa(dp630
g5
F6.0
sg6
I0
sg7
Vsunnyside lady
p631
sg9
I1
sa(dp632
g5
F17.0
sg6
I0
sg7
Vlast glance
p633
sg9
I1
sasg20
Vhttps://www.racinguk.com/racecards/southwell/204742-follow-top-tipsters-at-sun-racing-handicap-6-d-ii
p634
sg22
Vlast glance could be expected to race prominently.  of those in the front half of the betting forecast, itsupforgrabsnow might be well positioned in a slowly run affair. of the better-fancied horses, sunnyside lady is most likely to be ridden furthest from the pace.
p635
ssI1545416100
(dp636
g2
(lp637
(dp638
g5
F11.0
sg6
I0
sg7
Vlollys dream
p639
sg9
I0
sa(dp640
g5
F8.5
sg6
I2
sg7
Viley boy
p641
sg9
I0
sa(dp642
g5
F4.5
sg6
I0
sg7
Vsheldon cooper
p643
sg9
I1
sa(dp644
g5
F101.0
sg6
I0
sg7
Vspring dixie
p645
sg9
I0
sa(dp646
g5
F10.0
sg6
I1
sg7
Vred miracle
p647
sg9
I0
sa(dp648
g5
F101.0
sg6
I0
sg7
Vmuraaqeb
p649
sg9
I0
sa(dp650
g5
F7.5
sg6
I3
sg7
Vcosmogyral
p651
sg9
I1
sa(dp652
g5
F8.5
sg6
I0
sg7
Vlamb chop
p653
sg9
I0
sa(dp654
g5
F8.5
sg6
I0
sg7
Vapex predator
p655
sg9
I0
sa(dp656
g5
F13.0
sg6
I0
sg7
Vmarshall aid
p657
sg9
I0
sa(dp658
g5
F41.0
sg6
I0
sg7
Vsilvington
p659
sg9
I0
sa(dp660
g5
F8.0
sg6
I0
sg7
Vwarofindependence
p661
sg9
I0
sasg20
Vhttps://www.racinguk.com/racecards/wolverhampton/204728-play-4toscore-at-betway-handicap-6-d-ii
p662
sg22
Va decent pace still shouldnt detract from the chances of those who race on or near the front end such as cosmogyral. sheldon cooper might not benefit from being ridden as far back as usual for all the gallop is likely to be a reasonable one.
p663
ssI1545399900
(dp664
g2
(lp665
(dp666
g5
F19.0
sg6
I0
sg7
Vreckless behavior
p667
sg9
I1
sa(dp668
g5
F41.0
sg6
I0
sg7
Vagainn dul aghaidh
p669
sg9
I0
sa(dp670
g5
F13.0
sg6
I0
sg7
Vsuper sid
p671
sg9
I0
sa(dp672
g5
F29.0
sg6
I0
sg7
Vaengus
p673
sg9
I0
sa(dp674
g5
F10.0
sg6
I2
sg7
Vshrewd tactics
p675
sg9
I0
sa(dp676
g5
F17.0
sg6
I0
sg7
Vmaguires glen
p677
sg9
I0
sa(dp678
g5
F1.83
sg6
I1
sg7
Vblakerigg
p679
sg9
I0
sa(dp680
g5
F4.5
sg6
I3
sg7
Vtruckers highway
p681
sg9
I1
sasg20
Vhttps://www.racinguk.com/racecards/uttoxeter/204731-signs-2000-handicap-chase-4
p682
sg22
Vin a race that lacks confirmed pace-forcers, truckers highway could get the run of things. of the better-fancied horses, reckless behavior is most likely to be ridden furthest from the pace.
p683
ssI1545391200
(dp684
g2
(lp685
(dp686
g5
F4.33
sg6
I3
sg7
Vholiday magic
p687
sg9
I1
sa(dp688
g5
F23.0
sg6
I0
sg7
Veponina
p689
sg9
I0
sa(dp690
g5
F34.0
sg6
I0
sg7
Valba del sole
p691
sg9
I0
sa(dp692
g5
F67.0
sg6
I0
sg7
Vtavener
p693
sg9
I0
sa(dp694
g5
F5.5
sg6
I0
sg7
Vthechildrenstrust
p695
sg9
I0
sa(dp696
g5
F17.0
sg6
I0
sg7
Vbold spirit
p697
sg9
I0
sa(dp698
g5
F17.0
sg6
I0
sg7
Vdream mount
p699
sg9
I0
sa(dp700
g5
F15.0
sg6
I0
sg7
Vair of york
p701
sg9
I0
sa(dp702
g5
F26.0
sg6
I0
sg7
Vhelen sherbet
p703
sg9
I0
sa(dp704
g5
F7.5
sg6
I1
sg7
Vrobero
p705
sg9
I1
sa(dp706
g5
F4.0
sg6
I2
sg7
Vmotajaasid
p707
sg9
I0
sa(dp708
g5
F51.0
sg6
I0
sg7
Vgabrial the tiger
p709
sg9
I0
sasg20
Vhttps://www.racinguk.com/racecards/southwell/204738-sunracing-co-uk-handicap-5
p710
sg22
Vof those forecasted with a better chance, robero could be most vulnerable in a race in which competition for the lead looks to be fierce. a proliferation of possible pace-forcers could set things up for those coming from further back.  holiday magic is one who may benefit.
p711
ssI1545411600
(dp712
g2
(lp713
(dp714
g5
F13.0
sg6
I0
sg7
Vmokhalad
p715
sg9
I0
sa(dp716
g5
F67.0
sg6
I0
sg7
Vtake shelter
p717
sg9
I0
sa(dp718
g5
F15.0
sg6
I0
sg7
Veacharn
p719
sg9
I0
sa(dp720
g5
F15.0
sg6
I0
sg7
Vred avenger
p721
sg9
I1
sa(dp722
g5
F9.0
sg6
I0
sg7
Vishebayorgrey
p723
sg9
I0
sa(dp724
g5
F6.5
sg6
I0
sg7
Vahundrednotout
p725
sg9
I1
sa(dp726
g5
F41.0
sg6
I0
sg7
Vhee haw
p727
sg9
I0
sa(dp728
g5
F17.0
sg6
I0
sg7
Vpolly douglas
p729
sg9
I0
sa(dp730
g5
F17.0
sg6
I0
sg7
Vsilk cravat
p731
sg9
I0
sa(dp732
g5
F15.0
sg6
I0
sg7
Vpulsating
p733
sg9
I0
sa(dp734
g5
F41.0
sg6
I0
sg7
Vrego park lady
p735
sg9
I0
sa(dp736
g5
F5.5
sg6
I3
sg7
Vconfrontational
p737
sg9
I1
sa(dp738
g5
F8.5
sg6
I2
sg7
Vdandys gold
p739
sg9
I1
sa(dp740
g5
F7.0
sg6
I1
sg7
Vahlan bil zain
p741
sg9
I0
sasg20
Vhttps://www.racinguk.com/racecards/dundalk-ireland/204776-crowne-plaza-hotel-race-stay-handicap
p742
sg22
Vof those forecasted with a better chance, ahundrednotout and dandys gold could be the most susceptible in a race in which competition for the lead looks plentiful. such a hotly-contested pace as is on the cards here may be to the benefit of red avenger and confrontational who can be expected to be ridden with restraint.
p743
ssI1545393000
(dp744
g2
(lp745
(dp746
g5
F6.0
sg6
I2
sg7
Vcrindle carr
p747
sg9
I0
sa(dp748
g5
F5.0
sg6
I1
sg7
Vdeep resolve
p749
sg9
I0
sa(dp750
g5
F6.5
sg6
I0
sg7
Vplanetoid
p751
sg9
I1
sa(dp752
g5
F17.0
sg6
I0
sg7
Vfoxy lass
p753
sg9
I1
sa(dp754
g5
F15.0
sg6
I0
sg7
Vedgar
p755
sg9
I0
sa(dp756
g5
F9.0
sg6
I0
sg7
Vsincerely resdev
p757
sg9
I0
sa(dp758
g5
F15.0
sg6
I0
sg7
Vsiyahamba
p759
sg9
I1
sa(dp760
g5
F5.5
sg6
I0
sg7
Vmiskin
p761
sg9
I0
sa(dp762
g5
F26.0
sg6
I0
sg7
Viconic boy
p763
sg9
I0
sa(dp764
g5
F17.0
sg6
I3
sg7
Vconstituent
p765
sg9
I0
sasg20
Vhttps://www.racinguk.com/racecards/southwell/204739-betway-stayers-selling-handicap-6
p766
sg22
Vfoxy lass could be expected to race prominently.  of those in the front half of the betting forecast, siyahamba might be well positioned in a slowly run affair. of the better-fancied horses, planetoid is most likely to be ridden furthest from the pace.
p767
ssI1545393900
(dp768
g2
(lp769
(dp770
g5
F11.0
sg6
I0
sg7
Vrasasee
p771
sg9
I0
sa(dp772
g5
F19.0
sg6
I0
sg7
Vblue rhythm
p773
sg9
I0
sa(dp774
g5
F2.38
sg6
I1
sg7
Vmazalto
p775
sg9
I0
sa(dp776
g5
F26.0
sg6
I0
sg7
Vmollyow
p777
sg9
I0
sa(dp778
g5
F34.0
sg6
I0
sg7
Vhelamis
p779
sg9
I0
sa(dp780
g5
F6.0
sg6
I2
sg7
Vdelface
p781
sg9
I0
sa(dp782
g5
F17.0
sg6
I3
sg7
Vour delboy
p783
sg9
I1
sa(dp784
g5
F4.5
sg6
I0
sg7
Vfield exhibition
p785
sg9
I1
sa(dp786
g5
F19.0
sg6
I0
sg7
Vtara well
p787
sg9
I0
sasg20
Vhttps://www.racinguk.com/racecards/uttoxeter/204724-csj-construction-hands-and-heels-handicap-hurdle-conditional-jockeys-and-amateur-riders-5
p788
sg22
Vour delboy might not get things all its own way near the head of affairs but shouldnt be held back by that alone. despite a suspicion the pace will be sound, those held up such as field exhibition usually is are still likely to have their work cut out.
p789
ssI1545394800
(dp790
g2
(lp791
(dp792
g5
F13.0
sg6
I0
sg7
Vborn to reason
p793
sg9
I0
sa(dp794
g5
F3.25
sg6
I1
sg7
Vside effect
p795
sg9
I0
sa(dp796
g5
F5.0
sg6
I3
sg7
Vdejan
p797
sg9
I0
sa(dp798
g5
F2.63
sg6
I2
sg7
Vmans not trot
p799
sg9
I1
sa(dp800
g5
F12.0
sg6
I0
sg7
Vcount montecristo
p801
sg9
I0
sasg20
Vhttps://www.racinguk.com/racecards/southwell/204740-follow-top-tipster-templegate-at-sun-racing-handicap-6
p802
sg22
Vmans not trot could be advantaged by a prominent position which looks likely in this field.
p803
ssI1545417000
(dp804
g2
(lp805
(dp806
g5
F6.5
sg6
I3
sg7
Vthe game of life
p807
sg9
I0
sa(dp808
g5
F34.0
sg6
I0
sg7
Vcrest of a wave
p809
sg9
I0
sa(dp810
g5
F81.0
sg6
I0
sg7
Vport vauban
p811
sg9
I0
sa(dp812
g5
F8.0
sg6
I0
sg7
Vmay peace prevail
p813
sg9
I0
sa(dp814
g5
F51.0
sg6
I0
sg7
Vcartoon hero
p815
sg9
I0
sa(dp816
g5
F9.0
sg6
I0
sg7
Vlappet
p817
sg9
I0
sa(dp818
g5
F4.33
sg6
I2
sg7
Vstranagone
p819
sg9
I0
sa(dp820
g5
F4.5
sg6
I1
sg7
Vmake a challenge
p821
sg9
I0
sa(dp822
g5
F6.0
sg6
I0
sg7
Vking of leinster
p823
sg9
I0
sa(dp824
g5
F101.0
sg6
I0
sg7
Veffernock fizz
p825
sg9
I0
sa(dp826
g5
F41.0
sg6
I0
sg7
Vwatchman
p827
sg9
I0
sa(dp828
g5
F201.0
sg6
I0
sg7
Vkris black
p829
sg9
I0
sa(dp830
g5
F15.0
sg6
I0
sg7
Vroman warrior
p831
sg9
I0
sa(dp832
g5
F67.0
sg6
I0
sg7
Vingelara
p833
sg9
I0
sasg20
Vhttps://www.racinguk.com/racecards/dundalk-ireland/204779-crowne-plaza-race-stay-maiden
p834
sg22
g73
ssI1545395700
(dp835
g2
(lp836
(dp837
g5
F101.0
sg6
I0
sg7
Vmy turgeon
p838
sg9
I0
sa(dp839
g5
F21.0
sg6
I0
sg7
Vthe bunnyman
p840
sg9
I0
sa(dp841
g5
F51.0
sg6
I0
sg7
Veyreshill
p842
sg9
I0
sa(dp843
g5
F151.0
sg6
I0
sg7
Vcavalry scout
p844
sg9
I0
sa(dp845
g5
F34.0
sg6
I0
sg7
Vmayohill
p846
sg9
I1
sa(dp847
g5
F5.5
sg6
I1
sg7
Vbbold
p848
sg9
I0
sa(dp849
g5
F26.0
sg6
I0
sg7
Vjotem down
p850
sg9
I0
sa(dp851
g5
F34.0
sg6
I0
sg7
Vcodeshare
p852
sg9
I0
sa(dp853
g5
F6.5
sg6
I3
sg7
Vliosduin bhearna
p854
sg9
I0
sa(dp855
g5
F3.0
sg6
I2
sg7
Vcaptain drake
p856
sg9
I0
sa(dp857
g5
F15.0
sg6
I0
sg7
Vgolden sovereign
p858
sg9
I0
sa(dp859
g5
F13.0
sg6
I0
sg7
Vpink legend
p860
sg9
I0
sa(dp861
g5
F13.0
sg6
I0
sg7
Vchuffy chuffnell
p862
sg9
I0
sa(dp863
g5
F8.0
sg6
I0
sg7
Vsudden destination
p864
sg9
I1
sasg20
Vhttps://www.racinguk.com/racecards/uttoxeter/204727-richard-winterton-auctioneers-maiden-hurdle-5
p865
sg22
Vthe pace doesnt look like being overly strong here and mayohill should still be served best by being ridden prominently. despite a suspicion the pace will be sound, those held up such as sudden destination usually is are still likely to have their work cut out.
p866
ssI1545406200
(dp867
g2
(lp868
(dp869
g5
F13.0
sg6
I3
sg7
Vdon juan du gouet
p870
sg9
I0
sa(dp871
g5
F8.0
sg6
I0
sg7
Vfarrants way
p872
sg9
I0
sa(dp873
g5
F8.0
sg6
I2
sg7
Vsuper mac
p874
sg9
I0
sa(dp875
g5
F1.62
sg6
I1
sg7
Vking roland
p876
sg9
I0
sa(dp877
g5
F11.0
sg6
I0
sg7
Vstung for cash
p878
sg9
I0
sa(dp879
g5
F51.0
sg6
I0
sg7
Vslaine
p880
sg9
I0
sa(dp881
g5
F51.0
sg6
I0
sg7
Vmy foxy lady
p882
sg9
I0
sa(dp883
g5
F26.0
sg6
I0
sg7
Vikeja
p884
sg9
I0
sa(dp885
g5
F151.0
sg6
I0
sg7
Vwatar allstar
p886
sg9
I0
sasg20
Vhttps://www.racinguk.com/racecards/uttoxeter/204737-create-finance-invitational-standard-open-national-hunt-flat-5
p887
sg22
g73
ssI1545419700
(dp888
g2
(lp889
(dp890
g5
F34.0
sg6
I0
sg7
Vwhispering soul
p891
sg9
I0
sa(dp892
g5
F10.0
sg6
I0
sg7
Vlittle miss lola
p893
sg9
I0
sa(dp894
g5
F4.0
sg6
I1
sg7
Vred stripes
p895
sg9
I1
sa(dp896
g5
F12.0
sg6
I0
sg7
Vdalness express
p897
sg9
I1
sa(dp898
g5
F34.0
sg6
I0
sg7
Vcrikeyitswhykie
p899
sg9
I0
sa(dp900
g5
F10.0
sg6
I0
sg7
Vshesthedream
p901
sg9
I0
sa(dp902
g5
F5.0
sg6
I2
sg7
Vstorm trooper
p903
sg9
I0
sa(dp904
g5
F67.0
sg6
I0
sg7
Vmysterious glance
p905
sg9
I0
sa(dp906
g5
F4.5
sg6
I3
sg7
Valaskan bay
p907
sg9
I0
sa(dp908
g5
F13.0
sg6
I0
sg7
Vstorm lightning
p909
sg9
I0
sa(dp910
g5
F23.0
sg6
I0
sg7
Vteepee time
p911
sg9
I0
sasg20
Vhttps://www.racinguk.com/racecards/wolverhampton/204732-betway-casino-handicap-6
p912
sg22
Vof those forecasted with a better chance, red stripes could be most vulnerable in a race in which competition for the lead looks to be fierce. a proliferation of possible pace-forcers could set things up for those coming from further back.  dalness express is one who may benefit.
p913
ssI1545402600
(dp914
g2
(lp915
(dp916
g5
F13.0
sg6
I0
sg7
Vjerrysback
p917
sg9
I0
sa(dp918
g5
F5.0
sg6
I3
sg7
Vlil rockerfeller
p919
sg9
I0
sa(dp920
g5
F1.67
sg6
I1
sg7
Vvinndication
p921
sg9
I1
sa(dp922
g5
F6.0
sg6
I2
sg7
Vcount meribel
p923
sg9
I1
sasg20
Vhttps://www.racinguk.com/racecards/ascot/204721-noel-novices-chase-grade-2-1
p924
sg22
Vin a race that lacks confirmed pace-forcers, vinndication could get the run of things. of the better-fancied horses, count meribel is most likely to be ridden furthest from the pace.
p925
ss.